Certificate:
    Data:
        Version: 1 (0x0)
        Serial Number:
            9b:27:d7:e8:d1:ba:07:d8
        Signature Algorithm: md5WithRSAEncryption
        Issuer: C=DE, ST=Saarland, O=MPI-SWS, OU=Distributed Systems Group, CN=Andreas Haeberlen/emailAddress=democa@octarine.de
        Validity
            Not Before: Apr 20 20:46:57 2015 GMT
            Not After : Apr 19 20:46:57 2016 GMT
        Subject: C=DE, ST=Saarland, O=MPI-SWS, OU=Distributed Systems Group, CN=Andreas Haeberlen/emailAddress=democa@octarine.de
        Subject Public Key Info:
            Public Key Algorithm: rsaEncryption
            RSA Public Key: (1024 bit)
                Modulus (1024 bit):
                    00:ce:0c:96:b1:f3:b7:62:08:c2:6c:f1:9b:9c:f1:
                    28:3b:a6:f9:87:50:b7:06:1a:ed:b5:f6:59:4a:73:
                    c3:29:4a:14:08:32:3d:95:b5:23:4a:7c:fc:74:5e:
                    8f:34:58:61:af:bd:64:e5:3c:56:7d:91:83:81:a5:
                    24:af:2a:9b:03:9d:fc:91:49:e4:98:ce:9e:b1:dd:
                    54:00:dd:b8:2c:68:3d:07:51:45:37:1e:58:6c:69:
                    45:d1:0a:31:33:31:b6:0b:f3:a2:ee:4b:72:03:69:
                    92:57:8d:45:7c:d5:fb:9b:6a:aa:a5:20:8d:63:08:
                    7f:83:df:54:68:5f:9d:ec:b5
                Exponent: 65537 (0x10001)
    Signature Algorithm: md5WithRSAEncryption
        11:00:ff:8e:9c:e4:99:a1:cb:b8:41:c9:b6:45:18:5f:de:b2:
        3f:3b:93:ce:87:62:55:e9:da:3f:cd:3c:fc:66:24:81:4c:3a:
        57:54:7d:77:97:18:b9:6a:01:c8:70:aa:44:f4:83:2e:fb:9d:
        6a:4f:5a:18:fb:1e:07:e3:ce:3c:c4:3f:ae:16:90:64:76:13:
        2d:51:59:f4:76:74:a3:ef:5e:9c:e5:3d:c9:29:80:80:6b:fd:
        8f:76:b3:ba:a2:8b:fc:1b:4a:7d:56:e3:78:e7:21:a5:9d:06:
        8b:3e:fe:23:77:0b:ab:65:3e:b7:e1:f6:61:1d:ed:3b:60:b3:
        22:2d
-----BEGIN CERTIFICATE-----
MIICozCCAgwCCQCbJ9fo0boH2DANBgkqhkiG9w0BAQQFADCBlTELMAkGA1UEBhMC
REUxETAPBgNVBAgTCFNhYXJsYW5kMRAwDgYDVQQKEwdNUEktU1dTMSIwIAYDVQQL
ExlEaXN0cmlidXRlZCBTeXN0ZW1zIEdyb3VwMRowGAYDVQQDExFBbmRyZWFzIEhh
ZWJlcmxlbjEhMB8GCSqGSIb3DQEJARYSZGVtb2NhQG9jdGFyaW5lLmRlMB4XDTE1
MDQyMDIwNDY1N1oXDTE2MDQxOTIwNDY1N1owgZUxCzAJBgNVBAYTAkRFMREwDwYD
VQQIEwhTYWFybGFuZDEQMA4GA1UEChMHTVBJLVNXUzEiMCAGA1UECxMZRGlzdHJp
YnV0ZWQgU3lzdGVtcyBHcm91cDEaMBgGA1UEAxMRQW5kcmVhcyBIYWViZXJsZW4x
ITAfBgkqhkiG9w0BCQEWEmRlbW9jYUBvY3RhcmluZS5kZTCBnzANBgkqhkiG9w0B
AQEFAAOBjQAwgYkCgYEAzgyWsfO3YgjCbPGbnPEoO6b5h1C3BhrttfZZSnPDKUoU
CDI9lbUjSnz8dF6PNFhhr71k5TxWfZGDgaUkryqbA538kUnkmM6esd1UAN24LGg9
B1FFNx5YbGlF0QoxMzG2C/Oi7ktyA2mSV41FfNX7m2qqpSCNYwh/g99UaF+d7LUC
AwEAATANBgkqhkiG9w0BAQQFAAOBgQARAP+OnOSZocu4Qcm2RRhf3rI/O5POh2JV
6do/zTz8ZiSBTDpXVH13lxi5agHIcKpE9IMu+51qT1oY+x4H4848xD+uFpBkdhMt
UVn0dnSj716c5T3JKYCAa/2PdrO6oov8G0p9VuN45yGlnQaLPv4jdwurZT634fZh
He07YLMiLQ==
-----END CERTIFICATE-----
