Certificate:
    Data:
        Version: 1 (0x0)
        Serial Number:
            9b:27:d7:e8:d1:ba:0a:e2
        Signature Algorithm: md5WithRSAEncryption
        Issuer: C=DE, ST=Saarland, O=MPI-SWS, OU=Distributed Systems Group, CN=Andreas Haeberlen/emailAddress=democa@octarine.de
        Validity
            Not Before: Apr 20 20:47:31 2015 GMT
            Not After : Apr 19 20:47:31 2016 GMT
        Subject: C=DE, ST=Saarland, O=MPI-SWS, OU=Distributed Systems Group, CN=47ca72023f707d4e5f202d5bdcd60b3530fb2fd6/emailAddress=node0778@octarine.de
        Subject Public Key Info:
            Public Key Algorithm: rsaEncryption
            RSA Public Key: (1024 bit)
                Modulus (1024 bit):
                    00:d5:dd:f6:63:63:6c:98:b2:72:4a:0d:30:2d:9e:
                    eb:91:d3:c6:9b:03:61:56:9b:93:f5:69:b8:24:ea:
                    e1:4e:c1:c6:e7:ae:37:53:56:76:61:1b:39:38:7d:
                    c3:d6:3e:b3:db:63:7f:e3:36:a6:ef:e3:b1:1a:b6:
                    41:a0:8f:d7:0e:fc:ec:2d:26:94:12:bf:62:b7:76:
                    95:b5:40:16:c8:65:86:b4:fd:13:db:21:43:8f:6d:
                    b1:ef:56:7b:87:4e:23:99:9b:f9:3e:36:85:87:58:
                    b1:61:b6:74:47:01:80:81:12:b4:28:13:49:aa:46:
                    9c:d2:39:8f:2a:4a:70:f4:c5
                Exponent: 65537 (0x10001)
    Signature Algorithm: md5WithRSAEncryption
        0e:ad:ad:53:0c:7c:b1:f9:79:70:9a:e3:7a:13:12:2f:60:89:
        2e:b9:af:d2:ae:79:04:d5:ab:99:e3:40:6f:10:31:46:78:a4:
        8a:18:b1:b6:6c:28:4d:28:3f:8f:41:3a:c6:ec:88:07:d7:dc:
        af:f0:c4:6d:4b:78:89:86:c1:ff:e1:eb:df:6c:9c:9e:75:a3:
        1f:cc:cb:67:08:1e:95:e7:71:64:fa:0d:77:cf:ab:33:91:6a:
        c6:56:bc:92:f6:c9:6b:e3:a0:d5:cd:66:85:b6:23:70:19:21:
        d4:1e:95:a5:b0:da:13:a8:d4:bf:c6:bb:be:6e:70:c6:df:65:
        5c:7d
-----BEGIN CERTIFICATE-----
MIICvDCCAiUCCQCbJ9fo0boK4jANBgkqhkiG9w0BAQQFADCBlTELMAkGA1UEBhMC
REUxETAPBgNVBAgTCFNhYXJsYW5kMRAwDgYDVQQKEwdNUEktU1dTMSIwIAYDVQQL
ExlEaXN0cmlidXRlZCBTeXN0ZW1zIEdyb3VwMRowGAYDVQQDExFBbmRyZWFzIEhh
ZWJlcmxlbjEhMB8GCSqGSIb3DQEJARYSZGVtb2NhQG9jdGFyaW5lLmRlMB4XDTE1
MDQyMDIwNDczMVoXDTE2MDQxOTIwNDczMVowga4xCzAJBgNVBAYTAkRFMREwDwYD
VQQIEwhTYWFybGFuZDEQMA4GA1UEChMHTVBJLVNXUzEiMCAGA1UECxMZRGlzdHJp
YnV0ZWQgU3lzdGVtcyBHcm91cDExMC8GA1UEAxMoNDdjYTcyMDIzZjcwN2Q0ZTVm
MjAyZDViZGNkNjBiMzUzMGZiMmZkNjEjMCEGCSqGSIb3DQEJARYUbm9kZTA3NzhA
b2N0YXJpbmUuZGUwgZ8wDQYJKoZIhvcNAQEBBQADgY0AMIGJAoGBANXd9mNjbJiy
ckoNMC2e65HTxpsDYVabk/VpuCTq4U7BxueuN1NWdmEbOTh9w9Y+s9tjf+M2pu/j
sRq2QaCP1w787C0mlBK/Yrd2lbVAFshlhrT9E9shQ49tse9We4dOI5mb+T42hYdY
sWG2dEcBgIEStCgTSapGnNI5jypKcPTFAgMBAAEwDQYJKoZIhvcNAQEEBQADgYEA
Dq2tUwx8sfl5cJrjehMSL2CJLrmv0q55BNWrmeNAbxAxRnikihixtmwoTSg/j0E6
xuyIB9fcr/DEbUt4iYbB/+Hr32ycnnWjH8zLZwgeledxZPoNd8+rM5Fqxla8kvbJ
a+Og1c1mhbYjcBkh1B6VpbDaE6jUv8a7vm5wxt9lXH0=
-----END CERTIFICATE-----
