Certificate:
    Data:
        Version: 1 (0x0)
        Serial Number:
            9b:27:d7:e8:d1:ba:0b:51
        Signature Algorithm: md5WithRSAEncryption
        Issuer: C=DE, ST=Saarland, O=MPI-SWS, OU=Distributed Systems Group, CN=Andreas Haeberlen/emailAddress=democa@octarine.de
        Validity
            Not Before: Apr 20 20:47:36 2015 GMT
            Not After : Apr 19 20:47:36 2016 GMT
        Subject: C=DE, ST=Saarland, O=MPI-SWS, OU=Distributed Systems Group, CN=d265b4ae9f9a368f99118348f9fc59e3b4968352/emailAddress=node0889@octarine.de
        Subject Public Key Info:
            Public Key Algorithm: rsaEncryption
            RSA Public Key: (1024 bit)
                Modulus (1024 bit):
                    00:c3:dd:ff:0c:3a:72:26:0d:83:33:dc:90:f0:52:
                    d2:34:2b:02:a8:27:2b:cb:39:05:52:81:8d:65:c4:
                    79:fd:61:32:9b:6c:8f:31:48:e5:59:2c:15:1e:9e:
                    fc:bc:93:66:22:28:e3:ef:27:47:92:7f:69:2a:07:
                    0b:4d:8b:ba:3d:ef:6c:ab:52:4a:b8:79:a3:09:5b:
                    6b:93:db:12:ef:81:b6:48:18:58:98:89:9c:52:c6:
                    22:36:f8:68:e7:c5:b6:01:26:73:99:f4:33:ce:6f:
                    2a:9d:36:56:1d:3d:62:5a:7e:24:8b:4c:a3:08:ec:
                    99:ca:45:ee:de:70:9a:10:af
                Exponent: 65537 (0x10001)
    Signature Algorithm: md5WithRSAEncryption
        a3:dd:2b:2e:96:c4:f3:6a:be:a3:37:d1:f9:70:ca:84:e5:24:
        b3:47:9a:a9:ad:8c:08:d1:df:ce:86:ed:4d:f6:30:a6:ad:36:
        d0:a6:8b:1e:ce:76:ca:56:13:28:a3:35:19:3f:62:7f:df:84:
        04:b0:c2:1a:51:8e:a4:b4:56:f7:ef:1c:28:61:a4:5f:71:4e:
        cb:f6:7a:2e:5e:de:af:5d:9d:5d:cd:ae:86:b8:ee:16:0f:da:
        cc:b0:9c:89:c1:30:5b:33:ad:1d:98:0e:5d:6d:a3:c7:ef:da:
        80:74:cc:51:95:5b:d1:71:27:68:5f:af:f4:4c:19:1c:27:75:
        68:12
-----BEGIN CERTIFICATE-----
MIICvDCCAiUCCQCbJ9fo0boLUTANBgkqhkiG9w0BAQQFADCBlTELMAkGA1UEBhMC
REUxETAPBgNVBAgTCFNhYXJsYW5kMRAwDgYDVQQKEwdNUEktU1dTMSIwIAYDVQQL
ExlEaXN0cmlidXRlZCBTeXN0ZW1zIEdyb3VwMRowGAYDVQQDExFBbmRyZWFzIEhh
ZWJlcmxlbjEhMB8GCSqGSIb3DQEJARYSZGVtb2NhQG9jdGFyaW5lLmRlMB4XDTE1
MDQyMDIwNDczNloXDTE2MDQxOTIwNDczNlowga4xCzAJBgNVBAYTAkRFMREwDwYD
VQQIEwhTYWFybGFuZDEQMA4GA1UEChMHTVBJLVNXUzEiMCAGA1UECxMZRGlzdHJp
YnV0ZWQgU3lzdGVtcyBHcm91cDExMC8GA1UEAxMoZDI2NWI0YWU5ZjlhMzY4Zjk5
MTE4MzQ4ZjlmYzU5ZTNiNDk2ODM1MjEjMCEGCSqGSIb3DQEJARYUbm9kZTA4ODlA
b2N0YXJpbmUuZGUwgZ8wDQYJKoZIhvcNAQEBBQADgY0AMIGJAoGBAMPd/ww6ciYN
gzPckPBS0jQrAqgnK8s5BVKBjWXEef1hMptsjzFI5VksFR6e/LyTZiIo4+8nR5J/
aSoHC02Luj3vbKtSSrh5owlba5PbEu+BtkgYWJiJnFLGIjb4aOfFtgEmc5n0M85v
Kp02Vh09Ylp+JItMowjsmcpF7t5wmhCvAgMBAAEwDQYJKoZIhvcNAQEEBQADgYEA
o90rLpbE82q+ozfR+XDKhOUks0eaqa2MCNHfzobtTfYwpq020KaLHs52ylYTKKM1
GT9if9+EBLDCGlGOpLRW9+8cKGGkX3FOy/Z6Ll7er12dXc2uhrjuFg/azLCcicEw
WzOtHZgOXW2jx+/agHTMUZVb0XEnaF+v9EwZHCd1aBI=
-----END CERTIFICATE-----
