Certificate:
    Data:
        Version: 1 (0x0)
        Serial Number:
            9b:27:d7:e8:d1:ba:09:a7
        Signature Algorithm: md5WithRSAEncryption
        Issuer: C=DE, ST=Saarland, O=MPI-SWS, OU=Distributed Systems Group, CN=Andreas Haeberlen/emailAddress=democa@octarine.de
        Validity
            Not Before: Apr 20 20:47:17 2015 GMT
            Not After : Apr 19 20:47:17 2016 GMT
        Subject: C=DE, ST=Saarland, O=MPI-SWS, OU=Distributed Systems Group, CN=02cf2973908ff11c07baa433ba0d34846438eac7/emailAddress=node0463@octarine.de
        Subject Public Key Info:
            Public Key Algorithm: rsaEncryption
            RSA Public Key: (1024 bit)
                Modulus (1024 bit):
                    00:a5:9e:a8:03:59:03:1a:c1:de:92:e1:d7:bd:2f:
                    52:d9:6c:4a:a6:a2:31:42:54:6b:21:4c:ad:68:b7:
                    ac:19:60:63:50:ce:58:f9:02:a7:8a:d8:97:73:a7:
                    85:f6:56:02:8e:d0:45:5d:b0:c7:4c:56:56:ad:58:
                    a1:1f:be:f4:a2:ca:05:89:3a:d1:b2:75:47:7f:70:
                    fc:06:58:e1:1b:f7:74:41:bb:6f:3d:da:45:6d:6d:
                    98:9b:4c:8f:75:47:48:a5:72:3b:df:b0:a7:57:0f:
                    6f:6c:e0:36:75:b0:19:09:47:da:96:39:6c:5e:8b:
                    96:f9:d4:9e:fa:d7:fa:b2:bf
                Exponent: 65537 (0x10001)
    Signature Algorithm: md5WithRSAEncryption
        bd:0b:b4:cb:8a:1c:d1:c5:1a:bf:6c:b3:25:cf:e6:ed:37:48:
        da:40:b5:c0:53:3c:47:1b:9f:73:c6:7e:d6:c9:d1:87:28:2f:
        bb:b3:ed:e5:59:84:b3:31:01:43:c7:41:a3:91:e3:8e:77:48:
        27:bf:8c:99:d3:1c:07:c7:52:2a:a3:f1:e9:35:30:cd:fa:3d:
        fd:14:5f:c0:7a:4f:cd:14:64:8a:15:14:3b:35:f7:0f:97:ab:
        f9:2b:90:a9:8e:b1:d1:a6:7d:f2:ae:11:29:6c:4e:c4:af:0f:
        9b:fe:8a:14:93:46:f1:9c:9f:68:39:b2:ad:91:8b:4a:69:dc:
        13:61
-----BEGIN CERTIFICATE-----
MIICvDCCAiUCCQCbJ9fo0boJpzANBgkqhkiG9w0BAQQFADCBlTELMAkGA1UEBhMC
REUxETAPBgNVBAgTCFNhYXJsYW5kMRAwDgYDVQQKEwdNUEktU1dTMSIwIAYDVQQL
ExlEaXN0cmlidXRlZCBTeXN0ZW1zIEdyb3VwMRowGAYDVQQDExFBbmRyZWFzIEhh
ZWJlcmxlbjEhMB8GCSqGSIb3DQEJARYSZGVtb2NhQG9jdGFyaW5lLmRlMB4XDTE1
MDQyMDIwNDcxN1oXDTE2MDQxOTIwNDcxN1owga4xCzAJBgNVBAYTAkRFMREwDwYD
VQQIEwhTYWFybGFuZDEQMA4GA1UEChMHTVBJLVNXUzEiMCAGA1UECxMZRGlzdHJp
YnV0ZWQgU3lzdGVtcyBHcm91cDExMC8GA1UEAxMoMDJjZjI5NzM5MDhmZjExYzA3
YmFhNDMzYmEwZDM0ODQ2NDM4ZWFjNzEjMCEGCSqGSIb3DQEJARYUbm9kZTA0NjNA
b2N0YXJpbmUuZGUwgZ8wDQYJKoZIhvcNAQEBBQADgY0AMIGJAoGBAKWeqANZAxrB
3pLh170vUtlsSqaiMUJUayFMrWi3rBlgY1DOWPkCp4rYl3OnhfZWAo7QRV2wx0xW
Vq1YoR++9KLKBYk60bJ1R39w/AZY4Rv3dEG7bz3aRW1tmJtMj3VHSKVyO9+wp1cP
b2zgNnWwGQlH2pY5bF6LlvnUnvrX+rK/AgMBAAEwDQYJKoZIhvcNAQEEBQADgYEA
vQu0y4oc0cUav2yzJc/m7TdI2kC1wFM8Rxufc8Z+1snRhygvu7Pt5VmEszEBQ8dB
o5HjjndIJ7+MmdMcB8dSKqPx6TUwzfo9/RRfwHpPzRRkihUUOzX3D5er+SuQqY6x
0aZ98q4RKWxOxK8Pm/6KFJNG8ZyfaDmyrZGLSmncE2E=
-----END CERTIFICATE-----
