Certificate:
    Data:
        Version: 1 (0x0)
        Serial Number:
            9b:27:d7:e8:d1:ba:08:18
        Signature Algorithm: md5WithRSAEncryption
        Issuer: C=DE, ST=Saarland, O=MPI-SWS, OU=Distributed Systems Group, CN=Andreas Haeberlen/emailAddress=democa@octarine.de
        Validity
            Not Before: Apr 20 20:46:59 2015 GMT
            Not After : Apr 19 20:46:59 2016 GMT
        Subject: C=DE, ST=Saarland, O=MPI-SWS, OU=Distributed Systems Group, CN=888b1ff11c2d682003d8378187629491c1dd1ce2/emailAddress=node0064@octarine.de
        Subject Public Key Info:
            Public Key Algorithm: rsaEncryption
            RSA Public Key: (1024 bit)
                Modulus (1024 bit):
                    00:ba:c4:5d:c1:25:40:72:4c:52:98:4c:c5:f3:93:
                    da:65:65:36:be:19:ac:72:d0:d5:91:7c:83:ca:0b:
                    bd:df:a7:07:64:a5:cf:75:a2:a8:d6:ab:05:85:b9:
                    cb:e8:55:79:2d:d9:70:bc:ae:2f:20:f0:e0:e8:8b:
                    3a:59:b6:6a:0e:53:67:48:a3:32:13:e2:b0:ec:0a:
                    fb:0c:b0:c4:6e:6b:5d:b3:2f:34:fe:da:25:4b:30:
                    30:44:57:e5:37:bf:f1:ff:d6:95:ed:6f:c2:63:ee:
                    45:e7:31:08:48:8c:80:7e:51:90:8e:7e:15:55:d5:
                    c9:de:12:3f:f4:e7:66:90:59
                Exponent: 65537 (0x10001)
    Signature Algorithm: md5WithRSAEncryption
        50:5a:ce:5b:50:2c:dc:f3:06:07:d1:41:d8:2e:21:3f:8b:e5:
        c6:43:e5:a6:ca:8c:86:53:41:c7:3e:96:99:79:05:27:ac:55:
        bd:cd:10:a2:38:fe:b8:1e:40:f6:db:16:4d:ab:38:7b:8c:9c:
        cf:ac:36:4b:ee:1b:1b:ee:b6:0f:4c:cf:84:ec:b1:9f:92:db:
        92:53:b7:d1:b1:cb:6c:fc:42:89:22:c2:27:9a:f3:39:7e:45:
        78:78:87:47:d7:a1:0c:f0:95:0a:8e:36:2d:b6:df:88:ea:d8:
        67:47:54:82:32:e7:fe:99:f3:d3:7d:42:05:f1:55:80:64:20:
        29:c0
-----BEGIN CERTIFICATE-----
MIICvDCCAiUCCQCbJ9fo0boIGDANBgkqhkiG9w0BAQQFADCBlTELMAkGA1UEBhMC
REUxETAPBgNVBAgTCFNhYXJsYW5kMRAwDgYDVQQKEwdNUEktU1dTMSIwIAYDVQQL
ExlEaXN0cmlidXRlZCBTeXN0ZW1zIEdyb3VwMRowGAYDVQQDExFBbmRyZWFzIEhh
ZWJlcmxlbjEhMB8GCSqGSIb3DQEJARYSZGVtb2NhQG9jdGFyaW5lLmRlMB4XDTE1
MDQyMDIwNDY1OVoXDTE2MDQxOTIwNDY1OVowga4xCzAJBgNVBAYTAkRFMREwDwYD
VQQIEwhTYWFybGFuZDEQMA4GA1UEChMHTVBJLVNXUzEiMCAGA1UECxMZRGlzdHJp
YnV0ZWQgU3lzdGVtcyBHcm91cDExMC8GA1UEAxMoODg4YjFmZjExYzJkNjgyMDAz
ZDgzNzgxODc2Mjk0OTFjMWRkMWNlMjEjMCEGCSqGSIb3DQEJARYUbm9kZTAwNjRA
b2N0YXJpbmUuZGUwgZ8wDQYJKoZIhvcNAQEBBQADgY0AMIGJAoGBALrEXcElQHJM
UphMxfOT2mVlNr4ZrHLQ1ZF8g8oLvd+nB2Slz3WiqNarBYW5y+hVeS3ZcLyuLyDw
4OiLOlm2ag5TZ0ijMhPisOwK+wywxG5rXbMvNP7aJUswMERX5Te/8f/Wle1vwmPu
RecxCEiMgH5RkI5+FVXVyd4SP/TnZpBZAgMBAAEwDQYJKoZIhvcNAQEEBQADgYEA
UFrOW1As3PMGB9FB2C4hP4vlxkPlpsqMhlNBxz6WmXkFJ6xVvc0Qojj+uB5A9tsW
Tas4e4ycz6w2S+4bG+62D0zPhOyxn5LbklO30bHLbPxCiSLCJ5rzOX5FeHiHR9eh
DPCVCo42LbbfiOrYZ0dUgjLn/pnz031CBfFVgGQgKcA=
-----END CERTIFICATE-----
