Certificate:
    Data:
        Version: 1 (0x0)
        Serial Number:
            9b:27:d7:e8:d1:ba:08:5b
        Signature Algorithm: md5WithRSAEncryption
        Issuer: C=DE, ST=Saarland, O=MPI-SWS, OU=Distributed Systems Group, CN=Andreas Haeberlen/emailAddress=democa@octarine.de
        Validity
            Not Before: Apr 20 20:47:02 2015 GMT
            Not After : Apr 19 20:47:02 2016 GMT
        Subject: C=DE, ST=Saarland, O=MPI-SWS, OU=Distributed Systems Group, CN=92bddf65d0ed80c1b2d34fb61aff09bab6786de3/emailAddress=node0131@octarine.de
        Subject Public Key Info:
            Public Key Algorithm: rsaEncryption
            RSA Public Key: (1024 bit)
                Modulus (1024 bit):
                    00:d8:ae:51:5d:93:6e:49:35:03:10:98:af:e4:44:
                    52:99:4d:3b:6c:f7:f0:01:d7:f9:f4:f2:0b:1c:56:
                    cd:5c:9a:bc:68:e6:85:d0:f3:32:4b:c8:68:8a:c7:
                    2e:f9:c2:06:b5:c6:6b:72:ad:11:6a:ec:ac:c3:f9:
                    71:28:ee:ed:94:9a:96:5d:4d:a6:9d:0b:b5:9f:de:
                    9e:1e:a7:8e:c6:f7:2c:dd:24:56:cd:cd:b1:33:2e:
                    48:49:5a:55:8d:25:a1:93:8e:90:0f:a1:cb:d1:71:
                    dd:61:a0:bc:19:2e:ff:2a:0e:92:fb:39:94:ce:ff:
                    39:c1:de:17:b3:dc:4c:ae:ed
                Exponent: 65537 (0x10001)
    Signature Algorithm: md5WithRSAEncryption
        7b:1f:28:5a:d9:cc:b0:d4:5e:f4:39:99:b8:b3:d4:46:6b:62:
        f4:39:6d:ec:c7:c1:48:97:fc:8a:0d:ba:e4:6c:99:00:d7:97:
        58:52:3a:a2:f3:04:b2:5a:27:f6:c8:8e:36:ab:a0:3d:63:cc:
        2e:02:42:5d:57:65:e0:39:4b:9d:eb:ab:c1:0d:a8:96:e9:f4:
        da:10:2a:d1:42:46:d1:36:af:d3:01:8f:61:02:65:db:14:c0:
        fe:91:e0:ac:57:64:fb:64:6f:44:bd:84:9d:74:51:c6:2a:79:
        51:76:04:13:9c:bb:c8:d2:2e:02:72:f0:a2:d5:4f:25:4f:03:
        30:70
-----BEGIN CERTIFICATE-----
MIICvDCCAiUCCQCbJ9fo0boIWzANBgkqhkiG9w0BAQQFADCBlTELMAkGA1UEBhMC
REUxETAPBgNVBAgTCFNhYXJsYW5kMRAwDgYDVQQKEwdNUEktU1dTMSIwIAYDVQQL
ExlEaXN0cmlidXRlZCBTeXN0ZW1zIEdyb3VwMRowGAYDVQQDExFBbmRyZWFzIEhh
ZWJlcmxlbjEhMB8GCSqGSIb3DQEJARYSZGVtb2NhQG9jdGFyaW5lLmRlMB4XDTE1
MDQyMDIwNDcwMloXDTE2MDQxOTIwNDcwMlowga4xCzAJBgNVBAYTAkRFMREwDwYD
VQQIEwhTYWFybGFuZDEQMA4GA1UEChMHTVBJLVNXUzEiMCAGA1UECxMZRGlzdHJp
YnV0ZWQgU3lzdGVtcyBHcm91cDExMC8GA1UEAxMoOTJiZGRmNjVkMGVkODBjMWIy
ZDM0ZmI2MWFmZjA5YmFiNjc4NmRlMzEjMCEGCSqGSIb3DQEJARYUbm9kZTAxMzFA
b2N0YXJpbmUuZGUwgZ8wDQYJKoZIhvcNAQEBBQADgY0AMIGJAoGBANiuUV2Tbkk1
AxCYr+REUplNO2z38AHX+fTyCxxWzVyavGjmhdDzMkvIaIrHLvnCBrXGa3KtEWrs
rMP5cSju7ZSall1Npp0LtZ/enh6njsb3LN0kVs3NsTMuSElaVY0loZOOkA+hy9Fx
3WGgvBku/yoOkvs5lM7/OcHeF7PcTK7tAgMBAAEwDQYJKoZIhvcNAQEEBQADgYEA
ex8oWtnMsNRe9DmZuLPURmti9Dlt7MfBSJf8ig265GyZANeXWFI6ovMEslon9siO
NqugPWPMLgJCXVdl4DlLneurwQ2olun02hAq0UJG0Tav0wGPYQJl2xTA/pHgrFdk
+2RvRL2EnXRRxip5UXYEE5y7yNIuAnLwotVPJU8DMHA=
-----END CERTIFICATE-----
