Certificate:
    Data:
        Version: 1 (0x0)
        Serial Number:
            9b:27:d7:e8:d1:ba:09:c3
        Signature Algorithm: md5WithRSAEncryption
        Issuer: C=DE, ST=Saarland, O=MPI-SWS, OU=Distributed Systems Group, CN=Andreas Haeberlen/emailAddress=democa@octarine.de
        Validity
            Not Before: Apr 20 20:47:18 2015 GMT
            Not After : Apr 19 20:47:18 2016 GMT
        Subject: C=DE, ST=Saarland, O=MPI-SWS, OU=Distributed Systems Group, CN=b13795bbea6f9b4f06fa50d139993d6fe978f24d/emailAddress=node0491@octarine.de
        Subject Public Key Info:
            Public Key Algorithm: rsaEncryption
            RSA Public Key: (1024 bit)
                Modulus (1024 bit):
                    00:a5:88:38:ea:b4:bf:dc:b2:03:bf:95:a6:e2:98:
                    02:bb:fe:38:11:4f:d3:08:ef:62:e5:ea:2b:61:35:
                    a8:0c:16:7e:9b:50:d4:78:8e:4f:d0:a3:9c:1c:90:
                    0a:86:2a:96:18:c6:9d:87:b4:a7:75:34:83:60:bb:
                    13:4d:af:a8:2c:c3:bb:f1:ff:57:e6:73:0d:37:17:
                    21:bf:4c:51:cd:44:59:e2:9a:8e:22:e1:6e:66:ff:
                    24:ab:d2:32:ca:03:84:ca:7a:e3:f8:8e:4c:d6:71:
                    31:31:77:b6:35:31:10:0b:9b:16:94:81:75:8b:cb:
                    d9:97:31:0d:9b:91:31:a7:25
                Exponent: 65537 (0x10001)
    Signature Algorithm: md5WithRSAEncryption
        08:3b:f1:be:33:09:69:2e:79:1f:62:2e:09:d2:4c:4b:8c:fc:
        69:2e:23:27:89:04:cb:aa:35:9d:61:10:ec:01:6b:b4:5c:a6:
        08:51:1d:63:e9:be:09:f2:28:38:ed:2d:e9:1b:34:ac:44:44:
        f4:23:73:62:3b:f9:9f:14:62:aa:9c:15:57:75:fc:3f:48:16:
        91:6d:8e:bf:4f:36:7d:c2:b7:46:db:35:18:1a:57:ab:e0:66:
        0c:9a:bf:c7:20:ef:e8:c3:40:52:5a:03:20:7e:63:65:fe:56:
        68:a5:8e:e4:fa:ea:e6:90:b4:da:80:c1:49:b7:a8:0d:77:5b:
        cc:93
-----BEGIN CERTIFICATE-----
MIICvDCCAiUCCQCbJ9fo0boJwzANBgkqhkiG9w0BAQQFADCBlTELMAkGA1UEBhMC
REUxETAPBgNVBAgTCFNhYXJsYW5kMRAwDgYDVQQKEwdNUEktU1dTMSIwIAYDVQQL
ExlEaXN0cmlidXRlZCBTeXN0ZW1zIEdyb3VwMRowGAYDVQQDExFBbmRyZWFzIEhh
ZWJlcmxlbjEhMB8GCSqGSIb3DQEJARYSZGVtb2NhQG9jdGFyaW5lLmRlMB4XDTE1
MDQyMDIwNDcxOFoXDTE2MDQxOTIwNDcxOFowga4xCzAJBgNVBAYTAkRFMREwDwYD
VQQIEwhTYWFybGFuZDEQMA4GA1UEChMHTVBJLVNXUzEiMCAGA1UECxMZRGlzdHJp
YnV0ZWQgU3lzdGVtcyBHcm91cDExMC8GA1UEAxMoYjEzNzk1YmJlYTZmOWI0ZjA2
ZmE1MGQxMzk5OTNkNmZlOTc4ZjI0ZDEjMCEGCSqGSIb3DQEJARYUbm9kZTA0OTFA
b2N0YXJpbmUuZGUwgZ8wDQYJKoZIhvcNAQEBBQADgY0AMIGJAoGBAKWIOOq0v9yy
A7+VpuKYArv+OBFP0wjvYuXqK2E1qAwWfptQ1HiOT9CjnByQCoYqlhjGnYe0p3U0
g2C7E02vqCzDu/H/V+ZzDTcXIb9MUc1EWeKajiLhbmb/JKvSMsoDhMp64/iOTNZx
MTF3tjUxEAubFpSBdYvL2ZcxDZuRMaclAgMBAAEwDQYJKoZIhvcNAQEEBQADgYEA
CDvxvjMJaS55H2IuCdJMS4z8aS4jJ4kEy6o1nWEQ7AFrtFymCFEdY+m+CfIoOO0t
6Rs0rERE9CNzYjv5nxRiqpwVV3X8P0gWkW2Ov082fcK3Rts1GBpXq+BmDJq/xyDv
6MNAUloDIH5jZf5WaKWO5Prq5pC02oDBSbeoDXdbzJM=
-----END CERTIFICATE-----
