Certificate:
    Data:
        Version: 1 (0x0)
        Serial Number:
            9b:27:d7:e8:d1:ba:08:35
        Signature Algorithm: md5WithRSAEncryption
        Issuer: C=DE, ST=Saarland, O=MPI-SWS, OU=Distributed Systems Group, CN=Andreas Haeberlen/emailAddress=democa@octarine.de
        Validity
            Not Before: Apr 20 20:47:00 2015 GMT
            Not After : Apr 19 20:47:00 2016 GMT
        Subject: C=DE, ST=Saarland, O=MPI-SWS, OU=Distributed Systems Group, CN=b6e377908588339793395ad6ac185a100f376d8f/emailAddress=node0093@octarine.de
        Subject Public Key Info:
            Public Key Algorithm: rsaEncryption
            RSA Public Key: (1024 bit)
                Modulus (1024 bit):
                    00:bc:44:cc:94:f4:6e:5a:c9:d1:59:09:01:e6:56:
                    84:bc:f5:79:de:28:c9:4b:ad:1e:af:0f:5e:bf:59:
                    4c:74:77:7d:39:82:87:ac:83:95:22:81:02:a0:3e:
                    4c:ff:e5:10:c9:96:36:bc:db:76:c6:8d:d6:d2:ca:
                    ef:b5:2f:bc:6c:77:a9:48:c2:9f:b6:66:67:e6:7b:
                    ed:8e:61:c3:1e:cd:fd:0d:6f:d1:1b:4c:fa:b7:22:
                    0f:09:59:b4:ea:df:66:e8:8a:b0:8e:70:cf:07:82:
                    bc:26:dc:cc:a5:d8:be:f7:a7:67:0d:b3:11:7d:7c:
                    c6:9d:a5:52:87:42:a0:11:21
                Exponent: 65537 (0x10001)
    Signature Algorithm: md5WithRSAEncryption
        8c:3e:0c:0e:ca:7b:0e:78:b3:c1:99:e8:e6:6b:d0:5b:02:e7:
        44:ba:80:1b:97:3d:61:59:a3:37:5d:a2:8c:bd:ca:bb:be:d9:
        dc:25:9c:2e:6d:71:ea:9f:9b:5d:05:83:3c:4b:01:03:96:9d:
        ae:9d:75:66:a0:11:43:1d:47:9a:1e:8d:27:67:9a:23:92:9c:
        b3:91:2d:e4:56:d6:d6:86:b1:f6:37:8b:1e:dc:aa:6b:8e:0a:
        93:3e:da:ed:31:aa:15:a4:a1:14:48:c0:23:f1:89:12:17:63:
        1f:c7:6a:a0:b6:46:38:4b:3c:44:b6:29:2d:a9:35:e2:f9:75:
        13:8a
-----BEGIN CERTIFICATE-----
MIICvDCCAiUCCQCbJ9fo0boINTANBgkqhkiG9w0BAQQFADCBlTELMAkGA1UEBhMC
REUxETAPBgNVBAgTCFNhYXJsYW5kMRAwDgYDVQQKEwdNUEktU1dTMSIwIAYDVQQL
ExlEaXN0cmlidXRlZCBTeXN0ZW1zIEdyb3VwMRowGAYDVQQDExFBbmRyZWFzIEhh
ZWJlcmxlbjEhMB8GCSqGSIb3DQEJARYSZGVtb2NhQG9jdGFyaW5lLmRlMB4XDTE1
MDQyMDIwNDcwMFoXDTE2MDQxOTIwNDcwMFowga4xCzAJBgNVBAYTAkRFMREwDwYD
VQQIEwhTYWFybGFuZDEQMA4GA1UEChMHTVBJLVNXUzEiMCAGA1UECxMZRGlzdHJp
YnV0ZWQgU3lzdGVtcyBHcm91cDExMC8GA1UEAxMoYjZlMzc3OTA4NTg4MzM5Nzkz
Mzk1YWQ2YWMxODVhMTAwZjM3NmQ4ZjEjMCEGCSqGSIb3DQEJARYUbm9kZTAwOTNA
b2N0YXJpbmUuZGUwgZ8wDQYJKoZIhvcNAQEBBQADgY0AMIGJAoGBALxEzJT0blrJ
0VkJAeZWhLz1ed4oyUutHq8PXr9ZTHR3fTmCh6yDlSKBAqA+TP/lEMmWNrzbdsaN
1tLK77UvvGx3qUjCn7ZmZ+Z77Y5hwx7N/Q1v0RtM+rciDwlZtOrfZuiKsI5wzweC
vCbczKXYvvenZw2zEX18xp2lUodCoBEhAgMBAAEwDQYJKoZIhvcNAQEEBQADgYEA
jD4MDsp7DnizwZno5mvQWwLnRLqAG5c9YVmjN12ijL3Ku77Z3CWcLm1x6p+bXQWD
PEsBA5adrp11ZqARQx1Hmh6NJ2eaI5Kcs5Et5FbW1oax9jeLHtyqa44Kkz7a7TGq
FaShFEjAI/GJEhdjH8dqoLZGOEs8RLYpLak14vl1E4o=
-----END CERTIFICATE-----
