Certificate:
    Data:
        Version: 1 (0x0)
        Serial Number:
            9b:27:d7:e8:d1:ba:09:6f
        Signature Algorithm: md5WithRSAEncryption
        Issuer: C=DE, ST=Saarland, O=MPI-SWS, OU=Distributed Systems Group, CN=Andreas Haeberlen/emailAddress=democa@octarine.de
        Validity
            Not Before: Apr 20 20:47:14 2015 GMT
            Not After : Apr 19 20:47:14 2016 GMT
        Subject: C=DE, ST=Saarland, O=MPI-SWS, OU=Distributed Systems Group, CN=3bebd6f18ca9052f79703a0962abe072c5dabcb4/emailAddress=node0407@octarine.de
        Subject Public Key Info:
            Public Key Algorithm: rsaEncryption
            RSA Public Key: (1024 bit)
                Modulus (1024 bit):
                    00:a4:de:08:b3:5b:1d:b7:ae:13:d9:d2:ce:6c:e9:
                    56:1f:02:cd:fc:11:63:22:4c:8f:ab:64:73:7d:1f:
                    ab:bc:f9:6d:2d:f3:5b:94:4f:e3:f5:94:f0:38:c3:
                    15:35:f5:f1:1b:15:e5:68:3f:98:07:c9:ba:b8:b0:
                    81:7d:9d:71:1c:06:6c:d0:a2:fc:89:51:83:9c:aa:
                    94:cc:b8:ec:7d:69:a4:44:81:40:61:2d:f5:4d:40:
                    d5:f1:57:19:1e:9e:d1:5a:af:de:b8:e5:85:cb:02:
                    3f:5d:cc:a6:25:46:87:32:de:d6:da:68:06:00:c0:
                    b2:d9:30:ec:e8:bf:52:a7:a3
                Exponent: 65537 (0x10001)
    Signature Algorithm: md5WithRSAEncryption
        83:62:8a:6c:da:38:40:22:b9:be:fb:1a:32:62:89:da:97:dc:
        20:cc:78:75:32:8e:0c:b4:55:8c:43:cb:11:4a:d2:18:b1:81:
        2a:5f:53:bf:63:62:13:f6:72:74:11:6d:6c:51:e9:14:79:1f:
        f0:ec:64:a7:2b:98:09:c1:89:3b:11:39:07:bb:26:15:b1:d2:
        5f:fd:e7:e2:ed:6f:f5:9c:8e:f5:a1:79:79:88:1f:bc:bb:1e:
        94:c9:ac:ef:89:34:8f:1e:80:6f:25:db:79:56:62:3c:36:04:
        3e:3b:15:f9:66:c5:e5:51:0b:96:fe:59:7a:03:1f:b6:f8:93:
        77:5d
-----BEGIN CERTIFICATE-----
MIICvDCCAiUCCQCbJ9fo0boJbzANBgkqhkiG9w0BAQQFADCBlTELMAkGA1UEBhMC
REUxETAPBgNVBAgTCFNhYXJsYW5kMRAwDgYDVQQKEwdNUEktU1dTMSIwIAYDVQQL
ExlEaXN0cmlidXRlZCBTeXN0ZW1zIEdyb3VwMRowGAYDVQQDExFBbmRyZWFzIEhh
ZWJlcmxlbjEhMB8GCSqGSIb3DQEJARYSZGVtb2NhQG9jdGFyaW5lLmRlMB4XDTE1
MDQyMDIwNDcxNFoXDTE2MDQxOTIwNDcxNFowga4xCzAJBgNVBAYTAkRFMREwDwYD
VQQIEwhTYWFybGFuZDEQMA4GA1UEChMHTVBJLVNXUzEiMCAGA1UECxMZRGlzdHJp
YnV0ZWQgU3lzdGVtcyBHcm91cDExMC8GA1UEAxMoM2JlYmQ2ZjE4Y2E5MDUyZjc5
NzAzYTA5NjJhYmUwNzJjNWRhYmNiNDEjMCEGCSqGSIb3DQEJARYUbm9kZTA0MDdA
b2N0YXJpbmUuZGUwgZ8wDQYJKoZIhvcNAQEBBQADgY0AMIGJAoGBAKTeCLNbHbeu
E9nSzmzpVh8CzfwRYyJMj6tkc30fq7z5bS3zW5RP4/WU8DjDFTX18RsV5Wg/mAfJ
uriwgX2dcRwGbNCi/IlRg5yqlMy47H1ppESBQGEt9U1A1fFXGR6e0Vqv3rjlhcsC
P13MpiVGhzLe1tpoBgDAstkw7Oi/UqejAgMBAAEwDQYJKoZIhvcNAQEEBQADgYEA
g2KKbNo4QCK5vvsaMmKJ2pfcIMx4dTKODLRVjEPLEUrSGLGBKl9Tv2NiE/ZydBFt
bFHpFHkf8OxkpyuYCcGJOxE5B7smFbHSX/3n4u1v9ZyO9aF5eYgfvLselMms74k0
jx6AbyXbeVZiPDYEPjsV+WbF5VELlv5ZegMftviTd10=
-----END CERTIFICATE-----
