Certificate:
    Data:
        Version: 1 (0x0)
        Serial Number:
            9b:27:d7:e8:d1:ba:08:63
        Signature Algorithm: md5WithRSAEncryption
        Issuer: C=DE, ST=Saarland, O=MPI-SWS, OU=Distributed Systems Group, CN=Andreas Haeberlen/emailAddress=democa@octarine.de
        Validity
            Not Before: Apr 20 20:47:03 2015 GMT
            Not After : Apr 19 20:47:03 2016 GMT
        Subject: C=DE, ST=Saarland, O=MPI-SWS, OU=Distributed Systems Group, CN=fb24228ce2f681dcf9500fe0323e9328e5d176e6/emailAddress=node0139@octarine.de
        Subject Public Key Info:
            Public Key Algorithm: rsaEncryption
            RSA Public Key: (1024 bit)
                Modulus (1024 bit):
                    00:ce:6a:94:04:7e:4a:0a:ae:ae:9d:07:3e:da:ce:
                    be:d0:7d:c2:84:1c:9d:39:68:68:c0:b9:a8:52:42:
                    94:2f:8b:f5:d3:fa:92:7a:85:2e:20:5f:4b:af:7a:
                    fa:d9:42:7e:80:d5:64:32:7f:1b:3b:1f:1e:54:36:
                    e3:6d:fd:a1:a5:01:0f:8f:af:5b:d0:db:7b:17:41:
                    7e:08:4d:61:03:7b:b7:5b:35:e4:01:b5:e6:b0:d5:
                    5a:25:16:c0:eb:05:b5:f1:b3:ec:e9:c8:24:f8:56:
                    dd:38:38:af:4f:51:1c:58:fa:89:70:6a:d6:e1:b7:
                    9a:b3:0b:af:1d:72:6f:8f:a9
                Exponent: 65537 (0x10001)
    Signature Algorithm: md5WithRSAEncryption
        29:0d:2a:f7:8a:19:53:30:4a:2c:3a:b8:0d:82:1a:0c:85:be:
        2c:1e:ad:dc:26:f0:4e:9d:0f:6a:c1:ab:03:95:be:35:9a:88:
        af:c2:0b:c5:a7:8e:83:2b:6d:3a:26:0d:8b:5c:15:8c:c6:81:
        b0:9a:ad:e3:03:e2:8e:48:ba:73:e6:6f:1b:6f:0c:58:02:dd:
        4a:4e:4f:5c:29:39:d9:d4:13:4c:f5:70:4a:f7:f1:2d:2e:a4:
        3c:a3:ff:fb:1f:55:67:63:d8:41:06:c2:56:9b:99:d4:51:fc:
        4a:92:81:af:af:80:8a:49:68:36:8d:4f:58:31:2d:1b:8e:6f:
        70:72
-----BEGIN CERTIFICATE-----
MIICvDCCAiUCCQCbJ9fo0boIYzANBgkqhkiG9w0BAQQFADCBlTELMAkGA1UEBhMC
REUxETAPBgNVBAgTCFNhYXJsYW5kMRAwDgYDVQQKEwdNUEktU1dTMSIwIAYDVQQL
ExlEaXN0cmlidXRlZCBTeXN0ZW1zIEdyb3VwMRowGAYDVQQDExFBbmRyZWFzIEhh
ZWJlcmxlbjEhMB8GCSqGSIb3DQEJARYSZGVtb2NhQG9jdGFyaW5lLmRlMB4XDTE1
MDQyMDIwNDcwM1oXDTE2MDQxOTIwNDcwM1owga4xCzAJBgNVBAYTAkRFMREwDwYD
VQQIEwhTYWFybGFuZDEQMA4GA1UEChMHTVBJLVNXUzEiMCAGA1UECxMZRGlzdHJp
YnV0ZWQgU3lzdGVtcyBHcm91cDExMC8GA1UEAxMoZmIyNDIyOGNlMmY2ODFkY2Y5
NTAwZmUwMzIzZTkzMjhlNWQxNzZlNjEjMCEGCSqGSIb3DQEJARYUbm9kZTAxMzlA
b2N0YXJpbmUuZGUwgZ8wDQYJKoZIhvcNAQEBBQADgY0AMIGJAoGBAM5qlAR+Sgqu
rp0HPtrOvtB9woQcnTloaMC5qFJClC+L9dP6knqFLiBfS696+tlCfoDVZDJ/Gzsf
HlQ24239oaUBD4+vW9DbexdBfghNYQN7t1s15AG15rDVWiUWwOsFtfGz7OnIJPhW
3Tg4r09RHFj6iXBq1uG3mrMLrx1yb4+pAgMBAAEwDQYJKoZIhvcNAQEEBQADgYEA
KQ0q94oZUzBKLDq4DYIaDIW+LB6t3CbwTp0PasGrA5W+NZqIr8ILxaeOgyttOiYN
i1wVjMaBsJqt4wPijki6c+ZvG28MWALdSk5PXCk52dQTTPVwSvfxLS6kPKP/+x9V
Z2PYQQbCVpuZ1FH8SpKBr6+AikloNo1PWDEtG45vcHI=
-----END CERTIFICATE-----
