Certificate:
    Data:
        Version: 1 (0x0)
        Serial Number:
            9b:27:d7:e8:d1:ba:0a:fb
        Signature Algorithm: md5WithRSAEncryption
        Issuer: C=DE, ST=Saarland, O=MPI-SWS, OU=Distributed Systems Group, CN=Andreas Haeberlen/emailAddress=democa@octarine.de
        Validity
            Not Before: Apr 20 20:47:32 2015 GMT
            Not After : Apr 19 20:47:32 2016 GMT
        Subject: C=DE, ST=Saarland, O=MPI-SWS, OU=Distributed Systems Group, CN=d48648901eab9a41b3ef90f5ba2227dfb56fe00f/emailAddress=node0803@octarine.de
        Subject Public Key Info:
            Public Key Algorithm: rsaEncryption
            RSA Public Key: (1024 bit)
                Modulus (1024 bit):
                    00:c3:6e:58:32:a8:bd:6f:b3:46:54:c7:44:1f:0d:
                    f5:2b:1b:e8:6b:af:59:f1:6f:5f:c5:91:66:0e:3b:
                    c0:5b:cc:69:03:df:85:12:1a:da:fb:aa:5e:db:d6:
                    49:54:1c:54:c6:74:0e:94:08:62:a9:ac:12:6d:5c:
                    a1:2c:4a:cf:8b:7e:86:35:17:12:26:05:26:97:19:
                    9b:5d:74:19:47:e0:d7:b5:f0:ae:99:0d:41:a8:ae:
                    e0:af:f2:08:be:01:42:da:b6:8d:70:d5:2b:ed:c5:
                    62:22:64:f1:e0:eb:91:c3:04:eb:4d:ff:94:bf:d4:
                    38:23:23:0f:44:75:9d:5a:b5
                Exponent: 65537 (0x10001)
    Signature Algorithm: md5WithRSAEncryption
        99:9b:50:f9:bf:50:6c:bb:59:9b:ef:58:18:71:70:f2:e5:0e:
        0e:05:bd:ef:0f:79:56:4d:29:dc:47:fd:27:73:73:5a:93:71:
        97:96:9d:3e:6f:c5:74:ae:cb:04:dd:3f:a8:3d:ff:3e:cf:35:
        b1:b7:a7:df:8a:08:3f:60:0e:49:6b:7c:d8:a8:3c:bf:be:73:
        bc:8d:31:94:2f:63:4d:0a:29:e6:ae:df:bf:f1:06:7f:bd:11:
        16:35:0c:8c:6d:cc:cb:43:cc:56:97:15:7d:a6:61:90:42:21:
        06:bf:86:0b:8a:f5:4c:42:c5:35:06:2c:89:05:07:8f:17:8b:
        ab:a7
-----BEGIN CERTIFICATE-----
MIICvDCCAiUCCQCbJ9fo0boK+zANBgkqhkiG9w0BAQQFADCBlTELMAkGA1UEBhMC
REUxETAPBgNVBAgTCFNhYXJsYW5kMRAwDgYDVQQKEwdNUEktU1dTMSIwIAYDVQQL
ExlEaXN0cmlidXRlZCBTeXN0ZW1zIEdyb3VwMRowGAYDVQQDExFBbmRyZWFzIEhh
ZWJlcmxlbjEhMB8GCSqGSIb3DQEJARYSZGVtb2NhQG9jdGFyaW5lLmRlMB4XDTE1
MDQyMDIwNDczMloXDTE2MDQxOTIwNDczMlowga4xCzAJBgNVBAYTAkRFMREwDwYD
VQQIEwhTYWFybGFuZDEQMA4GA1UEChMHTVBJLVNXUzEiMCAGA1UECxMZRGlzdHJp
YnV0ZWQgU3lzdGVtcyBHcm91cDExMC8GA1UEAxMoZDQ4NjQ4OTAxZWFiOWE0MWIz
ZWY5MGY1YmEyMjI3ZGZiNTZmZTAwZjEjMCEGCSqGSIb3DQEJARYUbm9kZTA4MDNA
b2N0YXJpbmUuZGUwgZ8wDQYJKoZIhvcNAQEBBQADgY0AMIGJAoGBAMNuWDKovW+z
RlTHRB8N9Ssb6GuvWfFvX8WRZg47wFvMaQPfhRIa2vuqXtvWSVQcVMZ0DpQIYqms
Em1coSxKz4t+hjUXEiYFJpcZm110GUfg17XwrpkNQaiu4K/yCL4BQtq2jXDVK+3F
YiJk8eDrkcME603/lL/UOCMjD0R1nVq1AgMBAAEwDQYJKoZIhvcNAQEEBQADgYEA
mZtQ+b9QbLtZm+9YGHFw8uUODgW97w95Vk0p3Ef9J3NzWpNxl5adPm/FdK7LBN0/
qD3/Ps81sben34oIP2AOSWt82Kg8v75zvI0xlC9jTQop5q7fv/EGf70RFjUMjG3M
y0PMVpcVfaZhkEIhBr+GC4r1TELFNQYsiQUHjxeLq6c=
-----END CERTIFICATE-----
