Certificate:
    Data:
        Version: 1 (0x0)
        Serial Number:
            9b:27:d7:e8:d1:ba:08:cb
        Signature Algorithm: md5WithRSAEncryption
        Issuer: C=DE, ST=Saarland, O=MPI-SWS, OU=Distributed Systems Group, CN=Andreas Haeberlen/emailAddress=democa@octarine.de
        Validity
            Not Before: Apr 20 20:47:07 2015 GMT
            Not After : Apr 19 20:47:07 2016 GMT
        Subject: C=DE, ST=Saarland, O=MPI-SWS, OU=Distributed Systems Group, CN=6479914746bb24d6d70c62e45efbdf734fdd1156/emailAddress=node0243@octarine.de
        Subject Public Key Info:
            Public Key Algorithm: rsaEncryption
            RSA Public Key: (1024 bit)
                Modulus (1024 bit):
                    00:d9:74:1f:1e:20:74:6d:f8:b4:c7:a2:8e:ba:e4:
                    11:ef:4d:ff:e0:2d:79:23:02:b6:d0:1c:e9:3b:47:
                    2d:ae:78:f4:02:27:4d:1c:a7:1e:c2:30:d2:5f:79:
                    f0:4d:7a:c7:77:59:d2:a1:e0:6c:5e:56:e4:7d:32:
                    b0:0b:6f:f3:0f:4a:58:4a:19:f1:40:36:06:2d:6e:
                    ef:37:a3:0e:99:6a:9b:4f:26:25:73:4a:c9:49:fb:
                    41:0f:86:c1:73:de:dd:f8:86:77:31:77:fa:08:9f:
                    58:dc:25:e4:71:1e:f1:1e:58:65:35:c3:94:d8:a7:
                    44:40:1a:fd:f3:e1:b7:a7:1f
                Exponent: 65537 (0x10001)
    Signature Algorithm: md5WithRSAEncryption
        58:14:57:f9:6f:eb:b9:a8:d8:fb:10:14:0d:97:35:d0:ea:5b:
        32:3a:e5:90:99:65:84:f1:2c:ef:6c:49:76:45:63:dc:48:a9:
        9b:25:80:ae:78:51:04:e2:42:ea:d8:65:74:10:5a:09:82:30:
        50:f7:1a:a2:aa:4d:44:48:c6:e7:66:8a:94:1e:fb:f0:4a:db:
        88:02:9d:ce:9e:d5:f1:eb:ac:0e:70:9c:c9:9c:62:a8:79:9f:
        39:ae:48:13:c6:99:ab:ee:dc:3f:57:ca:15:1b:47:3e:48:08:
        19:48:c6:d2:93:e5:2f:ea:72:51:35:f2:73:cd:bd:6f:aa:bb:
        84:63
-----BEGIN CERTIFICATE-----
MIICvDCCAiUCCQCbJ9fo0boIyzANBgkqhkiG9w0BAQQFADCBlTELMAkGA1UEBhMC
REUxETAPBgNVBAgTCFNhYXJsYW5kMRAwDgYDVQQKEwdNUEktU1dTMSIwIAYDVQQL
ExlEaXN0cmlidXRlZCBTeXN0ZW1zIEdyb3VwMRowGAYDVQQDExFBbmRyZWFzIEhh
ZWJlcmxlbjEhMB8GCSqGSIb3DQEJARYSZGVtb2NhQG9jdGFyaW5lLmRlMB4XDTE1
MDQyMDIwNDcwN1oXDTE2MDQxOTIwNDcwN1owga4xCzAJBgNVBAYTAkRFMREwDwYD
VQQIEwhTYWFybGFuZDEQMA4GA1UEChMHTVBJLVNXUzEiMCAGA1UECxMZRGlzdHJp
YnV0ZWQgU3lzdGVtcyBHcm91cDExMC8GA1UEAxMoNjQ3OTkxNDc0NmJiMjRkNmQ3
MGM2MmU0NWVmYmRmNzM0ZmRkMTE1NjEjMCEGCSqGSIb3DQEJARYUbm9kZTAyNDNA
b2N0YXJpbmUuZGUwgZ8wDQYJKoZIhvcNAQEBBQADgY0AMIGJAoGBANl0Hx4gdG34
tMeijrrkEe9N/+AteSMCttAc6TtHLa549AInTRynHsIw0l958E16x3dZ0qHgbF5W
5H0ysAtv8w9KWEoZ8UA2Bi1u7zejDplqm08mJXNKyUn7QQ+GwXPe3fiGdzF3+gif
WNwl5HEe8R5YZTXDlNinREAa/fPht6cfAgMBAAEwDQYJKoZIhvcNAQEEBQADgYEA
WBRX+W/ruajY+xAUDZc10OpbMjrlkJllhPEs72xJdkVj3EipmyWArnhRBOJC6thl
dBBaCYIwUPcaoqpNREjG52aKlB778ErbiAKdzp7V8eusDnCcyZxiqHmfOa5IE8aZ
q+7cP1fKFRtHPkgIGUjG0pPlL+pyUTXyc829b6q7hGM=
-----END CERTIFICATE-----
