Certificate:
    Data:
        Version: 1 (0x0)
        Serial Number:
            9b:27:d7:e8:d1:ba:08:c3
        Signature Algorithm: md5WithRSAEncryption
        Issuer: C=DE, ST=Saarland, O=MPI-SWS, OU=Distributed Systems Group, CN=Andreas Haeberlen/emailAddress=democa@octarine.de
        Validity
            Not Before: Apr 20 20:47:07 2015 GMT
            Not After : Apr 19 20:47:07 2016 GMT
        Subject: C=DE, ST=Saarland, O=MPI-SWS, OU=Distributed Systems Group, CN=df2612deb7412b246f1621a5183ee82c74297073/emailAddress=node0235@octarine.de
        Subject Public Key Info:
            Public Key Algorithm: rsaEncryption
            RSA Public Key: (1024 bit)
                Modulus (1024 bit):
                    00:dc:97:a6:fe:f8:8f:2b:ad:9e:9c:f4:c0:55:3c:
                    e0:59:52:e0:b2:b6:16:da:c2:f1:3c:22:a1:68:8d:
                    3f:b6:23:cf:c0:f7:5c:6b:90:f8:30:9b:bf:9a:60:
                    aa:94:36:02:0a:31:47:39:df:83:a5:bd:9d:5e:d5:
                    12:98:e1:d3:96:1c:72:72:09:4a:c5:2e:b2:78:ed:
                    f9:f0:db:00:fa:c4:0f:92:45:de:76:67:a2:d7:5f:
                    8c:38:fd:e8:54:e1:be:94:50:3f:fc:b7:61:9d:a7:
                    2d:3a:a7:f2:e5:b4:fa:ef:98:86:58:f1:35:4e:2c:
                    79:8b:21:b3:cb:77:69:72:41
                Exponent: 65537 (0x10001)
    Signature Algorithm: md5WithRSAEncryption
        bc:47:ea:5c:4f:6c:66:10:71:c3:0c:bc:71:30:28:1d:b9:c2:
        0d:06:b2:f6:56:33:00:d2:ab:de:ae:0c:79:8a:4f:65:ee:d2:
        0d:f7:0c:ac:aa:52:12:7d:a5:77:21:66:78:47:9d:a0:26:79:
        a1:24:2a:20:d3:de:2e:93:67:b5:97:ec:98:34:f6:a3:8a:8b:
        d2:d1:80:a1:ce:82:15:a1:c6:35:69:7d:dd:41:06:d3:69:6b:
        7b:35:20:4b:e1:9f:a4:3e:c9:da:72:1e:46:cc:26:59:f9:67:
        8a:f4:18:57:27:f7:dd:b4:ea:e9:30:54:80:b4:df:99:6f:77:
        44:ea
-----BEGIN CERTIFICATE-----
MIICvDCCAiUCCQCbJ9fo0boIwzANBgkqhkiG9w0BAQQFADCBlTELMAkGA1UEBhMC
REUxETAPBgNVBAgTCFNhYXJsYW5kMRAwDgYDVQQKEwdNUEktU1dTMSIwIAYDVQQL
ExlEaXN0cmlidXRlZCBTeXN0ZW1zIEdyb3VwMRowGAYDVQQDExFBbmRyZWFzIEhh
ZWJlcmxlbjEhMB8GCSqGSIb3DQEJARYSZGVtb2NhQG9jdGFyaW5lLmRlMB4XDTE1
MDQyMDIwNDcwN1oXDTE2MDQxOTIwNDcwN1owga4xCzAJBgNVBAYTAkRFMREwDwYD
VQQIEwhTYWFybGFuZDEQMA4GA1UEChMHTVBJLVNXUzEiMCAGA1UECxMZRGlzdHJp
YnV0ZWQgU3lzdGVtcyBHcm91cDExMC8GA1UEAxMoZGYyNjEyZGViNzQxMmIyNDZm
MTYyMWE1MTgzZWU4MmM3NDI5NzA3MzEjMCEGCSqGSIb3DQEJARYUbm9kZTAyMzVA
b2N0YXJpbmUuZGUwgZ8wDQYJKoZIhvcNAQEBBQADgY0AMIGJAoGBANyXpv74jyut
npz0wFU84FlS4LK2FtrC8TwioWiNP7Yjz8D3XGuQ+DCbv5pgqpQ2AgoxRznfg6W9
nV7VEpjh05YccnIJSsUusnjt+fDbAPrED5JF3nZnotdfjDj96FThvpRQP/y3YZ2n
LTqn8uW0+u+YhljxNU4seYshs8t3aXJBAgMBAAEwDQYJKoZIhvcNAQEEBQADgYEA
vEfqXE9sZhBxwwy8cTAoHbnCDQay9lYzANKr3q4MeYpPZe7SDfcMrKpSEn2ldyFm
eEedoCZ5oSQqINPeLpNntZfsmDT2o4qL0tGAoc6CFaHGNWl93UEG02lrezUgS+Gf
pD7J2nIeRswmWflnivQYVyf33bTq6TBUgLTfmW93ROo=
-----END CERTIFICATE-----
