Certificate:
    Data:
        Version: 1 (0x0)
        Serial Number:
            9b:27:d7:e8:d1:ba:08:e3
        Signature Algorithm: md5WithRSAEncryption
        Issuer: C=DE, ST=Saarland, O=MPI-SWS, OU=Distributed Systems Group, CN=Andreas Haeberlen/emailAddress=democa@octarine.de
        Validity
            Not Before: Apr 20 20:47:08 2015 GMT
            Not After : Apr 19 20:47:08 2016 GMT
        Subject: C=DE, ST=Saarland, O=MPI-SWS, OU=Distributed Systems Group, CN=3db22f18aaa1f8c4952d0936434ac2c0f82284a3/emailAddress=node0267@octarine.de
        Subject Public Key Info:
            Public Key Algorithm: rsaEncryption
            RSA Public Key: (1024 bit)
                Modulus (1024 bit):
                    00:d1:25:1f:29:da:f1:1b:44:f6:74:dc:bf:26:a6:
                    13:87:22:ef:aa:63:6b:cf:de:31:a3:71:27:bc:1a:
                    18:57:7a:b2:30:05:d6:a6:7c:a5:89:60:03:3c:59:
                    c8:41:26:49:92:ac:81:f3:f4:2d:be:7a:44:0a:04:
                    fa:52:5b:f9:1a:4f:63:74:c5:98:3f:1b:56:ba:35:
                    a3:9d:0d:98:74:cf:8a:e5:26:a4:e2:45:ee:de:9d:
                    61:f9:28:9d:e3:3c:2f:bd:3c:03:83:d1:36:50:65:
                    76:2f:80:70:32:9f:c6:f0:51:90:d1:52:08:d8:39:
                    3d:a7:f1:ea:e8:84:23:06:95
                Exponent: 65537 (0x10001)
    Signature Algorithm: md5WithRSAEncryption
        8b:a8:9e:3d:a0:28:3f:24:0d:c7:05:57:87:43:cc:d1:91:d3:
        c7:bb:47:82:94:ab:fe:52:c3:45:9c:db:b2:4a:8b:d5:2f:a0:
        ce:1d:f5:2b:70:15:ba:00:0c:d8:de:d3:65:6d:c3:e2:23:99:
        46:87:7e:27:fe:b6:7a:54:63:e9:c4:a6:2e:f9:ce:0a:92:3f:
        75:36:0b:2d:6d:2b:98:b0:b6:82:a4:df:b2:9e:cf:76:dc:62:
        ff:2b:95:fd:a5:4d:d3:49:b5:ce:ff:0a:c4:11:34:cd:89:0f:
        30:9f:0d:71:cb:5b:b6:07:b4:2f:03:06:fc:be:dc:be:c3:8d:
        88:18
-----BEGIN CERTIFICATE-----
MIICvDCCAiUCCQCbJ9fo0boI4zANBgkqhkiG9w0BAQQFADCBlTELMAkGA1UEBhMC
REUxETAPBgNVBAgTCFNhYXJsYW5kMRAwDgYDVQQKEwdNUEktU1dTMSIwIAYDVQQL
ExlEaXN0cmlidXRlZCBTeXN0ZW1zIEdyb3VwMRowGAYDVQQDExFBbmRyZWFzIEhh
ZWJlcmxlbjEhMB8GCSqGSIb3DQEJARYSZGVtb2NhQG9jdGFyaW5lLmRlMB4XDTE1
MDQyMDIwNDcwOFoXDTE2MDQxOTIwNDcwOFowga4xCzAJBgNVBAYTAkRFMREwDwYD
VQQIEwhTYWFybGFuZDEQMA4GA1UEChMHTVBJLVNXUzEiMCAGA1UECxMZRGlzdHJp
YnV0ZWQgU3lzdGVtcyBHcm91cDExMC8GA1UEAxMoM2RiMjJmMThhYWExZjhjNDk1
MmQwOTM2NDM0YWMyYzBmODIyODRhMzEjMCEGCSqGSIb3DQEJARYUbm9kZTAyNjdA
b2N0YXJpbmUuZGUwgZ8wDQYJKoZIhvcNAQEBBQADgY0AMIGJAoGBANElHyna8RtE
9nTcvyamE4ci76pja8/eMaNxJ7waGFd6sjAF1qZ8pYlgAzxZyEEmSZKsgfP0Lb56
RAoE+lJb+RpPY3TFmD8bVro1o50NmHTPiuUmpOJF7t6dYfkoneM8L708A4PRNlBl
di+AcDKfxvBRkNFSCNg5Pafx6uiEIwaVAgMBAAEwDQYJKoZIhvcNAQEEBQADgYEA
i6iePaAoPyQNxwVXh0PM0ZHTx7tHgpSr/lLDRZzbskqL1S+gzh31K3AVugAM2N7T
ZW3D4iOZRod+J/62elRj6cSmLvnOCpI/dTYLLW0rmLC2gqTfsp7Pdtxi/yuV/aVN
00m1zv8KxBE0zYkPMJ8Ncctbtge0LwMG/L7cvsONiBg=
-----END CERTIFICATE-----
