Certificate:
    Data:
        Version: 1 (0x0)
        Serial Number:
            9b:27:d7:e8:d1:ba:0a:76
        Signature Algorithm: md5WithRSAEncryption
        Issuer: C=DE, ST=Saarland, O=MPI-SWS, OU=Distributed Systems Group, CN=Andreas Haeberlen/emailAddress=democa@octarine.de
        Validity
            Not Before: Apr 20 20:47:26 2015 GMT
            Not After : Apr 19 20:47:26 2016 GMT
        Subject: C=DE, ST=Saarland, O=MPI-SWS, OU=Distributed Systems Group, CN=c5abcc5f509bbb51f292b9f26cb9f8cbd66a3b99/emailAddress=node0670@octarine.de
        Subject Public Key Info:
            Public Key Algorithm: rsaEncryption
            RSA Public Key: (1024 bit)
                Modulus (1024 bit):
                    00:bf:75:ff:19:35:55:62:d3:dc:80:e6:97:43:80:
                    f7:58:ac:4c:35:54:e7:87:34:47:dd:c9:02:b2:64:
                    0f:db:03:f2:4e:06:1f:e7:d3:a5:19:c9:3d:28:36:
                    29:05:49:3f:fe:ed:77:b0:cc:3c:a3:1f:35:32:2c:
                    b9:31:4c:0d:3f:8d:da:58:72:cb:e1:43:91:b1:4e:
                    18:f2:86:77:bf:0d:ae:56:08:58:ba:e3:b0:95:81:
                    d3:75:54:6e:41:09:18:53:23:ed:52:94:03:a3:05:
                    ff:e5:82:bc:52:d8:8b:e8:51:f2:67:62:8a:c5:17:
                    7e:19:83:34:5a:4d:49:48:23
                Exponent: 65537 (0x10001)
    Signature Algorithm: md5WithRSAEncryption
        36:7c:61:7f:a0:58:77:6f:e9:c3:6e:d2:1c:a7:17:03:c0:5c:
        cc:6d:39:71:5c:5d:51:de:93:7f:94:cc:ff:67:62:bd:a8:9a:
        66:e1:30:98:5e:4d:87:6c:42:8a:ce:d6:8f:30:90:c6:4a:1e:
        de:f8:c6:ff:46:f4:98:c5:6e:d0:f1:79:b3:90:d2:63:3a:a7:
        59:b0:57:d8:7c:a7:f6:f5:8f:f8:b2:dc:3f:19:b3:86:6b:ad:
        26:55:2a:99:0a:a4:f9:8f:f7:c7:f5:d3:78:94:51:1c:5d:73:
        1c:e9:11:06:3f:0a:7b:77:d5:d5:c4:67:a9:29:be:42:a8:84:
        4d:a0
-----BEGIN CERTIFICATE-----
MIICvDCCAiUCCQCbJ9fo0boKdjANBgkqhkiG9w0BAQQFADCBlTELMAkGA1UEBhMC
REUxETAPBgNVBAgTCFNhYXJsYW5kMRAwDgYDVQQKEwdNUEktU1dTMSIwIAYDVQQL
ExlEaXN0cmlidXRlZCBTeXN0ZW1zIEdyb3VwMRowGAYDVQQDExFBbmRyZWFzIEhh
ZWJlcmxlbjEhMB8GCSqGSIb3DQEJARYSZGVtb2NhQG9jdGFyaW5lLmRlMB4XDTE1
MDQyMDIwNDcyNloXDTE2MDQxOTIwNDcyNlowga4xCzAJBgNVBAYTAkRFMREwDwYD
VQQIEwhTYWFybGFuZDEQMA4GA1UEChMHTVBJLVNXUzEiMCAGA1UECxMZRGlzdHJp
YnV0ZWQgU3lzdGVtcyBHcm91cDExMC8GA1UEAxMoYzVhYmNjNWY1MDliYmI1MWYy
OTJiOWYyNmNiOWY4Y2JkNjZhM2I5OTEjMCEGCSqGSIb3DQEJARYUbm9kZTA2NzBA
b2N0YXJpbmUuZGUwgZ8wDQYJKoZIhvcNAQEBBQADgY0AMIGJAoGBAL91/xk1VWLT
3IDml0OA91isTDVU54c0R93JArJkD9sD8k4GH+fTpRnJPSg2KQVJP/7td7DMPKMf
NTIsuTFMDT+N2lhyy+FDkbFOGPKGd78NrlYIWLrjsJWB03VUbkEJGFMj7VKUA6MF
/+WCvFLYi+hR8mdiisUXfhmDNFpNSUgjAgMBAAEwDQYJKoZIhvcNAQEEBQADgYEA
Nnxhf6BYd2/pw27SHKcXA8BczG05cVxdUd6Tf5TM/2divaiaZuEwmF5Nh2xCis7W
jzCQxkoe3vjG/0b0mMVu0PF5s5DSYzqnWbBX2Hyn9vWP+LLcPxmzhmutJlUqmQqk
+Y/3x/XTeJRRHF1zHOkRBj8Ke3fV1cRnqSm+QqiETaA=
-----END CERTIFICATE-----
