Certificate:
    Data:
        Version: 1 (0x0)
        Serial Number:
            9b:27:d7:e8:d1:ba:0a:f1
        Signature Algorithm: md5WithRSAEncryption
        Issuer: C=DE, ST=Saarland, O=MPI-SWS, OU=Distributed Systems Group, CN=Andreas Haeberlen/emailAddress=democa@octarine.de
        Validity
            Not Before: Apr 20 20:47:32 2015 GMT
            Not After : Apr 19 20:47:32 2016 GMT
        Subject: C=DE, ST=Saarland, O=MPI-SWS, OU=Distributed Systems Group, CN=42bedf009b819c7bea51e2ee89168bbdd7cb6cc0/emailAddress=node0793@octarine.de
        Subject Public Key Info:
            Public Key Algorithm: rsaEncryption
            RSA Public Key: (1024 bit)
                Modulus (1024 bit):
                    00:e2:44:1d:b6:7c:3d:39:a8:50:f1:02:d9:21:e0:
                    7d:c7:9c:4e:ba:c8:ba:4d:fc:27:4c:d1:b7:46:6f:
                    90:43:3b:8a:a4:b1:f8:d3:54:78:a3:87:e6:72:a5:
                    07:3a:8a:92:8b:aa:95:33:96:1a:b9:4b:8a:e8:c8:
                    20:e6:70:7b:5e:5a:73:02:c3:82:9e:81:76:e3:7d:
                    a9:2e:e8:5d:62:b9:e6:bc:9d:8e:c6:46:52:65:0c:
                    b4:5d:4a:89:03:ea:a5:2a:b6:6d:35:67:35:0f:12:
                    b9:31:ed:20:b1:e5:3a:1b:96:36:84:81:a3:82:0d:
                    e1:da:bd:83:72:55:7f:c0:1f
                Exponent: 65537 (0x10001)
    Signature Algorithm: md5WithRSAEncryption
        82:64:8d:4c:b1:43:43:9f:7f:70:45:d6:67:84:ac:cd:6c:6f:
        e7:30:6e:37:21:15:f8:fd:bc:4c:6d:6b:2f:0b:c5:9e:8e:4e:
        e7:45:3c:1b:95:5c:b6:9f:1d:cf:7e:20:47:9a:25:80:f2:2e:
        04:22:e5:78:8e:df:d6:94:9a:6b:2d:60:e5:fa:7e:ca:47:7b:
        fb:53:2e:b8:f7:fc:49:00:34:bb:14:9e:a5:e4:b2:93:cc:29:
        ee:d5:05:8e:33:23:4b:46:9a:e0:99:18:51:ba:13:f2:5d:c5:
        05:7b:c4:b8:d8:1a:f9:e5:6b:1e:29:53:03:04:5e:75:33:35:
        c3:ae
-----BEGIN CERTIFICATE-----
MIICvDCCAiUCCQCbJ9fo0boK8TANBgkqhkiG9w0BAQQFADCBlTELMAkGA1UEBhMC
REUxETAPBgNVBAgTCFNhYXJsYW5kMRAwDgYDVQQKEwdNUEktU1dTMSIwIAYDVQQL
ExlEaXN0cmlidXRlZCBTeXN0ZW1zIEdyb3VwMRowGAYDVQQDExFBbmRyZWFzIEhh
ZWJlcmxlbjEhMB8GCSqGSIb3DQEJARYSZGVtb2NhQG9jdGFyaW5lLmRlMB4XDTE1
MDQyMDIwNDczMloXDTE2MDQxOTIwNDczMlowga4xCzAJBgNVBAYTAkRFMREwDwYD
VQQIEwhTYWFybGFuZDEQMA4GA1UEChMHTVBJLVNXUzEiMCAGA1UECxMZRGlzdHJp
YnV0ZWQgU3lzdGVtcyBHcm91cDExMC8GA1UEAxMoNDJiZWRmMDA5YjgxOWM3YmVh
NTFlMmVlODkxNjhiYmRkN2NiNmNjMDEjMCEGCSqGSIb3DQEJARYUbm9kZTA3OTNA
b2N0YXJpbmUuZGUwgZ8wDQYJKoZIhvcNAQEBBQADgY0AMIGJAoGBAOJEHbZ8PTmo
UPEC2SHgfcecTrrIuk38J0zRt0ZvkEM7iqSx+NNUeKOH5nKlBzqKkouqlTOWGrlL
iujIIOZwe15acwLDgp6BduN9qS7oXWK55rydjsZGUmUMtF1KiQPqpSq2bTVnNQ8S
uTHtILHlOhuWNoSBo4IN4dq9g3JVf8AfAgMBAAEwDQYJKoZIhvcNAQEEBQADgYEA
gmSNTLFDQ59/cEXWZ4SszWxv5zBuNyEV+P28TG1rLwvFno5O50U8G5Vctp8dz34g
R5olgPIuBCLleI7f1pSaay1g5fp+ykd7+1MuuPf8SQA0uxSepeSyk8wp7tUFjjMj
S0aa4JkYUboT8l3FBXvEuNga+eVrHilTAwRedTM1w64=
-----END CERTIFICATE-----
