Certificate:
    Data:
        Version: 1 (0x0)
        Serial Number:
            9b:27:d7:e8:d1:ba:0a:34
        Signature Algorithm: md5WithRSAEncryption
        Issuer: C=DE, ST=Saarland, O=MPI-SWS, OU=Distributed Systems Group, CN=Andreas Haeberlen/emailAddress=democa@octarine.de
        Validity
            Not Before: Apr 20 20:47:23 2015 GMT
            Not After : Apr 19 20:47:23 2016 GMT
        Subject: C=DE, ST=Saarland, O=MPI-SWS, OU=Distributed Systems Group, CN=c88c02d779f9ecc3f9c5534f88f8a9b62432609e/emailAddress=node0604@octarine.de
        Subject Public Key Info:
            Public Key Algorithm: rsaEncryption
            RSA Public Key: (1024 bit)
                Modulus (1024 bit):
                    00:ca:d4:28:26:60:1d:55:8c:9d:4a:67:f1:c6:67:
                    5a:c1:3c:99:18:e8:38:b2:b4:18:4d:7d:bd:69:97:
                    a0:92:b0:8e:36:e0:7b:5f:6c:37:c8:97:06:f9:66:
                    1e:e5:bd:c0:4c:0e:64:fb:84:72:de:92:86:f7:a6:
                    30:42:a9:21:e1:de:60:68:60:aa:c8:36:30:6b:4c:
                    34:87:a5:ef:b9:25:69:e4:e9:25:75:8e:a8:ba:c4:
                    9f:3a:f1:03:83:37:61:75:96:71:fc:ed:77:12:5f:
                    b2:46:9f:ca:13:0a:0e:7d:5f:d9:62:04:1a:03:ac:
                    d2:eb:bb:68:bd:9b:07:c4:b9
                Exponent: 65537 (0x10001)
    Signature Algorithm: md5WithRSAEncryption
        47:6c:a1:dc:a0:5d:ba:9a:6f:1e:23:d0:00:c9:89:27:1a:d8:
        66:81:3a:c1:e4:27:cf:57:84:b1:00:66:f3:3c:5d:1f:14:dc:
        4c:d4:62:36:f4:48:37:28:8a:a9:61:ee:5f:0e:c8:fb:23:75:
        16:25:90:5b:6a:76:d9:4a:f4:4c:1f:79:ab:3d:8c:71:1d:0e:
        e5:96:28:a7:a6:84:26:bb:c2:2e:35:dd:74:4f:33:75:52:88:
        7c:3d:a4:02:9e:ed:9d:8e:30:d7:a5:30:c1:fe:fd:d9:b9:4f:
        61:aa:a2:b0:85:57:70:2a:28:aa:2c:85:c2:1a:9a:78:76:81:
        b9:bb
-----BEGIN CERTIFICATE-----
MIICvDCCAiUCCQCbJ9fo0boKNDANBgkqhkiG9w0BAQQFADCBlTELMAkGA1UEBhMC
REUxETAPBgNVBAgTCFNhYXJsYW5kMRAwDgYDVQQKEwdNUEktU1dTMSIwIAYDVQQL
ExlEaXN0cmlidXRlZCBTeXN0ZW1zIEdyb3VwMRowGAYDVQQDExFBbmRyZWFzIEhh
ZWJlcmxlbjEhMB8GCSqGSIb3DQEJARYSZGVtb2NhQG9jdGFyaW5lLmRlMB4XDTE1
MDQyMDIwNDcyM1oXDTE2MDQxOTIwNDcyM1owga4xCzAJBgNVBAYTAkRFMREwDwYD
VQQIEwhTYWFybGFuZDEQMA4GA1UEChMHTVBJLVNXUzEiMCAGA1UECxMZRGlzdHJp
YnV0ZWQgU3lzdGVtcyBHcm91cDExMC8GA1UEAxMoYzg4YzAyZDc3OWY5ZWNjM2Y5
YzU1MzRmODhmOGE5YjYyNDMyNjA5ZTEjMCEGCSqGSIb3DQEJARYUbm9kZTA2MDRA
b2N0YXJpbmUuZGUwgZ8wDQYJKoZIhvcNAQEBBQADgY0AMIGJAoGBAMrUKCZgHVWM
nUpn8cZnWsE8mRjoOLK0GE19vWmXoJKwjjbge19sN8iXBvlmHuW9wEwOZPuEct6S
hvemMEKpIeHeYGhgqsg2MGtMNIel77klaeTpJXWOqLrEnzrxA4M3YXWWcfztdxJf
skafyhMKDn1f2WIEGgOs0uu7aL2bB8S5AgMBAAEwDQYJKoZIhvcNAQEEBQADgYEA
R2yh3KBduppvHiPQAMmJJxrYZoE6weQnz1eEsQBm8zxdHxTcTNRiNvRINyiKqWHu
Xw7I+yN1FiWQW2p22Ur0TB95qz2McR0O5ZYop6aEJrvCLjXddE8zdVKIfD2kAp7t
nY4w16Uwwf792blPYaqisIVXcCooqiyFwhqaeHaBubs=
-----END CERTIFICATE-----
