Certificate:
    Data:
        Version: 1 (0x0)
        Serial Number:
            9b:27:d7:e8:d1:ba:0a:2a
        Signature Algorithm: md5WithRSAEncryption
        Issuer: C=DE, ST=Saarland, O=MPI-SWS, OU=Distributed Systems Group, CN=Andreas Haeberlen/emailAddress=democa@octarine.de
        Validity
            Not Before: Apr 20 20:47:23 2015 GMT
            Not After : Apr 19 20:47:23 2016 GMT
        Subject: C=DE, ST=Saarland, O=MPI-SWS, OU=Distributed Systems Group, CN=e48232173c867ec781edea2f707462f56889b91e/emailAddress=node0594@octarine.de
        Subject Public Key Info:
            Public Key Algorithm: rsaEncryption
            RSA Public Key: (1024 bit)
                Modulus (1024 bit):
                    00:d6:ce:5e:cb:a7:2c:38:e9:32:14:cd:44:27:ca:
                    55:b0:07:a5:c5:c9:5f:2f:64:97:76:41:24:05:58:
                    b7:6b:e8:b0:fd:31:0d:17:64:a7:e3:b1:24:02:c9:
                    20:88:f7:8d:33:86:24:9f:ff:a3:22:c4:97:67:09:
                    1a:3b:08:4e:1c:c1:f7:2c:5e:9f:7e:e5:88:c7:75:
                    15:e9:26:3d:51:d9:bd:78:b8:fe:ff:bc:42:1a:5f:
                    47:7a:e2:9b:a0:d2:72:a5:13:72:86:f4:36:50:de:
                    a0:6e:21:dc:af:78:ea:37:4b:c2:98:67:b0:31:1d:
                    3c:ec:d5:82:61:02:a5:f0:c5
                Exponent: 65537 (0x10001)
    Signature Algorithm: md5WithRSAEncryption
        ab:3d:34:61:9b:21:7f:e3:c7:88:83:6a:82:92:6d:3d:c2:09:
        86:39:93:98:16:f0:92:e4:94:41:d5:7e:e9:8d:ce:6e:2a:1b:
        fd:78:50:37:a5:8d:e9:ed:3e:f6:4e:eb:4c:1d:af:d1:ea:1e:
        be:55:bd:a3:8c:5f:7e:3f:59:a9:98:2d:73:60:f3:91:07:a5:
        c0:1d:04:16:cf:eb:ab:33:f7:6b:e8:48:62:5d:f0:19:73:81:
        22:a2:33:9f:b1:9b:e1:38:1d:cb:0d:3c:00:a5:f2:c5:42:bd:
        32:36:b8:21:94:d5:28:f8:aa:8c:49:48:87:49:1c:c3:39:74:
        94:7b
-----BEGIN CERTIFICATE-----
MIICvDCCAiUCCQCbJ9fo0boKKjANBgkqhkiG9w0BAQQFADCBlTELMAkGA1UEBhMC
REUxETAPBgNVBAgTCFNhYXJsYW5kMRAwDgYDVQQKEwdNUEktU1dTMSIwIAYDVQQL
ExlEaXN0cmlidXRlZCBTeXN0ZW1zIEdyb3VwMRowGAYDVQQDExFBbmRyZWFzIEhh
ZWJlcmxlbjEhMB8GCSqGSIb3DQEJARYSZGVtb2NhQG9jdGFyaW5lLmRlMB4XDTE1
MDQyMDIwNDcyM1oXDTE2MDQxOTIwNDcyM1owga4xCzAJBgNVBAYTAkRFMREwDwYD
VQQIEwhTYWFybGFuZDEQMA4GA1UEChMHTVBJLVNXUzEiMCAGA1UECxMZRGlzdHJp
YnV0ZWQgU3lzdGVtcyBHcm91cDExMC8GA1UEAxMoZTQ4MjMyMTczYzg2N2VjNzgx
ZWRlYTJmNzA3NDYyZjU2ODg5YjkxZTEjMCEGCSqGSIb3DQEJARYUbm9kZTA1OTRA
b2N0YXJpbmUuZGUwgZ8wDQYJKoZIhvcNAQEBBQADgY0AMIGJAoGBANbOXsunLDjp
MhTNRCfKVbAHpcXJXy9kl3ZBJAVYt2vosP0xDRdkp+OxJALJIIj3jTOGJJ//oyLE
l2cJGjsIThzB9yxen37liMd1FekmPVHZvXi4/v+8QhpfR3rim6DScqUTcob0NlDe
oG4h3K946jdLwphnsDEdPOzVgmECpfDFAgMBAAEwDQYJKoZIhvcNAQEEBQADgYEA
qz00YZshf+PHiINqgpJtPcIJhjmTmBbwkuSUQdV+6Y3Obiob/XhQN6WN6e0+9k7r
TB2v0eoevlW9o4xffj9ZqZgtc2DzkQelwB0EFs/rqzP3a+hIYl3wGXOBIqIzn7Gb
4Tgdyw08AKXyxUK9Mja4IZTVKPiqjElIh0kcwzl0lHs=
-----END CERTIFICATE-----
