Certificate:
    Data:
        Version: 1 (0x0)
        Serial Number:
            9b:27:d7:e8:d1:ba:09:26
        Signature Algorithm: md5WithRSAEncryption
        Issuer: C=DE, ST=Saarland, O=MPI-SWS, OU=Distributed Systems Group, CN=Andreas Haeberlen/emailAddress=democa@octarine.de
        Validity
            Not Before: Apr 20 20:47:11 2015 GMT
            Not After : Apr 19 20:47:11 2016 GMT
        Subject: C=DE, ST=Saarland, O=MPI-SWS, OU=Distributed Systems Group, CN=c702ae0a7a094c96d6bfd2e23ed9d90900cbfc57/emailAddress=node0334@octarine.de
        Subject Public Key Info:
            Public Key Algorithm: rsaEncryption
            RSA Public Key: (1024 bit)
                Modulus (1024 bit):
                    00:b2:68:03:74:53:34:67:87:f8:36:51:da:cc:48:
                    84:be:b0:0e:49:8d:59:d8:a2:17:d5:28:ac:b7:75:
                    04:16:06:3c:5d:01:5d:89:a4:28:fb:39:90:1b:e8:
                    64:23:bf:cb:4b:76:eb:e7:db:dc:0d:ba:a6:4a:06:
                    5c:9d:a8:9c:1b:17:e0:01:87:21:01:da:c6:35:2e:
                    f7:82:6f:46:6f:cc:4c:b9:05:04:ae:91:18:3c:c9:
                    8f:3e:48:79:1b:e2:ec:6b:9e:f6:55:39:4a:cf:3e:
                    fc:9d:04:70:d2:57:2b:6b:e7:fb:c3:ba:89:c0:21:
                    7e:f7:83:3d:7e:7e:7f:4b:99
                Exponent: 65537 (0x10001)
    Signature Algorithm: md5WithRSAEncryption
        54:36:84:62:8b:79:a2:01:14:ab:52:8f:f8:ef:64:b5:28:81:
        a9:0d:ca:d0:cb:cb:4d:35:95:e8:be:5a:79:ba:c8:2a:f7:01:
        61:3c:cd:16:54:5a:ef:76:20:c9:e3:23:41:91:61:09:9d:44:
        62:46:3e:12:8f:89:76:e2:cb:55:c7:5d:b3:ba:34:65:49:c9:
        fa:9b:be:18:a1:68:42:5b:f5:f0:43:c2:b2:6d:16:82:33:4e:
        69:63:ff:a3:84:2d:01:20:68:6b:c3:c1:cf:ef:51:ab:cd:9b:
        e4:3a:8f:35:d3:bf:4a:bb:f7:b3:b7:88:06:5b:44:cc:ea:a0:
        9d:fd
-----BEGIN CERTIFICATE-----
MIICvDCCAiUCCQCbJ9fo0boJJjANBgkqhkiG9w0BAQQFADCBlTELMAkGA1UEBhMC
REUxETAPBgNVBAgTCFNhYXJsYW5kMRAwDgYDVQQKEwdNUEktU1dTMSIwIAYDVQQL
ExlEaXN0cmlidXRlZCBTeXN0ZW1zIEdyb3VwMRowGAYDVQQDExFBbmRyZWFzIEhh
ZWJlcmxlbjEhMB8GCSqGSIb3DQEJARYSZGVtb2NhQG9jdGFyaW5lLmRlMB4XDTE1
MDQyMDIwNDcxMVoXDTE2MDQxOTIwNDcxMVowga4xCzAJBgNVBAYTAkRFMREwDwYD
VQQIEwhTYWFybGFuZDEQMA4GA1UEChMHTVBJLVNXUzEiMCAGA1UECxMZRGlzdHJp
YnV0ZWQgU3lzdGVtcyBHcm91cDExMC8GA1UEAxMoYzcwMmFlMGE3YTA5NGM5NmQ2
YmZkMmUyM2VkOWQ5MDkwMGNiZmM1NzEjMCEGCSqGSIb3DQEJARYUbm9kZTAzMzRA
b2N0YXJpbmUuZGUwgZ8wDQYJKoZIhvcNAQEBBQADgY0AMIGJAoGBALJoA3RTNGeH
+DZR2sxIhL6wDkmNWdiiF9UorLd1BBYGPF0BXYmkKPs5kBvoZCO/y0t26+fb3A26
pkoGXJ2onBsX4AGHIQHaxjUu94JvRm/MTLkFBK6RGDzJjz5IeRvi7Gue9lU5Ss8+
/J0EcNJXK2vn+8O6icAhfveDPX5+f0uZAgMBAAEwDQYJKoZIhvcNAQEEBQADgYEA
VDaEYot5ogEUq1KP+O9ktSiBqQ3K0MvLTTWV6L5aebrIKvcBYTzNFlRa73YgyeMj
QZFhCZ1EYkY+Eo+JduLLVcdds7o0ZUnJ+pu+GKFoQlv18EPCsm0WgjNOaWP/o4Qt
ASBoa8PBz+9Rq82b5DqPNdO/Srv3s7eIBltEzOqgnf0=
-----END CERTIFICATE-----
