Certificate:
    Data:
        Version: 1 (0x0)
        Serial Number:
            9b:27:d7:e8:d1:ba:0b:05
        Signature Algorithm: md5WithRSAEncryption
        Issuer: C=DE, ST=Saarland, O=MPI-SWS, OU=Distributed Systems Group, CN=Andreas Haeberlen/emailAddress=democa@octarine.de
        Validity
            Not Before: Apr 20 20:47:33 2015 GMT
            Not After : Apr 19 20:47:33 2016 GMT
        Subject: C=DE, ST=Saarland, O=MPI-SWS, OU=Distributed Systems Group, CN=fb0786adf63816743e46ce24445a280231ac84a7/emailAddress=node0813@octarine.de
        Subject Public Key Info:
            Public Key Algorithm: rsaEncryption
            RSA Public Key: (1024 bit)
                Modulus (1024 bit):
                    00:d8:6a:76:b4:c2:7f:af:47:d5:2c:03:ea:7e:a0:
                    47:02:c3:a5:0f:bd:bb:32:7d:04:37:6f:88:63:23:
                    9a:02:c3:18:d3:9c:f2:8d:24:b8:64:03:1f:66:69:
                    df:db:19:09:c9:c4:13:bd:a0:72:4e:08:40:05:ec:
                    95:fb:b5:2b:5e:4b:9b:61:21:be:40:44:c5:65:17:
                    b2:58:6b:f9:a6:57:11:2c:e1:87:5f:5e:1d:03:39:
                    06:10:de:9c:a9:92:9f:a4:d4:c0:5c:24:03:6e:b1:
                    e9:9a:f6:5c:cb:bc:42:38:49:75:54:04:1f:e8:03:
                    d6:9a:78:fd:0b:ae:0a:ef:8d
                Exponent: 65537 (0x10001)
    Signature Algorithm: md5WithRSAEncryption
        a9:63:3f:7b:78:f8:8d:90:2a:1b:7b:e1:a1:32:77:45:ac:45:
        69:c2:1a:88:95:6f:39:0f:4b:4b:9d:a6:99:fe:f2:3f:37:67:
        e7:9d:c2:04:56:62:48:a6:af:02:81:c4:30:e1:10:52:65:ac:
        6b:7a:b8:c0:6d:a1:37:58:50:b1:e0:f0:2d:65:e0:ca:f7:38:
        20:f1:93:62:02:69:28:72:44:95:44:cb:b6:39:22:d8:1b:d8:
        79:8a:db:71:c0:31:61:b0:12:fc:42:82:88:5f:20:f6:ab:c0:
        3b:18:f7:19:81:38:b8:cd:e8:5f:81:98:b4:69:ea:26:28:8a:
        68:f9
-----BEGIN CERTIFICATE-----
MIICvDCCAiUCCQCbJ9fo0boLBTANBgkqhkiG9w0BAQQFADCBlTELMAkGA1UEBhMC
REUxETAPBgNVBAgTCFNhYXJsYW5kMRAwDgYDVQQKEwdNUEktU1dTMSIwIAYDVQQL
ExlEaXN0cmlidXRlZCBTeXN0ZW1zIEdyb3VwMRowGAYDVQQDExFBbmRyZWFzIEhh
ZWJlcmxlbjEhMB8GCSqGSIb3DQEJARYSZGVtb2NhQG9jdGFyaW5lLmRlMB4XDTE1
MDQyMDIwNDczM1oXDTE2MDQxOTIwNDczM1owga4xCzAJBgNVBAYTAkRFMREwDwYD
VQQIEwhTYWFybGFuZDEQMA4GA1UEChMHTVBJLVNXUzEiMCAGA1UECxMZRGlzdHJp
YnV0ZWQgU3lzdGVtcyBHcm91cDExMC8GA1UEAxMoZmIwNzg2YWRmNjM4MTY3NDNl
NDZjZTI0NDQ1YTI4MDIzMWFjODRhNzEjMCEGCSqGSIb3DQEJARYUbm9kZTA4MTNA
b2N0YXJpbmUuZGUwgZ8wDQYJKoZIhvcNAQEBBQADgY0AMIGJAoGBANhqdrTCf69H
1SwD6n6gRwLDpQ+9uzJ9BDdviGMjmgLDGNOc8o0kuGQDH2Zp39sZCcnEE72gck4I
QAXslfu1K15Lm2EhvkBExWUXslhr+aZXESzhh19eHQM5BhDenKmSn6TUwFwkA26x
6Zr2XMu8QjhJdVQEH+gD1pp4/QuuCu+NAgMBAAEwDQYJKoZIhvcNAQEEBQADgYEA
qWM/e3j4jZAqG3vhoTJ3RaxFacIaiJVvOQ9LS52mmf7yPzdn553CBFZiSKavAoHE
MOEQUmWsa3q4wG2hN1hQseDwLWXgyvc4IPGTYgJpKHJElUTLtjki2BvYeYrbccAx
YbAS/EKCiF8g9qvAOxj3GYE4uM3oX4GYtGnqJiiKaPk=
-----END CERTIFICATE-----
