Certificate:
    Data:
        Version: 1 (0x0)
        Serial Number:
            9b:27:d7:e8:d1:ba:08:5c
        Signature Algorithm: md5WithRSAEncryption
        Issuer: C=DE, ST=Saarland, O=MPI-SWS, OU=Distributed Systems Group, CN=Andreas Haeberlen/emailAddress=democa@octarine.de
        Validity
            Not Before: Apr 20 20:47:02 2015 GMT
            Not After : Apr 19 20:47:02 2016 GMT
        Subject: C=DE, ST=Saarland, O=MPI-SWS, OU=Distributed Systems Group, CN=ec16cd7804c447b52b5241d0849e282053720fa1/emailAddress=node0132@octarine.de
        Subject Public Key Info:
            Public Key Algorithm: rsaEncryption
            RSA Public Key: (1024 bit)
                Modulus (1024 bit):
                    00:ce:ee:4a:46:f8:8b:a2:28:56:f5:99:a5:6e:8a:
                    a5:2b:ed:a2:fe:5e:e3:18:c1:12:56:0d:b9:4c:60:
                    56:4e:09:56:e2:52:65:60:d7:03:62:ca:d1:c1:ac:
                    37:e9:9e:6e:23:0a:ac:7b:5e:b9:c0:8a:78:fb:85:
                    2b:a9:b5:18:62:2e:bf:d9:65:84:07:9b:d8:c0:fa:
                    f6:d1:f9:1e:00:46:e5:a5:c7:76:b1:24:2e:7a:bd:
                    69:f4:6d:41:2d:5c:55:12:22:6d:aa:85:56:c5:b0:
                    63:d8:6b:d4:d5:95:b6:be:34:30:b4:ab:b7:44:77:
                    ca:97:d3:a3:a9:4e:45:13:35
                Exponent: 65537 (0x10001)
    Signature Algorithm: md5WithRSAEncryption
        7a:2c:a4:51:01:c6:d9:7a:54:00:2d:15:4e:10:63:a8:76:2d:
        6a:34:d3:77:5c:4c:05:5e:04:4a:9c:2a:76:d2:7c:6a:d7:dc:
        a1:cc:76:3b:49:00:35:c6:0c:69:34:85:30:70:1d:bf:66:43:
        d9:51:26:b6:1c:df:c0:c3:17:69:76:d0:1d:64:06:f2:54:1e:
        50:cf:82:de:ca:09:e5:d2:9c:c3:3e:6e:0d:c9:e7:c1:55:34:
        a6:ac:a3:71:39:fc:9f:f6:27:04:10:b2:75:b8:cb:d4:41:25:
        28:fd:9a:de:93:77:93:d1:38:74:37:bf:50:9a:07:91:50:f1:
        1b:de
-----BEGIN CERTIFICATE-----
MIICvDCCAiUCCQCbJ9fo0boIXDANBgkqhkiG9w0BAQQFADCBlTELMAkGA1UEBhMC
REUxETAPBgNVBAgTCFNhYXJsYW5kMRAwDgYDVQQKEwdNUEktU1dTMSIwIAYDVQQL
ExlEaXN0cmlidXRlZCBTeXN0ZW1zIEdyb3VwMRowGAYDVQQDExFBbmRyZWFzIEhh
ZWJlcmxlbjEhMB8GCSqGSIb3DQEJARYSZGVtb2NhQG9jdGFyaW5lLmRlMB4XDTE1
MDQyMDIwNDcwMloXDTE2MDQxOTIwNDcwMlowga4xCzAJBgNVBAYTAkRFMREwDwYD
VQQIEwhTYWFybGFuZDEQMA4GA1UEChMHTVBJLVNXUzEiMCAGA1UECxMZRGlzdHJp
YnV0ZWQgU3lzdGVtcyBHcm91cDExMC8GA1UEAxMoZWMxNmNkNzgwNGM0NDdiNTJi
NTI0MWQwODQ5ZTI4MjA1MzcyMGZhMTEjMCEGCSqGSIb3DQEJARYUbm9kZTAxMzJA
b2N0YXJpbmUuZGUwgZ8wDQYJKoZIhvcNAQEBBQADgY0AMIGJAoGBAM7uSkb4i6Io
VvWZpW6KpSvtov5e4xjBElYNuUxgVk4JVuJSZWDXA2LK0cGsN+mebiMKrHteucCK
ePuFK6m1GGIuv9llhAeb2MD69tH5HgBG5aXHdrEkLnq9afRtQS1cVRIibaqFVsWw
Y9hr1NWVtr40MLSrt0R3ypfTo6lORRM1AgMBAAEwDQYJKoZIhvcNAQEEBQADgYEA
eiykUQHG2XpUAC0VThBjqHYtajTTd1xMBV4ESpwqdtJ8atfcocx2O0kANcYMaTSF
MHAdv2ZD2VEmthzfwMMXaXbQHWQG8lQeUM+C3soJ5dKcwz5uDcnnwVU0pqyjcTn8
n/YnBBCydbjL1EElKP2a3pN3k9E4dDe/UJoHkVDxG94=
-----END CERTIFICATE-----
