Certificate:
    Data:
        Version: 1 (0x0)
        Serial Number:
            9b:27:d7:e8:d1:ba:0b:a5
        Signature Algorithm: md5WithRSAEncryption
        Issuer: C=DE, ST=Saarland, O=MPI-SWS, OU=Distributed Systems Group, CN=Andreas Haeberlen/emailAddress=democa@octarine.de
        Validity
            Not Before: Apr 20 20:47:40 2015 GMT
            Not After : Apr 19 20:47:40 2016 GMT
        Subject: C=DE, ST=Saarland, O=MPI-SWS, OU=Distributed Systems Group, CN=af0e93962e1b71892f37e4632439a95496329d9c/emailAddress=node0973@octarine.de
        Subject Public Key Info:
            Public Key Algorithm: rsaEncryption
            RSA Public Key: (1024 bit)
                Modulus (1024 bit):
                    00:d6:84:dc:1c:04:63:dc:db:0c:ff:99:20:1c:c0:
                    5a:a6:fb:95:5b:be:61:cb:da:47:0f:f2:6c:bc:a6:
                    c8:68:54:ee:b6:6c:63:b4:6a:b5:4f:9e:73:9f:6b:
                    bf:a5:3d:a8:b2:b2:ee:1a:4a:ed:b9:af:94:68:57:
                    be:58:b3:63:74:f2:30:a5:35:f7:93:a0:81:bf:a6:
                    a5:92:72:3e:13:c3:ae:13:bc:ec:6a:97:93:54:90:
                    9c:6a:d1:fc:fc:6e:c4:93:08:0e:e5:34:f7:53:5c:
                    18:03:f8:d8:8a:54:a8:98:3a:27:57:6b:d5:b8:8d:
                    55:13:38:95:68:66:a0:61:a9
                Exponent: 65537 (0x10001)
    Signature Algorithm: md5WithRSAEncryption
        69:9e:e1:ed:b8:90:70:9e:09:25:85:29:c0:ae:c3:c9:da:e0:
        c7:7a:97:37:c5:81:82:06:31:69:e4:90:26:b9:ed:43:89:af:
        b2:0a:d9:bc:86:a6:8b:ce:9a:50:7c:bc:f9:eb:e5:a5:bb:70:
        a4:13:cc:ca:60:4d:57:6b:09:81:15:36:b0:36:50:27:65:18:
        fe:75:68:9c:ba:9c:14:69:75:d4:6d:d5:8d:08:48:1e:0b:60:
        0c:60:36:e8:05:ea:a8:6b:a0:f8:bd:7b:03:b5:20:1e:46:dc:
        10:2f:89:40:82:be:af:c3:fd:a8:dc:e0:8e:df:87:6f:98:ee:
        78:46
-----BEGIN CERTIFICATE-----
MIICvDCCAiUCCQCbJ9fo0boLpTANBgkqhkiG9w0BAQQFADCBlTELMAkGA1UEBhMC
REUxETAPBgNVBAgTCFNhYXJsYW5kMRAwDgYDVQQKEwdNUEktU1dTMSIwIAYDVQQL
ExlEaXN0cmlidXRlZCBTeXN0ZW1zIEdyb3VwMRowGAYDVQQDExFBbmRyZWFzIEhh
ZWJlcmxlbjEhMB8GCSqGSIb3DQEJARYSZGVtb2NhQG9jdGFyaW5lLmRlMB4XDTE1
MDQyMDIwNDc0MFoXDTE2MDQxOTIwNDc0MFowga4xCzAJBgNVBAYTAkRFMREwDwYD
VQQIEwhTYWFybGFuZDEQMA4GA1UEChMHTVBJLVNXUzEiMCAGA1UECxMZRGlzdHJp
YnV0ZWQgU3lzdGVtcyBHcm91cDExMC8GA1UEAxMoYWYwZTkzOTYyZTFiNzE4OTJm
MzdlNDYzMjQzOWE5NTQ5NjMyOWQ5YzEjMCEGCSqGSIb3DQEJARYUbm9kZTA5NzNA
b2N0YXJpbmUuZGUwgZ8wDQYJKoZIhvcNAQEBBQADgY0AMIGJAoGBANaE3BwEY9zb
DP+ZIBzAWqb7lVu+YcvaRw/ybLymyGhU7rZsY7RqtU+ec59rv6U9qLKy7hpK7bmv
lGhXvlizY3TyMKU195Oggb+mpZJyPhPDrhO87GqXk1SQnGrR/PxuxJMIDuU091Nc
GAP42IpUqJg6J1dr1biNVRM4lWhmoGGpAgMBAAEwDQYJKoZIhvcNAQEEBQADgYEA
aZ7h7biQcJ4JJYUpwK7Dydrgx3qXN8WBggYxaeSQJrntQ4mvsgrZvIami86aUHy8
+evlpbtwpBPMymBNV2sJgRU2sDZQJ2UY/nVonLqcFGl11G3VjQhIHgtgDGA26AXq
qGug+L17A7UgHkbcEC+JQIK+r8P9qNzgjt+Hb5jueEY=
-----END CERTIFICATE-----
