Certificate:
    Data:
        Version: 1 (0x0)
        Serial Number:
            9b:27:d7:e8:d1:ba:0b:92
        Signature Algorithm: md5WithRSAEncryption
        Issuer: C=DE, ST=Saarland, O=MPI-SWS, OU=Distributed Systems Group, CN=Andreas Haeberlen/emailAddress=democa@octarine.de
        Validity
            Not Before: Apr 20 20:47:39 2015 GMT
            Not After : Apr 19 20:47:39 2016 GMT
        Subject: C=DE, ST=Saarland, O=MPI-SWS, OU=Distributed Systems Group, CN=38924f6948eaf10440a3254313481204aa6fad9e/emailAddress=node0954@octarine.de
        Subject Public Key Info:
            Public Key Algorithm: rsaEncryption
            RSA Public Key: (1024 bit)
                Modulus (1024 bit):
                    00:c2:b5:f0:6e:93:48:20:22:35:51:ac:1c:1e:cb:
                    89:a8:5a:ce:b0:7d:67:e1:84:a8:3b:9b:45:0f:2e:
                    28:56:76:e2:f6:e4:ec:5e:eb:03:b6:cb:f9:0f:84:
                    9d:04:e6:bb:9b:fb:d2:83:0e:4f:be:4a:d6:cd:6c:
                    dd:77:53:7e:87:68:ab:4f:68:68:8d:40:51:80:79:
                    70:bd:20:77:12:89:4e:33:9b:ad:ae:eb:db:8c:5b:
                    6e:fd:0a:df:6f:29:30:1b:25:03:14:19:ce:ca:62:
                    15:82:83:87:45:8c:7e:79:52:14:ce:37:f8:04:7c:
                    29:7e:89:55:f4:4e:a6:6e:75
                Exponent: 65537 (0x10001)
    Signature Algorithm: md5WithRSAEncryption
        88:42:52:f3:5e:45:1f:07:58:91:76:71:70:69:5f:ce:45:ed:
        1c:24:24:e5:1f:7e:cc:83:6d:1a:c4:15:15:64:11:39:24:73:
        08:f6:6c:c3:95:cb:12:c0:09:0c:40:53:83:92:bd:e4:3d:ad:
        04:1c:b9:f8:1f:83:5e:8f:89:c8:18:fa:ef:8a:1f:45:13:32:
        95:a9:66:37:ae:c6:ea:69:35:a0:c5:62:a6:9a:cd:eb:ef:cf:
        ac:ac:5e:d7:00:db:cf:04:cd:f2:f3:31:76:ad:49:a4:6b:2a:
        05:2f:54:bf:66:9a:15:57:48:88:06:63:2e:fe:4d:bd:45:ac:
        d5:d7
-----BEGIN CERTIFICATE-----
MIICvDCCAiUCCQCbJ9fo0boLkjANBgkqhkiG9w0BAQQFADCBlTELMAkGA1UEBhMC
REUxETAPBgNVBAgTCFNhYXJsYW5kMRAwDgYDVQQKEwdNUEktU1dTMSIwIAYDVQQL
ExlEaXN0cmlidXRlZCBTeXN0ZW1zIEdyb3VwMRowGAYDVQQDExFBbmRyZWFzIEhh
ZWJlcmxlbjEhMB8GCSqGSIb3DQEJARYSZGVtb2NhQG9jdGFyaW5lLmRlMB4XDTE1
MDQyMDIwNDczOVoXDTE2MDQxOTIwNDczOVowga4xCzAJBgNVBAYTAkRFMREwDwYD
VQQIEwhTYWFybGFuZDEQMA4GA1UEChMHTVBJLVNXUzEiMCAGA1UECxMZRGlzdHJp
YnV0ZWQgU3lzdGVtcyBHcm91cDExMC8GA1UEAxMoMzg5MjRmNjk0OGVhZjEwNDQw
YTMyNTQzMTM0ODEyMDRhYTZmYWQ5ZTEjMCEGCSqGSIb3DQEJARYUbm9kZTA5NTRA
b2N0YXJpbmUuZGUwgZ8wDQYJKoZIhvcNAQEBBQADgY0AMIGJAoGBAMK18G6TSCAi
NVGsHB7LiahazrB9Z+GEqDubRQ8uKFZ24vbk7F7rA7bL+Q+EnQTmu5v70oMOT75K
1s1s3XdTfodoq09oaI1AUYB5cL0gdxKJTjObra7r24xbbv0K328pMBslAxQZzspi
FYKDh0WMfnlSFM43+AR8KX6JVfROpm51AgMBAAEwDQYJKoZIhvcNAQEEBQADgYEA
iEJS815FHwdYkXZxcGlfzkXtHCQk5R9+zINtGsQVFWQROSRzCPZsw5XLEsAJDEBT
g5K95D2tBBy5+B+DXo+JyBj674ofRRMylalmN67G6mk1oMVipprN6+/PrKxe1wDb
zwTN8vMxdq1JpGsqBS9Uv2aaFVdIiAZjLv5NvUWs1dc=
-----END CERTIFICATE-----
