Certificate:
    Data:
        Version: 1 (0x0)
        Serial Number:
            9b:27:d7:e8:d1:ba:0a:2b
        Signature Algorithm: md5WithRSAEncryption
        Issuer: C=DE, ST=Saarland, O=MPI-SWS, OU=Distributed Systems Group, CN=Andreas Haeberlen/emailAddress=democa@octarine.de
        Validity
            Not Before: Apr 20 20:47:23 2015 GMT
            Not After : Apr 19 20:47:23 2016 GMT
        Subject: C=DE, ST=Saarland, O=MPI-SWS, OU=Distributed Systems Group, CN=5a4d914132f1c2142899a8e116bcfca57f200623/emailAddress=node0595@octarine.de
        Subject Public Key Info:
            Public Key Algorithm: rsaEncryption
            RSA Public Key: (1024 bit)
                Modulus (1024 bit):
                    00:f2:23:61:5e:a9:bd:48:c9:94:fe:b2:95:b5:20:
                    ee:f6:1a:6f:3c:8e:54:ac:5b:44:35:e2:ec:62:9d:
                    96:cf:37:18:92:82:e1:f7:4e:09:fd:59:57:2b:7d:
                    25:ca:42:7a:0a:e1:de:7e:69:9c:39:2c:38:30:57:
                    ec:68:1e:ff:35:2f:65:24:3e:75:06:97:93:f6:2c:
                    9b:ea:22:6c:46:57:c2:9b:41:2a:c5:36:b4:58:46:
                    02:79:8f:1d:ec:14:40:e1:d5:c1:37:4c:62:e7:ff:
                    f4:fe:b1:48:91:f0:b1:c1:e2:29:53:dc:7a:6a:28:
                    6c:b0:84:2a:76:f4:5d:35:3b
                Exponent: 65537 (0x10001)
    Signature Algorithm: md5WithRSAEncryption
        45:c9:31:54:2a:f9:e2:44:6b:cb:e6:9e:e7:c0:10:63:9c:fc:
        db:22:74:a7:28:ef:21:44:78:93:e8:c2:10:3e:42:3d:20:f3:
        04:31:7f:da:9d:75:b9:d5:3b:82:eb:4d:c4:b3:5a:96:c7:6d:
        a2:19:b9:5d:56:fe:49:59:e9:30:03:13:08:ef:cb:43:1a:6a:
        63:96:12:1f:61:04:39:73:ea:58:c8:25:41:09:92:05:95:ee:
        06:8c:fc:93:17:5d:28:99:63:61:a6:29:2b:2d:73:c8:3e:cd:
        1a:39:f9:31:99:04:2f:4e:01:77:98:01:38:01:7c:dc:a4:2b:
        7f:5c
-----BEGIN CERTIFICATE-----
MIICvDCCAiUCCQCbJ9fo0boKKzANBgkqhkiG9w0BAQQFADCBlTELMAkGA1UEBhMC
REUxETAPBgNVBAgTCFNhYXJsYW5kMRAwDgYDVQQKEwdNUEktU1dTMSIwIAYDVQQL
ExlEaXN0cmlidXRlZCBTeXN0ZW1zIEdyb3VwMRowGAYDVQQDExFBbmRyZWFzIEhh
ZWJlcmxlbjEhMB8GCSqGSIb3DQEJARYSZGVtb2NhQG9jdGFyaW5lLmRlMB4XDTE1
MDQyMDIwNDcyM1oXDTE2MDQxOTIwNDcyM1owga4xCzAJBgNVBAYTAkRFMREwDwYD
VQQIEwhTYWFybGFuZDEQMA4GA1UEChMHTVBJLVNXUzEiMCAGA1UECxMZRGlzdHJp
YnV0ZWQgU3lzdGVtcyBHcm91cDExMC8GA1UEAxMoNWE0ZDkxNDEzMmYxYzIxNDI4
OTlhOGUxMTZiY2ZjYTU3ZjIwMDYyMzEjMCEGCSqGSIb3DQEJARYUbm9kZTA1OTVA
b2N0YXJpbmUuZGUwgZ8wDQYJKoZIhvcNAQEBBQADgY0AMIGJAoGBAPIjYV6pvUjJ
lP6ylbUg7vYabzyOVKxbRDXi7GKdls83GJKC4fdOCf1ZVyt9JcpCegrh3n5pnDks
ODBX7Gge/zUvZSQ+dQaXk/Ysm+oibEZXwptBKsU2tFhGAnmPHewUQOHVwTdMYuf/
9P6xSJHwscHiKVPcemoobLCEKnb0XTU7AgMBAAEwDQYJKoZIhvcNAQEEBQADgYEA
RckxVCr54kRry+ae58AQY5z82yJ0pyjvIUR4k+jCED5CPSDzBDF/2p11udU7gutN
xLNalsdtohm5XVb+SVnpMAMTCO/LQxpqY5YSH2EEOXPqWMglQQmSBZXuBoz8kxdd
KJljYaYpKy1zyD7NGjn5MZkEL04Bd5gBOAF83KQrf1w=
-----END CERTIFICATE-----
