Certificate:
    Data:
        Version: 1 (0x0)
        Serial Number:
            9b:27:d7:e8:d1:ba:08:83
        Signature Algorithm: md5WithRSAEncryption
        Issuer: C=DE, ST=Saarland, O=MPI-SWS, OU=Distributed Systems Group, CN=Andreas Haeberlen/emailAddress=democa@octarine.de
        Validity
            Not Before: Apr 20 20:47:04 2015 GMT
            Not After : Apr 19 20:47:04 2016 GMT
        Subject: C=DE, ST=Saarland, O=MPI-SWS, OU=Distributed Systems Group, CN=4b27439c8d2c3e6e63f1d7e2a9ba4e28a40e7aa0/emailAddress=node0171@octarine.de
        Subject Public Key Info:
            Public Key Algorithm: rsaEncryption
            RSA Public Key: (1024 bit)
                Modulus (1024 bit):
                    00:bf:8f:ca:6f:a4:cc:1a:df:0a:ce:c3:49:7a:15:
                    ea:e4:c6:59:09:89:f2:a0:8c:4a:96:4d:dc:1e:24:
                    30:bd:a2:2c:5c:98:32:c6:0f:50:34:26:62:65:3f:
                    ae:ac:c6:da:4d:22:33:c2:86:16:6a:67:fb:27:d7:
                    7c:2f:b6:01:a2:b3:6d:8e:f7:01:78:b6:5e:fb:c6:
                    f5:91:0a:ff:a9:f1:ee:85:cc:87:4d:90:30:65:d9:
                    ef:6d:1d:fe:17:64:4b:33:9c:ce:dd:c0:c2:f6:bc:
                    a7:80:35:51:8e:d5:e7:9f:b0:d5:ba:68:a6:d6:41:
                    ed:b6:6f:f3:8e:a4:d0:dc:59
                Exponent: 65537 (0x10001)
    Signature Algorithm: md5WithRSAEncryption
        13:24:01:4d:ab:5a:90:37:15:a0:20:f1:12:ad:8c:25:e1:f9:
        74:a5:e3:ac:af:7b:56:4f:ca:2f:5d:89:52:21:12:3a:8e:b0:
        33:b6:f8:da:eb:97:99:b9:1f:7b:ea:d2:c9:66:34:3a:44:d5:
        cd:45:e6:2b:e7:16:f9:fc:67:c7:c2:4a:ce:dd:85:4b:7b:a9:
        e0:d0:c8:5d:17:b6:02:86:e0:03:f0:20:fc:26:9e:d0:26:3b:
        0e:a0:db:70:0b:bf:fd:e8:c9:7c:49:d1:59:fd:d3:ff:31:e1:
        98:b0:15:13:de:01:b5:85:52:37:04:75:1f:f0:d2:53:a6:86:
        c2:c9
-----BEGIN CERTIFICATE-----
MIICvDCCAiUCCQCbJ9fo0boIgzANBgkqhkiG9w0BAQQFADCBlTELMAkGA1UEBhMC
REUxETAPBgNVBAgTCFNhYXJsYW5kMRAwDgYDVQQKEwdNUEktU1dTMSIwIAYDVQQL
ExlEaXN0cmlidXRlZCBTeXN0ZW1zIEdyb3VwMRowGAYDVQQDExFBbmRyZWFzIEhh
ZWJlcmxlbjEhMB8GCSqGSIb3DQEJARYSZGVtb2NhQG9jdGFyaW5lLmRlMB4XDTE1
MDQyMDIwNDcwNFoXDTE2MDQxOTIwNDcwNFowga4xCzAJBgNVBAYTAkRFMREwDwYD
VQQIEwhTYWFybGFuZDEQMA4GA1UEChMHTVBJLVNXUzEiMCAGA1UECxMZRGlzdHJp
YnV0ZWQgU3lzdGVtcyBHcm91cDExMC8GA1UEAxMoNGIyNzQzOWM4ZDJjM2U2ZTYz
ZjFkN2UyYTliYTRlMjhhNDBlN2FhMDEjMCEGCSqGSIb3DQEJARYUbm9kZTAxNzFA
b2N0YXJpbmUuZGUwgZ8wDQYJKoZIhvcNAQEBBQADgY0AMIGJAoGBAL+Pym+kzBrf
Cs7DSXoV6uTGWQmJ8qCMSpZN3B4kML2iLFyYMsYPUDQmYmU/rqzG2k0iM8KGFmpn
+yfXfC+2AaKzbY73AXi2XvvG9ZEK/6nx7oXMh02QMGXZ720d/hdkSzOczt3Awva8
p4A1UY7V55+w1bpoptZB7bZv846k0NxZAgMBAAEwDQYJKoZIhvcNAQEEBQADgYEA
EyQBTatakDcVoCDxEq2MJeH5dKXjrK97Vk/KL12JUiESOo6wM7b42uuXmbkfe+rS
yWY0OkTVzUXmK+cW+fxnx8JKzt2FS3up4NDIXRe2AobgA/Ag/Cae0CY7DqDbcAu/
/ejJfEnRWf3T/zHhmLAVE94BtYVSNwR1H/DSU6aGwsk=
-----END CERTIFICATE-----
