Certificate:
    Data:
        Version: 1 (0x0)
        Serial Number:
            9b:27:d7:e8:d1:ba:0a:cc
        Signature Algorithm: md5WithRSAEncryption
        Issuer: C=DE, ST=Saarland, O=MPI-SWS, OU=Distributed Systems Group, CN=Andreas Haeberlen/emailAddress=democa@octarine.de
        Validity
            Not Before: Apr 20 20:47:30 2015 GMT
            Not After : Apr 19 20:47:30 2016 GMT
        Subject: C=DE, ST=Saarland, O=MPI-SWS, OU=Distributed Systems Group, CN=41c0b5398ee2c359823b8cb89d6549f8bc961df9/emailAddress=node0756@octarine.de
        Subject Public Key Info:
            Public Key Algorithm: rsaEncryption
            RSA Public Key: (1024 bit)
                Modulus (1024 bit):
                    00:e7:21:0d:db:4c:ae:1e:87:57:a7:30:83:f9:fc:
                    47:65:15:b1:1f:f1:82:17:55:55:3d:23:e9:0b:c4:
                    f3:fc:da:66:92:57:cc:da:ae:6a:0d:e8:dd:6c:71:
                    e9:b9:73:70:0f:d4:bb:86:af:ae:f2:23:7f:61:e4:
                    bc:3a:fd:d4:cd:0d:76:8c:e8:04:5d:c0:09:b6:13:
                    87:83:0f:8b:56:ad:23:0d:9e:95:c6:9a:c3:0f:49:
                    53:af:4c:60:51:ac:b1:ec:28:f4:53:ec:36:e3:52:
                    90:d4:25:a6:45:10:57:20:1f:62:f6:91:fd:a5:c1:
                    d6:b7:63:17:c0:36:03:59:7d
                Exponent: 65537 (0x10001)
    Signature Algorithm: md5WithRSAEncryption
        33:30:ff:a3:16:20:79:59:a7:95:19:01:c9:46:4c:a0:13:9b:
        45:ea:a4:e5:37:0e:2d:76:a1:31:11:76:ae:aa:0c:a1:e0:4c:
        ab:99:f2:c4:80:11:d5:af:40:5d:91:91:69:13:8b:e9:97:0b:
        0f:88:ed:6e:7b:f5:5e:2a:82:16:9f:1f:1b:7a:ba:b7:47:e5:
        cf:50:98:0a:84:5f:d8:0c:1f:6b:5e:55:ae:15:d0:fc:cd:1e:
        ff:7e:09:c8:f0:73:5c:41:b5:81:0a:f2:f5:dc:93:69:53:a3:
        2d:dd:4a:db:50:c6:8e:4f:23:7a:23:aa:83:d6:74:74:ad:45:
        c5:9e
-----BEGIN CERTIFICATE-----
MIICvDCCAiUCCQCbJ9fo0boKzDANBgkqhkiG9w0BAQQFADCBlTELMAkGA1UEBhMC
REUxETAPBgNVBAgTCFNhYXJsYW5kMRAwDgYDVQQKEwdNUEktU1dTMSIwIAYDVQQL
ExlEaXN0cmlidXRlZCBTeXN0ZW1zIEdyb3VwMRowGAYDVQQDExFBbmRyZWFzIEhh
ZWJlcmxlbjEhMB8GCSqGSIb3DQEJARYSZGVtb2NhQG9jdGFyaW5lLmRlMB4XDTE1
MDQyMDIwNDczMFoXDTE2MDQxOTIwNDczMFowga4xCzAJBgNVBAYTAkRFMREwDwYD
VQQIEwhTYWFybGFuZDEQMA4GA1UEChMHTVBJLVNXUzEiMCAGA1UECxMZRGlzdHJp
YnV0ZWQgU3lzdGVtcyBHcm91cDExMC8GA1UEAxMoNDFjMGI1Mzk4ZWUyYzM1OTgy
M2I4Y2I4OWQ2NTQ5ZjhiYzk2MWRmOTEjMCEGCSqGSIb3DQEJARYUbm9kZTA3NTZA
b2N0YXJpbmUuZGUwgZ8wDQYJKoZIhvcNAQEBBQADgY0AMIGJAoGBAOchDdtMrh6H
V6cwg/n8R2UVsR/xghdVVT0j6QvE8/zaZpJXzNquag3o3Wxx6blzcA/Uu4avrvIj
f2HkvDr91M0NdozoBF3ACbYTh4MPi1atIw2elcaaww9JU69MYFGssewo9FPsNuNS
kNQlpkUQVyAfYvaR/aXB1rdjF8A2A1l9AgMBAAEwDQYJKoZIhvcNAQEEBQADgYEA
MzD/oxYgeVmnlRkByUZMoBObReqk5TcOLXahMRF2rqoMoeBMq5nyxIAR1a9AXZGR
aROL6ZcLD4jtbnv1XiqCFp8fG3q6t0flz1CYCoRf2Awfa15VrhXQ/M0e/34JyPBz
XEG1gQry9dyTaVOjLd1K21DGjk8jeiOqg9Z0dK1FxZ4=
-----END CERTIFICATE-----
