Certificate:
    Data:
        Version: 1 (0x0)
        Serial Number:
            9b:27:d7:e8:d1:ba:0a:6c
        Signature Algorithm: md5WithRSAEncryption
        Issuer: C=DE, ST=Saarland, O=MPI-SWS, OU=Distributed Systems Group, CN=Andreas Haeberlen/emailAddress=democa@octarine.de
        Validity
            Not Before: Apr 20 20:47:26 2015 GMT
            Not After : Apr 19 20:47:26 2016 GMT
        Subject: C=DE, ST=Saarland, O=MPI-SWS, OU=Distributed Systems Group, CN=3a762da4fd0146cf028520095375dcc0636810d1/emailAddress=node0660@octarine.de
        Subject Public Key Info:
            Public Key Algorithm: rsaEncryption
            RSA Public Key: (1024 bit)
                Modulus (1024 bit):
                    00:f5:d3:50:bf:6f:02:c2:8a:38:15:27:14:fc:55:
                    6e:43:51:e3:6c:b5:29:41:c0:24:8e:6d:0c:9b:6d:
                    8f:eb:6a:03:34:79:32:37:c7:14:08:26:35:1e:87:
                    4f:37:e1:22:bb:76:b3:19:54:49:30:11:3e:ef:7a:
                    14:c8:5e:76:83:59:61:2e:fd:cf:c9:ba:a2:55:78:
                    87:b3:12:43:81:79:3f:66:f7:a8:bd:1f:d2:50:a6:
                    85:1d:73:17:72:7f:d7:1f:ca:d2:d5:57:30:ab:6d:
                    c3:dd:c5:58:dc:79:64:6b:21:6d:6c:e3:c9:c2:86:
                    f5:24:e6:35:ba:3f:23:12:6d
                Exponent: 65537 (0x10001)
    Signature Algorithm: md5WithRSAEncryption
        7f:54:06:ad:9b:a8:47:11:32:56:52:88:ba:18:16:ce:77:59:
        b6:51:66:3f:bd:bb:9e:13:a5:6e:9d:9b:17:b6:c3:d7:9d:fc:
        41:49:46:39:7d:cd:38:dd:df:81:d4:7c:00:00:8d:e3:43:97:
        c4:dd:d4:09:7c:55:92:19:70:1a:b3:5f:89:a5:2a:06:21:40:
        a6:1c:e4:23:90:2a:2d:9e:08:3c:39:12:5d:3f:99:e4:ff:b9:
        b7:08:59:a5:76:1d:1d:81:6f:a5:b2:35:a7:93:87:a4:d5:39:
        7b:fe:a2:bc:81:2f:ba:b2:55:43:6d:79:98:fc:ef:90:f9:d0:
        0c:ab
-----BEGIN CERTIFICATE-----
MIICvDCCAiUCCQCbJ9fo0boKbDANBgkqhkiG9w0BAQQFADCBlTELMAkGA1UEBhMC
REUxETAPBgNVBAgTCFNhYXJsYW5kMRAwDgYDVQQKEwdNUEktU1dTMSIwIAYDVQQL
ExlEaXN0cmlidXRlZCBTeXN0ZW1zIEdyb3VwMRowGAYDVQQDExFBbmRyZWFzIEhh
ZWJlcmxlbjEhMB8GCSqGSIb3DQEJARYSZGVtb2NhQG9jdGFyaW5lLmRlMB4XDTE1
MDQyMDIwNDcyNloXDTE2MDQxOTIwNDcyNlowga4xCzAJBgNVBAYTAkRFMREwDwYD
VQQIEwhTYWFybGFuZDEQMA4GA1UEChMHTVBJLVNXUzEiMCAGA1UECxMZRGlzdHJp
YnV0ZWQgU3lzdGVtcyBHcm91cDExMC8GA1UEAxMoM2E3NjJkYTRmZDAxNDZjZjAy
ODUyMDA5NTM3NWRjYzA2MzY4MTBkMTEjMCEGCSqGSIb3DQEJARYUbm9kZTA2NjBA
b2N0YXJpbmUuZGUwgZ8wDQYJKoZIhvcNAQEBBQADgY0AMIGJAoGBAPXTUL9vAsKK
OBUnFPxVbkNR42y1KUHAJI5tDJttj+tqAzR5MjfHFAgmNR6HTzfhIrt2sxlUSTAR
Pu96FMhedoNZYS79z8m6olV4h7MSQ4F5P2b3qL0f0lCmhR1zF3J/1x/K0tVXMKtt
w93FWNx5ZGshbWzjycKG9STmNbo/IxJtAgMBAAEwDQYJKoZIhvcNAQEEBQADgYEA
f1QGrZuoRxEyVlKIuhgWzndZtlFmP727nhOlbp2bF7bD1538QUlGOX3NON3fgdR8
AACN40OXxN3UCXxVkhlwGrNfiaUqBiFAphzkI5AqLZ4IPDkSXT+Z5P+5twhZpXYd
HYFvpbI1p5OHpNU5e/6ivIEvurJVQ215mPzvkPnQDKs=
-----END CERTIFICATE-----
