Certificate:
    Data:
        Version: 1 (0x0)
        Serial Number:
            9b:27:d7:e8:d1:ba:08:4f
        Signature Algorithm: md5WithRSAEncryption
        Issuer: C=DE, ST=Saarland, O=MPI-SWS, OU=Distributed Systems Group, CN=Andreas Haeberlen/emailAddress=democa@octarine.de
        Validity
            Not Before: Apr 20 20:47:02 2015 GMT
            Not After : Apr 19 20:47:02 2016 GMT
        Subject: C=DE, ST=Saarland, O=MPI-SWS, OU=Distributed Systems Group, CN=078f3fcdb09378ba79129584111f8a682e85e539/emailAddress=node0119@octarine.de
        Subject Public Key Info:
            Public Key Algorithm: rsaEncryption
            RSA Public Key: (1024 bit)
                Modulus (1024 bit):
                    00:ab:57:f6:72:dc:da:fd:d6:2b:20:4d:7c:b1:fb:
                    1a:29:64:4e:6f:1e:09:3c:08:b6:71:00:e5:70:11:
                    e4:7b:1a:33:bd:17:35:dd:44:b9:6f:a3:16:4e:96:
                    5f:61:d2:10:97:9a:6b:8f:d8:91:55:29:d9:75:fb:
                    2e:0f:8d:6d:ed:8f:26:76:6f:92:c0:60:92:b6:e5:
                    f2:30:7b:f1:a9:e3:9f:c7:2f:b7:94:e3:d2:02:3e:
                    2d:28:a4:00:3f:be:21:e9:02:11:0f:26:8c:df:6b:
                    29:66:f9:1c:5e:e9:27:6b:bb:8d:7a:ba:3a:22:a8:
                    76:fa:7a:d6:d2:4b:dd:8f:83
                Exponent: 65537 (0x10001)
    Signature Algorithm: md5WithRSAEncryption
        0f:7b:96:04:b6:85:d4:76:0a:df:20:6c:a8:5e:1b:4c:5c:9f:
        70:f6:46:5a:b2:3a:3f:80:f3:78:4d:15:06:b0:16:9e:b3:d8:
        b9:6b:ec:ed:81:81:26:64:73:59:61:8c:1a:f1:f6:90:ab:a8:
        98:b1:2c:88:d0:7c:ec:63:5b:06:62:9f:68:80:dc:35:32:63:
        25:e4:b1:8b:ee:31:35:8d:dd:80:02:1f:9f:cc:a8:13:1c:c8:
        89:cb:07:24:9d:50:77:20:ae:f3:02:55:f5:84:59:28:d4:ba:
        22:fb:2c:59:55:f1:25:a1:dd:8d:f2:73:e0:0e:36:e4:0e:ce:
        2b:7c
-----BEGIN CERTIFICATE-----
MIICvDCCAiUCCQCbJ9fo0boITzANBgkqhkiG9w0BAQQFADCBlTELMAkGA1UEBhMC
REUxETAPBgNVBAgTCFNhYXJsYW5kMRAwDgYDVQQKEwdNUEktU1dTMSIwIAYDVQQL
ExlEaXN0cmlidXRlZCBTeXN0ZW1zIEdyb3VwMRowGAYDVQQDExFBbmRyZWFzIEhh
ZWJlcmxlbjEhMB8GCSqGSIb3DQEJARYSZGVtb2NhQG9jdGFyaW5lLmRlMB4XDTE1
MDQyMDIwNDcwMloXDTE2MDQxOTIwNDcwMlowga4xCzAJBgNVBAYTAkRFMREwDwYD
VQQIEwhTYWFybGFuZDEQMA4GA1UEChMHTVBJLVNXUzEiMCAGA1UECxMZRGlzdHJp
YnV0ZWQgU3lzdGVtcyBHcm91cDExMC8GA1UEAxMoMDc4ZjNmY2RiMDkzNzhiYTc5
MTI5NTg0MTExZjhhNjgyZTg1ZTUzOTEjMCEGCSqGSIb3DQEJARYUbm9kZTAxMTlA
b2N0YXJpbmUuZGUwgZ8wDQYJKoZIhvcNAQEBBQADgY0AMIGJAoGBAKtX9nLc2v3W
KyBNfLH7GilkTm8eCTwItnEA5XAR5HsaM70XNd1EuW+jFk6WX2HSEJeaa4/YkVUp
2XX7Lg+Nbe2PJnZvksBgkrbl8jB78anjn8cvt5Tj0gI+LSikAD++IekCEQ8mjN9r
KWb5HF7pJ2u7jXq6OiKodvp61tJL3Y+DAgMBAAEwDQYJKoZIhvcNAQEEBQADgYEA
D3uWBLaF1HYK3yBsqF4bTFyfcPZGWrI6P4DzeE0VBrAWnrPYuWvs7YGBJmRzWWGM
GvH2kKuomLEsiNB87GNbBmKfaIDcNTJjJeSxi+4xNY3dgAIfn8yoExzIicsHJJ1Q
dyCu8wJV9YRZKNS6IvssWVXxJaHdjfJz4A425A7OK3w=
-----END CERTIFICATE-----
