Certificate:
    Data:
        Version: 1 (0x0)
        Serial Number:
            9b:27:d7:e8:d1:ba:0a:e3
        Signature Algorithm: md5WithRSAEncryption
        Issuer: C=DE, ST=Saarland, O=MPI-SWS, OU=Distributed Systems Group, CN=Andreas Haeberlen/emailAddress=democa@octarine.de
        Validity
            Not Before: Apr 20 20:47:31 2015 GMT
            Not After : Apr 19 20:47:31 2016 GMT
        Subject: C=DE, ST=Saarland, O=MPI-SWS, OU=Distributed Systems Group, CN=f4662b48a68c3e71a57b1b05bf0eed4e2a5559e0/emailAddress=node0779@octarine.de
        Subject Public Key Info:
            Public Key Algorithm: rsaEncryption
            RSA Public Key: (1024 bit)
                Modulus (1024 bit):
                    00:c8:2d:a2:79:ee:84:9b:22:e9:25:4b:d9:6f:20:
                    25:6b:06:c2:00:db:ab:0b:a4:c0:98:a6:d8:e0:95:
                    8c:1b:7b:c6:b4:fc:87:c9:be:e9:3a:04:90:e2:5b:
                    91:ac:55:f7:5c:a7:c4:81:0f:17:6e:7e:da:85:9e:
                    2b:e6:52:c1:88:e5:66:12:9f:08:f2:ba:c5:bf:f8:
                    d3:49:9a:01:2b:2e:bc:c5:33:68:c2:25:a8:f5:05:
                    7c:ea:d6:60:a8:16:d9:f5:2e:8b:ea:27:f8:6c:bc:
                    c8:30:fe:11:80:52:45:86:8e:0c:ee:00:70:af:f1:
                    cc:82:04:8b:c0:e4:a5:b5:39
                Exponent: 65537 (0x10001)
    Signature Algorithm: md5WithRSAEncryption
        17:e5:a1:59:cd:cd:92:60:f7:7c:e7:f6:4e:08:b4:46:52:57:
        f7:26:bc:af:67:be:8b:71:26:5d:fc:56:78:4f:a2:cc:7f:68:
        cd:1c:49:dd:1d:2a:bb:70:e2:7f:62:ef:83:d9:a1:c7:05:24:
        76:23:6d:cb:f0:c6:51:ba:2a:5c:f6:fb:e1:5f:27:f0:63:c7:
        83:e6:dd:d9:be:ac:1c:5d:85:2c:a2:b1:83:5f:67:83:74:c3:
        b6:86:d0:ca:9c:4b:bf:cb:fb:84:0f:89:c6:03:cd:58:e0:bf:
        d0:5f:d1:34:24:39:51:c2:f6:d8:14:ca:8f:6b:92:87:8a:a2:
        42:fa
-----BEGIN CERTIFICATE-----
MIICvDCCAiUCCQCbJ9fo0boK4zANBgkqhkiG9w0BAQQFADCBlTELMAkGA1UEBhMC
REUxETAPBgNVBAgTCFNhYXJsYW5kMRAwDgYDVQQKEwdNUEktU1dTMSIwIAYDVQQL
ExlEaXN0cmlidXRlZCBTeXN0ZW1zIEdyb3VwMRowGAYDVQQDExFBbmRyZWFzIEhh
ZWJlcmxlbjEhMB8GCSqGSIb3DQEJARYSZGVtb2NhQG9jdGFyaW5lLmRlMB4XDTE1
MDQyMDIwNDczMVoXDTE2MDQxOTIwNDczMVowga4xCzAJBgNVBAYTAkRFMREwDwYD
VQQIEwhTYWFybGFuZDEQMA4GA1UEChMHTVBJLVNXUzEiMCAGA1UECxMZRGlzdHJp
YnV0ZWQgU3lzdGVtcyBHcm91cDExMC8GA1UEAxMoZjQ2NjJiNDhhNjhjM2U3MWE1
N2IxYjA1YmYwZWVkNGUyYTU1NTllMDEjMCEGCSqGSIb3DQEJARYUbm9kZTA3NzlA
b2N0YXJpbmUuZGUwgZ8wDQYJKoZIhvcNAQEBBQADgY0AMIGJAoGBAMgtonnuhJsi
6SVL2W8gJWsGwgDbqwukwJim2OCVjBt7xrT8h8m+6ToEkOJbkaxV91ynxIEPF25+
2oWeK+ZSwYjlZhKfCPK6xb/400maASsuvMUzaMIlqPUFfOrWYKgW2fUui+on+Gy8
yDD+EYBSRYaODO4AcK/xzIIEi8DkpbU5AgMBAAEwDQYJKoZIhvcNAQEEBQADgYEA
F+WhWc3NkmD3fOf2Tgi0RlJX9ya8r2e+i3EmXfxWeE+izH9ozRxJ3R0qu3Dif2Lv
g9mhxwUkdiNty/DGUboqXPb74V8n8GPHg+bd2b6sHF2FLKKxg19ng3TDtobQypxL
v8v7hA+JxgPNWOC/0F/RNCQ5UcL22BTKj2uSh4qiQvo=
-----END CERTIFICATE-----
