Certificate:
    Data:
        Version: 1 (0x0)
        Serial Number:
            9b:27:d7:e8:d1:ba:0a:a6
        Signature Algorithm: md5WithRSAEncryption
        Issuer: C=DE, ST=Saarland, O=MPI-SWS, OU=Distributed Systems Group, CN=Andreas Haeberlen/emailAddress=democa@octarine.de
        Validity
            Not Before: Apr 20 20:47:28 2015 GMT
            Not After : Apr 19 20:47:28 2016 GMT
        Subject: C=DE, ST=Saarland, O=MPI-SWS, OU=Distributed Systems Group, CN=14ada505df7d5f509b977d5cad956857cf5755c2/emailAddress=node0718@octarine.de
        Subject Public Key Info:
            Public Key Algorithm: rsaEncryption
            RSA Public Key: (1024 bit)
                Modulus (1024 bit):
                    00:d9:62:39:94:82:29:f0:f2:14:93:f8:4f:ba:30:
                    95:9e:2f:2f:58:02:37:66:d7:cc:a2:15:69:bd:51:
                    99:33:26:15:56:04:e6:66:97:62:e3:02:ea:9a:99:
                    3f:2f:9a:c3:44:ec:30:90:c7:e9:ae:a3:83:2e:65:
                    e3:6e:90:20:45:a2:a6:3b:d1:48:3b:fc:05:0b:75:
                    01:0d:a7:39:c4:15:d6:bd:29:b0:5c:fb:47:90:63:
                    68:10:06:04:de:51:ce:68:a7:b5:70:9e:76:76:ff:
                    e7:3e:c3:95:65:bc:76:29:1e:4c:60:f9:75:d4:00:
                    9d:1d:0a:cb:b1:4e:b2:02:11
                Exponent: 65537 (0x10001)
    Signature Algorithm: md5WithRSAEncryption
        71:a6:d3:50:d1:bf:00:ba:a4:9d:9c:f1:37:55:33:74:1c:ab:
        9e:9f:a2:bb:5e:f4:fc:3a:ed:0a:dc:81:b7:85:38:c9:38:dc:
        ba:01:90:c2:1d:b1:d4:e6:ff:c6:74:6b:04:29:e9:47:c6:32:
        7f:31:cc:ba:3b:23:50:01:7b:ad:99:b7:85:67:d4:9a:53:ec:
        8f:a8:e8:c6:d8:16:80:16:ab:d9:10:e4:8b:aa:10:29:c1:c0:
        3d:b1:34:b7:39:83:67:b5:13:a5:0d:c6:08:da:aa:cf:f7:6e:
        e9:a7:d0:7a:83:4f:30:21:f0:ec:bb:8e:f7:27:15:7d:65:08:
        9d:36
-----BEGIN CERTIFICATE-----
MIICvDCCAiUCCQCbJ9fo0boKpjANBgkqhkiG9w0BAQQFADCBlTELMAkGA1UEBhMC
REUxETAPBgNVBAgTCFNhYXJsYW5kMRAwDgYDVQQKEwdNUEktU1dTMSIwIAYDVQQL
ExlEaXN0cmlidXRlZCBTeXN0ZW1zIEdyb3VwMRowGAYDVQQDExFBbmRyZWFzIEhh
ZWJlcmxlbjEhMB8GCSqGSIb3DQEJARYSZGVtb2NhQG9jdGFyaW5lLmRlMB4XDTE1
MDQyMDIwNDcyOFoXDTE2MDQxOTIwNDcyOFowga4xCzAJBgNVBAYTAkRFMREwDwYD
VQQIEwhTYWFybGFuZDEQMA4GA1UEChMHTVBJLVNXUzEiMCAGA1UECxMZRGlzdHJp
YnV0ZWQgU3lzdGVtcyBHcm91cDExMC8GA1UEAxMoMTRhZGE1MDVkZjdkNWY1MDli
OTc3ZDVjYWQ5NTY4NTdjZjU3NTVjMjEjMCEGCSqGSIb3DQEJARYUbm9kZTA3MThA
b2N0YXJpbmUuZGUwgZ8wDQYJKoZIhvcNAQEBBQADgY0AMIGJAoGBANliOZSCKfDy
FJP4T7owlZ4vL1gCN2bXzKIVab1RmTMmFVYE5maXYuMC6pqZPy+aw0TsMJDH6a6j
gy5l426QIEWipjvRSDv8BQt1AQ2nOcQV1r0psFz7R5BjaBAGBN5RzmintXCednb/
5z7DlWW8dikeTGD5ddQAnR0Ky7FOsgIRAgMBAAEwDQYJKoZIhvcNAQEEBQADgYEA
cabTUNG/ALqknZzxN1UzdByrnp+iu170/DrtCtyBt4U4yTjcugGQwh2x1Ob/xnRr
BCnpR8YyfzHMujsjUAF7rZm3hWfUmlPsj6joxtgWgBar2RDki6oQKcHAPbE0tzmD
Z7UTpQ3GCNqqz/du6afQeoNPMCHw7LuO9ycVfWUInTY=
-----END CERTIFICATE-----
