Certificate:
    Data:
        Version: 1 (0x0)
        Serial Number:
            9b:27:d7:e8:d1:ba:0a:b2
        Signature Algorithm: md5WithRSAEncryption
        Issuer: C=DE, ST=Saarland, O=MPI-SWS, OU=Distributed Systems Group, CN=Andreas Haeberlen/emailAddress=democa@octarine.de
        Validity
            Not Before: Apr 20 20:47:29 2015 GMT
            Not After : Apr 19 20:47:29 2016 GMT
        Subject: C=DE, ST=Saarland, O=MPI-SWS, OU=Distributed Systems Group, CN=6b3221fb62a62d0332f52998b62c2cd980ba2a58/emailAddress=node0730@octarine.de
        Subject Public Key Info:
            Public Key Algorithm: rsaEncryption
            RSA Public Key: (1024 bit)
                Modulus (1024 bit):
                    00:ba:51:4a:c5:da:5c:23:df:cf:7a:92:9e:85:76:
                    30:68:e6:18:19:a4:0f:38:fa:bb:bb:58:3f:20:62:
                    df:ff:7b:11:9a:eb:8b:4b:34:4e:e8:5b:6d:38:a1:
                    1f:ba:ca:df:0b:ed:fc:fa:b3:75:b4:25:59:f9:61:
                    94:17:bb:41:83:5d:78:d4:32:84:0c:a7:6f:79:2a:
                    90:f4:f1:af:17:63:2a:f4:67:90:a1:a7:6b:0e:6d:
                    96:2e:60:63:b7:26:8a:0b:ba:b4:f2:9d:ea:33:df:
                    98:ec:df:a0:f9:42:de:ad:3e:b6:7c:28:b5:23:2d:
                    d5:71:f1:a5:1e:dc:29:32:93
                Exponent: 65537 (0x10001)
    Signature Algorithm: md5WithRSAEncryption
        71:ee:7f:dd:43:97:20:5e:5a:23:90:9a:30:74:80:31:f2:d3:
        87:a2:b9:6e:d0:7c:81:0a:f6:d3:81:1e:7b:2b:40:cc:81:e3:
        38:d0:a4:a7:fb:46:b5:6b:22:b1:43:f0:01:d1:ae:f0:1f:1f:
        ec:5f:ff:f4:63:af:1d:6b:32:84:a7:66:71:e8:ca:c4:72:4c:
        66:60:a4:da:b6:14:ee:8a:5f:1f:f4:33:a6:a2:cd:aa:23:12:
        a8:69:c5:f2:0b:88:ee:62:f6:6f:a5:50:95:aa:8a:a0:ce:6a:
        7e:4e:89:c2:d3:61:20:bc:e8:eb:77:1c:69:57:19:67:bc:78:
        fe:5e
-----BEGIN CERTIFICATE-----
MIICvDCCAiUCCQCbJ9fo0boKsjANBgkqhkiG9w0BAQQFADCBlTELMAkGA1UEBhMC
REUxETAPBgNVBAgTCFNhYXJsYW5kMRAwDgYDVQQKEwdNUEktU1dTMSIwIAYDVQQL
ExlEaXN0cmlidXRlZCBTeXN0ZW1zIEdyb3VwMRowGAYDVQQDExFBbmRyZWFzIEhh
ZWJlcmxlbjEhMB8GCSqGSIb3DQEJARYSZGVtb2NhQG9jdGFyaW5lLmRlMB4XDTE1
MDQyMDIwNDcyOVoXDTE2MDQxOTIwNDcyOVowga4xCzAJBgNVBAYTAkRFMREwDwYD
VQQIEwhTYWFybGFuZDEQMA4GA1UEChMHTVBJLVNXUzEiMCAGA1UECxMZRGlzdHJp
YnV0ZWQgU3lzdGVtcyBHcm91cDExMC8GA1UEAxMoNmIzMjIxZmI2MmE2MmQwMzMy
ZjUyOTk4YjYyYzJjZDk4MGJhMmE1ODEjMCEGCSqGSIb3DQEJARYUbm9kZTA3MzBA
b2N0YXJpbmUuZGUwgZ8wDQYJKoZIhvcNAQEBBQADgY0AMIGJAoGBALpRSsXaXCPf
z3qSnoV2MGjmGBmkDzj6u7tYPyBi3/97EZrri0s0TuhbbTihH7rK3wvt/PqzdbQl
WflhlBe7QYNdeNQyhAynb3kqkPTxrxdjKvRnkKGnaw5tli5gY7cmigu6tPKd6jPf
mOzfoPlC3q0+tnwotSMt1XHxpR7cKTKTAgMBAAEwDQYJKoZIhvcNAQEEBQADgYEA
ce5/3UOXIF5aI5CaMHSAMfLTh6K5btB8gQr204EeeytAzIHjONCkp/tGtWsisUPw
AdGu8B8f7F//9GOvHWsyhKdmcejKxHJMZmCk2rYU7opfH/QzpqLNqiMSqGnF8guI
7mL2b6VQlaqKoM5qfk6JwtNhILzo63ccaVcZZ7x4/l4=
-----END CERTIFICATE-----
