Certificate:
    Data:
        Version: 1 (0x0)
        Serial Number:
            9b:27:d7:e8:d1:ba:0a:64
        Signature Algorithm: md5WithRSAEncryption
        Issuer: C=DE, ST=Saarland, O=MPI-SWS, OU=Distributed Systems Group, CN=Andreas Haeberlen/emailAddress=democa@octarine.de
        Validity
            Not Before: Apr 20 20:47:25 2015 GMT
            Not After : Apr 19 20:47:25 2016 GMT
        Subject: C=DE, ST=Saarland, O=MPI-SWS, OU=Distributed Systems Group, CN=7352d409a1095c5beba252d2227853fc64f490d3/emailAddress=node0652@octarine.de
        Subject Public Key Info:
            Public Key Algorithm: rsaEncryption
            RSA Public Key: (1024 bit)
                Modulus (1024 bit):
                    00:c5:2b:9d:95:70:cd:cf:b5:b7:16:34:cf:ee:17:
                    24:eb:d0:10:03:56:e6:0c:04:22:bd:e2:0d:63:a2:
                    fc:78:6e:11:32:a1:38:89:6f:d6:eb:45:e8:9a:73:
                    58:44:b3:6c:61:f0:3f:89:14:65:21:88:3c:e2:71:
                    54:dc:d7:ab:f7:3e:2c:2a:3b:1f:e1:2f:28:a4:bc:
                    1a:68:40:db:90:bd:76:7e:da:fc:35:4a:08:b3:e1:
                    5c:e4:62:c1:1b:83:b9:0e:b9:44:c7:61:57:5e:14:
                    55:e8:27:8d:87:90:65:fc:5d:46:65:eb:01:99:95:
                    53:76:96:49:75:e2:7d:09:3f
                Exponent: 65537 (0x10001)
    Signature Algorithm: md5WithRSAEncryption
        8b:24:c2:55:99:f3:f7:de:69:b9:0a:53:81:a2:e2:fa:19:e6:
        d4:92:40:16:48:06:d8:a9:1c:1e:ca:eb:21:0c:2e:fb:42:78:
        4e:f3:c6:4c:fd:51:cc:81:bf:ff:96:56:0f:97:75:0e:fb:81:
        23:76:df:6d:e5:ba:ac:be:9e:1e:91:8a:f1:29:f5:42:16:b0:
        61:2e:a9:06:a1:01:46:44:f2:f4:f8:54:4b:f0:3c:77:fd:ee:
        f8:fa:ed:22:21:ce:64:78:33:71:e6:89:ed:79:76:ca:eb:1b:
        4b:06:f2:5e:f2:59:f4:34:7d:21:a1:c7:93:78:23:a6:68:95:
        8c:92
-----BEGIN CERTIFICATE-----
MIICvDCCAiUCCQCbJ9fo0boKZDANBgkqhkiG9w0BAQQFADCBlTELMAkGA1UEBhMC
REUxETAPBgNVBAgTCFNhYXJsYW5kMRAwDgYDVQQKEwdNUEktU1dTMSIwIAYDVQQL
ExlEaXN0cmlidXRlZCBTeXN0ZW1zIEdyb3VwMRowGAYDVQQDExFBbmRyZWFzIEhh
ZWJlcmxlbjEhMB8GCSqGSIb3DQEJARYSZGVtb2NhQG9jdGFyaW5lLmRlMB4XDTE1
MDQyMDIwNDcyNVoXDTE2MDQxOTIwNDcyNVowga4xCzAJBgNVBAYTAkRFMREwDwYD
VQQIEwhTYWFybGFuZDEQMA4GA1UEChMHTVBJLVNXUzEiMCAGA1UECxMZRGlzdHJp
YnV0ZWQgU3lzdGVtcyBHcm91cDExMC8GA1UEAxMoNzM1MmQ0MDlhMTA5NWM1YmVi
YTI1MmQyMjI3ODUzZmM2NGY0OTBkMzEjMCEGCSqGSIb3DQEJARYUbm9kZTA2NTJA
b2N0YXJpbmUuZGUwgZ8wDQYJKoZIhvcNAQEBBQADgY0AMIGJAoGBAMUrnZVwzc+1
txY0z+4XJOvQEANW5gwEIr3iDWOi/HhuETKhOIlv1utF6JpzWESzbGHwP4kUZSGI
POJxVNzXq/c+LCo7H+EvKKS8GmhA25C9dn7a/DVKCLPhXORiwRuDuQ65RMdhV14U
VegnjYeQZfxdRmXrAZmVU3aWSXXifQk/AgMBAAEwDQYJKoZIhvcNAQEEBQADgYEA
iyTCVZnz995puQpTgaLi+hnm1JJAFkgG2KkcHsrrIQwu+0J4TvPGTP1RzIG//5ZW
D5d1DvuBI3bfbeW6rL6eHpGK8Sn1QhawYS6pBqEBRkTy9PhUS/A8d/3u+PrtIiHO
ZHgzceaJ7Xl2yusbSwbyXvJZ9DR9IaHHk3gjpmiVjJI=
-----END CERTIFICATE-----
