Certificate:
    Data:
        Version: 1 (0x0)
        Serial Number:
            9b:27:d7:e8:d1:ba:0a:86
        Signature Algorithm: md5WithRSAEncryption
        Issuer: C=DE, ST=Saarland, O=MPI-SWS, OU=Distributed Systems Group, CN=Andreas Haeberlen/emailAddress=democa@octarine.de
        Validity
            Not Before: Apr 20 20:47:27 2015 GMT
            Not After : Apr 19 20:47:27 2016 GMT
        Subject: C=DE, ST=Saarland, O=MPI-SWS, OU=Distributed Systems Group, CN=dd48027454aae84bde0f03c0b4b19d07a4fb76fc/emailAddress=node0686@octarine.de
        Subject Public Key Info:
            Public Key Algorithm: rsaEncryption
            RSA Public Key: (1024 bit)
                Modulus (1024 bit):
                    00:fc:33:eb:de:37:2c:87:30:06:ae:c1:35:b5:c8:
                    13:0c:90:15:ba:95:00:b6:a5:d7:4d:87:12:e7:a7:
                    55:e6:b8:90:2e:1d:8e:93:d3:0e:b1:33:24:55:49:
                    8a:0d:a7:d5:37:92:c5:17:7c:3f:17:78:e8:89:2b:
                    8b:25:9b:f6:f5:a1:08:1e:07:35:c7:64:67:a6:dc:
                    a6:ee:2a:a9:2d:55:a9:44:26:f8:98:38:d7:e7:d2:
                    75:45:32:26:28:f0:1b:55:78:3b:96:75:f7:9b:3f:
                    a0:fb:46:9a:51:42:6e:b0:b5:2f:06:d1:bc:3b:95:
                    e4:35:dd:07:49:13:ed:d4:df
                Exponent: 65537 (0x10001)
    Signature Algorithm: md5WithRSAEncryption
        72:00:7b:37:6e:92:12:8c:91:09:33:87:86:5f:2b:78:99:03:
        0c:eb:43:60:15:e9:44:8c:2e:ff:4c:f8:2a:6b:86:e0:2e:fb:
        4f:d7:d8:60:96:7f:fc:b0:ad:a7:d8:00:a6:a3:a3:fd:ac:92:
        c3:ec:d2:6c:09:72:4d:13:e5:a5:5c:cc:7a:0a:a7:26:52:0c:
        3c:92:b1:9e:de:a9:26:e9:a3:d8:3c:a4:b3:3c:c2:5e:f9:2c:
        c1:32:48:cf:dc:2b:9e:4f:17:b1:d5:db:8b:dc:4b:67:55:97:
        52:33:19:1d:78:08:3b:cd:01:e5:8b:ca:0f:4b:58:2b:3e:59:
        a8:9c
-----BEGIN CERTIFICATE-----
MIICvDCCAiUCCQCbJ9fo0boKhjANBgkqhkiG9w0BAQQFADCBlTELMAkGA1UEBhMC
REUxETAPBgNVBAgTCFNhYXJsYW5kMRAwDgYDVQQKEwdNUEktU1dTMSIwIAYDVQQL
ExlEaXN0cmlidXRlZCBTeXN0ZW1zIEdyb3VwMRowGAYDVQQDExFBbmRyZWFzIEhh
ZWJlcmxlbjEhMB8GCSqGSIb3DQEJARYSZGVtb2NhQG9jdGFyaW5lLmRlMB4XDTE1
MDQyMDIwNDcyN1oXDTE2MDQxOTIwNDcyN1owga4xCzAJBgNVBAYTAkRFMREwDwYD
VQQIEwhTYWFybGFuZDEQMA4GA1UEChMHTVBJLVNXUzEiMCAGA1UECxMZRGlzdHJp
YnV0ZWQgU3lzdGVtcyBHcm91cDExMC8GA1UEAxMoZGQ0ODAyNzQ1NGFhZTg0YmRl
MGYwM2MwYjRiMTlkMDdhNGZiNzZmYzEjMCEGCSqGSIb3DQEJARYUbm9kZTA2ODZA
b2N0YXJpbmUuZGUwgZ8wDQYJKoZIhvcNAQEBBQADgY0AMIGJAoGBAPwz6943LIcw
Bq7BNbXIEwyQFbqVALal102HEuenVea4kC4djpPTDrEzJFVJig2n1TeSxRd8Pxd4
6IkriyWb9vWhCB4HNcdkZ6bcpu4qqS1VqUQm+Jg41+fSdUUyJijwG1V4O5Z195s/
oPtGmlFCbrC1LwbRvDuV5DXdB0kT7dTfAgMBAAEwDQYJKoZIhvcNAQEEBQADgYEA
cgB7N26SEoyRCTOHhl8reJkDDOtDYBXpRIwu/0z4KmuG4C77T9fYYJZ//LCtp9gA
pqOj/aySw+zSbAlyTRPlpVzMegqnJlIMPJKxnt6pJumj2DykszzCXvkswTJIz9wr
nk8XsdXbi9xLZ1WXUjMZHXgIO80B5YvKD0tYKz5ZqJw=
-----END CERTIFICATE-----
