Certificate:
    Data:
        Version: 1 (0x0)
        Serial Number:
            9b:27:d7:e8:d1:ba:08:d0
        Signature Algorithm: md5WithRSAEncryption
        Issuer: C=DE, ST=Saarland, O=MPI-SWS, OU=Distributed Systems Group, CN=Andreas Haeberlen/emailAddress=democa@octarine.de
        Validity
            Not Before: Apr 20 20:47:07 2015 GMT
            Not After : Apr 19 20:47:07 2016 GMT
        Subject: C=DE, ST=Saarland, O=MPI-SWS, OU=Distributed Systems Group, CN=495b36ff5ffe3a5072db1618534984dcd27097fe/emailAddress=node0248@octarine.de
        Subject Public Key Info:
            Public Key Algorithm: rsaEncryption
            RSA Public Key: (1024 bit)
                Modulus (1024 bit):
                    00:c3:15:1c:db:c6:81:68:22:8c:c2:1c:b5:69:42:
                    1d:06:c1:d6:49:27:81:25:09:03:e3:34:70:0d:c0:
                    51:ff:e2:b9:13:f1:bd:64:e6:51:56:f0:dd:a9:7f:
                    47:00:e7:fc:62:a3:3a:f3:7c:84:9b:3a:e0:2e:6e:
                    8f:80:60:a7:dd:56:d4:66:51:0f:ef:51:92:10:ec:
                    ff:6d:bb:9c:d5:20:a4:dd:b3:8d:bf:33:ac:13:39:
                    20:c6:d7:58:0e:3d:4a:0d:99:a1:f4:b7:70:30:1b:
                    e7:99:99:80:63:27:03:ef:f8:7a:25:d3:cd:62:cc:
                    59:ec:b2:0c:70:10:72:d4:91
                Exponent: 65537 (0x10001)
    Signature Algorithm: md5WithRSAEncryption
        70:dd:1d:66:c4:cc:33:f1:46:ea:11:33:66:4a:3e:00:b3:0c:
        fb:40:3d:2e:44:81:11:0a:dd:05:c0:5a:7d:df:62:6f:03:a0:
        5c:c2:7a:d2:c1:85:37:1d:6d:46:1a:4f:0f:46:d8:6d:0c:76:
        c1:c4:60:ee:c2:54:9a:96:81:81:ff:6d:8b:2d:9a:ee:dd:15:
        ae:2a:27:be:6e:74:a6:25:db:e7:e6:94:60:20:f4:16:b5:aa:
        d1:92:5b:ba:76:e7:74:60:a0:32:f0:2e:cd:7d:03:1b:91:2a:
        29:20:02:7c:2c:da:76:e2:5b:98:56:b8:d2:86:d9:dd:18:53:
        62:c2
-----BEGIN CERTIFICATE-----
MIICvDCCAiUCCQCbJ9fo0boI0DANBgkqhkiG9w0BAQQFADCBlTELMAkGA1UEBhMC
REUxETAPBgNVBAgTCFNhYXJsYW5kMRAwDgYDVQQKEwdNUEktU1dTMSIwIAYDVQQL
ExlEaXN0cmlidXRlZCBTeXN0ZW1zIEdyb3VwMRowGAYDVQQDExFBbmRyZWFzIEhh
ZWJlcmxlbjEhMB8GCSqGSIb3DQEJARYSZGVtb2NhQG9jdGFyaW5lLmRlMB4XDTE1
MDQyMDIwNDcwN1oXDTE2MDQxOTIwNDcwN1owga4xCzAJBgNVBAYTAkRFMREwDwYD
VQQIEwhTYWFybGFuZDEQMA4GA1UEChMHTVBJLVNXUzEiMCAGA1UECxMZRGlzdHJp
YnV0ZWQgU3lzdGVtcyBHcm91cDExMC8GA1UEAxMoNDk1YjM2ZmY1ZmZlM2E1MDcy
ZGIxNjE4NTM0OTg0ZGNkMjcwOTdmZTEjMCEGCSqGSIb3DQEJARYUbm9kZTAyNDhA
b2N0YXJpbmUuZGUwgZ8wDQYJKoZIhvcNAQEBBQADgY0AMIGJAoGBAMMVHNvGgWgi
jMIctWlCHQbB1kkngSUJA+M0cA3AUf/iuRPxvWTmUVbw3al/RwDn/GKjOvN8hJs6
4C5uj4Bgp91W1GZRD+9RkhDs/227nNUgpN2zjb8zrBM5IMbXWA49Sg2ZofS3cDAb
55mZgGMnA+/4eiXTzWLMWeyyDHAQctSRAgMBAAEwDQYJKoZIhvcNAQEEBQADgYEA
cN0dZsTMM/FG6hEzZko+ALMM+0A9LkSBEQrdBcBafd9ibwOgXMJ60sGFNx1tRhpP
D0bYbQx2wcRg7sJUmpaBgf9tiy2a7t0Vrionvm50piXb5+aUYCD0FrWq0ZJbunbn
dGCgMvAuzX0DG5EqKSACfCzaduJbmFa40obZ3RhTYsI=
-----END CERTIFICATE-----
