Certificate:
    Data:
        Version: 1 (0x0)
        Serial Number:
            9b:27:d7:e8:d1:ba:0a:3e
        Signature Algorithm: md5WithRSAEncryption
        Issuer: C=DE, ST=Saarland, O=MPI-SWS, OU=Distributed Systems Group, CN=Andreas Haeberlen/emailAddress=democa@octarine.de
        Validity
            Not Before: Apr 20 20:47:24 2015 GMT
            Not After : Apr 19 20:47:24 2016 GMT
        Subject: C=DE, ST=Saarland, O=MPI-SWS, OU=Distributed Systems Group, CN=b7a15c2cb92a2282e3a7fb8c45f6c6a7e4830afc/emailAddress=node0614@octarine.de
        Subject Public Key Info:
            Public Key Algorithm: rsaEncryption
            RSA Public Key: (1024 bit)
                Modulus (1024 bit):
                    00:cc:d9:ec:a8:8e:b5:ea:dd:3a:d2:f7:eb:a8:f9:
                    12:01:c9:fa:e8:ae:78:9f:80:12:72:fe:c9:26:0d:
                    86:97:82:78:58:65:c7:e9:75:a6:fa:c2:02:f8:b0:
                    81:5a:ae:eb:16:10:07:b7:e7:c6:3a:7c:08:5a:23:
                    ed:85:eb:9b:f7:62:bd:a9:ee:53:22:db:f6:0a:05:
                    3e:bb:f9:52:c1:f0:ed:f1:de:cf:08:80:be:cb:b8:
                    9f:f6:36:41:8b:5f:be:a5:23:88:f4:35:4d:14:a5:
                    6b:dc:90:48:f9:f5:6a:0a:28:f7:82:5f:ea:b0:3e:
                    8b:fe:1a:4e:54:7c:3b:fb:8d
                Exponent: 65537 (0x10001)
    Signature Algorithm: md5WithRSAEncryption
        9b:d0:df:ad:34:43:16:c9:c7:24:60:d8:69:7d:24:0d:78:51:
        8a:6a:9a:90:5a:00:8b:f2:ce:3d:5d:d4:a4:d0:32:9f:70:1b:
        5c:4a:0f:ca:20:76:28:0a:cb:1d:c4:41:f4:c6:d6:3e:c4:a5:
        ee:02:0f:f8:a8:7b:fa:4b:94:8c:22:27:12:a2:76:7c:ab:90:
        f5:b7:cd:01:a3:b4:74:71:23:01:37:d0:24:ce:e2:2b:66:09:
        1c:90:70:63:0e:49:56:10:19:87:bd:85:f8:58:16:e7:85:ce:
        69:0f:36:e7:7b:04:64:cd:3b:c8:d9:22:58:57:d7:b3:c8:e4:
        03:aa
-----BEGIN CERTIFICATE-----
MIICvDCCAiUCCQCbJ9fo0boKPjANBgkqhkiG9w0BAQQFADCBlTELMAkGA1UEBhMC
REUxETAPBgNVBAgTCFNhYXJsYW5kMRAwDgYDVQQKEwdNUEktU1dTMSIwIAYDVQQL
ExlEaXN0cmlidXRlZCBTeXN0ZW1zIEdyb3VwMRowGAYDVQQDExFBbmRyZWFzIEhh
ZWJlcmxlbjEhMB8GCSqGSIb3DQEJARYSZGVtb2NhQG9jdGFyaW5lLmRlMB4XDTE1
MDQyMDIwNDcyNFoXDTE2MDQxOTIwNDcyNFowga4xCzAJBgNVBAYTAkRFMREwDwYD
VQQIEwhTYWFybGFuZDEQMA4GA1UEChMHTVBJLVNXUzEiMCAGA1UECxMZRGlzdHJp
YnV0ZWQgU3lzdGVtcyBHcm91cDExMC8GA1UEAxMoYjdhMTVjMmNiOTJhMjI4MmUz
YTdmYjhjNDVmNmM2YTdlNDgzMGFmYzEjMCEGCSqGSIb3DQEJARYUbm9kZTA2MTRA
b2N0YXJpbmUuZGUwgZ8wDQYJKoZIhvcNAQEBBQADgY0AMIGJAoGBAMzZ7KiOterd
OtL366j5EgHJ+uiueJ+AEnL+ySYNhpeCeFhlx+l1pvrCAviwgVqu6xYQB7fnxjp8
CFoj7YXrm/divanuUyLb9goFPrv5UsHw7fHezwiAvsu4n/Y2QYtfvqUjiPQ1TRSl
a9yQSPn1agoo94Jf6rA+i/4aTlR8O/uNAgMBAAEwDQYJKoZIhvcNAQEEBQADgYEA
m9DfrTRDFsnHJGDYaX0kDXhRimqakFoAi/LOPV3UpNAyn3AbXEoPyiB2KArLHcRB
9MbWPsSl7gIP+Kh7+kuUjCInEqJ2fKuQ9bfNAaO0dHEjATfQJM7iK2YJHJBwYw5J
VhAZh72F+FgW54XOaQ8253sEZM07yNkiWFfXs8jkA6o=
-----END CERTIFICATE-----
