Certificate:
    Data:
        Version: 1 (0x0)
        Serial Number:
            9b:27:d7:e8:d1:ba:0b:ac
        Signature Algorithm: md5WithRSAEncryption
        Issuer: C=DE, ST=Saarland, O=MPI-SWS, OU=Distributed Systems Group, CN=Andreas Haeberlen/emailAddress=democa@octarine.de
        Validity
            Not Before: Apr 20 20:47:40 2015 GMT
            Not After : Apr 19 20:47:40 2016 GMT
        Subject: C=DE, ST=Saarland, O=MPI-SWS, OU=Distributed Systems Group, CN=57112b0a940084d22aa0b46ed4ac7eec50e8ce25/emailAddress=node0980@octarine.de
        Subject Public Key Info:
            Public Key Algorithm: rsaEncryption
            RSA Public Key: (1024 bit)
                Modulus (1024 bit):
                    00:bc:71:2f:b0:76:02:dc:30:11:98:37:53:22:5d:
                    5f:f0:43:3f:4e:5f:11:2b:e4:cd:22:5b:15:20:bb:
                    92:a7:7c:24:0c:38:19:25:05:c9:a8:f1:05:70:39:
                    b6:d9:11:f4:e8:90:82:1c:2f:ee:9b:9f:70:c9:c9:
                    d1:66:29:f2:48:35:5e:d4:61:e4:e7:7b:24:b9:b3:
                    55:cc:13:5b:1a:e9:4b:f2:f8:3c:b7:ec:37:5a:fc:
                    e6:6c:98:7e:d1:2d:03:35:a3:38:75:06:f8:6a:aa:
                    37:87:53:d6:99:26:0a:87:97:a1:c7:fe:94:56:64:
                    80:08:52:fd:5d:b4:f9:bd:51
                Exponent: 65537 (0x10001)
    Signature Algorithm: md5WithRSAEncryption
        9f:cd:46:fe:2d:8f:eb:1e:1a:e9:6d:26:cc:2c:1b:9f:33:fd:
        87:7d:b9:16:b7:ea:76:ee:3a:30:68:f6:48:8d:36:61:47:80:
        ab:8b:1d:da:8b:d8:37:32:65:eb:4c:55:b5:17:e9:37:3f:76:
        57:91:fd:9b:35:cd:95:4a:84:bc:dc:6a:e3:de:d4:65:e7:8c:
        92:9e:66:d6:f7:1b:0f:ad:9a:f8:f0:15:2f:ac:68:05:57:3c:
        cf:80:61:25:fa:a2:0f:ce:e2:32:d9:0f:88:b1:7b:bc:f5:46:
        63:50:69:ec:e8:7a:1b:d2:d5:49:59:b1:d2:0b:de:e9:9d:e2:
        70:09
-----BEGIN CERTIFICATE-----
MIICvDCCAiUCCQCbJ9fo0boLrDANBgkqhkiG9w0BAQQFADCBlTELMAkGA1UEBhMC
REUxETAPBgNVBAgTCFNhYXJsYW5kMRAwDgYDVQQKEwdNUEktU1dTMSIwIAYDVQQL
ExlEaXN0cmlidXRlZCBTeXN0ZW1zIEdyb3VwMRowGAYDVQQDExFBbmRyZWFzIEhh
ZWJlcmxlbjEhMB8GCSqGSIb3DQEJARYSZGVtb2NhQG9jdGFyaW5lLmRlMB4XDTE1
MDQyMDIwNDc0MFoXDTE2MDQxOTIwNDc0MFowga4xCzAJBgNVBAYTAkRFMREwDwYD
VQQIEwhTYWFybGFuZDEQMA4GA1UEChMHTVBJLVNXUzEiMCAGA1UECxMZRGlzdHJp
YnV0ZWQgU3lzdGVtcyBHcm91cDExMC8GA1UEAxMoNTcxMTJiMGE5NDAwODRkMjJh
YTBiNDZlZDRhYzdlZWM1MGU4Y2UyNTEjMCEGCSqGSIb3DQEJARYUbm9kZTA5ODBA
b2N0YXJpbmUuZGUwgZ8wDQYJKoZIhvcNAQEBBQADgY0AMIGJAoGBALxxL7B2Atww
EZg3UyJdX/BDP05fESvkzSJbFSC7kqd8JAw4GSUFyajxBXA5ttkR9OiQghwv7puf
cMnJ0WYp8kg1XtRh5Od7JLmzVcwTWxrpS/L4PLfsN1r85myYftEtAzWjOHUG+Gqq
N4dT1pkmCoeXocf+lFZkgAhS/V20+b1RAgMBAAEwDQYJKoZIhvcNAQEEBQADgYEA
n81G/i2P6x4a6W0mzCwbnzP9h325Frfqdu46MGj2SI02YUeAq4sd2ovYNzJl60xV
tRfpNz92V5H9mzXNlUqEvNxq497UZeeMkp5m1vcbD62a+PAVL6xoBVc8z4BhJfqi
D87iMtkPiLF7vPVGY1Bp7Oh6G9LVSVmx0gve6Z3icAk=
-----END CERTIFICATE-----
