Certificate:
    Data:
        Version: 1 (0x0)
        Serial Number:
            9b:27:d7:e8:d1:ba:08:06
        Signature Algorithm: md5WithRSAEncryption
        Issuer: C=DE, ST=Saarland, O=MPI-SWS, OU=Distributed Systems Group, CN=Andreas Haeberlen/emailAddress=democa@octarine.de
        Validity
            Not Before: Apr 20 20:46:59 2015 GMT
            Not After : Apr 19 20:46:59 2016 GMT
        Subject: C=DE, ST=Saarland, O=MPI-SWS, OU=Distributed Systems Group, CN=d86c8802a366cf495f6f952985e6200086d1fe4a/emailAddress=node0046@octarine.de
        Subject Public Key Info:
            Public Key Algorithm: rsaEncryption
            RSA Public Key: (1024 bit)
                Modulus (1024 bit):
                    00:9c:b5:5c:09:93:f9:ee:dd:92:20:f1:bf:77:d6:
                    13:47:d5:a5:39:fe:a3:6c:57:23:e4:09:73:64:39:
                    b5:23:c6:31:a5:4c:fe:bb:0a:2f:29:0e:6a:de:ef:
                    bf:ae:eb:14:9a:6f:46:f2:4a:b4:9a:83:ba:14:cf:
                    d4:e9:86:8b:84:73:78:ea:6f:40:8d:14:b6:ad:d5:
                    9d:10:4b:8a:19:80:da:b9:29:7a:ad:fe:c1:48:18:
                    86:23:1f:b5:32:8b:fc:84:b9:8c:65:c2:53:85:75:
                    fb:23:86:1d:b3:63:b7:31:89:3d:7b:8d:e9:a5:31:
                    18:1b:34:f0:1f:78:c6:39:df
                Exponent: 65537 (0x10001)
    Signature Algorithm: md5WithRSAEncryption
        26:59:a1:90:6d:ea:7b:be:dc:53:f8:cb:92:95:ff:15:d9:f8:
        70:ec:36:93:0e:43:b3:c8:5c:f8:de:61:73:a7:f6:20:56:ed:
        3b:e1:fe:bc:16:40:47:3c:97:20:b2:d2:74:05:a3:1c:ea:04:
        5e:30:35:21:c2:b9:fc:4e:1c:67:e1:75:82:5c:b9:d5:a7:0e:
        64:3c:99:c4:82:a3:7b:d6:60:f2:da:1e:95:07:93:78:a7:ef:
        3c:33:cd:26:3d:64:80:87:2c:48:91:e8:02:27:35:73:44:fb:
        08:85:ec:54:c7:10:ac:04:02:c5:43:c2:b9:11:8c:ae:bf:92:
        ef:60
-----BEGIN CERTIFICATE-----
MIICvDCCAiUCCQCbJ9fo0boIBjANBgkqhkiG9w0BAQQFADCBlTELMAkGA1UEBhMC
REUxETAPBgNVBAgTCFNhYXJsYW5kMRAwDgYDVQQKEwdNUEktU1dTMSIwIAYDVQQL
ExlEaXN0cmlidXRlZCBTeXN0ZW1zIEdyb3VwMRowGAYDVQQDExFBbmRyZWFzIEhh
ZWJlcmxlbjEhMB8GCSqGSIb3DQEJARYSZGVtb2NhQG9jdGFyaW5lLmRlMB4XDTE1
MDQyMDIwNDY1OVoXDTE2MDQxOTIwNDY1OVowga4xCzAJBgNVBAYTAkRFMREwDwYD
VQQIEwhTYWFybGFuZDEQMA4GA1UEChMHTVBJLVNXUzEiMCAGA1UECxMZRGlzdHJp
YnV0ZWQgU3lzdGVtcyBHcm91cDExMC8GA1UEAxMoZDg2Yzg4MDJhMzY2Y2Y0OTVm
NmY5NTI5ODVlNjIwMDA4NmQxZmU0YTEjMCEGCSqGSIb3DQEJARYUbm9kZTAwNDZA
b2N0YXJpbmUuZGUwgZ8wDQYJKoZIhvcNAQEBBQADgY0AMIGJAoGBAJy1XAmT+e7d
kiDxv3fWE0fVpTn+o2xXI+QJc2Q5tSPGMaVM/rsKLykOat7vv67rFJpvRvJKtJqD
uhTP1OmGi4RzeOpvQI0Utq3VnRBLihmA2rkpeq3+wUgYhiMftTKL/IS5jGXCU4V1
+yOGHbNjtzGJPXuN6aUxGBs08B94xjnfAgMBAAEwDQYJKoZIhvcNAQEEBQADgYEA
JlmhkG3qe77cU/jLkpX/Fdn4cOw2kw5Ds8hc+N5hc6f2IFbtO+H+vBZARzyXILLS
dAWjHOoEXjA1IcK5/E4cZ+F1gly51acOZDyZxIKje9Zg8toelQeTeKfvPDPNJj1k
gIcsSJHoAic1c0T7CIXsVMcQrAQCxUPCuRGMrr+S72A=
-----END CERTIFICATE-----
