Certificate:
    Data:
        Version: 1 (0x0)
        Serial Number:
            9b:27:d7:e8:d1:ba:08:0d
        Signature Algorithm: md5WithRSAEncryption
        Issuer: C=DE, ST=Saarland, O=MPI-SWS, OU=Distributed Systems Group, CN=Andreas Haeberlen/emailAddress=democa@octarine.de
        Validity
            Not Before: Apr 20 20:46:59 2015 GMT
            Not After : Apr 19 20:46:59 2016 GMT
        Subject: C=DE, ST=Saarland, O=MPI-SWS, OU=Distributed Systems Group, CN=92ae01fef4aef9e19eaaf08ab467580fabdacd9c/emailAddress=node0053@octarine.de
        Subject Public Key Info:
            Public Key Algorithm: rsaEncryption
            RSA Public Key: (1024 bit)
                Modulus (1024 bit):
                    00:e0:98:13:dd:3d:72:32:12:71:34:b4:2b:e4:44:
                    38:bc:45:ac:50:8a:4b:c3:ce:f1:7c:bc:7f:f0:96:
                    76:db:2e:d1:f4:d6:32:79:fd:6e:1f:db:3d:95:fc:
                    1c:0f:2e:ad:ff:90:81:0f:c6:3f:a2:2e:9a:e9:af:
                    8a:76:35:af:c2:9e:f8:f1:d2:58:b9:57:e5:0f:08:
                    87:20:98:42:ad:18:e8:0a:5c:b3:f9:a8:32:3f:eb:
                    30:48:b4:d7:02:1f:2a:81:35:f9:3b:45:a4:2a:1f:
                    af:d5:21:1f:cc:ce:91:3d:37:6b:de:ab:30:c4:fc:
                    cc:c7:51:d2:24:5d:eb:e5:e7
                Exponent: 65537 (0x10001)
    Signature Algorithm: md5WithRSAEncryption
        97:b3:98:25:61:87:d2:e7:e3:05:83:ec:1b:a4:07:f7:ed:3e:
        34:93:9e:70:5b:45:87:99:7b:2e:b2:20:f4:57:18:7b:52:2d:
        75:b3:bd:e0:af:de:a1:c0:bb:b1:1a:9c:1b:6b:1e:c4:2e:15:
        dd:81:2e:de:ac:f0:a6:63:e4:e2:f0:6a:49:55:cd:4a:6e:00:
        32:ab:94:2e:e9:31:6b:c6:27:2f:74:b3:1a:40:a9:69:4a:88:
        36:7b:6f:32:ca:03:19:b3:9b:99:22:d9:e8:30:57:cf:74:73:
        69:5e:28:37:11:81:76:ca:e7:d5:42:a1:e8:71:14:4b:57:9b:
        cd:8d
-----BEGIN CERTIFICATE-----
MIICvDCCAiUCCQCbJ9fo0boIDTANBgkqhkiG9w0BAQQFADCBlTELMAkGA1UEBhMC
REUxETAPBgNVBAgTCFNhYXJsYW5kMRAwDgYDVQQKEwdNUEktU1dTMSIwIAYDVQQL
ExlEaXN0cmlidXRlZCBTeXN0ZW1zIEdyb3VwMRowGAYDVQQDExFBbmRyZWFzIEhh
ZWJlcmxlbjEhMB8GCSqGSIb3DQEJARYSZGVtb2NhQG9jdGFyaW5lLmRlMB4XDTE1
MDQyMDIwNDY1OVoXDTE2MDQxOTIwNDY1OVowga4xCzAJBgNVBAYTAkRFMREwDwYD
VQQIEwhTYWFybGFuZDEQMA4GA1UEChMHTVBJLVNXUzEiMCAGA1UECxMZRGlzdHJp
YnV0ZWQgU3lzdGVtcyBHcm91cDExMC8GA1UEAxMoOTJhZTAxZmVmNGFlZjllMTll
YWFmMDhhYjQ2NzU4MGZhYmRhY2Q5YzEjMCEGCSqGSIb3DQEJARYUbm9kZTAwNTNA
b2N0YXJpbmUuZGUwgZ8wDQYJKoZIhvcNAQEBBQADgY0AMIGJAoGBAOCYE909cjIS
cTS0K+REOLxFrFCKS8PO8Xy8f/CWdtsu0fTWMnn9bh/bPZX8HA8urf+QgQ/GP6Iu
mumvinY1r8Ke+PHSWLlX5Q8IhyCYQq0Y6Apcs/moMj/rMEi01wIfKoE1+TtFpCof
r9UhH8zOkT03a96rMMT8zMdR0iRd6+XnAgMBAAEwDQYJKoZIhvcNAQEEBQADgYEA
l7OYJWGH0ufjBYPsG6QH9+0+NJOecFtFh5l7LrIg9FcYe1ItdbO94K/eocC7sRqc
G2sexC4V3YEu3qzwpmPk4vBqSVXNSm4AMquULukxa8YnL3SzGkCpaUqINntvMsoD
GbObmSLZ6DBXz3RzaV4oNxGBdsrn1UKh6HEUS1ebzY0=
-----END CERTIFICATE-----
