Certificate:
    Data:
        Version: 1 (0x0)
        Serial Number:
            9b:27:d7:e8:d1:ba:08:67
        Signature Algorithm: md5WithRSAEncryption
        Issuer: C=DE, ST=Saarland, O=MPI-SWS, OU=Distributed Systems Group, CN=Andreas Haeberlen/emailAddress=democa@octarine.de
        Validity
            Not Before: Apr 20 20:47:03 2015 GMT
            Not After : Apr 19 20:47:03 2016 GMT
        Subject: C=DE, ST=Saarland, O=MPI-SWS, OU=Distributed Systems Group, CN=82f6b57f2aba22285c6fdeb2ecda0f3812fd87db/emailAddress=node0143@octarine.de
        Subject Public Key Info:
            Public Key Algorithm: rsaEncryption
            RSA Public Key: (1024 bit)
                Modulus (1024 bit):
                    00:ca:04:01:31:6e:db:48:30:5b:f4:0e:9d:af:fd:
                    76:54:8b:a3:cd:9b:78:ad:73:61:84:a9:a5:70:8b:
                    17:6c:25:ea:25:a8:ab:d6:af:40:a1:47:29:d0:38:
                    28:a1:7a:92:59:12:1a:3f:e1:a5:5c:40:1b:30:79:
                    65:b1:28:9c:f2:0f:01:2e:0d:98:f6:5e:ce:86:94:
                    06:f8:1b:3a:96:4e:76:ee:d1:d8:bd:68:7d:54:16:
                    57:2c:3c:f9:d7:9d:57:9e:1b:f8:b5:86:2f:cc:89:
                    11:69:a9:08:c1:42:45:60:ba:3f:76:6b:ba:35:66:
                    84:e5:26:ff:07:2a:d1:88:3b
                Exponent: 65537 (0x10001)
    Signature Algorithm: md5WithRSAEncryption
        21:c5:7d:0d:f7:37:a5:e1:a0:0b:75:ef:61:3f:4c:bf:64:3e:
        18:8a:ca:97:92:9f:27:cb:bb:6c:39:36:56:29:a3:2c:7b:57:
        ed:e5:b4:33:0a:35:54:5d:bd:3b:b6:26:0c:64:40:7a:5d:e6:
        3d:00:ab:fb:85:3b:b0:96:76:07:7c:1e:b3:07:30:b5:8a:f6:
        af:d1:54:f3:21:28:93:c5:eb:63:37:0a:d4:79:80:08:af:53:
        6b:45:6e:a4:0c:b3:69:34:d8:19:3b:c0:62:fd:a9:74:61:e5:
        ef:16:03:6c:01:9a:0c:6b:b6:92:93:9c:d3:95:14:f3:a9:ff:
        52:3b
-----BEGIN CERTIFICATE-----
MIICvDCCAiUCCQCbJ9fo0boIZzANBgkqhkiG9w0BAQQFADCBlTELMAkGA1UEBhMC
REUxETAPBgNVBAgTCFNhYXJsYW5kMRAwDgYDVQQKEwdNUEktU1dTMSIwIAYDVQQL
ExlEaXN0cmlidXRlZCBTeXN0ZW1zIEdyb3VwMRowGAYDVQQDExFBbmRyZWFzIEhh
ZWJlcmxlbjEhMB8GCSqGSIb3DQEJARYSZGVtb2NhQG9jdGFyaW5lLmRlMB4XDTE1
MDQyMDIwNDcwM1oXDTE2MDQxOTIwNDcwM1owga4xCzAJBgNVBAYTAkRFMREwDwYD
VQQIEwhTYWFybGFuZDEQMA4GA1UEChMHTVBJLVNXUzEiMCAGA1UECxMZRGlzdHJp
YnV0ZWQgU3lzdGVtcyBHcm91cDExMC8GA1UEAxMoODJmNmI1N2YyYWJhMjIyODVj
NmZkZWIyZWNkYTBmMzgxMmZkODdkYjEjMCEGCSqGSIb3DQEJARYUbm9kZTAxNDNA
b2N0YXJpbmUuZGUwgZ8wDQYJKoZIhvcNAQEBBQADgY0AMIGJAoGBAMoEATFu20gw
W/QOna/9dlSLo82beK1zYYSppXCLF2wl6iWoq9avQKFHKdA4KKF6klkSGj/hpVxA
GzB5ZbEonPIPAS4NmPZezoaUBvgbOpZOdu7R2L1ofVQWVyw8+dedV54b+LWGL8yJ
EWmpCMFCRWC6P3ZrujVmhOUm/wcq0Yg7AgMBAAEwDQYJKoZIhvcNAQEEBQADgYEA
IcV9Dfc3peGgC3XvYT9Mv2Q+GIrKl5KfJ8u7bDk2VimjLHtX7eW0Mwo1VF29O7Ym
DGRAel3mPQCr+4U7sJZ2B3weswcwtYr2r9FU8yEok8XrYzcK1HmACK9Ta0VupAyz
aTTYGTvAYv2pdGHl7xYDbAGaDGu2kpOc05UU86n/Ujs=
-----END CERTIFICATE-----
