Certificate:
    Data:
        Version: 1 (0x0)
        Serial Number:
            9b:27:d7:e8:d1:ba:09:e8
        Signature Algorithm: md5WithRSAEncryption
        Issuer: C=DE, ST=Saarland, O=MPI-SWS, OU=Distributed Systems Group, CN=Andreas Haeberlen/emailAddress=democa@octarine.de
        Validity
            Not Before: Apr 20 20:47:20 2015 GMT
            Not After : Apr 19 20:47:20 2016 GMT
        Subject: C=DE, ST=Saarland, O=MPI-SWS, OU=Distributed Systems Group, CN=34bc85a0c7b9d630a1a11345379bf5239ef23a2f/emailAddress=node0528@octarine.de
        Subject Public Key Info:
            Public Key Algorithm: rsaEncryption
            RSA Public Key: (1024 bit)
                Modulus (1024 bit):
                    00:cd:e3:3e:ff:e5:50:d9:10:c0:cc:38:14:db:ea:
                    c1:3f:b5:d5:11:cb:7b:8b:a0:76:cd:8f:42:7c:81:
                    4d:c5:db:1c:9f:0c:2a:a0:e6:15:04:ad:22:07:2e:
                    ef:38:46:17:1a:2a:d8:1d:3f:34:2f:98:f6:20:ab:
                    92:65:36:84:4b:a7:80:4c:0b:8e:85:02:3b:ec:e5:
                    4b:f9:45:9c:b6:14:83:ce:03:8c:a0:b1:d1:5c:8d:
                    7c:d0:59:70:b7:c1:70:56:20:c9:fd:a3:5a:1e:d3:
                    a8:5b:e2:1c:78:60:27:ae:17:8b:e4:a1:02:0d:f3:
                    23:b0:aa:0c:67:9a:2d:09:09
                Exponent: 65537 (0x10001)
    Signature Algorithm: md5WithRSAEncryption
        40:3b:02:df:b8:2f:77:87:6b:3e:a1:05:2e:73:f8:35:f7:e6:
        b6:06:fd:36:56:69:c9:e5:a2:81:09:8a:e0:44:ce:98:1c:d6:
        e4:82:cc:0e:96:0a:4b:f8:ee:ce:ac:27:b2:6f:bd:a5:98:e2:
        55:e7:f9:95:02:69:72:90:f9:99:80:6c:ab:74:7c:6e:bb:00:
        b2:1a:b5:7b:de:00:00:a0:ca:03:45:52:da:d1:aa:bb:0a:3b:
        e5:3f:41:c8:e7:e8:a5:16:32:9a:00:8a:ff:ea:03:eb:46:eb:
        d2:d3:71:2b:3f:7f:ae:40:be:32:be:21:8e:b0:67:ac:58:49:
        38:dc
-----BEGIN CERTIFICATE-----
MIICvDCCAiUCCQCbJ9fo0boJ6DANBgkqhkiG9w0BAQQFADCBlTELMAkGA1UEBhMC
REUxETAPBgNVBAgTCFNhYXJsYW5kMRAwDgYDVQQKEwdNUEktU1dTMSIwIAYDVQQL
ExlEaXN0cmlidXRlZCBTeXN0ZW1zIEdyb3VwMRowGAYDVQQDExFBbmRyZWFzIEhh
ZWJlcmxlbjEhMB8GCSqGSIb3DQEJARYSZGVtb2NhQG9jdGFyaW5lLmRlMB4XDTE1
MDQyMDIwNDcyMFoXDTE2MDQxOTIwNDcyMFowga4xCzAJBgNVBAYTAkRFMREwDwYD
VQQIEwhTYWFybGFuZDEQMA4GA1UEChMHTVBJLVNXUzEiMCAGA1UECxMZRGlzdHJp
YnV0ZWQgU3lzdGVtcyBHcm91cDExMC8GA1UEAxMoMzRiYzg1YTBjN2I5ZDYzMGEx
YTExMzQ1Mzc5YmY1MjM5ZWYyM2EyZjEjMCEGCSqGSIb3DQEJARYUbm9kZTA1MjhA
b2N0YXJpbmUuZGUwgZ8wDQYJKoZIhvcNAQEBBQADgY0AMIGJAoGBAM3jPv/lUNkQ
wMw4FNvqwT+11RHLe4ugds2PQnyBTcXbHJ8MKqDmFQStIgcu7zhGFxoq2B0/NC+Y
9iCrkmU2hEungEwLjoUCO+zlS/lFnLYUg84DjKCx0VyNfNBZcLfBcFYgyf2jWh7T
qFviHHhgJ64Xi+ShAg3zI7CqDGeaLQkJAgMBAAEwDQYJKoZIhvcNAQEEBQADgYEA
QDsC37gvd4drPqEFLnP4Nffmtgb9NlZpyeWigQmK4ETOmBzW5ILMDpYKS/juzqwn
sm+9pZjiVef5lQJpcpD5mYBsq3R8brsAshq1e94AAKDKA0VS2tGquwo75T9ByOfo
pRYymgCK/+oD60br0tNxKz9/rkC+Mr4hjrBnrFhJONw=
-----END CERTIFICATE-----
