Certificate:
    Data:
        Version: 1 (0x0)
        Serial Number:
            9b:27:d7:e8:d1:ba:08:08
        Signature Algorithm: md5WithRSAEncryption
        Issuer: C=DE, ST=Saarland, O=MPI-SWS, OU=Distributed Systems Group, CN=Andreas Haeberlen/emailAddress=democa@octarine.de
        Validity
            Not Before: Apr 20 20:46:59 2015 GMT
            Not After : Apr 19 20:46:59 2016 GMT
        Subject: C=DE, ST=Saarland, O=MPI-SWS, OU=Distributed Systems Group, CN=a59d619d7b6de0d78e0e33526bad719173fd48ab/emailAddress=node0048@octarine.de
        Subject Public Key Info:
            Public Key Algorithm: rsaEncryption
            RSA Public Key: (1024 bit)
                Modulus (1024 bit):
                    00:b7:f6:cc:50:45:96:00:62:5a:ba:7f:e2:f6:cb:
                    e3:d6:0a:fc:85:11:ae:ae:02:07:8a:50:cf:7c:1d:
                    74:a6:6b:63:03:dd:54:bb:b9:92:c7:5b:f2:fe:08:
                    c7:c0:02:c2:07:03:d4:e9:4f:74:d9:14:18:62:ca:
                    0e:ed:89:9a:d3:d6:ee:1b:0c:b4:c1:c7:49:9c:7a:
                    bb:d1:a9:8d:5e:28:a8:20:67:20:29:43:af:21:48:
                    26:75:82:84:33:63:3e:26:d4:fa:aa:dd:fa:8b:99:
                    42:5a:58:c2:0b:f1:19:e1:96:47:0e:79:f2:29:05:
                    70:02:f9:b4:94:62:26:7d:4d
                Exponent: 65537 (0x10001)
    Signature Algorithm: md5WithRSAEncryption
        00:41:5f:15:3c:14:28:b5:1e:9e:94:f7:b0:3d:97:d0:6a:d0:
        e2:19:0b:91:50:0c:2f:31:1e:49:07:23:4c:35:91:0d:54:90:
        98:a6:14:f4:7b:dc:f6:2a:5f:0e:00:5c:53:5e:00:c2:75:9c:
        9f:13:75:36:e8:fc:07:24:79:60:f7:8c:fa:15:30:29:31:86:
        89:37:d4:be:99:17:11:7b:62:98:9c:3f:e2:67:4c:94:d4:07:
        69:41:49:dd:db:ec:1b:3a:26:03:7c:c2:41:4b:d4:a6:e0:6c:
        5a:b6:84:de:87:54:85:5c:c5:e8:06:89:10:d6:3c:03:75:55:
        61:5b
-----BEGIN CERTIFICATE-----
MIICvDCCAiUCCQCbJ9fo0boICDANBgkqhkiG9w0BAQQFADCBlTELMAkGA1UEBhMC
REUxETAPBgNVBAgTCFNhYXJsYW5kMRAwDgYDVQQKEwdNUEktU1dTMSIwIAYDVQQL
ExlEaXN0cmlidXRlZCBTeXN0ZW1zIEdyb3VwMRowGAYDVQQDExFBbmRyZWFzIEhh
ZWJlcmxlbjEhMB8GCSqGSIb3DQEJARYSZGVtb2NhQG9jdGFyaW5lLmRlMB4XDTE1
MDQyMDIwNDY1OVoXDTE2MDQxOTIwNDY1OVowga4xCzAJBgNVBAYTAkRFMREwDwYD
VQQIEwhTYWFybGFuZDEQMA4GA1UEChMHTVBJLVNXUzEiMCAGA1UECxMZRGlzdHJp
YnV0ZWQgU3lzdGVtcyBHcm91cDExMC8GA1UEAxMoYTU5ZDYxOWQ3YjZkZTBkNzhl
MGUzMzUyNmJhZDcxOTE3M2ZkNDhhYjEjMCEGCSqGSIb3DQEJARYUbm9kZTAwNDhA
b2N0YXJpbmUuZGUwgZ8wDQYJKoZIhvcNAQEBBQADgY0AMIGJAoGBALf2zFBFlgBi
Wrp/4vbL49YK/IURrq4CB4pQz3wddKZrYwPdVLu5ksdb8v4Ix8ACwgcD1OlPdNkU
GGLKDu2JmtPW7hsMtMHHSZx6u9GpjV4oqCBnIClDryFIJnWChDNjPibU+qrd+ouZ
QlpYwgvxGeGWRw558ikFcAL5tJRiJn1NAgMBAAEwDQYJKoZIhvcNAQEEBQADgYEA
AEFfFTwUKLUenpT3sD2X0GrQ4hkLkVAMLzEeSQcjTDWRDVSQmKYU9Hvc9ipfDgBc
U14AwnWcnxN1Nuj8ByR5YPeM+hUwKTGGiTfUvpkXEXtimJw/4mdMlNQHaUFJ3dvs
GzomA3zCQUvUpuBsWraE3odUhVzF6AaJENY8A3VVYVs=
-----END CERTIFICATE-----
