Certificate:
    Data:
        Version: 1 (0x0)
        Serial Number:
            9b:27:d7:e8:d1:ba:09:ad
        Signature Algorithm: md5WithRSAEncryption
        Issuer: C=DE, ST=Saarland, O=MPI-SWS, OU=Distributed Systems Group, CN=Andreas Haeberlen/emailAddress=democa@octarine.de
        Validity
            Not Before: Apr 20 20:47:17 2015 GMT
            Not After : Apr 19 20:47:17 2016 GMT
        Subject: C=DE, ST=Saarland, O=MPI-SWS, OU=Distributed Systems Group, CN=404b8e9507f72dc52f17ef5e5da814765b2dab2a/emailAddress=node0469@octarine.de
        Subject Public Key Info:
            Public Key Algorithm: rsaEncryption
            RSA Public Key: (1024 bit)
                Modulus (1024 bit):
                    00:ca:13:b7:ea:06:4a:f0:31:69:49:be:bc:86:1f:
                    7d:95:79:6a:5a:fc:cd:4b:db:05:a9:10:77:7f:29:
                    1f:90:86:51:22:2b:0d:fe:96:26:be:d5:5a:24:53:
                    ba:c8:9a:27:f2:51:31:74:fb:31:12:3a:0e:44:62:
                    d8:07:c8:a0:5e:60:03:dd:8f:3c:c3:3a:a6:db:e2:
                    e6:96:ad:b0:81:d6:ee:22:ce:ea:cb:16:0b:1c:43:
                    ac:5c:a2:45:58:7c:a8:4b:94:2d:db:b1:03:c6:e4:
                    8e:33:8f:96:29:b5:a3:c3:34:ed:da:87:85:0a:3f:
                    7b:b9:ef:88:c8:d8:54:11:6b
                Exponent: 65537 (0x10001)
    Signature Algorithm: md5WithRSAEncryption
        2b:b3:5b:b7:95:b2:7b:17:0a:65:e8:dc:cf:16:8f:8d:c7:73:
        4e:a7:cb:1c:4c:cd:b4:c3:57:4e:be:b9:6c:58:a2:c3:f6:c0:
        fd:84:7f:c3:7d:a9:7d:9c:b9:5c:d6:a8:fc:a1:28:7e:dc:16:
        a5:27:1f:68:a2:e4:c4:59:d6:28:b0:79:a7:84:5d:75:cd:bc:
        cc:63:cc:c9:8f:b1:c4:e3:02:2d:a1:3c:ab:30:9a:64:c0:aa:
        31:79:ce:65:c9:a3:cd:a0:b9:28:f0:2f:7e:ec:a0:5d:a1:20:
        64:b5:25:93:49:88:8f:eb:01:1f:29:ae:d5:ff:80:8c:39:91:
        b1:32
-----BEGIN CERTIFICATE-----
MIICvDCCAiUCCQCbJ9fo0boJrTANBgkqhkiG9w0BAQQFADCBlTELMAkGA1UEBhMC
REUxETAPBgNVBAgTCFNhYXJsYW5kMRAwDgYDVQQKEwdNUEktU1dTMSIwIAYDVQQL
ExlEaXN0cmlidXRlZCBTeXN0ZW1zIEdyb3VwMRowGAYDVQQDExFBbmRyZWFzIEhh
ZWJlcmxlbjEhMB8GCSqGSIb3DQEJARYSZGVtb2NhQG9jdGFyaW5lLmRlMB4XDTE1
MDQyMDIwNDcxN1oXDTE2MDQxOTIwNDcxN1owga4xCzAJBgNVBAYTAkRFMREwDwYD
VQQIEwhTYWFybGFuZDEQMA4GA1UEChMHTVBJLVNXUzEiMCAGA1UECxMZRGlzdHJp
YnV0ZWQgU3lzdGVtcyBHcm91cDExMC8GA1UEAxMoNDA0YjhlOTUwN2Y3MmRjNTJm
MTdlZjVlNWRhODE0NzY1YjJkYWIyYTEjMCEGCSqGSIb3DQEJARYUbm9kZTA0NjlA
b2N0YXJpbmUuZGUwgZ8wDQYJKoZIhvcNAQEBBQADgY0AMIGJAoGBAMoTt+oGSvAx
aUm+vIYffZV5alr8zUvbBakQd38pH5CGUSIrDf6WJr7VWiRTusiaJ/JRMXT7MRI6
DkRi2AfIoF5gA92PPMM6ptvi5patsIHW7iLO6ssWCxxDrFyiRVh8qEuULduxA8bk
jjOPlim1o8M07dqHhQo/e7nviMjYVBFrAgMBAAEwDQYJKoZIhvcNAQEEBQADgYEA
K7Nbt5WyexcKZejczxaPjcdzTqfLHEzNtMNXTr65bFiiw/bA/YR/w32pfZy5XNao
/KEoftwWpScfaKLkxFnWKLB5p4Rddc28zGPMyY+xxOMCLaE8qzCaZMCqMXnOZcmj
zaC5KPAvfuygXaEgZLUlk0mIj+sBHymu1f+AjDmRsTI=
-----END CERTIFICATE-----
