Certificate:
    Data:
        Version: 1 (0x0)
        Serial Number:
            9b:27:d7:e8:d1:ba:09:1e
        Signature Algorithm: md5WithRSAEncryption
        Issuer: C=DE, ST=Saarland, O=MPI-SWS, OU=Distributed Systems Group, CN=Andreas Haeberlen/emailAddress=democa@octarine.de
        Validity
            Not Before: Apr 20 20:47:11 2015 GMT
            Not After : Apr 19 20:47:11 2016 GMT
        Subject: C=DE, ST=Saarland, O=MPI-SWS, OU=Distributed Systems Group, CN=aebf55815ce7079e2f527251e9519cc3a730db12/emailAddress=node0326@octarine.de
        Subject Public Key Info:
            Public Key Algorithm: rsaEncryption
            RSA Public Key: (1024 bit)
                Modulus (1024 bit):
                    00:b4:cb:8d:e0:f4:2a:45:3a:f7:a0:71:9b:18:c7:
                    1c:c5:ae:aa:b3:ff:dc:70:bb:25:ae:0e:2d:86:75:
                    be:c2:e7:03:6b:0f:56:cf:06:2a:88:bf:59:16:0a:
                    59:9f:3e:4d:2d:8d:52:37:16:99:c9:31:f6:95:88:
                    d1:0c:ca:d6:87:9d:5b:53:be:c7:04:51:eb:0d:b9:
                    3f:74:a1:14:9c:a3:85:e3:88:d0:83:bb:51:8e:7d:
                    f1:10:22:82:a3:9d:6c:b3:6b:ae:78:1a:7c:9d:df:
                    5e:ec:1d:85:8e:1e:6c:33:41:f8:ed:d5:e2:84:c2:
                    e7:3a:ac:c5:1b:b0:df:24:c3
                Exponent: 65537 (0x10001)
    Signature Algorithm: md5WithRSAEncryption
        04:8a:23:18:09:d8:14:6d:82:b0:25:23:c7:ab:7f:cc:7b:18:
        10:ef:98:66:b9:e1:9e:5b:39:a0:f8:76:52:73:0b:e2:90:47:
        b8:0a:28:59:04:58:7e:42:ba:9b:6d:87:63:73:4f:18:1f:77:
        7f:d5:2b:b7:a5:47:28:02:0b:6b:28:66:6a:df:9f:2e:a2:c4:
        8a:1c:ef:9f:64:a8:36:2a:93:85:87:46:b2:46:06:14:bb:a0:
        d3:c8:3a:a3:d1:0e:45:a8:80:ca:04:a9:79:cf:e3:aa:38:de:
        20:9a:2f:99:1c:ba:98:61:6e:cd:5e:e1:14:d9:30:67:cd:83:
        f6:9d
-----BEGIN CERTIFICATE-----
MIICvDCCAiUCCQCbJ9fo0boJHjANBgkqhkiG9w0BAQQFADCBlTELMAkGA1UEBhMC
REUxETAPBgNVBAgTCFNhYXJsYW5kMRAwDgYDVQQKEwdNUEktU1dTMSIwIAYDVQQL
ExlEaXN0cmlidXRlZCBTeXN0ZW1zIEdyb3VwMRowGAYDVQQDExFBbmRyZWFzIEhh
ZWJlcmxlbjEhMB8GCSqGSIb3DQEJARYSZGVtb2NhQG9jdGFyaW5lLmRlMB4XDTE1
MDQyMDIwNDcxMVoXDTE2MDQxOTIwNDcxMVowga4xCzAJBgNVBAYTAkRFMREwDwYD
VQQIEwhTYWFybGFuZDEQMA4GA1UEChMHTVBJLVNXUzEiMCAGA1UECxMZRGlzdHJp
YnV0ZWQgU3lzdGVtcyBHcm91cDExMC8GA1UEAxMoYWViZjU1ODE1Y2U3MDc5ZTJm
NTI3MjUxZTk1MTljYzNhNzMwZGIxMjEjMCEGCSqGSIb3DQEJARYUbm9kZTAzMjZA
b2N0YXJpbmUuZGUwgZ8wDQYJKoZIhvcNAQEBBQADgY0AMIGJAoGBALTLjeD0KkU6
96BxmxjHHMWuqrP/3HC7Ja4OLYZ1vsLnA2sPVs8GKoi/WRYKWZ8+TS2NUjcWmckx
9pWI0QzK1oedW1O+xwRR6w25P3ShFJyjheOI0IO7UY598RAigqOdbLNrrngafJ3f
XuwdhY4ebDNB+O3V4oTC5zqsxRuw3yTDAgMBAAEwDQYJKoZIhvcNAQEEBQADgYEA
BIojGAnYFG2CsCUjx6t/zHsYEO+YZrnhnls5oPh2UnML4pBHuAooWQRYfkK6m22H
Y3NPGB93f9Urt6VHKAILayhmat+fLqLEihzvn2SoNiqThYdGskYGFLug08g6o9EO
RaiAygSpec/jqjjeIJovmRy6mGFuzV7hFNkwZ82D9p0=
-----END CERTIFICATE-----
