Certificate:
    Data:
        Version: 1 (0x0)
        Serial Number:
            9b:27:d7:e8:d1:ba:0b:94
        Signature Algorithm: md5WithRSAEncryption
        Issuer: C=DE, ST=Saarland, O=MPI-SWS, OU=Distributed Systems Group, CN=Andreas Haeberlen/emailAddress=democa@octarine.de
        Validity
            Not Before: Apr 20 20:47:39 2015 GMT
            Not After : Apr 19 20:47:39 2016 GMT
        Subject: C=DE, ST=Saarland, O=MPI-SWS, OU=Distributed Systems Group, CN=d9c8fa48d923e14e6479ef2fe0979186b4faf33d/emailAddress=node0956@octarine.de
        Subject Public Key Info:
            Public Key Algorithm: rsaEncryption
            RSA Public Key: (1024 bit)
                Modulus (1024 bit):
                    00:95:31:80:ac:5e:36:a8:a0:f9:8f:73:c2:b4:d7:
                    46:6b:5b:62:1d:4a:8c:4f:3b:24:3b:7e:0b:51:ac:
                    ed:06:94:61:c9:90:d6:7b:af:45:9a:41:64:b0:7e:
                    18:dc:11:70:80:6f:01:e7:a8:a5:60:20:3c:b2:0a:
                    91:66:e1:9f:c6:2f:fc:12:1d:dc:82:23:38:96:59:
                    15:6a:34:75:fa:4f:d3:f5:62:1a:ee:0f:b7:0a:8a:
                    a0:56:19:af:3e:03:0f:36:82:27:12:a4:3b:77:9d:
                    ee:c0:e6:67:80:cc:2f:c8:98:9e:3d:76:5c:0f:ea:
                    47:08:a7:10:60:26:5b:e8:37
                Exponent: 65537 (0x10001)
    Signature Algorithm: md5WithRSAEncryption
        c8:6c:3a:a3:42:09:c4:b9:88:f8:db:3f:a1:59:f3:2e:c4:bc:
        a8:58:c0:d4:49:2f:21:a3:bd:bb:c6:56:bf:e0:01:8c:1a:f9:
        81:b3:f9:cd:8f:7c:4f:e4:d1:28:a1:1f:63:84:e1:70:a6:a9:
        e4:c3:65:5c:ea:c4:fa:8d:d2:77:d2:e4:f8:5a:30:b3:69:8e:
        a7:06:ec:c9:aa:73:be:7f:b9:f5:cf:8f:d7:3b:46:86:f4:05:
        13:28:2a:54:82:18:c1:14:43:d1:e7:ff:1b:c4:cc:f1:0d:3f:
        8c:9e:4f:e3:93:9f:00:72:af:8d:ec:26:9e:2d:9a:5a:9d:70:
        6c:00
-----BEGIN CERTIFICATE-----
MIICvDCCAiUCCQCbJ9fo0boLlDANBgkqhkiG9w0BAQQFADCBlTELMAkGA1UEBhMC
REUxETAPBgNVBAgTCFNhYXJsYW5kMRAwDgYDVQQKEwdNUEktU1dTMSIwIAYDVQQL
ExlEaXN0cmlidXRlZCBTeXN0ZW1zIEdyb3VwMRowGAYDVQQDExFBbmRyZWFzIEhh
ZWJlcmxlbjEhMB8GCSqGSIb3DQEJARYSZGVtb2NhQG9jdGFyaW5lLmRlMB4XDTE1
MDQyMDIwNDczOVoXDTE2MDQxOTIwNDczOVowga4xCzAJBgNVBAYTAkRFMREwDwYD
VQQIEwhTYWFybGFuZDEQMA4GA1UEChMHTVBJLVNXUzEiMCAGA1UECxMZRGlzdHJp
YnV0ZWQgU3lzdGVtcyBHcm91cDExMC8GA1UEAxMoZDljOGZhNDhkOTIzZTE0ZTY0
NzllZjJmZTA5NzkxODZiNGZhZjMzZDEjMCEGCSqGSIb3DQEJARYUbm9kZTA5NTZA
b2N0YXJpbmUuZGUwgZ8wDQYJKoZIhvcNAQEBBQADgY0AMIGJAoGBAJUxgKxeNqig
+Y9zwrTXRmtbYh1KjE87JDt+C1Gs7QaUYcmQ1nuvRZpBZLB+GNwRcIBvAeeopWAg
PLIKkWbhn8Yv/BId3IIjOJZZFWo0dfpP0/ViGu4PtwqKoFYZrz4DDzaCJxKkO3ed
7sDmZ4DML8iYnj12XA/qRwinEGAmW+g3AgMBAAEwDQYJKoZIhvcNAQEEBQADgYEA
yGw6o0IJxLmI+Ns/oVnzLsS8qFjA1EkvIaO9u8ZWv+ABjBr5gbP5zY98T+TRKKEf
Y4ThcKap5MNlXOrE+o3Sd9Lk+Fows2mOpwbsyapzvn+59c+P1ztGhvQFEygqVIIY
wRRD0ef/G8TM8Q0/jJ5P45OfAHKvjewmni2aWp1wbAA=
-----END CERTIFICATE-----
