Certificate:
    Data:
        Version: 1 (0x0)
        Serial Number:
            9b:27:d7:e8:d1:ba:08:43
        Signature Algorithm: md5WithRSAEncryption
        Issuer: C=DE, ST=Saarland, O=MPI-SWS, OU=Distributed Systems Group, CN=Andreas Haeberlen/emailAddress=democa@octarine.de
        Validity
            Not Before: Apr 20 20:47:01 2015 GMT
            Not After : Apr 19 20:47:01 2016 GMT
        Subject: C=DE, ST=Saarland, O=MPI-SWS, OU=Distributed Systems Group, CN=b629b91a3e26a1975d8af138685f44e0b1a6ab1e/emailAddress=node0107@octarine.de
        Subject Public Key Info:
            Public Key Algorithm: rsaEncryption
            RSA Public Key: (1024 bit)
                Modulus (1024 bit):
                    00:e4:48:bd:f3:d0:e6:88:52:e3:fc:39:fd:16:e8:
                    5b:6c:31:cc:fc:c4:99:11:5a:93:a1:68:8f:c8:7b:
                    68:51:8e:e9:82:9c:2b:a8:09:32:2a:9c:ff:34:e5:
                    c6:11:b8:ff:3c:cc:9c:e5:5e:84:6e:ff:00:10:d7:
                    aa:3d:87:55:42:b0:60:ee:2d:86:3c:da:bf:67:c9:
                    07:cd:68:42:74:c5:4d:0e:55:e8:51:0e:04:f5:92:
                    60:a8:75:d0:f6:f0:92:cf:2f:9c:13:3d:a0:7f:20:
                    de:5e:6c:d6:d6:84:f8:19:e8:d6:ec:c3:8d:20:67:
                    ab:c1:a8:14:80:b2:a2:24:ff
                Exponent: 65537 (0x10001)
    Signature Algorithm: md5WithRSAEncryption
        c3:37:44:f5:33:35:03:c0:46:f1:32:93:5d:f4:84:93:9a:05:
        bb:d1:5e:02:10:cb:35:bc:5e:0a:e6:bf:00:a3:87:93:80:05:
        d6:7c:55:17:43:67:75:04:5b:66:64:5a:e3:6b:69:6e:06:ed:
        0c:a5:e7:45:4a:e9:8d:64:b4:4a:2b:27:d3:b6:c0:e1:11:37:
        c9:85:71:b9:97:40:31:89:ac:94:59:a3:bb:00:23:f1:fb:52:
        b8:04:64:ed:2e:1d:45:66:ef:fe:dd:2b:d0:5e:19:27:e8:19:
        09:15:14:9d:57:9c:53:d9:65:cc:78:79:07:dc:1b:7b:67:15:
        b8:5d
-----BEGIN CERTIFICATE-----
MIICvDCCAiUCCQCbJ9fo0boIQzANBgkqhkiG9w0BAQQFADCBlTELMAkGA1UEBhMC
REUxETAPBgNVBAgTCFNhYXJsYW5kMRAwDgYDVQQKEwdNUEktU1dTMSIwIAYDVQQL
ExlEaXN0cmlidXRlZCBTeXN0ZW1zIEdyb3VwMRowGAYDVQQDExFBbmRyZWFzIEhh
ZWJlcmxlbjEhMB8GCSqGSIb3DQEJARYSZGVtb2NhQG9jdGFyaW5lLmRlMB4XDTE1
MDQyMDIwNDcwMVoXDTE2MDQxOTIwNDcwMVowga4xCzAJBgNVBAYTAkRFMREwDwYD
VQQIEwhTYWFybGFuZDEQMA4GA1UEChMHTVBJLVNXUzEiMCAGA1UECxMZRGlzdHJp
YnV0ZWQgU3lzdGVtcyBHcm91cDExMC8GA1UEAxMoYjYyOWI5MWEzZTI2YTE5NzVk
OGFmMTM4Njg1ZjQ0ZTBiMWE2YWIxZTEjMCEGCSqGSIb3DQEJARYUbm9kZTAxMDdA
b2N0YXJpbmUuZGUwgZ8wDQYJKoZIhvcNAQEBBQADgY0AMIGJAoGBAORIvfPQ5ohS
4/w5/RboW2wxzPzEmRFak6Foj8h7aFGO6YKcK6gJMiqc/zTlxhG4/zzMnOVehG7/
ABDXqj2HVUKwYO4thjzav2fJB81oQnTFTQ5V6FEOBPWSYKh10Pbwks8vnBM9oH8g
3l5s1taE+Bno1uzDjSBnq8GoFICyoiT/AgMBAAEwDQYJKoZIhvcNAQEEBQADgYEA
wzdE9TM1A8BG8TKTXfSEk5oFu9FeAhDLNbxeCua/AKOHk4AF1nxVF0NndQRbZmRa
42tpbgbtDKXnRUrpjWS0Sisn07bA4RE3yYVxuZdAMYmslFmjuwAj8ftSuARk7S4d
RWbv/t0r0F4ZJ+gZCRUUnVecU9llzHh5B9wbe2cVuF0=
-----END CERTIFICATE-----
