Certificate:
    Data:
        Version: 1 (0x0)
        Serial Number:
            9b:27:d7:e8:d1:ba:08:90
        Signature Algorithm: md5WithRSAEncryption
        Issuer: C=DE, ST=Saarland, O=MPI-SWS, OU=Distributed Systems Group, CN=Andreas Haeberlen/emailAddress=democa@octarine.de
        Validity
            Not Before: Apr 20 20:47:05 2015 GMT
            Not After : Apr 19 20:47:05 2016 GMT
        Subject: C=DE, ST=Saarland, O=MPI-SWS, OU=Distributed Systems Group, CN=ab5ba72fcf9dece52d09f7302c68bf36b915035d/emailAddress=node0184@octarine.de
        Subject Public Key Info:
            Public Key Algorithm: rsaEncryption
            RSA Public Key: (1024 bit)
                Modulus (1024 bit):
                    00:a6:42:14:d5:35:86:0b:54:c4:0e:d8:da:2f:5f:
                    33:48:d1:e0:53:6e:43:37:29:dc:49:4e:63:26:5b:
                    62:60:5b:af:c8:4a:b5:50:5a:61:24:84:86:f6:0c:
                    c4:96:fb:b8:10:1e:5c:af:24:07:4b:78:b2:66:e8:
                    0a:13:0d:bd:fd:e7:71:30:21:1a:e3:70:1a:31:3e:
                    03:93:c8:42:34:8a:82:cd:c7:69:36:94:f6:1d:f3:
                    63:45:05:e3:f5:02:3c:15:59:83:68:b7:f6:d0:64:
                    1b:90:14:d5:92:3c:a1:9b:ce:59:66:23:dd:66:6b:
                    33:69:89:6a:dd:2d:c2:bf:29
                Exponent: 65537 (0x10001)
    Signature Algorithm: md5WithRSAEncryption
        41:f3:7c:21:f9:33:dd:a0:41:e1:d5:19:40:07:ce:2d:49:ff:
        ef:a3:c1:51:eb:9f:38:53:80:f1:b3:f4:82:6d:51:ee:f7:0f:
        6a:a5:f3:a4:87:03:4d:c2:62:d7:55:ae:b3:de:ad:9f:e0:c2:
        38:c6:87:1c:f5:bd:c2:35:9b:c8:5c:10:b4:da:8b:06:8a:93:
        b3:d3:b5:3c:57:9d:1e:3d:69:c4:29:11:05:2e:27:83:9b:51:
        c5:fb:f4:cf:7e:d0:c9:74:2a:2e:15:dc:ff:f5:c9:f4:d7:60:
        3d:a5:2d:38:e3:d9:d8:0f:ea:7e:3a:b0:7c:20:8e:21:0a:5a:
        06:e5
-----BEGIN CERTIFICATE-----
MIICvDCCAiUCCQCbJ9fo0boIkDANBgkqhkiG9w0BAQQFADCBlTELMAkGA1UEBhMC
REUxETAPBgNVBAgTCFNhYXJsYW5kMRAwDgYDVQQKEwdNUEktU1dTMSIwIAYDVQQL
ExlEaXN0cmlidXRlZCBTeXN0ZW1zIEdyb3VwMRowGAYDVQQDExFBbmRyZWFzIEhh
ZWJlcmxlbjEhMB8GCSqGSIb3DQEJARYSZGVtb2NhQG9jdGFyaW5lLmRlMB4XDTE1
MDQyMDIwNDcwNVoXDTE2MDQxOTIwNDcwNVowga4xCzAJBgNVBAYTAkRFMREwDwYD
VQQIEwhTYWFybGFuZDEQMA4GA1UEChMHTVBJLVNXUzEiMCAGA1UECxMZRGlzdHJp
YnV0ZWQgU3lzdGVtcyBHcm91cDExMC8GA1UEAxMoYWI1YmE3MmZjZjlkZWNlNTJk
MDlmNzMwMmM2OGJmMzZiOTE1MDM1ZDEjMCEGCSqGSIb3DQEJARYUbm9kZTAxODRA
b2N0YXJpbmUuZGUwgZ8wDQYJKoZIhvcNAQEBBQADgY0AMIGJAoGBAKZCFNU1hgtU
xA7Y2i9fM0jR4FNuQzcp3ElOYyZbYmBbr8hKtVBaYSSEhvYMxJb7uBAeXK8kB0t4
smboChMNvf3ncTAhGuNwGjE+A5PIQjSKgs3HaTaU9h3zY0UF4/UCPBVZg2i39tBk
G5AU1ZI8oZvOWWYj3WZrM2mJat0twr8pAgMBAAEwDQYJKoZIhvcNAQEEBQADgYEA
QfN8Ifkz3aBB4dUZQAfOLUn/76PBUeufOFOA8bP0gm1R7vcPaqXzpIcDTcJi11Wu
s96tn+DCOMaHHPW9wjWbyFwQtNqLBoqTs9O1PFedHj1pxCkRBS4ng5tRxfv0z37Q
yXQqLhXc//XJ9NdgPaUtOOPZ2A/qfjqwfCCOIQpaBuU=
-----END CERTIFICATE-----
