Certificate:
    Data:
        Version: 1 (0x0)
        Serial Number:
            9b:27:d7:e8:d1:ba:0b:6e
        Signature Algorithm: md5WithRSAEncryption
        Issuer: C=DE, ST=Saarland, O=MPI-SWS, OU=Distributed Systems Group, CN=Andreas Haeberlen/emailAddress=democa@octarine.de
        Validity
            Not Before: Apr 20 20:47:38 2015 GMT
            Not After : Apr 19 20:47:38 2016 GMT
        Subject: C=DE, ST=Saarland, O=MPI-SWS, OU=Distributed Systems Group, CN=39f7e07dc96c33cfc3c621c9601be6d10d9fe0ca/emailAddress=node0918@octarine.de
        Subject Public Key Info:
            Public Key Algorithm: rsaEncryption
            RSA Public Key: (1024 bit)
                Modulus (1024 bit):
                    00:de:1b:75:dd:bf:7f:1d:09:c2:cd:de:50:59:f9:
                    88:7f:c0:57:74:f8:32:de:06:31:30:92:08:47:16:
                    65:fb:97:be:c4:d8:75:fa:5c:d2:5b:31:45:71:ea:
                    67:50:97:5c:21:d1:1a:aa:bd:9d:d3:b6:98:d7:49:
                    fa:8d:7a:72:ce:2b:b0:5d:62:a4:70:2f:37:72:d1:
                    4b:65:bf:07:88:83:81:fc:d4:e5:98:dd:f2:9c:1d:
                    f5:27:11:c9:f1:3b:d8:1b:d4:64:21:3c:45:d0:ce:
                    e2:dd:a7:61:dc:43:03:eb:f1:e1:f0:d1:ba:6a:1b:
                    cc:c0:7d:39:f1:61:2d:03:d3
                Exponent: 65537 (0x10001)
    Signature Algorithm: md5WithRSAEncryption
        c0:38:03:f4:5a:39:29:28:0e:29:95:1b:4c:a1:0c:b5:0f:cb:
        3a:49:1a:1e:94:9e:a8:19:6c:f4:8f:82:1b:98:6d:39:7f:0b:
        39:6c:e7:9d:61:b4:53:b0:2c:6e:4b:44:f8:23:b9:40:55:8c:
        49:52:46:14:bd:f3:76:7a:bc:ee:54:ac:df:b3:8e:5f:2e:07:
        48:dc:45:0d:03:10:89:da:8a:d1:6b:45:02:83:8a:ff:c4:8b:
        1c:18:b2:47:2e:ef:8d:56:a9:b1:4f:8f:6b:ad:bf:f0:10:fe:
        55:3b:d0:bc:ed:3c:83:26:be:4f:8b:ff:09:38:a7:95:10:d7:
        f6:a6
-----BEGIN CERTIFICATE-----
MIICvDCCAiUCCQCbJ9fo0boLbjANBgkqhkiG9w0BAQQFADCBlTELMAkGA1UEBhMC
REUxETAPBgNVBAgTCFNhYXJsYW5kMRAwDgYDVQQKEwdNUEktU1dTMSIwIAYDVQQL
ExlEaXN0cmlidXRlZCBTeXN0ZW1zIEdyb3VwMRowGAYDVQQDExFBbmRyZWFzIEhh
ZWJlcmxlbjEhMB8GCSqGSIb3DQEJARYSZGVtb2NhQG9jdGFyaW5lLmRlMB4XDTE1
MDQyMDIwNDczOFoXDTE2MDQxOTIwNDczOFowga4xCzAJBgNVBAYTAkRFMREwDwYD
VQQIEwhTYWFybGFuZDEQMA4GA1UEChMHTVBJLVNXUzEiMCAGA1UECxMZRGlzdHJp
YnV0ZWQgU3lzdGVtcyBHcm91cDExMC8GA1UEAxMoMzlmN2UwN2RjOTZjMzNjZmMz
YzYyMWM5NjAxYmU2ZDEwZDlmZTBjYTEjMCEGCSqGSIb3DQEJARYUbm9kZTA5MThA
b2N0YXJpbmUuZGUwgZ8wDQYJKoZIhvcNAQEBBQADgY0AMIGJAoGBAN4bdd2/fx0J
ws3eUFn5iH/AV3T4Mt4GMTCSCEcWZfuXvsTYdfpc0lsxRXHqZ1CXXCHRGqq9ndO2
mNdJ+o16cs4rsF1ipHAvN3LRS2W/B4iDgfzU5Zjd8pwd9ScRyfE72BvUZCE8RdDO
4t2nYdxDA+vx4fDRumobzMB9OfFhLQPTAgMBAAEwDQYJKoZIhvcNAQEEBQADgYEA
wDgD9Fo5KSgOKZUbTKEMtQ/LOkkaHpSeqBls9I+CG5htOX8LOWznnWG0U7AsbktE
+CO5QFWMSVJGFL3zdnq87lSs37OOXy4HSNxFDQMQidqK0WtFAoOK/8SLHBiyRy7v
jVapsU+Pa62/8BD+VTvQvO08gya+T4v/CTinlRDX9qY=
-----END CERTIFICATE-----
