Certificate:
    Data:
        Version: 1 (0x0)
        Serial Number:
            9b:27:d7:e8:d1:ba:07:e8
        Signature Algorithm: md5WithRSAEncryption
        Issuer: C=DE, ST=Saarland, O=MPI-SWS, OU=Distributed Systems Group, CN=Andreas Haeberlen/emailAddress=democa@octarine.de
        Validity
            Not Before: Apr 20 20:46:57 2015 GMT
            Not After : Apr 19 20:46:57 2016 GMT
        Subject: C=DE, ST=Saarland, O=MPI-SWS, OU=Distributed Systems Group, CN=cbe88a792f52bd6b06984b1c56cb7c047ec093ab/emailAddress=node0016@octarine.de
        Subject Public Key Info:
            Public Key Algorithm: rsaEncryption
            RSA Public Key: (1024 bit)
                Modulus (1024 bit):
                    00:b8:85:10:cd:8b:94:4f:25:5e:ab:dd:4a:71:54:
                    38:da:54:af:ba:26:94:a7:13:e0:d6:ac:41:91:75:
                    41:b3:41:81:4e:48:0b:39:52:fd:1e:83:0d:3a:97:
                    14:c2:58:34:2d:24:4e:89:95:e0:4d:f4:b4:e3:d9:
                    28:30:fa:bf:06:ad:ce:5b:19:66:8b:a8:10:a8:26:
                    33:32:9c:b4:a4:e3:fe:da:a0:08:15:0b:ff:1b:84:
                    3d:76:1f:66:c2:26:48:21:35:7d:b1:bc:ac:94:26:
                    20:0f:4e:89:58:a6:78:29:d4:10:a6:b1:d3:ac:67:
                    a9:8a:89:8d:6f:ba:aa:8e:3f
                Exponent: 65537 (0x10001)
    Signature Algorithm: md5WithRSAEncryption
        4a:57:fc:bb:e3:a7:b6:8c:45:4b:a5:af:e6:fb:ea:63:54:6a:
        55:27:5b:23:0b:e0:60:ab:94:d1:af:26:a8:ba:5e:bc:e9:8f:
        41:d3:20:bf:d6:56:29:3d:50:ec:64:33:43:0d:77:2c:24:91:
        ee:09:88:76:23:cd:94:63:28:c0:13:05:82:d4:fb:9d:6c:6c:
        fe:4a:df:62:39:73:d0:47:01:b4:a3:a2:87:d4:00:5e:39:f5:
        73:c0:8e:a3:c8:ea:3d:d5:24:30:37:5d:6f:5c:4f:5b:2c:35:
        d4:a6:43:bb:60:30:6d:7e:11:51:7e:81:5d:f3:98:65:98:83:
        e0:6a
-----BEGIN CERTIFICATE-----
MIICvDCCAiUCCQCbJ9fo0boH6DANBgkqhkiG9w0BAQQFADCBlTELMAkGA1UEBhMC
REUxETAPBgNVBAgTCFNhYXJsYW5kMRAwDgYDVQQKEwdNUEktU1dTMSIwIAYDVQQL
ExlEaXN0cmlidXRlZCBTeXN0ZW1zIEdyb3VwMRowGAYDVQQDExFBbmRyZWFzIEhh
ZWJlcmxlbjEhMB8GCSqGSIb3DQEJARYSZGVtb2NhQG9jdGFyaW5lLmRlMB4XDTE1
MDQyMDIwNDY1N1oXDTE2MDQxOTIwNDY1N1owga4xCzAJBgNVBAYTAkRFMREwDwYD
VQQIEwhTYWFybGFuZDEQMA4GA1UEChMHTVBJLVNXUzEiMCAGA1UECxMZRGlzdHJp
YnV0ZWQgU3lzdGVtcyBHcm91cDExMC8GA1UEAxMoY2JlODhhNzkyZjUyYmQ2YjA2
OTg0YjFjNTZjYjdjMDQ3ZWMwOTNhYjEjMCEGCSqGSIb3DQEJARYUbm9kZTAwMTZA
b2N0YXJpbmUuZGUwgZ8wDQYJKoZIhvcNAQEBBQADgY0AMIGJAoGBALiFEM2LlE8l
XqvdSnFUONpUr7omlKcT4NasQZF1QbNBgU5ICzlS/R6DDTqXFMJYNC0kTomV4E30
tOPZKDD6vwatzlsZZouoEKgmMzKctKTj/tqgCBUL/xuEPXYfZsImSCE1fbG8rJQm
IA9OiVimeCnUEKax06xnqYqJjW+6qo4/AgMBAAEwDQYJKoZIhvcNAQEEBQADgYEA
Slf8u+OntoxFS6Wv5vvqY1RqVSdbIwvgYKuU0a8mqLpevOmPQdMgv9ZWKT1Q7GQz
Qw13LCSR7gmIdiPNlGMowBMFgtT7nWxs/krfYjlz0EcBtKOih9QAXjn1c8COo8jq
PdUkMDddb1xPWyw11KZDu2AwbX4RUX6BXfOYZZiD4Go=
-----END CERTIFICATE-----
