Certificate:
    Data:
        Version: 1 (0x0)
        Serial Number:
            9b:27:d7:e8:d1:ba:09:03
        Signature Algorithm: md5WithRSAEncryption
        Issuer: C=DE, ST=Saarland, O=MPI-SWS, OU=Distributed Systems Group, CN=Andreas Haeberlen/emailAddress=democa@octarine.de
        Validity
            Not Before: Apr 20 20:47:10 2015 GMT
            Not After : Apr 19 20:47:10 2016 GMT
        Subject: C=DE, ST=Saarland, O=MPI-SWS, OU=Distributed Systems Group, CN=eab3fcd80d33adaf60f66e302d920aaf463420d2/emailAddress=node0299@octarine.de
        Subject Public Key Info:
            Public Key Algorithm: rsaEncryption
            RSA Public Key: (1024 bit)
                Modulus (1024 bit):
                    00:cc:39:be:f1:87:be:f2:71:6b:9d:8c:df:9b:56:
                    a6:9a:63:99:1f:b1:34:09:3f:05:c6:75:0b:e8:3d:
                    4a:22:55:8c:a3:f2:b7:32:ed:45:14:4f:5a:eb:04:
                    7d:e8:a0:12:1d:c5:6e:73:de:f9:00:01:e5:85:09:
                    9c:82:dc:64:93:64:e2:17:af:97:a0:89:50:88:52:
                    2c:a3:7f:5d:33:84:f1:1f:f7:3d:08:1a:09:b4:fd:
                    db:61:c8:dd:65:34:71:ad:b6:03:16:29:32:18:b4:
                    a4:bb:52:7d:a5:7e:9b:16:37:b7:90:19:df:9e:d0:
                    a1:78:c0:35:28:e3:7a:4c:9f
                Exponent: 65537 (0x10001)
    Signature Algorithm: md5WithRSAEncryption
        03:d5:3f:3d:1b:26:81:3a:f0:33:99:70:1a:44:ef:63:af:fc:
        29:b5:1c:c9:c5:07:8d:64:e6:c7:67:f8:14:2a:76:e5:9b:7e:
        25:7d:33:a9:46:af:7a:09:28:4c:76:2a:05:cf:fb:cc:c4:fd:
        1a:70:53:ce:cb:04:a8:89:36:f4:b2:a0:99:d2:0f:b2:4a:84:
        44:e3:5d:01:ad:2a:02:09:71:aa:49:a7:6a:94:d4:aa:d7:14:
        ee:38:9f:e2:06:79:16:d0:aa:76:20:17:90:d7:1b:49:52:10:
        85:71:e3:ae:d5:da:41:63:a8:5b:d0:75:61:39:f8:b8:5f:f5:
        f6:d7
-----BEGIN CERTIFICATE-----
MIICvDCCAiUCCQCbJ9fo0boJAzANBgkqhkiG9w0BAQQFADCBlTELMAkGA1UEBhMC
REUxETAPBgNVBAgTCFNhYXJsYW5kMRAwDgYDVQQKEwdNUEktU1dTMSIwIAYDVQQL
ExlEaXN0cmlidXRlZCBTeXN0ZW1zIEdyb3VwMRowGAYDVQQDExFBbmRyZWFzIEhh
ZWJlcmxlbjEhMB8GCSqGSIb3DQEJARYSZGVtb2NhQG9jdGFyaW5lLmRlMB4XDTE1
MDQyMDIwNDcxMFoXDTE2MDQxOTIwNDcxMFowga4xCzAJBgNVBAYTAkRFMREwDwYD
VQQIEwhTYWFybGFuZDEQMA4GA1UEChMHTVBJLVNXUzEiMCAGA1UECxMZRGlzdHJp
YnV0ZWQgU3lzdGVtcyBHcm91cDExMC8GA1UEAxMoZWFiM2ZjZDgwZDMzYWRhZjYw
ZjY2ZTMwMmQ5MjBhYWY0NjM0MjBkMjEjMCEGCSqGSIb3DQEJARYUbm9kZTAyOTlA
b2N0YXJpbmUuZGUwgZ8wDQYJKoZIhvcNAQEBBQADgY0AMIGJAoGBAMw5vvGHvvJx
a52M35tWpppjmR+xNAk/BcZ1C+g9SiJVjKPytzLtRRRPWusEfeigEh3FbnPe+QAB
5YUJnILcZJNk4hevl6CJUIhSLKN/XTOE8R/3PQgaCbT922HI3WU0ca22AxYpMhi0
pLtSfaV+mxY3t5AZ357QoXjANSjjekyfAgMBAAEwDQYJKoZIhvcNAQEEBQADgYEA
A9U/PRsmgTrwM5lwGkTvY6/8KbUcycUHjWTmx2f4FCp25Zt+JX0zqUavegkoTHYq
Bc/7zMT9GnBTzssEqIk29LKgmdIPskqERONdAa0qAglxqkmnapTUqtcU7jif4gZ5
FtCqdiAXkNcbSVIQhXHjrtXaQWOoW9B1YTn4uF/19tc=
-----END CERTIFICATE-----
