Certificate:
    Data:
        Version: 1 (0x0)
        Serial Number:
            9b:27:d7:e8:d1:ba:0a:f0
        Signature Algorithm: md5WithRSAEncryption
        Issuer: C=DE, ST=Saarland, O=MPI-SWS, OU=Distributed Systems Group, CN=Andreas Haeberlen/emailAddress=democa@octarine.de
        Validity
            Not Before: Apr 20 20:47:32 2015 GMT
            Not After : Apr 19 20:47:32 2016 GMT
        Subject: C=DE, ST=Saarland, O=MPI-SWS, OU=Distributed Systems Group, CN=ac8c28477586ab4139a78d35222a33dd05a2df95/emailAddress=node0792@octarine.de
        Subject Public Key Info:
            Public Key Algorithm: rsaEncryption
            RSA Public Key: (1024 bit)
                Modulus (1024 bit):
                    00:c1:5f:ee:1c:8b:d7:f0:5c:9d:af:e8:38:9d:80:
                    86:49:96:e5:56:bc:ad:e2:50:06:ea:f1:db:0a:76:
                    9b:28:e9:9f:1a:60:9e:46:94:61:ea:bd:3a:e9:d6:
                    f7:a2:db:d0:4b:56:ad:af:42:03:1a:30:92:e7:bd:
                    b1:19:59:ae:7d:3f:14:8f:f5:fd:7d:35:7a:eb:33:
                    ca:87:5c:16:8a:1e:64:28:77:82:6c:7c:b5:69:f4:
                    8f:a6:e5:5d:97:5c:b5:aa:4e:40:d4:1a:43:c2:09:
                    e5:82:1e:37:16:f1:cc:ac:dd:24:e4:7f:00:ae:5f:
                    20:57:79:5f:b1:00:75:a7:f5
                Exponent: 65537 (0x10001)
    Signature Algorithm: md5WithRSAEncryption
        a2:03:52:1f:ef:d3:32:3a:a2:cd:38:5b:f7:13:34:5f:3d:f9:
        01:10:0d:78:97:89:bf:98:9a:5a:94:62:2d:39:90:87:5b:85:
        69:4c:ab:c5:b1:f0:02:1e:65:77:df:4d:be:fe:e1:88:b4:25:
        da:b4:58:a1:75:39:98:1c:23:90:4c:f5:09:d1:3c:8e:09:6b:
        7c:9d:c3:24:06:8b:a2:84:8c:68:69:30:7b:3c:bf:c0:e9:3e:
        d6:69:a8:05:91:8f:fb:5f:30:b0:35:66:1f:47:97:0b:4b:6c:
        f2:f6:9f:e3:3e:1d:6f:11:1b:05:e8:fc:77:9e:7e:b5:48:e1:
        89:11
-----BEGIN CERTIFICATE-----
MIICvDCCAiUCCQCbJ9fo0boK8DANBgkqhkiG9w0BAQQFADCBlTELMAkGA1UEBhMC
REUxETAPBgNVBAgTCFNhYXJsYW5kMRAwDgYDVQQKEwdNUEktU1dTMSIwIAYDVQQL
ExlEaXN0cmlidXRlZCBTeXN0ZW1zIEdyb3VwMRowGAYDVQQDExFBbmRyZWFzIEhh
ZWJlcmxlbjEhMB8GCSqGSIb3DQEJARYSZGVtb2NhQG9jdGFyaW5lLmRlMB4XDTE1
MDQyMDIwNDczMloXDTE2MDQxOTIwNDczMlowga4xCzAJBgNVBAYTAkRFMREwDwYD
VQQIEwhTYWFybGFuZDEQMA4GA1UEChMHTVBJLVNXUzEiMCAGA1UECxMZRGlzdHJp
YnV0ZWQgU3lzdGVtcyBHcm91cDExMC8GA1UEAxMoYWM4YzI4NDc3NTg2YWI0MTM5
YTc4ZDM1MjIyYTMzZGQwNWEyZGY5NTEjMCEGCSqGSIb3DQEJARYUbm9kZTA3OTJA
b2N0YXJpbmUuZGUwgZ8wDQYJKoZIhvcNAQEBBQADgY0AMIGJAoGBAMFf7hyL1/Bc
na/oOJ2AhkmW5Va8reJQBurx2wp2myjpnxpgnkaUYeq9OunW96Lb0EtWra9CAxow
kue9sRlZrn0/FI/1/X01euszyodcFooeZCh3gmx8tWn0j6blXZdctapOQNQaQ8IJ
5YIeNxbxzKzdJOR/AK5fIFd5X7EAdaf1AgMBAAEwDQYJKoZIhvcNAQEEBQADgYEA
ogNSH+/TMjqizThb9xM0Xz35ARANeJeJv5iaWpRiLTmQh1uFaUyrxbHwAh5ld99N
vv7hiLQl2rRYoXU5mBwjkEz1CdE8jglrfJ3DJAaLooSMaGkwezy/wOk+1mmoBZGP
+18wsDVmH0eXC0ts8vaf4z4dbxEbBej8d55+tUjhiRE=
-----END CERTIFICATE-----
