Certificate:
    Data:
        Version: 1 (0x0)
        Serial Number:
            9b:27:d7:e8:d1:ba:0a:ae
        Signature Algorithm: md5WithRSAEncryption
        Issuer: C=DE, ST=Saarland, O=MPI-SWS, OU=Distributed Systems Group, CN=Andreas Haeberlen/emailAddress=democa@octarine.de
        Validity
            Not Before: Apr 20 20:47:29 2015 GMT
            Not After : Apr 19 20:47:29 2016 GMT
        Subject: C=DE, ST=Saarland, O=MPI-SWS, OU=Distributed Systems Group, CN=b40e851e0872a1fb6b5cb8c7223bbfe63f5c46b4/emailAddress=node0726@octarine.de
        Subject Public Key Info:
            Public Key Algorithm: rsaEncryption
            RSA Public Key: (1024 bit)
                Modulus (1024 bit):
                    00:c6:27:05:09:ee:50:28:23:34:04:fe:5b:60:59:
                    4a:94:a4:83:58:9a:96:4e:76:61:f8:dd:c1:9c:0c:
                    5c:a4:e5:fa:6c:41:0c:c7:d2:08:2b:d6:03:ab:34:
                    68:06:80:0f:60:76:1e:e1:39:38:7d:df:f3:d4:ba:
                    74:3c:e9:06:a0:a7:19:f6:eb:85:15:67:78:16:b2:
                    61:62:51:ba:31:23:7b:42:a4:bc:0e:2d:17:d2:be:
                    61:02:6c:7b:d7:30:92:d3:08:34:fb:37:00:ad:94:
                    09:1d:8e:a3:30:f0:8a:cd:20:fd:b3:d1:d4:e6:4f:
                    1a:3f:96:ef:b8:0c:83:b8:21
                Exponent: 65537 (0x10001)
    Signature Algorithm: md5WithRSAEncryption
        86:74:27:71:b3:fe:0b:5a:f6:cf:0b:c0:68:a7:36:5d:65:e1:
        f8:be:2e:f5:a2:a9:60:52:ad:66:56:e7:bb:e2:b4:92:ea:11:
        97:7b:88:30:e2:0f:29:1f:87:55:27:37:9a:a8:7e:f8:f8:ec:
        f9:6d:96:0a:08:f8:00:76:ad:a6:b3:3f:52:56:ee:69:86:42:
        1c:7e:0c:da:bc:d1:8a:fc:6c:3b:3b:cd:ce:0f:35:0c:56:c4:
        4e:d5:07:3c:f7:c0:e9:7d:f2:53:f4:62:d0:61:3c:c7:7e:13:
        e2:8e:a6:2c:7e:dd:44:b1:3b:08:97:8d:02:83:8d:c4:47:64:
        c7:7d
-----BEGIN CERTIFICATE-----
MIICvDCCAiUCCQCbJ9fo0boKrjANBgkqhkiG9w0BAQQFADCBlTELMAkGA1UEBhMC
REUxETAPBgNVBAgTCFNhYXJsYW5kMRAwDgYDVQQKEwdNUEktU1dTMSIwIAYDVQQL
ExlEaXN0cmlidXRlZCBTeXN0ZW1zIEdyb3VwMRowGAYDVQQDExFBbmRyZWFzIEhh
ZWJlcmxlbjEhMB8GCSqGSIb3DQEJARYSZGVtb2NhQG9jdGFyaW5lLmRlMB4XDTE1
MDQyMDIwNDcyOVoXDTE2MDQxOTIwNDcyOVowga4xCzAJBgNVBAYTAkRFMREwDwYD
VQQIEwhTYWFybGFuZDEQMA4GA1UEChMHTVBJLVNXUzEiMCAGA1UECxMZRGlzdHJp
YnV0ZWQgU3lzdGVtcyBHcm91cDExMC8GA1UEAxMoYjQwZTg1MWUwODcyYTFmYjZi
NWNiOGM3MjIzYmJmZTYzZjVjNDZiNDEjMCEGCSqGSIb3DQEJARYUbm9kZTA3MjZA
b2N0YXJpbmUuZGUwgZ8wDQYJKoZIhvcNAQEBBQADgY0AMIGJAoGBAMYnBQnuUCgj
NAT+W2BZSpSkg1ialk52YfjdwZwMXKTl+mxBDMfSCCvWA6s0aAaAD2B2HuE5OH3f
89S6dDzpBqCnGfbrhRVneBayYWJRujEje0KkvA4tF9K+YQJse9cwktMINPs3AK2U
CR2OozDwis0g/bPR1OZPGj+W77gMg7ghAgMBAAEwDQYJKoZIhvcNAQEEBQADgYEA
hnQncbP+C1r2zwvAaKc2XWXh+L4u9aKpYFKtZlbnu+K0kuoRl3uIMOIPKR+HVSc3
mqh++Pjs+W2WCgj4AHatprM/UlbuaYZCHH4M2rzRivxsOzvNzg81DFbETtUHPPfA
6X3yU/Ri0GE8x34T4o6mLH7dRLE7CJeNAoONxEdkx30=
-----END CERTIFICATE-----
