Certificate:
    Data:
        Version: 1 (0x0)
        Serial Number:
            9b:27:d7:e8:d1:ba:08:ee
        Signature Algorithm: md5WithRSAEncryption
        Issuer: C=DE, ST=Saarland, O=MPI-SWS, OU=Distributed Systems Group, CN=Andreas Haeberlen/emailAddress=democa@octarine.de
        Validity
            Not Before: Apr 20 20:47:09 2015 GMT
            Not After : Apr 19 20:47:09 2016 GMT
        Subject: C=DE, ST=Saarland, O=MPI-SWS, OU=Distributed Systems Group, CN=0ccf6b96831f7716265c5af8b2b65955514cce25/emailAddress=node0278@octarine.de
        Subject Public Key Info:
            Public Key Algorithm: rsaEncryption
            RSA Public Key: (1024 bit)
                Modulus (1024 bit):
                    00:b3:91:92:4b:14:75:0f:f8:a2:23:67:a0:36:05:
                    81:81:e7:18:3b:fc:9e:83:83:6d:30:36:fa:5a:7b:
                    02:90:f0:b0:a6:6f:52:34:5f:30:46:4b:1f:a7:77:
                    77:3b:d7:58:38:51:93:a4:57:04:1e:c2:4c:9e:bd:
                    bb:e3:b1:d9:ca:c9:5b:1a:79:f1:e9:37:2b:d7:c8:
                    5c:f5:71:f9:4b:ca:70:99:33:08:fa:4c:31:11:f1:
                    50:97:a3:e5:4d:5c:91:9d:30:2b:31:c6:41:2e:4c:
                    7f:28:5e:01:34:70:f6:fd:1c:51:88:26:62:0c:8d:
                    b3:ac:6b:86:63:29:4e:3a:59
                Exponent: 65537 (0x10001)
    Signature Algorithm: md5WithRSAEncryption
        08:96:76:e1:07:0e:32:96:55:80:5d:74:b6:52:1f:7d:d4:1e:
        d7:89:83:05:fe:ac:47:d7:02:ad:a6:47:3c:ed:d4:90:3b:d7:
        89:7d:8a:4e:90:9f:55:7b:76:4b:ed:35:1b:28:34:68:73:16:
        ff:79:bd:13:0e:5f:c6:4a:cb:ec:02:1f:3f:45:a1:54:f1:b4:
        b8:60:32:1a:3e:0c:50:e4:1c:17:d4:88:72:70:59:6b:85:fb:
        a5:04:cc:cc:1a:06:6b:2c:c3:3d:b4:ba:b9:31:8e:55:4e:f9:
        64:4e:62:b4:90:01:2d:af:2e:ea:51:6d:88:36:91:08:b1:83:
        c5:9e
-----BEGIN CERTIFICATE-----
MIICvDCCAiUCCQCbJ9fo0boI7jANBgkqhkiG9w0BAQQFADCBlTELMAkGA1UEBhMC
REUxETAPBgNVBAgTCFNhYXJsYW5kMRAwDgYDVQQKEwdNUEktU1dTMSIwIAYDVQQL
ExlEaXN0cmlidXRlZCBTeXN0ZW1zIEdyb3VwMRowGAYDVQQDExFBbmRyZWFzIEhh
ZWJlcmxlbjEhMB8GCSqGSIb3DQEJARYSZGVtb2NhQG9jdGFyaW5lLmRlMB4XDTE1
MDQyMDIwNDcwOVoXDTE2MDQxOTIwNDcwOVowga4xCzAJBgNVBAYTAkRFMREwDwYD
VQQIEwhTYWFybGFuZDEQMA4GA1UEChMHTVBJLVNXUzEiMCAGA1UECxMZRGlzdHJp
YnV0ZWQgU3lzdGVtcyBHcm91cDExMC8GA1UEAxMoMGNjZjZiOTY4MzFmNzcxNjI2
NWM1YWY4YjJiNjU5NTU1MTRjY2UyNTEjMCEGCSqGSIb3DQEJARYUbm9kZTAyNzhA
b2N0YXJpbmUuZGUwgZ8wDQYJKoZIhvcNAQEBBQADgY0AMIGJAoGBALORkksUdQ/4
oiNnoDYFgYHnGDv8noODbTA2+lp7ApDwsKZvUjRfMEZLH6d3dzvXWDhRk6RXBB7C
TJ69u+Ox2crJWxp58ek3K9fIXPVx+UvKcJkzCPpMMRHxUJej5U1ckZ0wKzHGQS5M
fyheATRw9v0cUYgmYgyNs6xrhmMpTjpZAgMBAAEwDQYJKoZIhvcNAQEEBQADgYEA
CJZ24QcOMpZVgF10tlIffdQe14mDBf6sR9cCraZHPO3UkDvXiX2KTpCfVXt2S+01
Gyg0aHMW/3m9Ew5fxkrL7AIfP0WhVPG0uGAyGj4MUOQcF9SIcnBZa4X7pQTMzBoG
ayzDPbS6uTGOVU75ZE5itJABLa8u6lFtiDaRCLGDxZ4=
-----END CERTIFICATE-----
