Certificate:
    Data:
        Version: 1 (0x0)
        Serial Number:
            9b:27:d7:e8:d1:ba:08:6c
        Signature Algorithm: md5WithRSAEncryption
        Issuer: C=DE, ST=Saarland, O=MPI-SWS, OU=Distributed Systems Group, CN=Andreas Haeberlen/emailAddress=democa@octarine.de
        Validity
            Not Before: Apr 20 20:47:03 2015 GMT
            Not After : Apr 19 20:47:03 2016 GMT
        Subject: C=DE, ST=Saarland, O=MPI-SWS, OU=Distributed Systems Group, CN=a8bc3e879ab0e06f86b9f63e75d369b027d555ce/emailAddress=node0148@octarine.de
        Subject Public Key Info:
            Public Key Algorithm: rsaEncryption
            RSA Public Key: (1024 bit)
                Modulus (1024 bit):
                    00:d2:09:4d:eb:3c:fd:68:4e:f4:e9:ea:df:b5:c7:
                    03:80:eb:99:41:e9:4c:23:0b:45:33:53:2f:b5:dd:
                    0a:55:44:6a:73:cb:5b:58:45:65:32:94:9d:12:3c:
                    e0:4c:5b:e2:43:19:5a:31:57:5d:1a:33:31:34:6e:
                    36:19:9a:1c:c3:08:c0:54:02:ed:37:a6:64:4a:74:
                    c0:e3:23:8f:3e:93:2f:62:f1:60:9c:6b:2d:fb:5d:
                    be:3f:68:96:e7:ab:77:a8:69:24:0c:02:b1:3c:16:
                    35:47:8c:90:7d:73:42:9b:9c:b4:25:e3:30:f3:59:
                    73:3e:59:40:6b:48:7f:ca:37
                Exponent: 65537 (0x10001)
    Signature Algorithm: md5WithRSAEncryption
        7f:70:2b:fa:83:79:49:e1:ab:bd:5d:cb:e2:1b:bd:ab:79:73:
        fa:fc:95:a1:ca:5f:bb:41:af:fe:51:d2:af:9b:5f:0a:f5:6f:
        8f:30:01:1c:48:02:92:fd:47:03:e4:a4:d4:95:50:a9:d9:d0:
        d3:da:88:b4:73:9a:0e:50:b4:ae:e7:19:b0:1b:f7:9f:8d:31:
        35:63:69:c3:c2:e1:34:0e:6f:92:57:f9:5b:7d:99:68:de:15:
        82:64:38:82:2f:c2:37:b8:eb:a2:bc:ea:b5:93:81:e7:9b:e3:
        65:8c:ef:87:c6:c4:1b:97:d2:e5:ee:2d:3f:8e:e5:11:37:74:
        98:94
-----BEGIN CERTIFICATE-----
MIICvDCCAiUCCQCbJ9fo0boIbDANBgkqhkiG9w0BAQQFADCBlTELMAkGA1UEBhMC
REUxETAPBgNVBAgTCFNhYXJsYW5kMRAwDgYDVQQKEwdNUEktU1dTMSIwIAYDVQQL
ExlEaXN0cmlidXRlZCBTeXN0ZW1zIEdyb3VwMRowGAYDVQQDExFBbmRyZWFzIEhh
ZWJlcmxlbjEhMB8GCSqGSIb3DQEJARYSZGVtb2NhQG9jdGFyaW5lLmRlMB4XDTE1
MDQyMDIwNDcwM1oXDTE2MDQxOTIwNDcwM1owga4xCzAJBgNVBAYTAkRFMREwDwYD
VQQIEwhTYWFybGFuZDEQMA4GA1UEChMHTVBJLVNXUzEiMCAGA1UECxMZRGlzdHJp
YnV0ZWQgU3lzdGVtcyBHcm91cDExMC8GA1UEAxMoYThiYzNlODc5YWIwZTA2Zjg2
YjlmNjNlNzVkMzY5YjAyN2Q1NTVjZTEjMCEGCSqGSIb3DQEJARYUbm9kZTAxNDhA
b2N0YXJpbmUuZGUwgZ8wDQYJKoZIhvcNAQEBBQADgY0AMIGJAoGBANIJTes8/WhO
9Onq37XHA4DrmUHpTCMLRTNTL7XdClVEanPLW1hFZTKUnRI84Exb4kMZWjFXXRoz
MTRuNhmaHMMIwFQC7TemZEp0wOMjjz6TL2LxYJxrLftdvj9oluerd6hpJAwCsTwW
NUeMkH1zQpuctCXjMPNZcz5ZQGtIf8o3AgMBAAEwDQYJKoZIhvcNAQEEBQADgYEA
f3Ar+oN5SeGrvV3L4hu9q3lz+vyVocpfu0Gv/lHSr5tfCvVvjzABHEgCkv1HA+Sk
1JVQqdnQ09qItHOaDlC0rucZsBv3n40xNWNpw8LhNA5vklf5W32ZaN4VgmQ4gi/C
N7jrorzqtZOB55vjZYzvh8bEG5fS5e4tP47lETd0mJQ=
-----END CERTIFICATE-----
