Certificate:
    Data:
        Version: 1 (0x0)
        Serial Number:
            9b:27:d7:e8:d1:ba:0a:5e
        Signature Algorithm: md5WithRSAEncryption
        Issuer: C=DE, ST=Saarland, O=MPI-SWS, OU=Distributed Systems Group, CN=Andreas Haeberlen/emailAddress=democa@octarine.de
        Validity
            Not Before: Apr 20 20:47:25 2015 GMT
            Not After : Apr 19 20:47:25 2016 GMT
        Subject: C=DE, ST=Saarland, O=MPI-SWS, OU=Distributed Systems Group, CN=6172523fc258c07a12d8117b28741977aeaf1efe/emailAddress=node0646@octarine.de
        Subject Public Key Info:
            Public Key Algorithm: rsaEncryption
            RSA Public Key: (1024 bit)
                Modulus (1024 bit):
                    00:d9:31:79:d6:91:78:80:97:e1:48:c9:9e:17:fb:
                    58:c9:f2:93:d4:0b:d9:ed:21:62:94:7e:db:4b:e1:
                    e9:38:84:ef:81:81:20:75:fe:03:1d:f0:f5:a2:22:
                    98:45:26:e5:65:ac:66:c7:ea:5b:54:df:58:bf:6e:
                    d6:06:cd:94:e1:c3:09:d5:26:da:a7:e5:1b:7b:20:
                    5b:24:f6:6a:4e:e0:68:6b:ab:34:cf:84:2c:ec:5a:
                    9e:91:77:eb:a4:72:ad:36:aa:c1:b7:c5:cf:1b:68:
                    c9:1e:ce:36:2a:6e:46:3a:f5:06:63:57:50:5c:a6:
                    5b:4f:a8:56:d0:44:5e:21:1d
                Exponent: 65537 (0x10001)
    Signature Algorithm: md5WithRSAEncryption
        2d:9e:11:7f:35:8d:7b:b3:3f:8c:2e:57:4a:bf:2a:74:0a:64:
        55:32:fb:6e:04:b8:2a:b2:48:4f:55:0a:66:51:a9:18:2b:27:
        86:64:b4:e3:05:60:87:31:74:bb:c0:be:6f:70:2c:1b:10:db:
        97:10:36:91:87:dd:c6:5f:dc:ee:27:59:93:c2:04:0e:fb:63:
        e1:65:f3:c5:57:32:32:ec:33:ab:b9:73:8d:14:e8:88:7b:e1:
        a0:73:60:1c:e1:40:12:04:2e:2f:cf:25:c6:7f:3f:07:bd:95:
        9e:19:39:9b:40:b4:f8:97:ad:fd:fe:1a:52:fb:4e:fe:a3:75:
        48:7e
-----BEGIN CERTIFICATE-----
MIICvDCCAiUCCQCbJ9fo0boKXjANBgkqhkiG9w0BAQQFADCBlTELMAkGA1UEBhMC
REUxETAPBgNVBAgTCFNhYXJsYW5kMRAwDgYDVQQKEwdNUEktU1dTMSIwIAYDVQQL
ExlEaXN0cmlidXRlZCBTeXN0ZW1zIEdyb3VwMRowGAYDVQQDExFBbmRyZWFzIEhh
ZWJlcmxlbjEhMB8GCSqGSIb3DQEJARYSZGVtb2NhQG9jdGFyaW5lLmRlMB4XDTE1
MDQyMDIwNDcyNVoXDTE2MDQxOTIwNDcyNVowga4xCzAJBgNVBAYTAkRFMREwDwYD
VQQIEwhTYWFybGFuZDEQMA4GA1UEChMHTVBJLVNXUzEiMCAGA1UECxMZRGlzdHJp
YnV0ZWQgU3lzdGVtcyBHcm91cDExMC8GA1UEAxMoNjE3MjUyM2ZjMjU4YzA3YTEy
ZDgxMTdiMjg3NDE5NzdhZWFmMWVmZTEjMCEGCSqGSIb3DQEJARYUbm9kZTA2NDZA
b2N0YXJpbmUuZGUwgZ8wDQYJKoZIhvcNAQEBBQADgY0AMIGJAoGBANkxedaReICX
4UjJnhf7WMnyk9QL2e0hYpR+20vh6TiE74GBIHX+Ax3w9aIimEUm5WWsZsfqW1Tf
WL9u1gbNlOHDCdUm2qflG3sgWyT2ak7gaGurNM+ELOxanpF366RyrTaqwbfFzxto
yR7ONipuRjr1BmNXUFymW0+oVtBEXiEdAgMBAAEwDQYJKoZIhvcNAQEEBQADgYEA
LZ4RfzWNe7M/jC5XSr8qdApkVTL7bgS4KrJIT1UKZlGpGCsnhmS04wVghzF0u8C+
b3AsGxDblxA2kYfdxl/c7idZk8IEDvtj4WXzxVcyMuwzq7lzjRToiHvhoHNgHOFA
EgQuL88lxn8/B72Vnhk5m0C0+Jet/f4aUvtO/qN1SH4=
-----END CERTIFICATE-----
