Certificate:
    Data:
        Version: 1 (0x0)
        Serial Number:
            9b:27:d7:e8:d1:ba:0a:e6
        Signature Algorithm: md5WithRSAEncryption
        Issuer: C=DE, ST=Saarland, O=MPI-SWS, OU=Distributed Systems Group, CN=Andreas Haeberlen/emailAddress=democa@octarine.de
        Validity
            Not Before: Apr 20 20:47:31 2015 GMT
            Not After : Apr 19 20:47:31 2016 GMT
        Subject: C=DE, ST=Saarland, O=MPI-SWS, OU=Distributed Systems Group, CN=431c986d698b6ad89158887eded53217533fbac1/emailAddress=node0782@octarine.de
        Subject Public Key Info:
            Public Key Algorithm: rsaEncryption
            RSA Public Key: (1024 bit)
                Modulus (1024 bit):
                    00:d6:d9:ab:50:1d:3b:5c:01:dd:1d:59:e4:b6:28:
                    f6:f9:06:b7:c3:cf:cf:33:08:c9:f3:dc:19:39:bc:
                    e5:63:98:28:30:3a:c3:74:99:56:c5:3e:85:61:e0:
                    c9:d0:1e:11:ee:9b:1f:db:10:38:bb:f5:92:93:27:
                    7f:5a:30:a3:88:05:e0:53:06:45:b8:3c:eb:9a:22:
                    b4:3e:8b:01:cd:35:f6:6d:8e:9e:3a:21:50:ac:89:
                    74:58:cb:25:3f:d5:18:c8:49:a0:02:d5:38:56:32:
                    b9:c2:e8:9f:46:81:d1:99:9e:81:6d:23:b4:f7:95:
                    13:d1:b4:07:86:5d:40:41:5f
                Exponent: 65537 (0x10001)
    Signature Algorithm: md5WithRSAEncryption
        66:7b:55:76:66:44:63:25:29:e7:f1:c1:d8:5c:91:68:65:26:
        4b:71:d5:18:b5:d0:50:8e:17:c2:88:60:1a:94:09:84:c7:18:
        55:b3:48:07:c1:e5:3e:a8:e8:f5:c3:31:ab:68:ff:e7:d1:d6:
        a5:68:5b:21:46:37:e0:fc:a2:a4:6a:18:c6:45:74:fc:88:d6:
        93:ed:a1:47:75:ef:78:77:74:b8:87:d2:a9:4f:67:33:7c:85:
        f6:f7:ce:df:69:50:da:b5:26:9f:3d:4d:ee:7c:f4:8a:1f:82:
        68:33:0b:20:00:f0:17:46:fb:fe:1e:4c:2a:d6:55:94:ba:b2:
        26:78
-----BEGIN CERTIFICATE-----
MIICvDCCAiUCCQCbJ9fo0boK5jANBgkqhkiG9w0BAQQFADCBlTELMAkGA1UEBhMC
REUxETAPBgNVBAgTCFNhYXJsYW5kMRAwDgYDVQQKEwdNUEktU1dTMSIwIAYDVQQL
ExlEaXN0cmlidXRlZCBTeXN0ZW1zIEdyb3VwMRowGAYDVQQDExFBbmRyZWFzIEhh
ZWJlcmxlbjEhMB8GCSqGSIb3DQEJARYSZGVtb2NhQG9jdGFyaW5lLmRlMB4XDTE1
MDQyMDIwNDczMVoXDTE2MDQxOTIwNDczMVowga4xCzAJBgNVBAYTAkRFMREwDwYD
VQQIEwhTYWFybGFuZDEQMA4GA1UEChMHTVBJLVNXUzEiMCAGA1UECxMZRGlzdHJp
YnV0ZWQgU3lzdGVtcyBHcm91cDExMC8GA1UEAxMoNDMxYzk4NmQ2OThiNmFkODkx
NTg4ODdlZGVkNTMyMTc1MzNmYmFjMTEjMCEGCSqGSIb3DQEJARYUbm9kZTA3ODJA
b2N0YXJpbmUuZGUwgZ8wDQYJKoZIhvcNAQEBBQADgY0AMIGJAoGBANbZq1AdO1wB
3R1Z5LYo9vkGt8PPzzMIyfPcGTm85WOYKDA6w3SZVsU+hWHgydAeEe6bH9sQOLv1
kpMnf1owo4gF4FMGRbg865oitD6LAc019m2OnjohUKyJdFjLJT/VGMhJoALVOFYy
ucLon0aB0ZmegW0jtPeVE9G0B4ZdQEFfAgMBAAEwDQYJKoZIhvcNAQEEBQADgYEA
ZntVdmZEYyUp5/HB2FyRaGUmS3HVGLXQUI4XwohgGpQJhMcYVbNIB8HlPqjo9cMx
q2j/59HWpWhbIUY34PyipGoYxkV0/IjWk+2hR3XveHd0uIfSqU9nM3yF9vfO32lQ
2rUmnz1N7nz0ih+CaDMLIADwF0b7/h5MKtZVlLqyJng=
-----END CERTIFICATE-----
