Certificate:
    Data:
        Version: 1 (0x0)
        Serial Number:
            9b:27:d7:e8:d1:ba:0a:c3
        Signature Algorithm: md5WithRSAEncryption
        Issuer: C=DE, ST=Saarland, O=MPI-SWS, OU=Distributed Systems Group, CN=Andreas Haeberlen/emailAddress=democa@octarine.de
        Validity
            Not Before: Apr 20 20:47:30 2015 GMT
            Not After : Apr 19 20:47:30 2016 GMT
        Subject: C=DE, ST=Saarland, O=MPI-SWS, OU=Distributed Systems Group, CN=3be1e1737d7303d58d7d4ca49ab1084332413b4b/emailAddress=node0747@octarine.de
        Subject Public Key Info:
            Public Key Algorithm: rsaEncryption
            RSA Public Key: (1024 bit)
                Modulus (1024 bit):
                    00:d2:c1:30:e5:23:e3:48:1f:ed:81:09:a9:91:79:
                    da:0a:d7:d1:5b:c2:4a:dc:57:d0:01:f5:bf:78:4c:
                    65:5d:be:1c:30:49:2c:50:62:49:fe:bb:f3:46:16:
                    0e:cd:cc:81:34:02:06:6a:d1:14:88:e2:5f:69:22:
                    34:eb:80:e2:da:6a:af:35:83:79:1f:8c:3b:92:6f:
                    6e:4e:1a:86:9a:6e:86:0c:de:ee:68:30:40:43:fc:
                    df:0c:91:1e:c6:d3:52:5b:a8:ec:91:09:81:a3:0b:
                    9b:9e:b9:c6:d5:7b:c4:15:fa:08:b5:71:3c:b1:93:
                    03:38:e1:18:ad:f7:26:79:2b
                Exponent: 65537 (0x10001)
    Signature Algorithm: md5WithRSAEncryption
        7e:3e:16:74:b0:7a:12:69:e0:ef:ec:a0:87:da:2e:ec:17:fc:
        a3:c8:64:5d:1a:d9:36:65:e1:84:2e:cd:2e:5d:ec:d5:a7:0a:
        b1:61:24:45:5c:f7:ec:4e:4b:2d:ea:cb:34:9f:01:22:3f:f9:
        dd:b7:3c:a8:67:04:47:57:79:64:3f:ab:9e:b9:7b:86:a7:0b:
        f7:19:ec:ee:79:a1:fb:13:79:20:48:3b:d1:fd:0c:74:85:df:
        19:a1:7c:f1:2e:a4:6c:4a:0a:eb:c7:88:be:92:d7:2c:13:e8:
        39:fb:3b:f0:6f:ef:a3:fd:5e:c3:d6:7f:e2:de:70:48:1f:b8:
        82:78
-----BEGIN CERTIFICATE-----
MIICvDCCAiUCCQCbJ9fo0boKwzANBgkqhkiG9w0BAQQFADCBlTELMAkGA1UEBhMC
REUxETAPBgNVBAgTCFNhYXJsYW5kMRAwDgYDVQQKEwdNUEktU1dTMSIwIAYDVQQL
ExlEaXN0cmlidXRlZCBTeXN0ZW1zIEdyb3VwMRowGAYDVQQDExFBbmRyZWFzIEhh
ZWJlcmxlbjEhMB8GCSqGSIb3DQEJARYSZGVtb2NhQG9jdGFyaW5lLmRlMB4XDTE1
MDQyMDIwNDczMFoXDTE2MDQxOTIwNDczMFowga4xCzAJBgNVBAYTAkRFMREwDwYD
VQQIEwhTYWFybGFuZDEQMA4GA1UEChMHTVBJLVNXUzEiMCAGA1UECxMZRGlzdHJp
YnV0ZWQgU3lzdGVtcyBHcm91cDExMC8GA1UEAxMoM2JlMWUxNzM3ZDczMDNkNThk
N2Q0Y2E0OWFiMTA4NDMzMjQxM2I0YjEjMCEGCSqGSIb3DQEJARYUbm9kZTA3NDdA
b2N0YXJpbmUuZGUwgZ8wDQYJKoZIhvcNAQEBBQADgY0AMIGJAoGBANLBMOUj40gf
7YEJqZF52grX0VvCStxX0AH1v3hMZV2+HDBJLFBiSf6780YWDs3MgTQCBmrRFIji
X2kiNOuA4tpqrzWDeR+MO5Jvbk4ahppuhgze7mgwQEP83wyRHsbTUluo7JEJgaML
m565xtV7xBX6CLVxPLGTAzjhGK33JnkrAgMBAAEwDQYJKoZIhvcNAQEEBQADgYEA
fj4WdLB6Emng7+ygh9ou7Bf8o8hkXRrZNmXhhC7NLl3s1acKsWEkRVz37E5LLerL
NJ8BIj/53bc8qGcER1d5ZD+rnrl7hqcL9xns7nmh+xN5IEg70f0MdIXfGaF88S6k
bEoK68eIvpLXLBPoOfs78G/vo/1ew9Z/4t5wSB+4gng=
-----END CERTIFICATE-----
