Certificate:
    Data:
        Version: 1 (0x0)
        Serial Number:
            9b:27:d7:e8:d1:ba:0a:a9
        Signature Algorithm: md5WithRSAEncryption
        Issuer: C=DE, ST=Saarland, O=MPI-SWS, OU=Distributed Systems Group, CN=Andreas Haeberlen/emailAddress=democa@octarine.de
        Validity
            Not Before: Apr 20 20:47:29 2015 GMT
            Not After : Apr 19 20:47:29 2016 GMT
        Subject: C=DE, ST=Saarland, O=MPI-SWS, OU=Distributed Systems Group, CN=3f2b07ba8840645628db7d24faaaeec2efde789f/emailAddress=node0721@octarine.de
        Subject Public Key Info:
            Public Key Algorithm: rsaEncryption
            RSA Public Key: (1024 bit)
                Modulus (1024 bit):
                    00:a2:11:80:de:71:d6:39:cc:95:62:4a:ce:b0:69:
                    a7:c6:40:d4:55:5e:71:95:32:59:a5:63:f4:7c:f0:
                    6a:aa:dc:10:32:bb:ce:4a:c1:c6:69:78:02:d2:fe:
                    77:3c:c2:43:95:08:9e:90:f3:9f:69:08:f9:bc:8e:
                    ad:27:da:5d:f4:a0:cf:29:fd:c7:79:84:5b:89:41:
                    f4:64:cc:dc:fa:01:b4:96:84:79:e4:e3:ac:75:05:
                    4c:12:6f:f2:5f:38:e0:ad:0e:4b:00:f8:80:9d:62:
                    9b:da:ba:40:b9:80:78:b8:4d:59:01:77:2c:20:6e:
                    e4:50:2f:e2:3d:29:2e:3d:31
                Exponent: 65537 (0x10001)
    Signature Algorithm: md5WithRSAEncryption
        42:3e:ff:3e:02:48:ca:37:aa:b0:5a:3e:54:f9:95:75:2a:51:
        d9:30:83:37:1c:16:6b:fe:4a:8f:e9:73:85:a7:d6:c0:41:d4:
        04:8b:44:3e:ab:29:45:96:9d:da:78:5d:f1:8b:95:78:65:00:
        7b:cc:57:8e:e1:fa:bc:76:df:9f:27:f0:e8:eb:bf:7d:f7:c1:
        65:08:e4:8b:f1:3e:09:2b:5e:a5:18:55:23:f0:c9:0d:23:2d:
        89:09:49:a0:05:f3:a1:3b:0c:01:bc:3a:f8:40:92:cf:b6:86:
        a7:7d:8a:45:fb:30:fe:4f:f4:30:0b:a1:4e:c0:af:75:ad:3c:
        a0:84
-----BEGIN CERTIFICATE-----
MIICvDCCAiUCCQCbJ9fo0boKqTANBgkqhkiG9w0BAQQFADCBlTELMAkGA1UEBhMC
REUxETAPBgNVBAgTCFNhYXJsYW5kMRAwDgYDVQQKEwdNUEktU1dTMSIwIAYDVQQL
ExlEaXN0cmlidXRlZCBTeXN0ZW1zIEdyb3VwMRowGAYDVQQDExFBbmRyZWFzIEhh
ZWJlcmxlbjEhMB8GCSqGSIb3DQEJARYSZGVtb2NhQG9jdGFyaW5lLmRlMB4XDTE1
MDQyMDIwNDcyOVoXDTE2MDQxOTIwNDcyOVowga4xCzAJBgNVBAYTAkRFMREwDwYD
VQQIEwhTYWFybGFuZDEQMA4GA1UEChMHTVBJLVNXUzEiMCAGA1UECxMZRGlzdHJp
YnV0ZWQgU3lzdGVtcyBHcm91cDExMC8GA1UEAxMoM2YyYjA3YmE4ODQwNjQ1NjI4
ZGI3ZDI0ZmFhYWVlYzJlZmRlNzg5ZjEjMCEGCSqGSIb3DQEJARYUbm9kZTA3MjFA
b2N0YXJpbmUuZGUwgZ8wDQYJKoZIhvcNAQEBBQADgY0AMIGJAoGBAKIRgN5x1jnM
lWJKzrBpp8ZA1FVecZUyWaVj9HzwaqrcEDK7zkrBxml4AtL+dzzCQ5UInpDzn2kI
+byOrSfaXfSgzyn9x3mEW4lB9GTM3PoBtJaEeeTjrHUFTBJv8l844K0OSwD4gJ1i
m9q6QLmAeLhNWQF3LCBu5FAv4j0pLj0xAgMBAAEwDQYJKoZIhvcNAQEEBQADgYEA
Qj7/PgJIyjeqsFo+VPmVdSpR2TCDNxwWa/5Kj+lzhafWwEHUBItEPqspRZad2nhd
8YuVeGUAe8xXjuH6vHbfnyfw6Ou/fffBZQjki/E+CStepRhVI/DJDSMtiQlJoAXz
oTsMAbw6+ECSz7aGp32KRfsw/k/0MAuhTsCvda08oIQ=
-----END CERTIFICATE-----
