Certificate:
    Data:
        Version: 1 (0x0)
        Serial Number:
            9b:27:d7:e8:d1:ba:0a:c8
        Signature Algorithm: md5WithRSAEncryption
        Issuer: C=DE, ST=Saarland, O=MPI-SWS, OU=Distributed Systems Group, CN=Andreas Haeberlen/emailAddress=democa@octarine.de
        Validity
            Not Before: Apr 20 20:47:30 2015 GMT
            Not After : Apr 19 20:47:30 2016 GMT
        Subject: C=DE, ST=Saarland, O=MPI-SWS, OU=Distributed Systems Group, CN=7790f3f55278e7a37379f4ca5e830637ec7d0736/emailAddress=node0752@octarine.de
        Subject Public Key Info:
            Public Key Algorithm: rsaEncryption
            RSA Public Key: (1024 bit)
                Modulus (1024 bit):
                    00:cf:59:a1:5d:f7:c7:cb:f1:0f:ac:ff:68:d8:4e:
                    54:11:86:b6:ac:45:97:9e:86:72:60:85:80:fb:77:
                    2d:24:59:90:65:85:f3:fe:28:b2:e9:33:54:ea:d7:
                    95:4c:77:54:14:02:df:e3:d1:3d:c3:19:1a:0d:cb:
                    9e:da:2e:42:0e:11:5e:6f:26:fb:1e:13:c5:81:8f:
                    67:c4:9a:81:3f:38:bb:5a:35:37:9b:3e:0c:17:9d:
                    fe:37:84:4f:b3:14:1c:8f:96:2f:ce:11:d1:42:13:
                    0a:a2:eb:d5:59:4d:ec:ce:d6:e6:bc:f3:cf:47:df:
                    e5:47:48:18:ab:05:84:4f:49
                Exponent: 65537 (0x10001)
    Signature Algorithm: md5WithRSAEncryption
        23:17:4c:36:23:fa:59:e9:98:63:b4:6a:7a:84:02:d3:80:f5:
        96:e3:19:a7:49:fb:a1:74:1e:7b:12:84:9f:00:50:7c:4b:f9:
        44:8e:eb:d9:89:b5:67:09:3e:cd:10:c6:9e:e4:e3:b2:5a:e6:
        f8:1e:10:5a:28:66:70:f2:48:49:fd:af:c6:0e:28:e2:10:77:
        e7:aa:c8:15:3e:95:40:1b:c3:0e:29:dd:f7:a4:8d:d5:88:7b:
        02:99:4e:a8:80:5d:89:e1:f5:2a:01:ba:87:1e:f6:1c:94:cb:
        c0:78:02:f0:4c:69:41:55:ed:a6:57:37:3e:e6:46:66:ea:be:
        ec:a2
-----BEGIN CERTIFICATE-----
MIICvDCCAiUCCQCbJ9fo0boKyDANBgkqhkiG9w0BAQQFADCBlTELMAkGA1UEBhMC
REUxETAPBgNVBAgTCFNhYXJsYW5kMRAwDgYDVQQKEwdNUEktU1dTMSIwIAYDVQQL
ExlEaXN0cmlidXRlZCBTeXN0ZW1zIEdyb3VwMRowGAYDVQQDExFBbmRyZWFzIEhh
ZWJlcmxlbjEhMB8GCSqGSIb3DQEJARYSZGVtb2NhQG9jdGFyaW5lLmRlMB4XDTE1
MDQyMDIwNDczMFoXDTE2MDQxOTIwNDczMFowga4xCzAJBgNVBAYTAkRFMREwDwYD
VQQIEwhTYWFybGFuZDEQMA4GA1UEChMHTVBJLVNXUzEiMCAGA1UECxMZRGlzdHJp
YnV0ZWQgU3lzdGVtcyBHcm91cDExMC8GA1UEAxMoNzc5MGYzZjU1Mjc4ZTdhMzcz
NzlmNGNhNWU4MzA2MzdlYzdkMDczNjEjMCEGCSqGSIb3DQEJARYUbm9kZTA3NTJA
b2N0YXJpbmUuZGUwgZ8wDQYJKoZIhvcNAQEBBQADgY0AMIGJAoGBAM9ZoV33x8vx
D6z/aNhOVBGGtqxFl56GcmCFgPt3LSRZkGWF8/4osukzVOrXlUx3VBQC3+PRPcMZ
Gg3LntouQg4RXm8m+x4TxYGPZ8SagT84u1o1N5s+DBed/jeET7MUHI+WL84R0UIT
CqLr1VlN7M7W5rzzz0ff5UdIGKsFhE9JAgMBAAEwDQYJKoZIhvcNAQEEBQADgYEA
IxdMNiP6WemYY7RqeoQC04D1luMZp0n7oXQeexKEnwBQfEv5RI7r2Ym1Zwk+zRDG
nuTjslrm+B4QWihmcPJISf2vxg4o4hB356rIFT6VQBvDDind96SN1Yh7AplOqIBd
ieH1KgG6hx72HJTLwHgC8ExpQVXtplc3PuZGZuq+7KI=
-----END CERTIFICATE-----
