Certificate:
    Data:
        Version: 1 (0x0)
        Serial Number:
            9b:27:d7:e8:d1:ba:0b:bc
        Signature Algorithm: md5WithRSAEncryption
        Issuer: C=DE, ST=Saarland, O=MPI-SWS, OU=Distributed Systems Group, CN=Andreas Haeberlen/emailAddress=democa@octarine.de
        Validity
            Not Before: Apr 20 20:47:41 2015 GMT
            Not After : Apr 19 20:47:41 2016 GMT
        Subject: C=DE, ST=Saarland, O=MPI-SWS, OU=Distributed Systems Group, CN=81722ca2de92abf418897010ecc6547e5e18bca9/emailAddress=node0996@octarine.de
        Subject Public Key Info:
            Public Key Algorithm: rsaEncryption
            RSA Public Key: (1024 bit)
                Modulus (1024 bit):
                    00:c3:cb:31:e1:10:39:eb:17:3f:ef:39:86:a1:68:
                    27:71:66:64:47:cb:59:a9:7c:05:6d:6f:80:fb:38:
                    de:e8:d8:9f:ad:e1:3a:c3:ac:83:13:e2:e1:fb:4f:
                    c2:03:0f:56:e1:0c:f5:2f:3f:e7:78:5b:a5:a0:8e:
                    fe:27:e8:81:ad:51:30:01:1a:11:fa:73:1c:3f:a8:
                    5b:26:38:36:40:3e:7d:12:02:31:8e:18:5b:17:df:
                    f8:6b:08:2a:9a:20:e3:68:69:83:4a:c8:db:26:07:
                    7a:5b:df:57:ba:48:23:90:00:ff:96:80:ef:43:03:
                    59:2d:99:60:37:9b:01:cc:2f
                Exponent: 65537 (0x10001)
    Signature Algorithm: md5WithRSAEncryption
        04:d1:9f:e4:65:dc:a6:cc:65:6f:2d:39:00:a9:53:3f:76:c5:
        65:36:e0:70:0a:a6:c9:b5:c0:f4:ec:3a:f8:d2:a3:9a:72:ef:
        a1:c4:05:4d:8b:4d:45:a3:4e:8a:1e:1a:40:12:84:f8:85:f9:
        58:2c:40:a2:39:e8:87:8b:e8:75:9b:d3:14:18:30:34:89:38:
        58:02:02:e2:ef:cc:a5:c8:10:08:6e:e6:71:df:b3:3e:25:f4:
        78:eb:4c:03:cc:6e:f9:4b:21:4a:cd:df:24:92:d7:27:df:1e:
        d7:d2:ca:30:36:ab:23:89:1f:ca:bc:4c:a6:fa:c3:b9:4c:dd:
        a6:b8
-----BEGIN CERTIFICATE-----
MIICvDCCAiUCCQCbJ9fo0boLvDANBgkqhkiG9w0BAQQFADCBlTELMAkGA1UEBhMC
REUxETAPBgNVBAgTCFNhYXJsYW5kMRAwDgYDVQQKEwdNUEktU1dTMSIwIAYDVQQL
ExlEaXN0cmlidXRlZCBTeXN0ZW1zIEdyb3VwMRowGAYDVQQDExFBbmRyZWFzIEhh
ZWJlcmxlbjEhMB8GCSqGSIb3DQEJARYSZGVtb2NhQG9jdGFyaW5lLmRlMB4XDTE1
MDQyMDIwNDc0MVoXDTE2MDQxOTIwNDc0MVowga4xCzAJBgNVBAYTAkRFMREwDwYD
VQQIEwhTYWFybGFuZDEQMA4GA1UEChMHTVBJLVNXUzEiMCAGA1UECxMZRGlzdHJp
YnV0ZWQgU3lzdGVtcyBHcm91cDExMC8GA1UEAxMoODE3MjJjYTJkZTkyYWJmNDE4
ODk3MDEwZWNjNjU0N2U1ZTE4YmNhOTEjMCEGCSqGSIb3DQEJARYUbm9kZTA5OTZA
b2N0YXJpbmUuZGUwgZ8wDQYJKoZIhvcNAQEBBQADgY0AMIGJAoGBAMPLMeEQOesX
P+85hqFoJ3FmZEfLWal8BW1vgPs43ujYn63hOsOsgxPi4ftPwgMPVuEM9S8/53hb
paCO/ifoga1RMAEaEfpzHD+oWyY4NkA+fRICMY4YWxff+GsIKpog42hpg0rI2yYH
elvfV7pII5AA/5aA70MDWS2ZYDebAcwvAgMBAAEwDQYJKoZIhvcNAQEEBQADgYEA
BNGf5GXcpsxlby05AKlTP3bFZTbgcAqmybXA9Ow6+NKjmnLvocQFTYtNRaNOih4a
QBKE+IX5WCxAojnoh4vodZvTFBgwNIk4WAIC4u/MpcgQCG7mcd+zPiX0eOtMA8xu
+UshSs3fJJLXJ98e19LKMDarI4kfyrxMpvrDuUzdprg=
-----END CERTIFICATE-----
