Certificate:
    Data:
        Version: 1 (0x0)
        Serial Number:
            9b:27:d7:e8:d1:ba:09:43
        Signature Algorithm: md5WithRSAEncryption
        Issuer: C=DE, ST=Saarland, O=MPI-SWS, OU=Distributed Systems Group, CN=Andreas Haeberlen/emailAddress=democa@octarine.de
        Validity
            Not Before: Apr 20 20:47:12 2015 GMT
            Not After : Apr 19 20:47:12 2016 GMT
        Subject: C=DE, ST=Saarland, O=MPI-SWS, OU=Distributed Systems Group, CN=0d469380654fd6b8850f48311a43ee6fbb55ed55/emailAddress=node0363@octarine.de
        Subject Public Key Info:
            Public Key Algorithm: rsaEncryption
            RSA Public Key: (1024 bit)
                Modulus (1024 bit):
                    00:ac:03:1e:d0:8f:0e:79:40:91:68:fc:83:cd:3a:
                    86:b0:c1:d0:13:7d:3f:6d:14:34:24:83:d1:a3:a6:
                    a6:7d:78:bc:44:f1:7d:ba:9c:73:b6:f0:88:62:68:
                    8b:eb:51:d4:53:42:c4:b1:1e:3f:a2:2b:75:1f:13:
                    38:ee:8f:c2:dd:d3:31:a3:c2:70:cb:34:83:99:09:
                    51:1c:c4:ba:8f:36:3a:0e:89:5e:57:e4:6e:f0:72:
                    97:2e:9d:df:19:be:1e:4b:92:9a:15:89:0a:45:4b:
                    96:e2:2f:70:70:c1:e5:c6:eb:06:60:b0:a6:ab:91:
                    b6:c4:aa:4e:04:cc:20:95:fb
                Exponent: 65537 (0x10001)
    Signature Algorithm: md5WithRSAEncryption
        49:8d:ae:7d:0f:56:9c:68:89:e9:6e:22:94:c9:b5:e1:df:c4:
        d2:ba:07:86:30:d5:a4:4c:58:df:a8:b9:06:65:5e:f2:b2:2c:
        fa:1b:74:14:95:e2:09:5d:d3:fc:71:4a:8f:43:4f:59:29:96:
        57:19:88:19:c9:bf:75:35:cd:bc:a6:38:cc:a4:54:02:4c:31:
        40:7e:5c:ba:ad:36:74:3f:23:d9:97:64:6f:9d:35:20:96:9d:
        33:58:51:04:6f:38:be:a3:8f:4d:98:af:57:97:d0:ae:03:4f:
        6e:c6:58:47:89:fd:93:e0:f4:b5:a3:57:45:e2:02:6c:f7:63:
        37:5a
-----BEGIN CERTIFICATE-----
MIICvDCCAiUCCQCbJ9fo0boJQzANBgkqhkiG9w0BAQQFADCBlTELMAkGA1UEBhMC
REUxETAPBgNVBAgTCFNhYXJsYW5kMRAwDgYDVQQKEwdNUEktU1dTMSIwIAYDVQQL
ExlEaXN0cmlidXRlZCBTeXN0ZW1zIEdyb3VwMRowGAYDVQQDExFBbmRyZWFzIEhh
ZWJlcmxlbjEhMB8GCSqGSIb3DQEJARYSZGVtb2NhQG9jdGFyaW5lLmRlMB4XDTE1
MDQyMDIwNDcxMloXDTE2MDQxOTIwNDcxMlowga4xCzAJBgNVBAYTAkRFMREwDwYD
VQQIEwhTYWFybGFuZDEQMA4GA1UEChMHTVBJLVNXUzEiMCAGA1UECxMZRGlzdHJp
YnV0ZWQgU3lzdGVtcyBHcm91cDExMC8GA1UEAxMoMGQ0NjkzODA2NTRmZDZiODg1
MGY0ODMxMWE0M2VlNmZiYjU1ZWQ1NTEjMCEGCSqGSIb3DQEJARYUbm9kZTAzNjNA
b2N0YXJpbmUuZGUwgZ8wDQYJKoZIhvcNAQEBBQADgY0AMIGJAoGBAKwDHtCPDnlA
kWj8g806hrDB0BN9P20UNCSD0aOmpn14vETxfbqcc7bwiGJoi+tR1FNCxLEeP6Ir
dR8TOO6Pwt3TMaPCcMs0g5kJURzEuo82Og6JXlfkbvByly6d3xm+HkuSmhWJCkVL
luIvcHDB5cbrBmCwpquRtsSqTgTMIJX7AgMBAAEwDQYJKoZIhvcNAQEEBQADgYEA
SY2ufQ9WnGiJ6W4ilMm14d/E0roHhjDVpExY36i5BmVe8rIs+ht0FJXiCV3T/HFK
j0NPWSmWVxmIGcm/dTXNvKY4zKRUAkwxQH5cuq02dD8j2Zdkb501IJadM1hRBG84
vqOPTZivV5fQrgNPbsZYR4n9k+D0taNXReICbPdjN1o=
-----END CERTIFICATE-----
