Certificate:
    Data:
        Version: 1 (0x0)
        Serial Number:
            9b:27:d7:e8:d1:ba:0a:63
        Signature Algorithm: md5WithRSAEncryption
        Issuer: C=DE, ST=Saarland, O=MPI-SWS, OU=Distributed Systems Group, CN=Andreas Haeberlen/emailAddress=democa@octarine.de
        Validity
            Not Before: Apr 20 20:47:25 2015 GMT
            Not After : Apr 19 20:47:25 2016 GMT
        Subject: C=DE, ST=Saarland, O=MPI-SWS, OU=Distributed Systems Group, CN=629985e6047ebafdc607f4bc516f497bc04552b6/emailAddress=node0651@octarine.de
        Subject Public Key Info:
            Public Key Algorithm: rsaEncryption
            RSA Public Key: (1024 bit)
                Modulus (1024 bit):
                    00:b6:a8:8e:75:47:0e:34:1b:a9:42:de:9d:f0:60:
                    56:34:2b:ff:9c:ee:e9:8b:15:18:06:24:1b:b1:6f:
                    81:d6:b7:a3:d2:2e:2c:fd:46:43:d6:9a:66:26:36:
                    fb:55:f8:3b:e2:dd:ab:1d:a5:16:08:7d:a8:f8:14:
                    6f:50:60:1b:40:69:41:e8:67:45:64:ae:b2:b1:92:
                    53:5a:74:f4:4a:d2:60:93:91:d3:41:df:d1:f9:22:
                    4c:3e:ea:75:fb:3c:99:1a:97:a5:cb:e9:3b:ef:c5:
                    83:8a:88:2f:ce:2f:ca:9d:1a:d0:cc:bc:72:47:b6:
                    0d:61:93:18:38:70:1b:82:c3
                Exponent: 65537 (0x10001)
    Signature Algorithm: md5WithRSAEncryption
        4a:13:69:0e:e1:4f:27:ff:95:22:65:1f:3c:5a:5b:69:66:f8:
        c5:b1:bd:6c:3f:b2:7d:44:91:14:8f:0d:01:1a:9d:d0:40:ba:
        97:67:1f:79:70:cc:38:21:3c:58:01:9a:f4:c8:94:71:5d:1a:
        83:75:c2:49:b4:07:2f:09:8c:00:90:52:1b:9f:2a:6e:f0:f3:
        6a:d2:f2:ba:40:69:63:9c:d9:9a:91:ab:1e:c1:74:96:10:38:
        40:a1:0a:ac:8f:e1:2e:c1:d4:b1:f1:04:d6:d3:bb:67:20:ad:
        e2:a8:43:50:2e:83:6d:7e:8d:a8:b3:f2:61:59:1e:6f:05:12:
        d2:bd
-----BEGIN CERTIFICATE-----
MIICvDCCAiUCCQCbJ9fo0boKYzANBgkqhkiG9w0BAQQFADCBlTELMAkGA1UEBhMC
REUxETAPBgNVBAgTCFNhYXJsYW5kMRAwDgYDVQQKEwdNUEktU1dTMSIwIAYDVQQL
ExlEaXN0cmlidXRlZCBTeXN0ZW1zIEdyb3VwMRowGAYDVQQDExFBbmRyZWFzIEhh
ZWJlcmxlbjEhMB8GCSqGSIb3DQEJARYSZGVtb2NhQG9jdGFyaW5lLmRlMB4XDTE1
MDQyMDIwNDcyNVoXDTE2MDQxOTIwNDcyNVowga4xCzAJBgNVBAYTAkRFMREwDwYD
VQQIEwhTYWFybGFuZDEQMA4GA1UEChMHTVBJLVNXUzEiMCAGA1UECxMZRGlzdHJp
YnV0ZWQgU3lzdGVtcyBHcm91cDExMC8GA1UEAxMoNjI5OTg1ZTYwNDdlYmFmZGM2
MDdmNGJjNTE2ZjQ5N2JjMDQ1NTJiNjEjMCEGCSqGSIb3DQEJARYUbm9kZTA2NTFA
b2N0YXJpbmUuZGUwgZ8wDQYJKoZIhvcNAQEBBQADgY0AMIGJAoGBALaojnVHDjQb
qULenfBgVjQr/5zu6YsVGAYkG7Fvgda3o9IuLP1GQ9aaZiY2+1X4O+Ldqx2lFgh9
qPgUb1BgG0BpQehnRWSusrGSU1p09ErSYJOR00Hf0fkiTD7qdfs8mRqXpcvpO+/F
g4qIL84vyp0a0My8cke2DWGTGDhwG4LDAgMBAAEwDQYJKoZIhvcNAQEEBQADgYEA
ShNpDuFPJ/+VImUfPFpbaWb4xbG9bD+yfUSRFI8NARqd0EC6l2cfeXDMOCE8WAGa
9MiUcV0ag3XCSbQHLwmMAJBSG58qbvDzatLyukBpY5zZmpGrHsF0lhA4QKEKrI/h
LsHUsfEE1tO7ZyCt4qhDUC6DbX6NqLPyYVkebwUS0r0=
-----END CERTIFICATE-----
