Certificate:
    Data:
        Version: 1 (0x0)
        Serial Number:
            9b:27:d7:e8:d1:ba:09:ba
        Signature Algorithm: md5WithRSAEncryption
        Issuer: C=DE, ST=Saarland, O=MPI-SWS, OU=Distributed Systems Group, CN=Andreas Haeberlen/emailAddress=democa@octarine.de
        Validity
            Not Before: Apr 20 20:47:18 2015 GMT
            Not After : Apr 19 20:47:18 2016 GMT
        Subject: C=DE, ST=Saarland, O=MPI-SWS, OU=Distributed Systems Group, CN=f242ace899516c807685f9c0d4927546799268b0/emailAddress=node0482@octarine.de
        Subject Public Key Info:
            Public Key Algorithm: rsaEncryption
            RSA Public Key: (1024 bit)
                Modulus (1024 bit):
                    00:c4:b0:37:65:30:16:31:a8:2c:8c:c9:98:b7:f0:
                    fd:63:b7:52:4f:86:a1:a5:cb:05:e2:01:1e:a5:fb:
                    be:93:9e:4b:da:bc:db:c3:dd:29:c8:7c:92:73:51:
                    1a:0f:a0:cd:3c:2d:78:f3:0f:f0:48:51:20:5c:c4:
                    ed:13:b0:6b:66:51:d9:1b:90:25:75:2e:35:43:93:
                    eb:d5:1f:f9:e9:ab:b7:fa:8d:ea:44:44:66:4e:d1:
                    01:71:53:48:71:19:d0:e2:80:67:5d:f3:b3:e5:37:
                    ed:74:04:2e:c9:2b:4c:4d:56:ec:37:c9:e9:92:d0:
                    c1:e4:95:60:ed:a7:ea:28:7b
                Exponent: 65537 (0x10001)
    Signature Algorithm: md5WithRSAEncryption
        5e:7c:09:dc:9d:d6:c8:9d:ff:23:f8:a1:c0:b3:67:31:06:20:
        32:7a:da:03:47:df:ea:93:14:e6:19:0d:03:08:71:f0:5f:94:
        00:2f:95:10:89:f9:c1:07:b6:e7:35:66:0f:55:dc:c7:11:85:
        fb:81:5c:92:f4:f3:77:31:e2:c8:5d:1e:b3:c8:58:67:c6:3f:
        38:6f:70:62:50:83:9c:c4:6e:0f:7a:70:82:6e:fd:5d:1d:d0:
        af:53:63:38:16:34:f1:0e:85:00:20:41:01:f5:6b:1f:ef:63:
        ad:5e:80:e1:57:20:84:7a:81:4d:a1:df:da:20:1d:17:bc:2e:
        d2:7d
-----BEGIN CERTIFICATE-----
MIICvDCCAiUCCQCbJ9fo0boJujANBgkqhkiG9w0BAQQFADCBlTELMAkGA1UEBhMC
REUxETAPBgNVBAgTCFNhYXJsYW5kMRAwDgYDVQQKEwdNUEktU1dTMSIwIAYDVQQL
ExlEaXN0cmlidXRlZCBTeXN0ZW1zIEdyb3VwMRowGAYDVQQDExFBbmRyZWFzIEhh
ZWJlcmxlbjEhMB8GCSqGSIb3DQEJARYSZGVtb2NhQG9jdGFyaW5lLmRlMB4XDTE1
MDQyMDIwNDcxOFoXDTE2MDQxOTIwNDcxOFowga4xCzAJBgNVBAYTAkRFMREwDwYD
VQQIEwhTYWFybGFuZDEQMA4GA1UEChMHTVBJLVNXUzEiMCAGA1UECxMZRGlzdHJp
YnV0ZWQgU3lzdGVtcyBHcm91cDExMC8GA1UEAxMoZjI0MmFjZTg5OTUxNmM4MDc2
ODVmOWMwZDQ5Mjc1NDY3OTkyNjhiMDEjMCEGCSqGSIb3DQEJARYUbm9kZTA0ODJA
b2N0YXJpbmUuZGUwgZ8wDQYJKoZIhvcNAQEBBQADgY0AMIGJAoGBAMSwN2UwFjGo
LIzJmLfw/WO3Uk+GoaXLBeIBHqX7vpOeS9q828PdKch8knNRGg+gzTwtePMP8EhR
IFzE7ROwa2ZR2RuQJXUuNUOT69Uf+emrt/qN6kREZk7RAXFTSHEZ0OKAZ13zs+U3
7XQELskrTE1W7DfJ6ZLQweSVYO2n6ih7AgMBAAEwDQYJKoZIhvcNAQEEBQADgYEA
XnwJ3J3WyJ3/I/ihwLNnMQYgMnraA0ff6pMU5hkNAwhx8F+UAC+VEIn5wQe25zVm
D1XcxxGF+4FckvTzdzHiyF0es8hYZ8Y/OG9wYlCDnMRuD3pwgm79XR3Qr1NjOBY0
8Q6FACBBAfVrH+9jrV6A4VcghHqBTaHf2iAdF7wu0n0=
-----END CERTIFICATE-----
