Certificate:
    Data:
        Version: 1 (0x0)
        Serial Number:
            9b:27:d7:e8:d1:ba:07:fa
        Signature Algorithm: md5WithRSAEncryption
        Issuer: C=DE, ST=Saarland, O=MPI-SWS, OU=Distributed Systems Group, CN=Andreas Haeberlen/emailAddress=democa@octarine.de
        Validity
            Not Before: Apr 20 20:46:58 2015 GMT
            Not After : Apr 19 20:46:58 2016 GMT
        Subject: C=DE, ST=Saarland, O=MPI-SWS, OU=Distributed Systems Group, CN=97c3c5b99c04cf83548bdb7c5ac533ddb907fb18/emailAddress=node0034@octarine.de
        Subject Public Key Info:
            Public Key Algorithm: rsaEncryption
            RSA Public Key: (1024 bit)
                Modulus (1024 bit):
                    00:b3:c0:24:cf:6e:d3:45:7e:c0:90:14:7a:77:a5:
                    f8:4c:9d:2d:6d:58:63:ee:60:c1:2f:26:06:af:3f:
                    31:51:bd:22:69:92:32:78:5d:fe:ff:b1:8a:ae:f4:
                    fd:db:80:5c:5a:d8:f9:d9:d3:d9:40:e1:64:84:d2:
                    19:8a:b1:a8:9d:33:63:49:f1:94:09:c5:f1:a9:93:
                    3e:7e:a1:07:9e:e3:1c:30:f9:36:ee:df:90:ae:39:
                    8b:ce:17:d4:d9:ce:e4:12:f6:9d:e7:cc:fd:2b:8e:
                    0c:99:3d:58:fa:44:5e:8d:23:63:eb:3b:94:1b:82:
                    5a:1a:a9:eb:50:8b:98:15:e7
                Exponent: 65537 (0x10001)
    Signature Algorithm: md5WithRSAEncryption
        37:3b:4f:20:5f:54:bd:15:e9:e2:38:5b:68:20:97:a2:9e:f6:
        3f:cb:d6:c0:52:2b:56:f3:69:93:66:f3:67:6d:7f:24:38:97:
        1f:a9:d9:ff:48:3c:79:eb:78:7a:97:8e:e4:46:20:66:a8:7b:
        1d:d3:e6:98:92:78:2f:c4:f6:ba:fb:47:d2:71:4b:c7:99:04:
        12:76:1c:8b:37:c1:59:96:9b:fa:1d:d5:6c:75:3f:3e:e2:32:
        75:1d:02:4c:87:0c:61:26:f2:38:ba:26:c6:2b:eb:f6:f3:dd:
        1e:d9:e2:8a:d5:22:93:78:5c:d3:87:08:8e:db:50:6e:b1:e9:
        86:b1
-----BEGIN CERTIFICATE-----
MIICvDCCAiUCCQCbJ9fo0boH+jANBgkqhkiG9w0BAQQFADCBlTELMAkGA1UEBhMC
REUxETAPBgNVBAgTCFNhYXJsYW5kMRAwDgYDVQQKEwdNUEktU1dTMSIwIAYDVQQL
ExlEaXN0cmlidXRlZCBTeXN0ZW1zIEdyb3VwMRowGAYDVQQDExFBbmRyZWFzIEhh
ZWJlcmxlbjEhMB8GCSqGSIb3DQEJARYSZGVtb2NhQG9jdGFyaW5lLmRlMB4XDTE1
MDQyMDIwNDY1OFoXDTE2MDQxOTIwNDY1OFowga4xCzAJBgNVBAYTAkRFMREwDwYD
VQQIEwhTYWFybGFuZDEQMA4GA1UEChMHTVBJLVNXUzEiMCAGA1UECxMZRGlzdHJp
YnV0ZWQgU3lzdGVtcyBHcm91cDExMC8GA1UEAxMoOTdjM2M1Yjk5YzA0Y2Y4MzU0
OGJkYjdjNWFjNTMzZGRiOTA3ZmIxODEjMCEGCSqGSIb3DQEJARYUbm9kZTAwMzRA
b2N0YXJpbmUuZGUwgZ8wDQYJKoZIhvcNAQEBBQADgY0AMIGJAoGBALPAJM9u00V+
wJAUenel+EydLW1YY+5gwS8mBq8/MVG9ImmSMnhd/v+xiq70/duAXFrY+dnT2UDh
ZITSGYqxqJ0zY0nxlAnF8amTPn6hB57jHDD5Nu7fkK45i84X1NnO5BL2nefM/SuO
DJk9WPpEXo0jY+s7lBuCWhqp61CLmBXnAgMBAAEwDQYJKoZIhvcNAQEEBQADgYEA
NztPIF9UvRXp4jhbaCCXop72P8vWwFIrVvNpk2bzZ21/JDiXH6nZ/0g8eet4epeO
5EYgZqh7HdPmmJJ4L8T2uvtH0nFLx5kEEnYcizfBWZab+h3VbHU/PuIydR0CTIcM
YSbyOLomxivr9vPdHtniitUik3hc04cIjttQbrHphrE=
-----END CERTIFICATE-----
