Certificate:
    Data:
        Version: 1 (0x0)
        Serial Number:
            9b:27:d7:e8:d1:ba:0a:be
        Signature Algorithm: md5WithRSAEncryption
        Issuer: C=DE, ST=Saarland, O=MPI-SWS, OU=Distributed Systems Group, CN=Andreas Haeberlen/emailAddress=democa@octarine.de
        Validity
            Not Before: Apr 20 20:47:30 2015 GMT
            Not After : Apr 19 20:47:30 2016 GMT
        Subject: C=DE, ST=Saarland, O=MPI-SWS, OU=Distributed Systems Group, CN=b3b6f950fe1d11d7f631bdfab72013dd78361960/emailAddress=node0742@octarine.de
        Subject Public Key Info:
            Public Key Algorithm: rsaEncryption
            RSA Public Key: (1024 bit)
                Modulus (1024 bit):
                    00:dd:cb:ab:4b:c1:b6:92:c6:39:c6:80:33:7e:ac:
                    68:63:2f:6a:48:7e:f4:fb:14:f3:d4:a8:de:cd:ae:
                    d2:1f:73:ac:a8:d9:f3:c1:da:81:b3:28:90:80:66:
                    f3:27:bb:f2:7a:98:35:35:ae:59:23:32:9f:2d:79:
                    43:50:11:3f:d9:be:ab:64:e5:2a:c7:f6:9f:12:78:
                    3c:7f:ab:19:02:61:24:bd:9a:71:de:ad:7d:51:44:
                    ac:49:4d:36:10:d1:ea:3a:28:6c:67:e7:b6:bc:7c:
                    99:f5:3b:b9:95:3f:86:cb:ad:38:09:2f:19:9e:78:
                    83:8a:04:62:44:58:3a:aa:97
                Exponent: 65537 (0x10001)
    Signature Algorithm: md5WithRSAEncryption
        6b:c9:e1:f7:81:be:15:b5:dd:b7:89:b1:a4:12:b7:88:ee:67:
        45:7b:4e:1a:ad:f6:21:e6:1b:fd:df:55:66:48:d0:ec:0b:58:
        25:80:f7:0a:82:f0:1c:39:29:a5:01:05:cd:f1:10:2d:4a:ad:
        de:20:38:c1:0e:08:d2:44:4f:98:54:c2:e5:68:49:3a:37:74:
        c2:5b:cb:6c:da:75:ab:d5:c6:9a:d5:dd:c1:1a:14:19:69:ef:
        fe:d0:f4:5b:b1:7a:f6:d2:b4:99:a5:44:e3:cf:e7:e1:a7:f8:
        d0:a2:b0:a9:fe:fa:9a:5c:10:84:cd:5f:14:31:78:85:f6:e3:
        37:8b
-----BEGIN CERTIFICATE-----
MIICvDCCAiUCCQCbJ9fo0boKvjANBgkqhkiG9w0BAQQFADCBlTELMAkGA1UEBhMC
REUxETAPBgNVBAgTCFNhYXJsYW5kMRAwDgYDVQQKEwdNUEktU1dTMSIwIAYDVQQL
ExlEaXN0cmlidXRlZCBTeXN0ZW1zIEdyb3VwMRowGAYDVQQDExFBbmRyZWFzIEhh
ZWJlcmxlbjEhMB8GCSqGSIb3DQEJARYSZGVtb2NhQG9jdGFyaW5lLmRlMB4XDTE1
MDQyMDIwNDczMFoXDTE2MDQxOTIwNDczMFowga4xCzAJBgNVBAYTAkRFMREwDwYD
VQQIEwhTYWFybGFuZDEQMA4GA1UEChMHTVBJLVNXUzEiMCAGA1UECxMZRGlzdHJp
YnV0ZWQgU3lzdGVtcyBHcm91cDExMC8GA1UEAxMoYjNiNmY5NTBmZTFkMTFkN2Y2
MzFiZGZhYjcyMDEzZGQ3ODM2MTk2MDEjMCEGCSqGSIb3DQEJARYUbm9kZTA3NDJA
b2N0YXJpbmUuZGUwgZ8wDQYJKoZIhvcNAQEBBQADgY0AMIGJAoGBAN3Lq0vBtpLG
OcaAM36saGMvakh+9PsU89So3s2u0h9zrKjZ88HagbMokIBm8ye78nqYNTWuWSMy
ny15Q1ARP9m+q2TlKsf2nxJ4PH+rGQJhJL2acd6tfVFErElNNhDR6joobGfntrx8
mfU7uZU/hsutOAkvGZ54g4oEYkRYOqqXAgMBAAEwDQYJKoZIhvcNAQEEBQADgYEA
a8nh94G+FbXdt4mxpBK3iO5nRXtOGq32IeYb/d9VZkjQ7AtYJYD3CoLwHDkppQEF
zfEQLUqt3iA4wQ4I0kRPmFTC5WhJOjd0wlvLbNp1q9XGmtXdwRoUGWnv/tD0W7F6
9tK0maVE48/n4af40KKwqf76mlwQhM1fFDF4hfbjN4s=
-----END CERTIFICATE-----
