Certificate:
    Data:
        Version: 1 (0x0)
        Serial Number:
            9b:27:d7:e8:d1:ba:08:0b
        Signature Algorithm: md5WithRSAEncryption
        Issuer: C=DE, ST=Saarland, O=MPI-SWS, OU=Distributed Systems Group, CN=Andreas Haeberlen/emailAddress=democa@octarine.de
        Validity
            Not Before: Apr 20 20:46:59 2015 GMT
            Not After : Apr 19 20:46:59 2016 GMT
        Subject: C=DE, ST=Saarland, O=MPI-SWS, OU=Distributed Systems Group, CN=611cff1f7ab636c43d5c2bc6c074df53170061fe/emailAddress=node0051@octarine.de
        Subject Public Key Info:
            Public Key Algorithm: rsaEncryption
            RSA Public Key: (1024 bit)
                Modulus (1024 bit):
                    00:ca:be:b4:1b:5d:54:55:71:0c:a5:10:3c:ab:71:
                    0c:fa:46:99:9e:24:22:ad:7a:55:46:c6:66:76:02:
                    34:1a:a2:5a:ac:a8:93:93:7e:40:c6:a1:42:b0:84:
                    e9:a9:81:82:39:c4:90:d2:0a:cb:83:4a:88:50:7d:
                    87:55:42:bc:d3:d8:57:f4:4c:c6:b4:f2:b7:f2:7e:
                    6a:50:f1:30:c8:ee:ec:ab:27:f9:af:b8:ed:d4:bf:
                    7e:80:90:97:24:0a:9e:eb:1e:96:40:1c:69:66:0d:
                    c8:b1:5c:5c:15:51:67:ad:67:6e:99:3e:0a:5d:32:
                    e9:80:4c:db:a3:42:6a:09:f5
                Exponent: 65537 (0x10001)
    Signature Algorithm: md5WithRSAEncryption
        12:17:8e:2b:ec:4f:02:bf:40:03:22:bd:fa:b2:2c:ba:6f:49:
        fc:81:d3:99:ec:d0:04:9e:d3:10:ee:28:79:fc:80:92:e6:89:
        6e:e5:50:e5:d2:17:83:a3:c3:9e:82:c9:14:a6:3c:74:ef:88:
        ea:a4:b4:4b:fb:ae:e6:c7:47:11:11:4e:fa:0f:31:c1:b7:07:
        0a:6a:a1:9f:24:2f:02:07:71:39:72:86:65:ec:a3:cb:1a:74:
        d8:85:33:a7:4d:a3:a7:c9:64:8d:68:3c:97:be:e0:8c:aa:64:
        23:19:64:83:2e:21:76:66:28:02:f7:84:ae:d1:22:c2:07:a7:
        77:39
-----BEGIN CERTIFICATE-----
MIICvDCCAiUCCQCbJ9fo0boICzANBgkqhkiG9w0BAQQFADCBlTELMAkGA1UEBhMC
REUxETAPBgNVBAgTCFNhYXJsYW5kMRAwDgYDVQQKEwdNUEktU1dTMSIwIAYDVQQL
ExlEaXN0cmlidXRlZCBTeXN0ZW1zIEdyb3VwMRowGAYDVQQDExFBbmRyZWFzIEhh
ZWJlcmxlbjEhMB8GCSqGSIb3DQEJARYSZGVtb2NhQG9jdGFyaW5lLmRlMB4XDTE1
MDQyMDIwNDY1OVoXDTE2MDQxOTIwNDY1OVowga4xCzAJBgNVBAYTAkRFMREwDwYD
VQQIEwhTYWFybGFuZDEQMA4GA1UEChMHTVBJLVNXUzEiMCAGA1UECxMZRGlzdHJp
YnV0ZWQgU3lzdGVtcyBHcm91cDExMC8GA1UEAxMoNjExY2ZmMWY3YWI2MzZjNDNk
NWMyYmM2YzA3NGRmNTMxNzAwNjFmZTEjMCEGCSqGSIb3DQEJARYUbm9kZTAwNTFA
b2N0YXJpbmUuZGUwgZ8wDQYJKoZIhvcNAQEBBQADgY0AMIGJAoGBAMq+tBtdVFVx
DKUQPKtxDPpGmZ4kIq16VUbGZnYCNBqiWqyok5N+QMahQrCE6amBgjnEkNIKy4NK
iFB9h1VCvNPYV/RMxrTyt/J+alDxMMju7Ksn+a+47dS/foCQlyQKnuselkAcaWYN
yLFcXBVRZ61nbpk+Cl0y6YBM26NCagn1AgMBAAEwDQYJKoZIhvcNAQEEBQADgYEA
EheOK+xPAr9AAyK9+rIsum9J/IHTmezQBJ7TEO4oefyAkuaJbuVQ5dIXg6PDnoLJ
FKY8dO+I6qS0S/uu5sdHERFO+g8xwbcHCmqhnyQvAgdxOXKGZeyjyxp02IUzp02j
p8lkjWg8l77gjKpkIxlkgy4hdmYoAveErtEiwgendzk=
-----END CERTIFICATE-----
