Certificate:
    Data:
        Version: 1 (0x0)
        Serial Number:
            9b:27:d7:e8:d1:ba:08:1d
        Signature Algorithm: md5WithRSAEncryption
        Issuer: C=DE, ST=Saarland, O=MPI-SWS, OU=Distributed Systems Group, CN=Andreas Haeberlen/emailAddress=democa@octarine.de
        Validity
            Not Before: Apr 20 20:47:00 2015 GMT
            Not After : Apr 19 20:47:00 2016 GMT
        Subject: C=DE, ST=Saarland, O=MPI-SWS, OU=Distributed Systems Group, CN=439ea57e0ba0696ea730ddb6fab677dbb796d14e/emailAddress=node0069@octarine.de
        Subject Public Key Info:
            Public Key Algorithm: rsaEncryption
            RSA Public Key: (1024 bit)
                Modulus (1024 bit):
                    00:ba:d0:1d:c9:83:ca:ba:b6:cd:1c:07:c3:9f:97:
                    8b:55:33:d3:fa:63:79:00:94:13:63:57:c6:dd:35:
                    13:c4:61:84:7e:12:21:2e:bc:b6:2f:0f:34:79:2f:
                    9e:c0:6d:5b:21:69:89:a9:ff:7a:4a:98:8b:67:03:
                    85:3f:84:9b:23:a0:f6:33:24:24:1b:00:74:20:d3:
                    88:9c:97:4b:0d:3a:e1:9c:e6:cc:48:45:91:8d:60:
                    99:04:1f:2e:80:43:3d:ce:88:0a:0f:c9:a9:de:b6:
                    01:f6:9f:21:23:7f:cf:51:d7:3c:ac:66:01:b6:c9:
                    ed:81:a1:1c:72:c2:36:81:cd
                Exponent: 65537 (0x10001)
    Signature Algorithm: md5WithRSAEncryption
        70:75:52:6b:78:de:92:db:47:ef:18:1b:f4:25:d0:89:ca:ff:
        3d:6f:70:0d:c9:ce:34:22:55:ef:9a:c7:f7:1d:fb:66:1b:f6:
        2b:bd:df:4e:9f:05:6f:d5:b4:93:67:11:a1:7a:10:83:ad:f4:
        7d:7e:70:aa:1e:22:e6:40:ce:b6:70:60:5b:6b:ab:6a:13:e2:
        2e:64:bb:0a:75:89:c0:73:44:16:21:a8:7c:b5:cf:08:60:9c:
        70:e6:3e:56:4f:dc:3b:27:0c:7d:15:ca:b7:85:58:94:81:ad:
        7a:1a:3f:12:ca:85:47:80:fa:7c:32:de:52:b2:4b:b6:cd:f0:
        34:10
-----BEGIN CERTIFICATE-----
MIICvDCCAiUCCQCbJ9fo0boIHTANBgkqhkiG9w0BAQQFADCBlTELMAkGA1UEBhMC
REUxETAPBgNVBAgTCFNhYXJsYW5kMRAwDgYDVQQKEwdNUEktU1dTMSIwIAYDVQQL
ExlEaXN0cmlidXRlZCBTeXN0ZW1zIEdyb3VwMRowGAYDVQQDExFBbmRyZWFzIEhh
ZWJlcmxlbjEhMB8GCSqGSIb3DQEJARYSZGVtb2NhQG9jdGFyaW5lLmRlMB4XDTE1
MDQyMDIwNDcwMFoXDTE2MDQxOTIwNDcwMFowga4xCzAJBgNVBAYTAkRFMREwDwYD
VQQIEwhTYWFybGFuZDEQMA4GA1UEChMHTVBJLVNXUzEiMCAGA1UECxMZRGlzdHJp
YnV0ZWQgU3lzdGVtcyBHcm91cDExMC8GA1UEAxMoNDM5ZWE1N2UwYmEwNjk2ZWE3
MzBkZGI2ZmFiNjc3ZGJiNzk2ZDE0ZTEjMCEGCSqGSIb3DQEJARYUbm9kZTAwNjlA
b2N0YXJpbmUuZGUwgZ8wDQYJKoZIhvcNAQEBBQADgY0AMIGJAoGBALrQHcmDyrq2
zRwHw5+Xi1Uz0/pjeQCUE2NXxt01E8RhhH4SIS68ti8PNHkvnsBtWyFpian/ekqY
i2cDhT+EmyOg9jMkJBsAdCDTiJyXSw064ZzmzEhFkY1gmQQfLoBDPc6ICg/Jqd62
AfafISN/z1HXPKxmAbbJ7YGhHHLCNoHNAgMBAAEwDQYJKoZIhvcNAQEEBQADgYEA
cHVSa3jekttH7xgb9CXQicr/PW9wDcnONCJV75rH9x37Zhv2K73fTp8Fb9W0k2cR
oXoQg630fX5wqh4i5kDOtnBgW2urahPiLmS7CnWJwHNEFiGofLXPCGCccOY+Vk/c
OycMfRXKt4VYlIGteho/EsqFR4D6fDLeUrJLts3wNBA=
-----END CERTIFICATE-----
