Certificate:
    Data:
        Version: 1 (0x0)
        Serial Number:
            9b:27:d7:e8:d1:ba:09:8d
        Signature Algorithm: md5WithRSAEncryption
        Issuer: C=DE, ST=Saarland, O=MPI-SWS, OU=Distributed Systems Group, CN=Andreas Haeberlen/emailAddress=democa@octarine.de
        Validity
            Not Before: Apr 20 20:47:16 2015 GMT
            Not After : Apr 19 20:47:16 2016 GMT
        Subject: C=DE, ST=Saarland, O=MPI-SWS, OU=Distributed Systems Group, CN=7956db9ff1e951ca0f350111ca01338bdd2a9ba9/emailAddress=node0437@octarine.de
        Subject Public Key Info:
            Public Key Algorithm: rsaEncryption
            RSA Public Key: (1024 bit)
                Modulus (1024 bit):
                    00:b2:ad:8d:88:7a:c0:af:8f:fa:f5:cc:b4:a5:a8:
                    07:6f:1e:7a:38:9a:b4:ad:89:e8:4b:58:26:0b:96:
                    d0:2b:50:79:74:02:b3:86:22:35:55:1e:12:71:9e:
                    ef:df:71:24:97:6d:95:96:ec:b4:46:08:e5:a1:31:
                    5e:28:b0:77:2b:8c:10:92:ca:69:b0:65:43:cd:00:
                    c0:2b:99:66:cb:50:70:c8:14:90:97:07:b8:b1:9f:
                    f2:83:3b:e7:dc:e4:11:20:58:2a:ae:3b:6f:42:39:
                    d8:51:98:22:c0:f4:bf:1d:44:ef:48:db:24:87:63:
                    15:6a:bb:39:27:71:b6:e1:d1
                Exponent: 65537 (0x10001)
    Signature Algorithm: md5WithRSAEncryption
        a5:0f:06:f4:06:e1:df:2e:e9:ec:58:a7:42:84:77:c2:64:50:
        ae:c7:0c:b3:4e:b5:b8:84:72:49:79:6a:a9:60:59:e8:1e:10:
        27:99:38:46:04:3d:90:73:72:08:28:0e:fd:a2:d3:f1:15:b0:
        3c:71:ee:f6:4f:68:7c:46:7f:c9:20:98:95:c4:d9:6a:82:76:
        7b:34:52:99:58:fe:da:7b:c5:be:8e:ec:d0:75:6c:ca:3c:d4:
        7e:2a:a8:d2:45:40:4a:57:5e:ae:b5:34:f3:fb:28:6c:f7:bf:
        a6:0f:19:65:dc:b6:80:54:46:ec:1a:c9:2c:0b:c6:3a:56:bc:
        35:b3
-----BEGIN CERTIFICATE-----
MIICvDCCAiUCCQCbJ9fo0boJjTANBgkqhkiG9w0BAQQFADCBlTELMAkGA1UEBhMC
REUxETAPBgNVBAgTCFNhYXJsYW5kMRAwDgYDVQQKEwdNUEktU1dTMSIwIAYDVQQL
ExlEaXN0cmlidXRlZCBTeXN0ZW1zIEdyb3VwMRowGAYDVQQDExFBbmRyZWFzIEhh
ZWJlcmxlbjEhMB8GCSqGSIb3DQEJARYSZGVtb2NhQG9jdGFyaW5lLmRlMB4XDTE1
MDQyMDIwNDcxNloXDTE2MDQxOTIwNDcxNlowga4xCzAJBgNVBAYTAkRFMREwDwYD
VQQIEwhTYWFybGFuZDEQMA4GA1UEChMHTVBJLVNXUzEiMCAGA1UECxMZRGlzdHJp
YnV0ZWQgU3lzdGVtcyBHcm91cDExMC8GA1UEAxMoNzk1NmRiOWZmMWU5NTFjYTBm
MzUwMTExY2EwMTMzOGJkZDJhOWJhOTEjMCEGCSqGSIb3DQEJARYUbm9kZTA0MzdA
b2N0YXJpbmUuZGUwgZ8wDQYJKoZIhvcNAQEBBQADgY0AMIGJAoGBALKtjYh6wK+P
+vXMtKWoB28eejiatK2J6EtYJguW0CtQeXQCs4YiNVUeEnGe799xJJdtlZbstEYI
5aExXiiwdyuMEJLKabBlQ80AwCuZZstQcMgUkJcHuLGf8oM759zkESBYKq47b0I5
2FGYIsD0vx1E70jbJIdjFWq7OSdxtuHRAgMBAAEwDQYJKoZIhvcNAQEEBQADgYEA
pQ8G9Abh3y7p7FinQoR3wmRQrscMs061uIRySXlqqWBZ6B4QJ5k4RgQ9kHNyCCgO
/aLT8RWwPHHu9k9ofEZ/ySCYlcTZaoJ2ezRSmVj+2nvFvo7s0HVsyjzUfiqo0kVA
SlderrU08/sobPe/pg8ZZdy2gFRG7BrJLAvGOla8NbM=
-----END CERTIFICATE-----
