Certificate:
    Data:
        Version: 1 (0x0)
        Serial Number:
            9b:27:d7:e8:d1:ba:0b:56
        Signature Algorithm: md5WithRSAEncryption
        Issuer: C=DE, ST=Saarland, O=MPI-SWS, OU=Distributed Systems Group, CN=Andreas Haeberlen/emailAddress=democa@octarine.de
        Validity
            Not Before: Apr 20 20:47:36 2015 GMT
            Not After : Apr 19 20:47:36 2016 GMT
        Subject: C=DE, ST=Saarland, O=MPI-SWS, OU=Distributed Systems Group, CN=8f46e1f9e5ec743eebcdcacfcb69da86acc8dc2c/emailAddress=node0894@octarine.de
        Subject Public Key Info:
            Public Key Algorithm: rsaEncryption
            RSA Public Key: (1024 bit)
                Modulus (1024 bit):
                    00:c6:a8:5c:67:fa:94:81:38:f5:6a:99:3f:43:0f:
                    a6:fc:b6:8b:cd:d6:1f:1b:3a:e5:ad:96:3f:35:16:
                    77:ae:cd:37:ec:2a:7f:d0:31:bc:f3:74:67:df:cb:
                    b7:3c:9d:36:eb:a1:82:df:51:19:22:93:9f:65:f3:
                    8b:ba:81:57:cb:cf:11:e5:f8:94:9f:74:02:12:e7:
                    bb:cb:6b:85:6a:e0:2f:5b:de:e0:02:27:ba:be:34:
                    21:f4:b4:8a:7c:75:aa:32:c1:61:24:33:fd:f6:ab:
                    ca:13:f1:0d:bb:05:ea:ca:95:e3:3f:0f:2e:bb:ee:
                    cf:96:13:bf:be:5e:aa:bf:17
                Exponent: 65537 (0x10001)
    Signature Algorithm: md5WithRSAEncryption
        9f:f4:1b:b2:a4:d3:d5:07:da:dc:e9:b8:a1:59:46:a1:8b:e1:
        f6:e3:23:3b:ab:16:2f:1c:b4:84:21:d8:f7:30:cd:00:c4:82:
        3f:65:b2:84:0f:e2:cb:10:1c:a7:43:ff:a1:db:f0:f3:74:e0:
        7f:5c:2c:61:18:bb:f0:1c:ec:cb:da:79:e8:8c:ae:93:d8:57:
        3c:fd:2c:19:c8:ce:1d:a0:6f:ff:d0:54:4e:0a:0d:ec:d9:bf:
        90:b3:64:fc:95:b9:85:10:7e:ea:65:f4:75:b8:a6:0d:f5:a8:
        e3:2f:49:29:fd:e8:b5:6b:3b:09:5b:a3:21:67:49:99:00:8e:
        47:41
-----BEGIN CERTIFICATE-----
MIICvDCCAiUCCQCbJ9fo0boLVjANBgkqhkiG9w0BAQQFADCBlTELMAkGA1UEBhMC
REUxETAPBgNVBAgTCFNhYXJsYW5kMRAwDgYDVQQKEwdNUEktU1dTMSIwIAYDVQQL
ExlEaXN0cmlidXRlZCBTeXN0ZW1zIEdyb3VwMRowGAYDVQQDExFBbmRyZWFzIEhh
ZWJlcmxlbjEhMB8GCSqGSIb3DQEJARYSZGVtb2NhQG9jdGFyaW5lLmRlMB4XDTE1
MDQyMDIwNDczNloXDTE2MDQxOTIwNDczNlowga4xCzAJBgNVBAYTAkRFMREwDwYD
VQQIEwhTYWFybGFuZDEQMA4GA1UEChMHTVBJLVNXUzEiMCAGA1UECxMZRGlzdHJp
YnV0ZWQgU3lzdGVtcyBHcm91cDExMC8GA1UEAxMoOGY0NmUxZjllNWVjNzQzZWVi
Y2RjYWNmY2I2OWRhODZhY2M4ZGMyYzEjMCEGCSqGSIb3DQEJARYUbm9kZTA4OTRA
b2N0YXJpbmUuZGUwgZ8wDQYJKoZIhvcNAQEBBQADgY0AMIGJAoGBAMaoXGf6lIE4
9WqZP0MPpvy2i83WHxs65a2WPzUWd67NN+wqf9AxvPN0Z9/LtzydNuuhgt9RGSKT
n2Xzi7qBV8vPEeX4lJ90AhLnu8trhWrgL1ve4AInur40IfS0inx1qjLBYSQz/far
yhPxDbsF6sqV4z8PLrvuz5YTv75eqr8XAgMBAAEwDQYJKoZIhvcNAQEEBQADgYEA
n/QbsqTT1Qfa3Om4oVlGoYvh9uMjO6sWLxy0hCHY9zDNAMSCP2WyhA/iyxAcp0P/
odvw83Tgf1wsYRi78Bzsy9p56Iyuk9hXPP0sGcjOHaBv/9BUTgoN7Nm/kLNk/JW5
hRB+6mX0dbimDfWo4y9JKf3otWs7CVujIWdJmQCOR0E=
-----END CERTIFICATE-----
