Certificate:
    Data:
        Version: 1 (0x0)
        Serial Number:
            9b:27:d7:e8:d1:ba:08:f2
        Signature Algorithm: md5WithRSAEncryption
        Issuer: C=DE, ST=Saarland, O=MPI-SWS, OU=Distributed Systems Group, CN=Andreas Haeberlen/emailAddress=democa@octarine.de
        Validity
            Not Before: Apr 20 20:47:09 2015 GMT
            Not After : Apr 19 20:47:09 2016 GMT
        Subject: C=DE, ST=Saarland, O=MPI-SWS, OU=Distributed Systems Group, CN=2059bad7818d3a236b9074d8f86846f664f1fd87/emailAddress=node0282@octarine.de
        Subject Public Key Info:
            Public Key Algorithm: rsaEncryption
            RSA Public Key: (1024 bit)
                Modulus (1024 bit):
                    00:a6:55:fe:52:76:0a:b0:1c:83:e9:7f:06:87:0a:
                    28:1b:b5:de:9e:13:1e:3c:d4:b8:49:b9:c2:32:9f:
                    4c:f0:da:4f:a6:f5:64:0e:39:53:58:fd:e4:1e:df:
                    95:e9:41:6b:91:22:04:d5:ba:18:32:cf:67:3d:79:
                    e1:df:a3:62:25:a8:f6:70:14:cc:26:b8:91:86:cc:
                    be:19:66:20:c6:bc:41:fe:40:02:f8:f0:f8:ee:d3:
                    88:e7:97:f8:5f:67:b8:88:ba:c2:98:38:51:12:84:
                    6e:9a:29:d1:c7:9f:27:47:d5:cb:1c:28:3d:ae:93:
                    60:87:e5:d3:14:4c:b8:50:b1
                Exponent: 65537 (0x10001)
    Signature Algorithm: md5WithRSAEncryption
        1f:56:3f:da:6a:7c:d8:0b:3a:a8:e9:04:30:d2:4e:7c:46:13:
        6e:37:43:52:12:f3:65:11:fb:bd:e1:a1:b9:f3:3b:53:97:e0:
        6b:ab:12:39:0e:0a:d3:e0:c4:f7:30:1e:9a:64:7e:32:2d:29:
        1d:53:53:cd:bc:f7:60:83:2e:41:75:cd:38:d0:35:0c:91:76:
        e6:2b:49:e8:6e:e5:6d:9c:f0:7b:57:a9:ee:69:71:aa:c1:e2:
        f0:5b:83:36:0e:21:20:93:48:2e:b7:e0:43:3a:9e:30:9f:a2:
        74:41:70:96:4e:67:8d:4d:bc:e2:f1:ee:07:00:c1:38:78:44:
        bd:34
-----BEGIN CERTIFICATE-----
MIICvDCCAiUCCQCbJ9fo0boI8jANBgkqhkiG9w0BAQQFADCBlTELMAkGA1UEBhMC
REUxETAPBgNVBAgTCFNhYXJsYW5kMRAwDgYDVQQKEwdNUEktU1dTMSIwIAYDVQQL
ExlEaXN0cmlidXRlZCBTeXN0ZW1zIEdyb3VwMRowGAYDVQQDExFBbmRyZWFzIEhh
ZWJlcmxlbjEhMB8GCSqGSIb3DQEJARYSZGVtb2NhQG9jdGFyaW5lLmRlMB4XDTE1
MDQyMDIwNDcwOVoXDTE2MDQxOTIwNDcwOVowga4xCzAJBgNVBAYTAkRFMREwDwYD
VQQIEwhTYWFybGFuZDEQMA4GA1UEChMHTVBJLVNXUzEiMCAGA1UECxMZRGlzdHJp
YnV0ZWQgU3lzdGVtcyBHcm91cDExMC8GA1UEAxMoMjA1OWJhZDc4MThkM2EyMzZi
OTA3NGQ4Zjg2ODQ2ZjY2NGYxZmQ4NzEjMCEGCSqGSIb3DQEJARYUbm9kZTAyODJA
b2N0YXJpbmUuZGUwgZ8wDQYJKoZIhvcNAQEBBQADgY0AMIGJAoGBAKZV/lJ2CrAc
g+l/BocKKBu13p4THjzUuEm5wjKfTPDaT6b1ZA45U1j95B7flelBa5EiBNW6GDLP
Zz154d+jYiWo9nAUzCa4kYbMvhlmIMa8Qf5AAvjw+O7TiOeX+F9nuIi6wpg4URKE
bpop0cefJ0fVyxwoPa6TYIfl0xRMuFCxAgMBAAEwDQYJKoZIhvcNAQEEBQADgYEA
H1Y/2mp82As6qOkEMNJOfEYTbjdDUhLzZRH7veGhufM7U5fga6sSOQ4K0+DE9zAe
mmR+Mi0pHVNTzbz3YIMuQXXNONA1DJF25itJ6G7lbZzwe1ep7mlxqsHi8FuDNg4h
IJNILrfgQzqeMJ+idEFwlk5njU284vHuBwDBOHhEvTQ=
-----END CERTIFICATE-----
