Certificate:
    Data:
        Version: 1 (0x0)
        Serial Number:
            9b:27:d7:e8:d1:ba:09:c2
        Signature Algorithm: md5WithRSAEncryption
        Issuer: C=DE, ST=Saarland, O=MPI-SWS, OU=Distributed Systems Group, CN=Andreas Haeberlen/emailAddress=democa@octarine.de
        Validity
            Not Before: Apr 20 20:47:18 2015 GMT
            Not After : Apr 19 20:47:18 2016 GMT
        Subject: C=DE, ST=Saarland, O=MPI-SWS, OU=Distributed Systems Group, CN=9c07c4fa61e6b82318fa0f45551f9f13b2b86a3c/emailAddress=node0490@octarine.de
        Subject Public Key Info:
            Public Key Algorithm: rsaEncryption
            RSA Public Key: (1024 bit)
                Modulus (1024 bit):
                    00:cb:21:60:6f:35:c7:7f:b4:f8:b0:38:85:71:2e:
                    de:76:e6:e5:c2:6b:01:c8:bb:72:de:30:8f:31:18:
                    7f:cf:a5:6c:59:8a:e5:d7:cf:91:7d:6e:c5:2f:e9:
                    27:d6:0a:b7:9c:ed:34:93:3f:21:6a:f9:a6:e1:e2:
                    24:ec:b0:ef:eb:85:a9:2d:05:9d:cc:ad:18:bc:a9:
                    ab:74:be:3e:52:8d:b1:b0:4e:a8:92:9a:17:8a:5c:
                    35:55:c4:53:41:7d:84:0f:fd:6c:14:2f:e4:3e:3a:
                    52:15:1b:56:87:fc:4a:8a:41:8a:b0:c4:8e:6e:95:
                    bb:50:40:4f:3b:2f:df:27:43
                Exponent: 65537 (0x10001)
    Signature Algorithm: md5WithRSAEncryption
        be:0e:09:45:c7:6b:07:5f:ff:54:9c:c5:6f:35:be:e7:3a:ec:
        f3:e6:b7:84:f3:93:cd:4f:54:56:40:6d:7f:56:d2:b0:e7:32:
        ed:19:a1:73:19:db:c9:92:ae:86:56:9d:96:7d:3e:e2:a5:2d:
        e3:a2:f6:c6:6a:38:ad:99:aa:40:fc:24:2e:a6:40:73:48:91:
        16:27:0d:56:9f:75:60:5d:03:5c:e3:e9:72:8a:22:d4:76:04:
        95:4a:d0:fc:1f:38:94:42:63:c1:17:58:cb:97:c0:85:a8:88:
        87:c2:28:87:54:60:f6:b7:35:c2:4f:b9:87:b9:23:3b:dc:e2:
        86:35
-----BEGIN CERTIFICATE-----
MIICvDCCAiUCCQCbJ9fo0boJwjANBgkqhkiG9w0BAQQFADCBlTELMAkGA1UEBhMC
REUxETAPBgNVBAgTCFNhYXJsYW5kMRAwDgYDVQQKEwdNUEktU1dTMSIwIAYDVQQL
ExlEaXN0cmlidXRlZCBTeXN0ZW1zIEdyb3VwMRowGAYDVQQDExFBbmRyZWFzIEhh
ZWJlcmxlbjEhMB8GCSqGSIb3DQEJARYSZGVtb2NhQG9jdGFyaW5lLmRlMB4XDTE1
MDQyMDIwNDcxOFoXDTE2MDQxOTIwNDcxOFowga4xCzAJBgNVBAYTAkRFMREwDwYD
VQQIEwhTYWFybGFuZDEQMA4GA1UEChMHTVBJLVNXUzEiMCAGA1UECxMZRGlzdHJp
YnV0ZWQgU3lzdGVtcyBHcm91cDExMC8GA1UEAxMoOWMwN2M0ZmE2MWU2YjgyMzE4
ZmEwZjQ1NTUxZjlmMTNiMmI4NmEzYzEjMCEGCSqGSIb3DQEJARYUbm9kZTA0OTBA
b2N0YXJpbmUuZGUwgZ8wDQYJKoZIhvcNAQEBBQADgY0AMIGJAoGBAMshYG81x3+0
+LA4hXEu3nbm5cJrAci7ct4wjzEYf8+lbFmK5dfPkX1uxS/pJ9YKt5ztNJM/IWr5
puHiJOyw7+uFqS0FncytGLypq3S+PlKNsbBOqJKaF4pcNVXEU0F9hA/9bBQv5D46
UhUbVof8SopBirDEjm6Vu1BATzsv3ydDAgMBAAEwDQYJKoZIhvcNAQEEBQADgYEA
vg4JRcdrB1//VJzFbzW+5zrs8+a3hPOTzU9UVkBtf1bSsOcy7RmhcxnbyZKuhlad
ln0+4qUt46L2xmo4rZmqQPwkLqZAc0iRFicNVp91YF0DXOPpcooi1HYElUrQ/B84
lEJjwRdYy5fAhaiIh8Ioh1Rg9rc1wk+5h7kjO9zihjU=
-----END CERTIFICATE-----
