Certificate:
    Data:
        Version: 1 (0x0)
        Serial Number:
            9b:27:d7:e8:d1:ba:09:9f
        Signature Algorithm: md5WithRSAEncryption
        Issuer: C=DE, ST=Saarland, O=MPI-SWS, OU=Distributed Systems Group, CN=Andreas Haeberlen/emailAddress=democa@octarine.de
        Validity
            Not Before: Apr 20 20:47:16 2015 GMT
            Not After : Apr 19 20:47:16 2016 GMT
        Subject: C=DE, ST=Saarland, O=MPI-SWS, OU=Distributed Systems Group, CN=9f32ee444e04ba494dedc6b919c48ac29f48e9c2/emailAddress=node0455@octarine.de
        Subject Public Key Info:
            Public Key Algorithm: rsaEncryption
            RSA Public Key: (1024 bit)
                Modulus (1024 bit):
                    00:ff:35:f4:d8:57:2a:67:bf:61:6a:4c:3a:32:0a:
                    ce:cc:9f:71:d2:8d:69:6e:7f:d9:6d:7e:92:f5:8d:
                    8e:bb:c0:65:b1:cf:fc:e9:3d:26:19:d4:d6:9e:ef:
                    bd:0a:33:31:aa:e5:6a:bc:34:28:10:57:4e:c3:2d:
                    f2:0f:5c:fa:a2:34:68:20:23:ee:61:27:18:21:5b:
                    01:ac:71:48:5b:86:a6:87:5d:53:0f:b4:83:9c:db:
                    28:a4:36:de:16:24:c2:e7:0c:38:8e:1e:02:97:28:
                    3a:bc:9b:72:60:db:3b:8f:62:2e:c9:33:45:5d:cd:
                    7f:2c:0b:43:64:16:d1:90:e5
                Exponent: 65537 (0x10001)
    Signature Algorithm: md5WithRSAEncryption
        25:0b:ec:c8:95:e4:50:6e:65:92:4d:28:aa:39:6a:29:4e:76:
        0b:39:58:42:5a:70:ed:c7:99:75:fb:78:7a:f1:7b:6e:96:dd:
        1d:06:ef:cd:4f:99:99:88:e8:72:26:f5:8d:a8:57:89:93:61:
        a0:2b:e4:bc:58:66:85:5f:4d:ff:ba:bd:0f:8d:42:dd:3c:31:
        1c:d0:35:81:58:10:ed:cb:cc:cd:98:91:f0:1c:99:16:ed:23:
        be:2a:51:ed:55:59:a1:c6:39:61:01:ed:96:75:16:e0:c4:de:
        9e:e3:2c:0a:b8:3e:65:6b:1f:f9:ae:54:eb:63:5a:fc:a9:63:
        2c:44
-----BEGIN CERTIFICATE-----
MIICvDCCAiUCCQCbJ9fo0boJnzANBgkqhkiG9w0BAQQFADCBlTELMAkGA1UEBhMC
REUxETAPBgNVBAgTCFNhYXJsYW5kMRAwDgYDVQQKEwdNUEktU1dTMSIwIAYDVQQL
ExlEaXN0cmlidXRlZCBTeXN0ZW1zIEdyb3VwMRowGAYDVQQDExFBbmRyZWFzIEhh
ZWJlcmxlbjEhMB8GCSqGSIb3DQEJARYSZGVtb2NhQG9jdGFyaW5lLmRlMB4XDTE1
MDQyMDIwNDcxNloXDTE2MDQxOTIwNDcxNlowga4xCzAJBgNVBAYTAkRFMREwDwYD
VQQIEwhTYWFybGFuZDEQMA4GA1UEChMHTVBJLVNXUzEiMCAGA1UECxMZRGlzdHJp
YnV0ZWQgU3lzdGVtcyBHcm91cDExMC8GA1UEAxMoOWYzMmVlNDQ0ZTA0YmE0OTRk
ZWRjNmI5MTljNDhhYzI5ZjQ4ZTljMjEjMCEGCSqGSIb3DQEJARYUbm9kZTA0NTVA
b2N0YXJpbmUuZGUwgZ8wDQYJKoZIhvcNAQEBBQADgY0AMIGJAoGBAP819NhXKme/
YWpMOjIKzsyfcdKNaW5/2W1+kvWNjrvAZbHP/Ok9JhnU1p7vvQozMarlarw0KBBX
TsMt8g9c+qI0aCAj7mEnGCFbAaxxSFuGpoddUw+0g5zbKKQ23hYkwucMOI4eApco
OrybcmDbO49iLskzRV3NfywLQ2QW0ZDlAgMBAAEwDQYJKoZIhvcNAQEEBQADgYEA
JQvsyJXkUG5lkk0oqjlqKU52CzlYQlpw7ceZdft4evF7bpbdHQbvzU+ZmYjocib1
jahXiZNhoCvkvFhmhV9N/7q9D41C3TwxHNA1gVgQ7cvMzZiR8ByZFu0jvipR7VVZ
ocY5YQHtlnUW4MTenuMsCrg+ZWsf+a5U62Na/KljLEQ=
-----END CERTIFICATE-----
