Certificate:
    Data:
        Version: 1 (0x0)
        Serial Number:
            9b:27:d7:e8:d1:ba:08:d1
        Signature Algorithm: md5WithRSAEncryption
        Issuer: C=DE, ST=Saarland, O=MPI-SWS, OU=Distributed Systems Group, CN=Andreas Haeberlen/emailAddress=democa@octarine.de
        Validity
            Not Before: Apr 20 20:47:07 2015 GMT
            Not After : Apr 19 20:47:07 2016 GMT
        Subject: C=DE, ST=Saarland, O=MPI-SWS, OU=Distributed Systems Group, CN=6fd992a058c6edf304d98a56dd76475b635f6f0b/emailAddress=node0249@octarine.de
        Subject Public Key Info:
            Public Key Algorithm: rsaEncryption
            RSA Public Key: (1024 bit)
                Modulus (1024 bit):
                    00:99:10:cc:57:49:3e:a7:2b:0f:b8:12:26:98:3b:
                    b1:9e:4f:77:4a:09:30:fa:34:11:85:7c:9a:2d:96:
                    74:1e:81:da:87:63:27:1b:c3:12:74:b5:88:6a:4f:
                    5a:19:0c:63:73:de:3e:02:89:a0:70:00:bc:4d:ef:
                    ed:34:cd:e1:6e:47:02:aa:08:57:d3:b0:3a:cd:4b:
                    f0:7c:5c:77:48:10:78:76:27:b1:df:49:01:d4:6f:
                    31:83:77:fe:c7:92:4c:6a:89:4c:8a:f6:91:ef:c4:
                    97:8f:93:b0:e5:55:d3:8e:29:29:eb:17:81:d4:8a:
                    0e:55:6b:67:3a:1e:34:01:3d
                Exponent: 65537 (0x10001)
    Signature Algorithm: md5WithRSAEncryption
        1b:fd:cd:e9:8f:40:6d:00:01:74:ce:6e:70:69:14:a2:70:e5:
        c0:49:d5:f2:af:75:61:d2:43:5b:21:1a:30:20:ee:22:04:30:
        b9:b4:ae:ee:6b:56:b8:90:99:9b:6d:d2:30:d9:f8:4f:f7:70:
        60:51:2e:3e:7b:41:d7:ea:0d:b3:21:b8:0f:d4:03:c7:a2:9f:
        3b:fa:f2:96:39:c0:3a:6a:75:b0:e1:a9:ba:80:0c:14:4d:1d:
        0c:4c:ce:4c:6c:8e:04:60:a3:a0:3e:23:bd:37:30:a3:42:0a:
        5b:33:4e:69:ab:63:a9:0b:50:58:b1:ce:05:d5:25:9a:de:74:
        b8:2d
-----BEGIN CERTIFICATE-----
MIICvDCCAiUCCQCbJ9fo0boI0TANBgkqhkiG9w0BAQQFADCBlTELMAkGA1UEBhMC
REUxETAPBgNVBAgTCFNhYXJsYW5kMRAwDgYDVQQKEwdNUEktU1dTMSIwIAYDVQQL
ExlEaXN0cmlidXRlZCBTeXN0ZW1zIEdyb3VwMRowGAYDVQQDExFBbmRyZWFzIEhh
ZWJlcmxlbjEhMB8GCSqGSIb3DQEJARYSZGVtb2NhQG9jdGFyaW5lLmRlMB4XDTE1
MDQyMDIwNDcwN1oXDTE2MDQxOTIwNDcwN1owga4xCzAJBgNVBAYTAkRFMREwDwYD
VQQIEwhTYWFybGFuZDEQMA4GA1UEChMHTVBJLVNXUzEiMCAGA1UECxMZRGlzdHJp
YnV0ZWQgU3lzdGVtcyBHcm91cDExMC8GA1UEAxMoNmZkOTkyYTA1OGM2ZWRmMzA0
ZDk4YTU2ZGQ3NjQ3NWI2MzVmNmYwYjEjMCEGCSqGSIb3DQEJARYUbm9kZTAyNDlA
b2N0YXJpbmUuZGUwgZ8wDQYJKoZIhvcNAQEBBQADgY0AMIGJAoGBAJkQzFdJPqcr
D7gSJpg7sZ5Pd0oJMPo0EYV8mi2WdB6B2odjJxvDEnS1iGpPWhkMY3PePgKJoHAA
vE3v7TTN4W5HAqoIV9OwOs1L8Hxcd0gQeHYnsd9JAdRvMYN3/seSTGqJTIr2ke/E
l4+TsOVV044pKesXgdSKDlVrZzoeNAE9AgMBAAEwDQYJKoZIhvcNAQEEBQADgYEA
G/3N6Y9AbQABdM5ucGkUonDlwEnV8q91YdJDWyEaMCDuIgQwubSu7mtWuJCZm23S
MNn4T/dwYFEuPntB1+oNsyG4D9QDx6KfO/ryljnAOmp1sOGpuoAMFE0dDEzOTGyO
BGCjoD4jvTcwo0IKWzNOaatjqQtQWLHOBdUlmt50uC0=
-----END CERTIFICATE-----
