Certificate:
    Data:
        Version: 1 (0x0)
        Serial Number:
            9b:27:d7:e8:d1:ba:09:88
        Signature Algorithm: md5WithRSAEncryption
        Issuer: C=DE, ST=Saarland, O=MPI-SWS, OU=Distributed Systems Group, CN=Andreas Haeberlen/emailAddress=democa@octarine.de
        Validity
            Not Before: Apr 20 20:47:15 2015 GMT
            Not After : Apr 19 20:47:15 2016 GMT
        Subject: C=DE, ST=Saarland, O=MPI-SWS, OU=Distributed Systems Group, CN=7af75f8d7db1271d752cc3735cdf1119c10109f8/emailAddress=node0432@octarine.de
        Subject Public Key Info:
            Public Key Algorithm: rsaEncryption
            RSA Public Key: (1024 bit)
                Modulus (1024 bit):
                    00:f0:03:75:3b:38:3c:af:f4:c3:7e:a1:5d:54:e0:
                    3d:ab:de:11:b7:d0:67:59:43:7a:a9:fc:5f:3a:56:
                    2a:11:80:3f:98:6b:cf:60:df:8f:3c:47:ad:d5:e8:
                    63:30:ce:ea:14:69:49:d9:2a:2a:a0:f9:c7:17:45:
                    c7:7c:92:5b:71:46:d9:39:0c:44:55:fd:8b:64:a4:
                    c5:c7:84:48:9f:fc:c3:1f:93:02:76:0c:ca:f6:b9:
                    9a:7e:de:3e:f5:5f:77:9e:a0:4e:07:ac:93:9f:8a:
                    52:7f:67:fa:62:ec:18:eb:4a:49:19:85:f4:2c:b4:
                    4a:0e:74:c4:73:c1:27:21:e9
                Exponent: 65537 (0x10001)
    Signature Algorithm: md5WithRSAEncryption
        2f:4e:30:8e:c5:f5:9e:41:9e:29:66:ed:42:93:b3:1d:e7:a6:
        ca:3d:0d:87:9b:6d:6a:ee:78:a0:60:4e:02:13:bc:67:ba:bf:
        d8:88:aa:c0:eb:b6:c8:dd:fc:e5:02:4a:a5:14:9d:72:f7:27:
        a5:5e:90:80:de:1b:3c:73:be:14:3d:60:40:cc:7f:e5:7d:09:
        60:b7:1e:54:b1:a5:51:cb:92:11:52:f7:53:05:17:95:c3:c9:
        13:de:17:38:f7:ff:69:bb:5b:32:76:ce:30:5f:36:ab:30:49:
        74:5d:79:d5:a5:0f:09:16:22:64:73:db:82:03:f5:f2:6e:da:
        b8:85
-----BEGIN CERTIFICATE-----
MIICvDCCAiUCCQCbJ9fo0boJiDANBgkqhkiG9w0BAQQFADCBlTELMAkGA1UEBhMC
REUxETAPBgNVBAgTCFNhYXJsYW5kMRAwDgYDVQQKEwdNUEktU1dTMSIwIAYDVQQL
ExlEaXN0cmlidXRlZCBTeXN0ZW1zIEdyb3VwMRowGAYDVQQDExFBbmRyZWFzIEhh
ZWJlcmxlbjEhMB8GCSqGSIb3DQEJARYSZGVtb2NhQG9jdGFyaW5lLmRlMB4XDTE1
MDQyMDIwNDcxNVoXDTE2MDQxOTIwNDcxNVowga4xCzAJBgNVBAYTAkRFMREwDwYD
VQQIEwhTYWFybGFuZDEQMA4GA1UEChMHTVBJLVNXUzEiMCAGA1UECxMZRGlzdHJp
YnV0ZWQgU3lzdGVtcyBHcm91cDExMC8GA1UEAxMoN2FmNzVmOGQ3ZGIxMjcxZDc1
MmNjMzczNWNkZjExMTljMTAxMDlmODEjMCEGCSqGSIb3DQEJARYUbm9kZTA0MzJA
b2N0YXJpbmUuZGUwgZ8wDQYJKoZIhvcNAQEBBQADgY0AMIGJAoGBAPADdTs4PK/0
w36hXVTgPaveEbfQZ1lDeqn8XzpWKhGAP5hrz2DfjzxHrdXoYzDO6hRpSdkqKqD5
xxdFx3ySW3FG2TkMRFX9i2SkxceESJ/8wx+TAnYMyva5mn7ePvVfd56gTgesk5+K
Un9n+mLsGOtKSRmF9Cy0Sg50xHPBJyHpAgMBAAEwDQYJKoZIhvcNAQEEBQADgYEA
L04wjsX1nkGeKWbtQpOzHeemyj0Nh5ttau54oGBOAhO8Z7q/2IiqwOu2yN385QJK
pRSdcvcnpV6QgN4bPHO+FD1gQMx/5X0JYLceVLGlUcuSEVL3UwUXlcPJE94XOPf/
abtbMnbOMF82qzBJdF151aUPCRYiZHPbggP18m7auIU=
-----END CERTIFICATE-----
