Certificate:
    Data:
        Version: 1 (0x0)
        Serial Number:
            9b:27:d7:e8:d1:ba:09:a5
        Signature Algorithm: md5WithRSAEncryption
        Issuer: C=DE, ST=Saarland, O=MPI-SWS, OU=Distributed Systems Group, CN=Andreas Haeberlen/emailAddress=democa@octarine.de
        Validity
            Not Before: Apr 20 20:47:17 2015 GMT
            Not After : Apr 19 20:47:17 2016 GMT
        Subject: C=DE, ST=Saarland, O=MPI-SWS, OU=Distributed Systems Group, CN=166f76796384fec30f69861b80213564cc433bd9/emailAddress=node0461@octarine.de
        Subject Public Key Info:
            Public Key Algorithm: rsaEncryption
            RSA Public Key: (1024 bit)
                Modulus (1024 bit):
                    00:b8:96:f8:94:9f:23:81:5e:07:21:db:e5:b0:af:
                    82:d4:89:e2:68:0e:82:81:43:07:b3:75:e0:e0:49:
                    da:ce:1a:ba:37:26:fc:18:d4:a5:e6:9d:ac:bc:81:
                    e6:58:9b:1c:ae:fb:6b:50:98:23:45:fc:7f:1a:a3:
                    ff:fb:fe:77:d7:73:35:98:6a:71:e5:85:d3:dc:03:
                    7c:84:18:e4:fe:7e:0b:d1:0c:b7:0b:95:34:6d:1a:
                    97:16:e6:b2:12:7c:27:dc:28:7f:da:34:f8:f4:d2:
                    ae:db:d6:f2:8c:65:5d:bf:ee:73:4d:ec:05:c0:7f:
                    25:ff:c3:a6:39:92:77:e7:3b
                Exponent: 65537 (0x10001)
    Signature Algorithm: md5WithRSAEncryption
        2d:1b:f1:73:53:62:82:ab:23:42:a1:6c:f3:6d:f4:10:4d:0e:
        6a:7e:91:20:d4:bf:ee:34:2a:d2:8a:5e:47:95:23:b9:5c:43:
        6c:56:db:5b:4e:2d:57:37:51:11:e1:fa:6b:b0:b6:15:76:cb:
        cc:fd:18:9d:d1:9a:a3:99:25:88:e0:94:b6:8c:a9:1e:16:0a:
        7e:43:c8:15:01:c8:1c:9d:28:e2:67:1e:eb:6e:4b:5e:9e:d3:
        b1:db:23:b2:7b:19:66:eb:de:f2:e8:68:be:b2:fb:75:bd:1e:
        bb:61:73:95:82:58:ce:e8:59:2a:8e:b7:5b:e6:cf:df:b0:c4:
        cb:56
-----BEGIN CERTIFICATE-----
MIICvDCCAiUCCQCbJ9fo0boJpTANBgkqhkiG9w0BAQQFADCBlTELMAkGA1UEBhMC
REUxETAPBgNVBAgTCFNhYXJsYW5kMRAwDgYDVQQKEwdNUEktU1dTMSIwIAYDVQQL
ExlEaXN0cmlidXRlZCBTeXN0ZW1zIEdyb3VwMRowGAYDVQQDExFBbmRyZWFzIEhh
ZWJlcmxlbjEhMB8GCSqGSIb3DQEJARYSZGVtb2NhQG9jdGFyaW5lLmRlMB4XDTE1
MDQyMDIwNDcxN1oXDTE2MDQxOTIwNDcxN1owga4xCzAJBgNVBAYTAkRFMREwDwYD
VQQIEwhTYWFybGFuZDEQMA4GA1UEChMHTVBJLVNXUzEiMCAGA1UECxMZRGlzdHJp
YnV0ZWQgU3lzdGVtcyBHcm91cDExMC8GA1UEAxMoMTY2Zjc2Nzk2Mzg0ZmVjMzBm
Njk4NjFiODAyMTM1NjRjYzQzM2JkOTEjMCEGCSqGSIb3DQEJARYUbm9kZTA0NjFA
b2N0YXJpbmUuZGUwgZ8wDQYJKoZIhvcNAQEBBQADgY0AMIGJAoGBALiW+JSfI4Fe
ByHb5bCvgtSJ4mgOgoFDB7N14OBJ2s4aujcm/BjUpeadrLyB5libHK77a1CYI0X8
fxqj//v+d9dzNZhqceWF09wDfIQY5P5+C9EMtwuVNG0alxbmshJ8J9wof9o0+PTS
rtvW8oxlXb/uc03sBcB/Jf/DpjmSd+c7AgMBAAEwDQYJKoZIhvcNAQEEBQADgYEA
LRvxc1NigqsjQqFs8230EE0Oan6RINS/7jQq0opeR5UjuVxDbFbbW04tVzdREeH6
a7C2FXbLzP0YndGao5kliOCUtoypHhYKfkPIFQHIHJ0o4mce625LXp7TsdsjsnsZ
Zuve8uhovrL7db0eu2FzlYJYzuhZKo63W+bP37DEy1Y=
-----END CERTIFICATE-----
