Certificate:
    Data:
        Version: 1 (0x0)
        Serial Number:
            9b:27:d7:e8:d1:ba:09:66
        Signature Algorithm: md5WithRSAEncryption
        Issuer: C=DE, ST=Saarland, O=MPI-SWS, OU=Distributed Systems Group, CN=Andreas Haeberlen/emailAddress=democa@octarine.de
        Validity
            Not Before: Apr 20 20:47:14 2015 GMT
            Not After : Apr 19 20:47:14 2016 GMT
        Subject: C=DE, ST=Saarland, O=MPI-SWS, OU=Distributed Systems Group, CN=c7af730bafe3bfdd198f3c540e80c5c8d774b705/emailAddress=node0398@octarine.de
        Subject Public Key Info:
            Public Key Algorithm: rsaEncryption
            RSA Public Key: (1024 bit)
                Modulus (1024 bit):
                    00:b0:f5:a5:ce:65:78:5b:cb:6d:a4:ca:c1:3b:f1:
                    f6:94:83:b2:85:28:6e:1c:9c:49:aa:c7:51:ec:0a:
                    78:a2:35:99:a6:87:37:86:ca:ba:f6:44:33:d8:f6:
                    79:85:61:7e:13:84:2e:e8:4d:25:f7:47:36:95:58:
                    34:14:7f:5c:d9:92:f0:be:8e:fb:2a:1e:17:64:9e:
                    b0:0c:bd:ee:94:42:d4:ac:29:60:7c:70:fb:4f:82:
                    51:a7:51:a9:c5:ab:b3:6b:31:d1:96:65:5a:f9:c3:
                    d0:28:8a:bc:92:33:34:29:d7:a5:48:d0:d6:be:6b:
                    3d:59:ff:f1:2a:dc:ad:43:b7
                Exponent: 65537 (0x10001)
    Signature Algorithm: md5WithRSAEncryption
        39:8c:37:20:1c:d7:02:b6:90:de:67:7b:95:ba:a5:94:1f:8d:
        ad:f3:f8:6f:50:b3:f8:4b:e4:c5:90:64:ff:20:55:af:21:3a:
        0d:4d:0d:c4:d1:be:55:8d:a2:c9:0c:71:c5:85:81:4e:76:14:
        7e:d4:3c:20:44:03:7b:f7:38:2d:e9:56:d5:db:16:05:bb:0e:
        53:f7:b7:d3:12:6a:3a:0b:cc:5f:3b:5a:da:27:e2:8f:0e:18:
        43:51:70:8b:e9:71:5c:7a:7f:58:4f:22:3a:dc:ad:8a:d3:bb:
        45:b7:dd:ff:2d:48:e3:d0:42:8a:88:7d:1d:e2:28:ac:63:6f:
        b3:5c
-----BEGIN CERTIFICATE-----
MIICvDCCAiUCCQCbJ9fo0boJZjANBgkqhkiG9w0BAQQFADCBlTELMAkGA1UEBhMC
REUxETAPBgNVBAgTCFNhYXJsYW5kMRAwDgYDVQQKEwdNUEktU1dTMSIwIAYDVQQL
ExlEaXN0cmlidXRlZCBTeXN0ZW1zIEdyb3VwMRowGAYDVQQDExFBbmRyZWFzIEhh
ZWJlcmxlbjEhMB8GCSqGSIb3DQEJARYSZGVtb2NhQG9jdGFyaW5lLmRlMB4XDTE1
MDQyMDIwNDcxNFoXDTE2MDQxOTIwNDcxNFowga4xCzAJBgNVBAYTAkRFMREwDwYD
VQQIEwhTYWFybGFuZDEQMA4GA1UEChMHTVBJLVNXUzEiMCAGA1UECxMZRGlzdHJp
YnV0ZWQgU3lzdGVtcyBHcm91cDExMC8GA1UEAxMoYzdhZjczMGJhZmUzYmZkZDE5
OGYzYzU0MGU4MGM1YzhkNzc0YjcwNTEjMCEGCSqGSIb3DQEJARYUbm9kZTAzOThA
b2N0YXJpbmUuZGUwgZ8wDQYJKoZIhvcNAQEBBQADgY0AMIGJAoGBALD1pc5leFvL
baTKwTvx9pSDsoUobhycSarHUewKeKI1maaHN4bKuvZEM9j2eYVhfhOELuhNJfdH
NpVYNBR/XNmS8L6O+yoeF2SesAy97pRC1KwpYHxw+0+CUadRqcWrs2sx0ZZlWvnD
0CiKvJIzNCnXpUjQ1r5rPVn/8SrcrUO3AgMBAAEwDQYJKoZIhvcNAQEEBQADgYEA
OYw3IBzXAraQ3md7lbqllB+NrfP4b1Cz+EvkxZBk/yBVryE6DU0NxNG+VY2iyQxx
xYWBTnYUftQ8IEQDe/c4LelW1dsWBbsOU/e30xJqOgvMXzta2ifijw4YQ1Fwi+lx
XHp/WE8iOtytitO7Rbfd/y1I49BCioh9HeIorGNvs1w=
-----END CERTIFICATE-----
