Certificate:
    Data:
        Version: 1 (0x0)
        Serial Number:
            9b:27:d7:e8:d1:ba:0a:96
        Signature Algorithm: md5WithRSAEncryption
        Issuer: C=DE, ST=Saarland, O=MPI-SWS, OU=Distributed Systems Group, CN=Andreas Haeberlen/emailAddress=democa@octarine.de
        Validity
            Not Before: Apr 20 20:47:28 2015 GMT
            Not After : Apr 19 20:47:28 2016 GMT
        Subject: C=DE, ST=Saarland, O=MPI-SWS, OU=Distributed Systems Group, CN=ed7558079d3521b12adb8b3d0833e32c1a2632dc/emailAddress=node0702@octarine.de
        Subject Public Key Info:
            Public Key Algorithm: rsaEncryption
            RSA Public Key: (1024 bit)
                Modulus (1024 bit):
                    00:d8:50:64:6d:a6:9a:b4:0b:3b:0d:9e:a0:9f:41:
                    82:03:49:71:2d:9f:41:e6:c5:70:fd:e2:d6:85:dc:
                    f4:c1:62:b8:68:09:f0:4f:44:51:65:63:cb:75:16:
                    ca:72:27:20:61:98:05:20:4e:b9:aa:4e:e8:8e:74:
                    ae:71:90:db:d6:be:96:bd:a3:07:62:0a:b0:d7:bd:
                    79:63:fc:08:9d:e5:ca:01:da:7c:ec:b8:35:1d:96:
                    e0:60:02:6b:b2:1c:6b:77:59:b0:15:da:22:3e:17:
                    05:dd:2f:1e:2e:56:b7:00:20:d3:e4:7f:31:63:ac:
                    87:93:53:2c:60:e2:24:ed:8b
                Exponent: 65537 (0x10001)
    Signature Algorithm: md5WithRSAEncryption
        35:a2:c5:d0:89:bc:7b:21:15:be:5b:ba:43:e6:f4:eb:af:02:
        ca:bf:41:15:97:09:4f:23:ea:9e:03:b2:49:94:66:43:91:38:
        d8:78:d5:a3:e6:b7:ff:54:45:1d:7f:25:81:13:44:f5:d0:c1:
        6b:0f:0f:41:a2:39:de:4e:4a:2d:d2:d9:aa:2c:0c:a7:2b:2e:
        47:c0:7c:98:f3:1f:05:56:20:66:a2:60:f2:9b:d0:04:f6:26:
        1d:dd:b1:dc:20:2a:69:87:b4:39:e6:8f:5d:50:98:97:19:54:
        03:d7:b8:8d:f5:e4:8f:49:78:c5:07:2c:85:45:0c:cc:98:46:
        09:ad
-----BEGIN CERTIFICATE-----
MIICvDCCAiUCCQCbJ9fo0boKljANBgkqhkiG9w0BAQQFADCBlTELMAkGA1UEBhMC
REUxETAPBgNVBAgTCFNhYXJsYW5kMRAwDgYDVQQKEwdNUEktU1dTMSIwIAYDVQQL
ExlEaXN0cmlidXRlZCBTeXN0ZW1zIEdyb3VwMRowGAYDVQQDExFBbmRyZWFzIEhh
ZWJlcmxlbjEhMB8GCSqGSIb3DQEJARYSZGVtb2NhQG9jdGFyaW5lLmRlMB4XDTE1
MDQyMDIwNDcyOFoXDTE2MDQxOTIwNDcyOFowga4xCzAJBgNVBAYTAkRFMREwDwYD
VQQIEwhTYWFybGFuZDEQMA4GA1UEChMHTVBJLVNXUzEiMCAGA1UECxMZRGlzdHJp
YnV0ZWQgU3lzdGVtcyBHcm91cDExMC8GA1UEAxMoZWQ3NTU4MDc5ZDM1MjFiMTJh
ZGI4YjNkMDgzM2UzMmMxYTI2MzJkYzEjMCEGCSqGSIb3DQEJARYUbm9kZTA3MDJA
b2N0YXJpbmUuZGUwgZ8wDQYJKoZIhvcNAQEBBQADgY0AMIGJAoGBANhQZG2mmrQL
Ow2eoJ9BggNJcS2fQebFcP3i1oXc9MFiuGgJ8E9EUWVjy3UWynInIGGYBSBOuapO
6I50rnGQ29a+lr2jB2IKsNe9eWP8CJ3lygHafOy4NR2W4GACa7Ica3dZsBXaIj4X
Bd0vHi5WtwAg0+R/MWOsh5NTLGDiJO2LAgMBAAEwDQYJKoZIhvcNAQEEBQADgYEA
NaLF0Im8eyEVvlu6Q+b0668Cyr9BFZcJTyPqngOySZRmQ5E42HjVo+a3/1RFHX8l
gRNE9dDBaw8PQaI53k5KLdLZqiwMpysuR8B8mPMfBVYgZqJg8pvQBPYmHd2x3CAq
aYe0OeaPXVCYlxlUA9e4jfXkj0l4xQcshUUMzJhGCa0=
-----END CERTIFICATE-----
