Certificate:
    Data:
        Version: 1 (0x0)
        Serial Number:
            9b:27:d7:e8:d1:ba:0a:29
        Signature Algorithm: md5WithRSAEncryption
        Issuer: C=DE, ST=Saarland, O=MPI-SWS, OU=Distributed Systems Group, CN=Andreas Haeberlen/emailAddress=democa@octarine.de
        Validity
            Not Before: Apr 20 20:47:23 2015 GMT
            Not After : Apr 19 20:47:23 2016 GMT
        Subject: C=DE, ST=Saarland, O=MPI-SWS, OU=Distributed Systems Group, CN=f4196083d89e3eae40b03b6609565cb41de7d6ba/emailAddress=node0593@octarine.de
        Subject Public Key Info:
            Public Key Algorithm: rsaEncryption
            RSA Public Key: (1024 bit)
                Modulus (1024 bit):
                    00:ba:92:72:98:19:d5:69:00:a7:01:56:15:0c:55:
                    0a:f2:c0:85:1d:39:0a:20:f2:05:08:96:6a:d7:7c:
                    a3:09:34:d5:32:4a:c7:96:8b:0e:f4:82:8f:34:d3:
                    ad:76:48:99:ec:10:15:7e:8c:ae:9f:ea:1b:5e:1f:
                    f0:d0:94:f2:19:d4:d3:3e:40:79:ad:60:6d:52:ae:
                    58:88:2f:4d:31:85:14:aa:f0:6d:6a:4a:ea:23:de:
                    d5:a6:2d:3d:9c:82:33:39:d3:64:11:b8:f8:8c:65:
                    c4:05:e7:9a:60:99:d5:d7:a1:0f:ae:cf:3e:26:45:
                    79:4c:47:9a:a8:7b:c4:f4:25
                Exponent: 65537 (0x10001)
    Signature Algorithm: md5WithRSAEncryption
        1c:af:0c:c9:b3:22:73:9c:b6:6c:63:ed:c0:c3:45:47:37:0a:
        e9:50:2d:54:68:2d:6d:29:1a:6b:fb:e3:25:60:84:1d:e4:dc:
        da:6c:d4:ac:ab:fe:2f:f6:4b:71:f1:42:77:fa:e2:3f:16:5c:
        fa:2e:fb:f1:56:f9:02:83:90:00:18:83:bd:b8:71:ae:20:41:
        0b:71:77:ab:7e:6e:a7:ef:24:b0:a7:31:31:21:3e:79:83:3b:
        2c:e4:e2:e1:da:cf:a7:71:f6:ac:a2:ff:3a:84:0f:40:f8:eb:
        88:24:8d:00:5e:59:cb:3f:d2:49:6a:cf:9d:8b:ba:21:26:13:
        2c:5a
-----BEGIN CERTIFICATE-----
MIICvDCCAiUCCQCbJ9fo0boKKTANBgkqhkiG9w0BAQQFADCBlTELMAkGA1UEBhMC
REUxETAPBgNVBAgTCFNhYXJsYW5kMRAwDgYDVQQKEwdNUEktU1dTMSIwIAYDVQQL
ExlEaXN0cmlidXRlZCBTeXN0ZW1zIEdyb3VwMRowGAYDVQQDExFBbmRyZWFzIEhh
ZWJlcmxlbjEhMB8GCSqGSIb3DQEJARYSZGVtb2NhQG9jdGFyaW5lLmRlMB4XDTE1
MDQyMDIwNDcyM1oXDTE2MDQxOTIwNDcyM1owga4xCzAJBgNVBAYTAkRFMREwDwYD
VQQIEwhTYWFybGFuZDEQMA4GA1UEChMHTVBJLVNXUzEiMCAGA1UECxMZRGlzdHJp
YnV0ZWQgU3lzdGVtcyBHcm91cDExMC8GA1UEAxMoZjQxOTYwODNkODllM2VhZTQw
YjAzYjY2MDk1NjVjYjQxZGU3ZDZiYTEjMCEGCSqGSIb3DQEJARYUbm9kZTA1OTNA
b2N0YXJpbmUuZGUwgZ8wDQYJKoZIhvcNAQEBBQADgY0AMIGJAoGBALqScpgZ1WkA
pwFWFQxVCvLAhR05CiDyBQiWatd8owk01TJKx5aLDvSCjzTTrXZImewQFX6Mrp/q
G14f8NCU8hnU0z5Aea1gbVKuWIgvTTGFFKrwbWpK6iPe1aYtPZyCMznTZBG4+Ixl
xAXnmmCZ1dehD67PPiZFeUxHmqh7xPQlAgMBAAEwDQYJKoZIhvcNAQEEBQADgYEA
HK8MybMic5y2bGPtwMNFRzcK6VAtVGgtbSkaa/vjJWCEHeTc2mzUrKv+L/ZLcfFC
d/riPxZc+i778Vb5AoOQABiDvbhxriBBC3F3q35up+8ksKcxMSE+eYM7LOTi4drP
p3H2rKL/OoQPQPjriCSNAF5Zyz/SSWrPnYu6ISYTLFo=
-----END CERTIFICATE-----
