Certificate:
    Data:
        Version: 1 (0x0)
        Serial Number:
            9b:27:d7:e8:d1:ba:09:0d
        Signature Algorithm: md5WithRSAEncryption
        Issuer: C=DE, ST=Saarland, O=MPI-SWS, OU=Distributed Systems Group, CN=Andreas Haeberlen/emailAddress=democa@octarine.de
        Validity
            Not Before: Apr 20 20:47:10 2015 GMT
            Not After : Apr 19 20:47:10 2016 GMT
        Subject: C=DE, ST=Saarland, O=MPI-SWS, OU=Distributed Systems Group, CN=86d0517938f80458e8d229d824b2307b75cc6469/emailAddress=node0309@octarine.de
        Subject Public Key Info:
            Public Key Algorithm: rsaEncryption
            RSA Public Key: (1024 bit)
                Modulus (1024 bit):
                    00:e1:80:fd:a9:0e:e7:c5:f5:90:9e:90:fe:c8:4e:
                    46:63:21:11:76:8a:02:17:0d:f0:6f:23:f9:2b:f7:
                    b1:ae:6f:7e:4e:85:7e:34:6d:94:86:fe:0a:19:3c:
                    de:52:a7:27:c8:58:8b:1d:30:10:34:05:93:23:50:
                    f2:fc:be:6b:89:dd:ec:13:48:e9:79:04:1f:07:1a:
                    53:d3:82:4a:e2:0e:25:b3:c6:56:f6:b1:06:c6:8a:
                    22:20:fc:08:26:2d:ee:b6:b2:a2:cb:b5:59:bc:b3:
                    6b:2b:10:75:73:f7:96:c9:8c:d1:10:51:0f:42:50:
                    91:b0:cd:9b:cd:43:ae:dd:1b
                Exponent: 65537 (0x10001)
    Signature Algorithm: md5WithRSAEncryption
        9b:25:aa:d0:86:e7:cf:6e:33:fa:8d:35:68:8a:cd:18:54:51:
        5b:df:5b:fa:41:a8:7e:ee:30:8d:c4:5f:dc:dc:c5:79:58:82:
        57:f9:38:69:2c:19:c9:87:c5:37:34:3a:5d:7b:c3:b4:8c:27:
        df:08:c3:99:22:2a:e3:62:25:c1:06:a2:a7:f5:b9:d5:0a:59:
        52:c0:56:3c:84:b0:a4:7f:d1:af:60:60:a0:df:03:af:1b:84:
        f0:96:1c:16:99:2f:0e:cc:a3:0c:ab:ea:ec:4b:36:8b:5a:46:
        33:c4:5f:9b:fb:da:90:1e:35:7d:fb:fe:e4:9b:c8:2c:cb:16:
        d8:e6
-----BEGIN CERTIFICATE-----
MIICvDCCAiUCCQCbJ9fo0boJDTANBgkqhkiG9w0BAQQFADCBlTELMAkGA1UEBhMC
REUxETAPBgNVBAgTCFNhYXJsYW5kMRAwDgYDVQQKEwdNUEktU1dTMSIwIAYDVQQL
ExlEaXN0cmlidXRlZCBTeXN0ZW1zIEdyb3VwMRowGAYDVQQDExFBbmRyZWFzIEhh
ZWJlcmxlbjEhMB8GCSqGSIb3DQEJARYSZGVtb2NhQG9jdGFyaW5lLmRlMB4XDTE1
MDQyMDIwNDcxMFoXDTE2MDQxOTIwNDcxMFowga4xCzAJBgNVBAYTAkRFMREwDwYD
VQQIEwhTYWFybGFuZDEQMA4GA1UEChMHTVBJLVNXUzEiMCAGA1UECxMZRGlzdHJp
YnV0ZWQgU3lzdGVtcyBHcm91cDExMC8GA1UEAxMoODZkMDUxNzkzOGY4MDQ1OGU4
ZDIyOWQ4MjRiMjMwN2I3NWNjNjQ2OTEjMCEGCSqGSIb3DQEJARYUbm9kZTAzMDlA
b2N0YXJpbmUuZGUwgZ8wDQYJKoZIhvcNAQEBBQADgY0AMIGJAoGBAOGA/akO58X1
kJ6Q/shORmMhEXaKAhcN8G8j+Sv3sa5vfk6FfjRtlIb+Chk83lKnJ8hYix0wEDQF
kyNQ8vy+a4nd7BNI6XkEHwcaU9OCSuIOJbPGVvaxBsaKIiD8CCYt7rayosu1Wbyz
aysQdXP3lsmM0RBRD0JQkbDNm81Drt0bAgMBAAEwDQYJKoZIhvcNAQEEBQADgYEA
myWq0Ibnz24z+o01aIrNGFRRW99b+kGofu4wjcRf3NzFeViCV/k4aSwZyYfFNzQ6
XXvDtIwn3wjDmSIq42IlwQaip/W51QpZUsBWPISwpH/Rr2BgoN8DrxuE8JYcFpkv
DsyjDKvq7Es2i1pGM8Rfm/vakB41ffv+5JvILMsW2OY=
-----END CERTIFICATE-----
