Certificate:
    Data:
        Version: 1 (0x0)
        Serial Number:
            9b:27:d7:e8:d1:ba:09:e2
        Signature Algorithm: md5WithRSAEncryption
        Issuer: C=DE, ST=Saarland, O=MPI-SWS, OU=Distributed Systems Group, CN=Andreas Haeberlen/emailAddress=democa@octarine.de
        Validity
            Not Before: Apr 20 20:47:20 2015 GMT
            Not After : Apr 19 20:47:20 2016 GMT
        Subject: C=DE, ST=Saarland, O=MPI-SWS, OU=Distributed Systems Group, CN=3bdf3ab52af633f197d131ec86fcae2dafdd983c/emailAddress=node0522@octarine.de
        Subject Public Key Info:
            Public Key Algorithm: rsaEncryption
            RSA Public Key: (1024 bit)
                Modulus (1024 bit):
                    00:c7:89:72:08:cd:18:3a:eb:35:52:77:47:bf:8a:
                    86:15:24:ce:eb:49:8a:05:95:19:59:e3:01:b0:79:
                    44:03:db:83:a5:cf:cf:da:2b:91:e9:e8:59:9b:be:
                    be:64:4f:c0:d5:91:bf:e6:70:a8:01:55:81:dd:82:
                    b7:8a:3f:85:f0:bd:b6:54:96:38:23:60:7f:2d:2d:
                    9c:7e:08:0d:4d:67:19:45:97:5e:e9:d0:63:2c:03:
                    e3:17:09:02:ab:e3:f8:d3:f6:7d:52:11:81:d6:63:
                    28:ac:ff:ec:25:8c:eb:98:6b:8d:05:3b:08:92:5a:
                    3b:54:a4:c9:37:b6:71:2a:b3
                Exponent: 65537 (0x10001)
    Signature Algorithm: md5WithRSAEncryption
        5c:e4:50:e6:bc:71:d6:57:89:24:58:a2:d7:63:58:84:d0:59:
        12:d2:22:9e:b4:9f:4e:24:eb:42:ad:c1:63:dd:64:80:c7:1a:
        67:cd:59:dd:e8:08:3c:f8:6a:72:b7:4a:47:e0:d9:09:32:26:
        5d:4c:47:da:f6:fb:f2:fa:6c:30:1b:80:73:bf:9b:48:33:30:
        92:e5:b3:52:b9:d9:19:23:43:ef:dc:40:49:82:de:f4:e8:86:
        6f:61:c3:7b:12:33:1d:71:25:af:ee:6c:6d:00:d8:6c:91:e1:
        bd:5b:2a:d4:89:64:2b:64:53:e5:c0:03:ca:f8:3a:18:20:29:
        92:0d
-----BEGIN CERTIFICATE-----
MIICvDCCAiUCCQCbJ9fo0boJ4jANBgkqhkiG9w0BAQQFADCBlTELMAkGA1UEBhMC
REUxETAPBgNVBAgTCFNhYXJsYW5kMRAwDgYDVQQKEwdNUEktU1dTMSIwIAYDVQQL
ExlEaXN0cmlidXRlZCBTeXN0ZW1zIEdyb3VwMRowGAYDVQQDExFBbmRyZWFzIEhh
ZWJlcmxlbjEhMB8GCSqGSIb3DQEJARYSZGVtb2NhQG9jdGFyaW5lLmRlMB4XDTE1
MDQyMDIwNDcyMFoXDTE2MDQxOTIwNDcyMFowga4xCzAJBgNVBAYTAkRFMREwDwYD
VQQIEwhTYWFybGFuZDEQMA4GA1UEChMHTVBJLVNXUzEiMCAGA1UECxMZRGlzdHJp
YnV0ZWQgU3lzdGVtcyBHcm91cDExMC8GA1UEAxMoM2JkZjNhYjUyYWY2MzNmMTk3
ZDEzMWVjODZmY2FlMmRhZmRkOTgzYzEjMCEGCSqGSIb3DQEJARYUbm9kZTA1MjJA
b2N0YXJpbmUuZGUwgZ8wDQYJKoZIhvcNAQEBBQADgY0AMIGJAoGBAMeJcgjNGDrr
NVJ3R7+KhhUkzutJigWVGVnjAbB5RAPbg6XPz9orkenoWZu+vmRPwNWRv+ZwqAFV
gd2Ct4o/hfC9tlSWOCNgfy0tnH4IDU1nGUWXXunQYywD4xcJAqvj+NP2fVIRgdZj
KKz/7CWM65hrjQU7CJJaO1SkyTe2cSqzAgMBAAEwDQYJKoZIhvcNAQEEBQADgYEA
XORQ5rxx1leJJFii12NYhNBZEtIinrSfTiTrQq3BY91kgMcaZ81Z3egIPPhqcrdK
R+DZCTImXUxH2vb78vpsMBuAc7+bSDMwkuWzUrnZGSND79xASYLe9OiGb2HDexIz
HXElr+5sbQDYbJHhvVsq1IlkK2RT5cADyvg6GCApkg0=
-----END CERTIFICATE-----
