Certificate:
    Data:
        Version: 1 (0x0)
        Serial Number:
            9b:27:d7:e8:d1:ba:09:0a
        Signature Algorithm: md5WithRSAEncryption
        Issuer: C=DE, ST=Saarland, O=MPI-SWS, OU=Distributed Systems Group, CN=Andreas Haeberlen/emailAddress=democa@octarine.de
        Validity
            Not Before: Apr 20 20:47:10 2015 GMT
            Not After : Apr 19 20:47:10 2016 GMT
        Subject: C=DE, ST=Saarland, O=MPI-SWS, OU=Distributed Systems Group, CN=4f1adc2f33185961fc78b675862597dd6e83bb3e/emailAddress=node0306@octarine.de
        Subject Public Key Info:
            Public Key Algorithm: rsaEncryption
            RSA Public Key: (1024 bit)
                Modulus (1024 bit):
                    00:c4:3a:93:e2:ce:7c:08:9d:48:e1:10:13:4b:c0:
                    ff:ad:36:f3:ee:04:11:e5:79:f3:78:a2:0c:11:8a:
                    4d:ba:f0:67:07:44:54:7f:e6:5f:46:81:a3:a7:b7:
                    82:2d:fb:95:2b:15:cd:43:a7:d8:0a:44:b4:bb:bc:
                    cb:c5:69:08:11:4d:a0:ec:a3:77:e4:f7:0d:d8:7d:
                    5c:2e:03:9e:6e:8c:ad:2d:20:75:b6:15:ac:85:3b:
                    cf:db:89:f0:15:d0:e9:1d:f2:99:66:44:5f:f4:04:
                    4e:dc:04:13:cf:be:f9:f2:dd:c2:2f:6e:8e:2b:1a:
                    f0:93:52:09:81:28:fa:52:65
                Exponent: 65537 (0x10001)
    Signature Algorithm: md5WithRSAEncryption
        8f:3b:dd:b3:38:31:8b:2f:4e:a5:a0:2e:c5:7f:fd:21:67:ee:
        22:bc:05:19:af:ee:74:c2:1f:e9:cf:44:71:9a:0c:e8:2c:fb:
        6e:1a:6a:ec:e4:64:39:53:a9:ed:5c:ff:64:37:c7:fe:51:fb:
        92:ae:7f:81:c1:16:65:ea:1d:40:53:0b:5c:98:bd:7c:35:d5:
        6e:66:e7:1c:97:ad:b8:c8:30:dd:2b:10:01:85:4e:db:ba:cd:
        71:10:2c:94:62:08:ba:ef:d4:45:94:4d:57:c9:15:f4:6b:7f:
        6d:b1:63:01:2e:b9:80:0c:7a:bb:84:52:69:a9:5b:b1:68:7e:
        22:36
-----BEGIN CERTIFICATE-----
MIICvDCCAiUCCQCbJ9fo0boJCjANBgkqhkiG9w0BAQQFADCBlTELMAkGA1UEBhMC
REUxETAPBgNVBAgTCFNhYXJsYW5kMRAwDgYDVQQKEwdNUEktU1dTMSIwIAYDVQQL
ExlEaXN0cmlidXRlZCBTeXN0ZW1zIEdyb3VwMRowGAYDVQQDExFBbmRyZWFzIEhh
ZWJlcmxlbjEhMB8GCSqGSIb3DQEJARYSZGVtb2NhQG9jdGFyaW5lLmRlMB4XDTE1
MDQyMDIwNDcxMFoXDTE2MDQxOTIwNDcxMFowga4xCzAJBgNVBAYTAkRFMREwDwYD
VQQIEwhTYWFybGFuZDEQMA4GA1UEChMHTVBJLVNXUzEiMCAGA1UECxMZRGlzdHJp
YnV0ZWQgU3lzdGVtcyBHcm91cDExMC8GA1UEAxMoNGYxYWRjMmYzMzE4NTk2MWZj
NzhiNjc1ODYyNTk3ZGQ2ZTgzYmIzZTEjMCEGCSqGSIb3DQEJARYUbm9kZTAzMDZA
b2N0YXJpbmUuZGUwgZ8wDQYJKoZIhvcNAQEBBQADgY0AMIGJAoGBAMQ6k+LOfAid
SOEQE0vA/6028+4EEeV583iiDBGKTbrwZwdEVH/mX0aBo6e3gi37lSsVzUOn2ApE
tLu8y8VpCBFNoOyjd+T3Ddh9XC4Dnm6MrS0gdbYVrIU7z9uJ8BXQ6R3ymWZEX/QE
TtwEE8+++fLdwi9ujisa8JNSCYEo+lJlAgMBAAEwDQYJKoZIhvcNAQEEBQADgYEA
jzvdszgxiy9OpaAuxX/9IWfuIrwFGa/udMIf6c9EcZoM6Cz7bhpq7ORkOVOp7Vz/
ZDfH/lH7kq5/gcEWZeodQFMLXJi9fDXVbmbnHJetuMgw3SsQAYVO27rNcRAslGII
uu/URZRNV8kV9Gt/bbFjAS65gAx6u4RSaalbsWh+IjY=
-----END CERTIFICATE-----
