Certificate:
    Data:
        Version: 1 (0x0)
        Serial Number:
            9b:27:d7:e8:d1:ba:0a:21
        Signature Algorithm: md5WithRSAEncryption
        Issuer: C=DE, ST=Saarland, O=MPI-SWS, OU=Distributed Systems Group, CN=Andreas Haeberlen/emailAddress=democa@octarine.de
        Validity
            Not Before: Apr 20 20:47:23 2015 GMT
            Not After : Apr 19 20:47:23 2016 GMT
        Subject: C=DE, ST=Saarland, O=MPI-SWS, OU=Distributed Systems Group, CN=79dcc061c5b62b770711f9bdfb321e288f540b6c/emailAddress=node0585@octarine.de
        Subject Public Key Info:
            Public Key Algorithm: rsaEncryption
            RSA Public Key: (1024 bit)
                Modulus (1024 bit):
                    00:df:bf:e0:70:e1:07:63:22:1b:6a:4c:c1:6b:2a:
                    50:2d:84:d8:2b:53:eb:c6:ef:36:18:0e:8d:66:37:
                    22:58:c8:f5:fa:b0:b5:aa:bd:98:16:9b:59:ec:5c:
                    d0:96:42:c0:ed:3b:60:9c:c6:5e:3f:51:de:b9:61:
                    e0:24:4a:f9:98:14:d5:da:58:25:33:32:4d:73:b5:
                    82:7d:b2:b9:f1:65:9d:71:9e:87:7d:e6:dd:53:56:
                    ac:a5:89:ed:07:ac:08:66:6a:20:92:38:93:40:8d:
                    e5:e9:39:77:fb:66:b9:6e:e1:5c:35:3f:8b:8c:d7:
                    8a:a5:6f:36:b3:57:dc:65:87
                Exponent: 65537 (0x10001)
    Signature Algorithm: md5WithRSAEncryption
        62:c6:e0:24:04:6f:90:d1:22:be:a2:6a:3b:64:1e:56:26:1e:
        08:69:8f:dd:01:fb:1d:4c:4f:44:a7:43:e6:1d:f6:84:1e:35:
        67:1a:b5:bb:22:cf:cb:54:db:cd:d4:de:62:e6:f3:a3:5f:b4:
        c6:4a:45:68:7b:c6:8a:98:94:38:2c:ee:d5:1f:12:1c:7e:cc:
        96:9f:4f:0b:03:62:30:13:42:43:4d:15:5e:d3:e7:0d:2d:f9:
        8f:66:37:a0:c8:11:6f:16:8a:9b:5f:64:08:37:cf:98:d0:74:
        84:eb:c1:bd:48:a0:c8:84:84:7f:dc:e8:5f:e2:d9:4d:5b:dc:
        7b:e4
-----BEGIN CERTIFICATE-----
MIICvDCCAiUCCQCbJ9fo0boKITANBgkqhkiG9w0BAQQFADCBlTELMAkGA1UEBhMC
REUxETAPBgNVBAgTCFNhYXJsYW5kMRAwDgYDVQQKEwdNUEktU1dTMSIwIAYDVQQL
ExlEaXN0cmlidXRlZCBTeXN0ZW1zIEdyb3VwMRowGAYDVQQDExFBbmRyZWFzIEhh
ZWJlcmxlbjEhMB8GCSqGSIb3DQEJARYSZGVtb2NhQG9jdGFyaW5lLmRlMB4XDTE1
MDQyMDIwNDcyM1oXDTE2MDQxOTIwNDcyM1owga4xCzAJBgNVBAYTAkRFMREwDwYD
VQQIEwhTYWFybGFuZDEQMA4GA1UEChMHTVBJLVNXUzEiMCAGA1UECxMZRGlzdHJp
YnV0ZWQgU3lzdGVtcyBHcm91cDExMC8GA1UEAxMoNzlkY2MwNjFjNWI2MmI3NzA3
MTFmOWJkZmIzMjFlMjg4ZjU0MGI2YzEjMCEGCSqGSIb3DQEJARYUbm9kZTA1ODVA
b2N0YXJpbmUuZGUwgZ8wDQYJKoZIhvcNAQEBBQADgY0AMIGJAoGBAN+/4HDhB2Mi
G2pMwWsqUC2E2CtT68bvNhgOjWY3IljI9fqwtaq9mBabWexc0JZCwO07YJzGXj9R
3rlh4CRK+ZgU1dpYJTMyTXO1gn2yufFlnXGeh33m3VNWrKWJ7QesCGZqIJI4k0CN
5ek5d/tmuW7hXDU/i4zXiqVvNrNX3GWHAgMBAAEwDQYJKoZIhvcNAQEEBQADgYEA
YsbgJARvkNEivqJqO2QeViYeCGmP3QH7HUxPRKdD5h32hB41Zxq1uyLPy1TbzdTe
Yubzo1+0xkpFaHvGipiUOCzu1R8SHH7Mlp9PCwNiMBNCQ00VXtPnDS35j2Y3oMgR
bxaKm19kCDfPmNB0hOvBvUigyISEf9zoX+LZTVvce+Q=
-----END CERTIFICATE-----
