Certificate:
    Data:
        Version: 1 (0x0)
        Serial Number:
            9b:27:d7:e8:d1:ba:09:da
        Signature Algorithm: md5WithRSAEncryption
        Issuer: C=DE, ST=Saarland, O=MPI-SWS, OU=Distributed Systems Group, CN=Andreas Haeberlen/emailAddress=democa@octarine.de
        Validity
            Not Before: Apr 20 20:47:19 2015 GMT
            Not After : Apr 19 20:47:19 2016 GMT
        Subject: C=DE, ST=Saarland, O=MPI-SWS, OU=Distributed Systems Group, CN=f83e9fef181b3f86dd9062d68cad8f5879618509/emailAddress=node0514@octarine.de
        Subject Public Key Info:
            Public Key Algorithm: rsaEncryption
            RSA Public Key: (1024 bit)
                Modulus (1024 bit):
                    00:b1:56:63:50:00:73:49:a8:8c:8c:b1:d8:f8:12:
                    d3:ba:ed:42:00:81:05:e2:44:33:a1:a9:85:43:6e:
                    67:43:d1:a6:7b:a6:4d:0c:92:c5:f0:68:81:32:71:
                    c5:6d:64:42:84:d2:da:81:f0:f6:1c:4c:c9:cd:f7:
                    63:31:3a:de:34:5e:83:bc:53:76:01:72:e9:46:88:
                    f8:7a:d4:cc:c9:c5:5e:9f:cb:6b:b8:38:c1:a8:9c:
                    91:3c:9c:b7:30:07:23:ab:d2:0a:f3:6c:37:14:3f:
                    bb:bc:4e:41:c3:31:f0:a7:e5:31:a4:5e:43:7d:c2:
                    76:a5:4f:92:14:d7:7b:54:fd
                Exponent: 65537 (0x10001)
    Signature Algorithm: md5WithRSAEncryption
        8d:e3:8a:98:51:f7:e8:1f:9b:4f:68:83:68:1c:73:37:35:a8:
        b2:78:19:04:a1:cd:31:51:41:96:46:9a:f6:a7:cb:e8:7a:fd:
        ea:28:6f:59:31:9b:7c:7d:db:e0:8d:71:1f:ec:48:52:b5:ab:
        c2:cd:6e:d6:f8:3e:35:9f:ba:e3:19:f2:0a:03:b3:d3:79:c3:
        62:49:b7:96:76:4c:8f:12:da:c6:c4:78:da:60:30:1f:ee:a6:
        25:d4:b1:aa:69:a9:59:b4:26:d1:b9:5f:c8:81:6b:c3:83:79:
        12:cb:c6:4e:c9:1e:d4:45:c2:96:f1:e8:f8:dd:7d:e4:d1:1d:
        81:dd
-----BEGIN CERTIFICATE-----
MIICvDCCAiUCCQCbJ9fo0boJ2jANBgkqhkiG9w0BAQQFADCBlTELMAkGA1UEBhMC
REUxETAPBgNVBAgTCFNhYXJsYW5kMRAwDgYDVQQKEwdNUEktU1dTMSIwIAYDVQQL
ExlEaXN0cmlidXRlZCBTeXN0ZW1zIEdyb3VwMRowGAYDVQQDExFBbmRyZWFzIEhh
ZWJlcmxlbjEhMB8GCSqGSIb3DQEJARYSZGVtb2NhQG9jdGFyaW5lLmRlMB4XDTE1
MDQyMDIwNDcxOVoXDTE2MDQxOTIwNDcxOVowga4xCzAJBgNVBAYTAkRFMREwDwYD
VQQIEwhTYWFybGFuZDEQMA4GA1UEChMHTVBJLVNXUzEiMCAGA1UECxMZRGlzdHJp
YnV0ZWQgU3lzdGVtcyBHcm91cDExMC8GA1UEAxMoZjgzZTlmZWYxODFiM2Y4NmRk
OTA2MmQ2OGNhZDhmNTg3OTYxODUwOTEjMCEGCSqGSIb3DQEJARYUbm9kZTA1MTRA
b2N0YXJpbmUuZGUwgZ8wDQYJKoZIhvcNAQEBBQADgY0AMIGJAoGBALFWY1AAc0mo
jIyx2PgS07rtQgCBBeJEM6GphUNuZ0PRpnumTQySxfBogTJxxW1kQoTS2oHw9hxM
yc33YzE63jReg7xTdgFy6UaI+HrUzMnFXp/La7g4waickTyctzAHI6vSCvNsNxQ/
u7xOQcMx8KflMaReQ33CdqVPkhTXe1T9AgMBAAEwDQYJKoZIhvcNAQEEBQADgYEA
jeOKmFH36B+bT2iDaBxzNzWosngZBKHNMVFBlkaa9qfL6Hr96ihvWTGbfH3b4I1x
H+xIUrWrws1u1vg+NZ+64xnyCgOz03nDYkm3lnZMjxLaxsR42mAwH+6mJdSxqmmp
WbQm0blfyIFrw4N5EsvGTske1EXClvHo+N195NEdgd0=
-----END CERTIFICATE-----
