Certificate:
    Data:
        Version: 1 (0x0)
        Serial Number:
            9b:27:d7:e8:d1:ba:09:f1
        Signature Algorithm: md5WithRSAEncryption
        Issuer: C=DE, ST=Saarland, O=MPI-SWS, OU=Distributed Systems Group, CN=Andreas Haeberlen/emailAddress=democa@octarine.de
        Validity
            Not Before: Apr 20 20:47:20 2015 GMT
            Not After : Apr 19 20:47:20 2016 GMT
        Subject: C=DE, ST=Saarland, O=MPI-SWS, OU=Distributed Systems Group, CN=ad65f4f2b50fa91ba2dbc2b6d7e0b7a540b45b60/emailAddress=node0537@octarine.de
        Subject Public Key Info:
            Public Key Algorithm: rsaEncryption
            RSA Public Key: (1024 bit)
                Modulus (1024 bit):
                    00:cc:43:34:21:67:f1:01:48:76:72:fd:b8:72:d6:
                    ef:95:72:4a:fd:17:c0:88:d7:7c:45:29:68:c3:91:
                    b9:67:ac:9a:1b:8e:c7:11:2b:0f:69:9c:c2:8c:a6:
                    9c:1c:16:b0:f2:74:76:76:9f:b7:62:55:e1:69:8a:
                    f3:cf:54:d5:cc:d4:00:a9:7b:09:48:2e:8c:a4:65:
                    1d:7d:a9:e6:ef:d9:3d:1d:13:f9:56:97:36:85:25:
                    5d:1e:5b:45:84:84:c9:aa:b2:eb:e9:5e:b8:e1:a1:
                    4d:60:34:4e:e6:9a:19:9e:05:99:dc:dc:53:5a:24:
                    88:60:9d:5c:c8:0a:66:a8:43
                Exponent: 65537 (0x10001)
    Signature Algorithm: md5WithRSAEncryption
        49:37:3a:8d:0f:e0:0e:3f:fd:d9:f3:30:ef:72:30:9b:ba:1d:
        f1:1f:d1:7c:57:04:f0:11:6a:78:b3:e4:1c:53:a5:55:27:2e:
        8a:3d:5c:f5:31:7a:84:ea:4e:61:b7:77:ad:f1:c8:74:d2:9e:
        20:0b:b1:fe:23:08:32:f4:d7:c9:22:56:bc:91:68:96:9d:36:
        66:fe:15:01:e6:f6:b2:7f:05:21:43:91:a3:ee:93:7a:01:f4:
        fc:88:ea:84:99:07:70:8b:1c:aa:09:55:b3:2b:45:bf:57:fd:
        16:c8:9b:77:12:1c:4d:ac:60:47:a8:96:39:fe:aa:fa:4f:81:
        88:35
-----BEGIN CERTIFICATE-----
MIICvDCCAiUCCQCbJ9fo0boJ8TANBgkqhkiG9w0BAQQFADCBlTELMAkGA1UEBhMC
REUxETAPBgNVBAgTCFNhYXJsYW5kMRAwDgYDVQQKEwdNUEktU1dTMSIwIAYDVQQL
ExlEaXN0cmlidXRlZCBTeXN0ZW1zIEdyb3VwMRowGAYDVQQDExFBbmRyZWFzIEhh
ZWJlcmxlbjEhMB8GCSqGSIb3DQEJARYSZGVtb2NhQG9jdGFyaW5lLmRlMB4XDTE1
MDQyMDIwNDcyMFoXDTE2MDQxOTIwNDcyMFowga4xCzAJBgNVBAYTAkRFMREwDwYD
VQQIEwhTYWFybGFuZDEQMA4GA1UEChMHTVBJLVNXUzEiMCAGA1UECxMZRGlzdHJp
YnV0ZWQgU3lzdGVtcyBHcm91cDExMC8GA1UEAxMoYWQ2NWY0ZjJiNTBmYTkxYmEy
ZGJjMmI2ZDdlMGI3YTU0MGI0NWI2MDEjMCEGCSqGSIb3DQEJARYUbm9kZTA1MzdA
b2N0YXJpbmUuZGUwgZ8wDQYJKoZIhvcNAQEBBQADgY0AMIGJAoGBAMxDNCFn8QFI
dnL9uHLW75VySv0XwIjXfEUpaMORuWesmhuOxxErD2mcwoymnBwWsPJ0dnaft2JV
4WmK889U1czUAKl7CUgujKRlHX2p5u/ZPR0T+VaXNoUlXR5bRYSEyaqy6+leuOGh
TWA0TuaaGZ4FmdzcU1okiGCdXMgKZqhDAgMBAAEwDQYJKoZIhvcNAQEEBQADgYEA
STc6jQ/gDj/92fMw73Iwm7od8R/RfFcE8BFqeLPkHFOlVScuij1c9TF6hOpOYbd3
rfHIdNKeIAux/iMIMvTXySJWvJFolp02Zv4VAeb2sn8FIUORo+6TegH0/IjqhJkH
cIscqglVsytFv1f9FsibdxIcTaxgR6iWOf6q+k+BiDU=
-----END CERTIFICATE-----
