Certificate:
    Data:
        Version: 1 (0x0)
        Serial Number:
            9b:27:d7:e8:d1:ba:09:90
        Signature Algorithm: md5WithRSAEncryption
        Issuer: C=DE, ST=Saarland, O=MPI-SWS, OU=Distributed Systems Group, CN=Andreas Haeberlen/emailAddress=democa@octarine.de
        Validity
            Not Before: Apr 20 20:47:16 2015 GMT
            Not After : Apr 19 20:47:16 2016 GMT
        Subject: C=DE, ST=Saarland, O=MPI-SWS, OU=Distributed Systems Group, CN=6d4be39ce7311147829576a2ba695e1bc57a9078/emailAddress=node0440@octarine.de
        Subject Public Key Info:
            Public Key Algorithm: rsaEncryption
            RSA Public Key: (1024 bit)
                Modulus (1024 bit):
                    00:9e:c5:d4:6e:01:20:ad:5d:75:e1:1b:fa:65:df:
                    6e:11:08:16:cf:b7:8a:c7:d6:ad:c7:8a:b5:79:ef:
                    48:97:c3:a2:f6:b3:0c:3f:19:d3:d7:76:2b:6f:76:
                    53:a3:d7:cf:d6:2a:74:89:01:8d:0f:00:30:04:e3:
                    1f:36:e8:47:c3:c6:86:2b:22:07:8a:71:5d:c4:23:
                    64:43:c0:89:53:b7:84:a2:3e:79:fd:b6:76:b8:dd:
                    b5:71:1a:6e:13:25:22:aa:b4:9f:61:5b:ea:e4:fb:
                    e7:10:bd:17:ad:e7:0b:54:37:0b:0e:b9:7c:ea:61:
                    5f:bf:85:37:92:fd:65:b9:13
                Exponent: 65537 (0x10001)
    Signature Algorithm: md5WithRSAEncryption
        2d:a8:6b:55:18:51:a8:c0:2a:36:f4:69:37:49:65:8a:ec:d2:
        9e:e6:64:a7:ab:a4:9c:e8:0b:d6:df:da:a3:65:c9:21:16:04:
        4a:59:95:19:5f:84:75:f8:ae:6f:91:0a:cf:f9:d4:74:39:b0:
        eb:66:01:d8:8d:75:01:27:06:9e:27:11:ce:e9:ff:f0:13:90:
        7d:1f:58:8b:02:36:fd:07:95:36:50:63:3f:7a:f6:b1:19:09:
        39:7a:d5:b5:2c:54:0f:14:f6:2a:2a:a4:5a:f1:0b:30:3b:c2:
        7d:4f:97:3f:c7:27:fc:da:4a:47:28:56:8c:98:1e:a5:de:ad:
        5b:ef
-----BEGIN CERTIFICATE-----
MIICvDCCAiUCCQCbJ9fo0boJkDANBgkqhkiG9w0BAQQFADCBlTELMAkGA1UEBhMC
REUxETAPBgNVBAgTCFNhYXJsYW5kMRAwDgYDVQQKEwdNUEktU1dTMSIwIAYDVQQL
ExlEaXN0cmlidXRlZCBTeXN0ZW1zIEdyb3VwMRowGAYDVQQDExFBbmRyZWFzIEhh
ZWJlcmxlbjEhMB8GCSqGSIb3DQEJARYSZGVtb2NhQG9jdGFyaW5lLmRlMB4XDTE1
MDQyMDIwNDcxNloXDTE2MDQxOTIwNDcxNlowga4xCzAJBgNVBAYTAkRFMREwDwYD
VQQIEwhTYWFybGFuZDEQMA4GA1UEChMHTVBJLVNXUzEiMCAGA1UECxMZRGlzdHJp
YnV0ZWQgU3lzdGVtcyBHcm91cDExMC8GA1UEAxMoNmQ0YmUzOWNlNzMxMTE0Nzgy
OTU3NmEyYmE2OTVlMWJjNTdhOTA3ODEjMCEGCSqGSIb3DQEJARYUbm9kZTA0NDBA
b2N0YXJpbmUuZGUwgZ8wDQYJKoZIhvcNAQEBBQADgY0AMIGJAoGBAJ7F1G4BIK1d
deEb+mXfbhEIFs+3isfWrceKtXnvSJfDovazDD8Z09d2K292U6PXz9YqdIkBjQ8A
MATjHzboR8PGhisiB4pxXcQjZEPAiVO3hKI+ef22drjdtXEabhMlIqq0n2Fb6uT7
5xC9F63nC1Q3Cw65fOphX7+FN5L9ZbkTAgMBAAEwDQYJKoZIhvcNAQEEBQADgYEA
LahrVRhRqMAqNvRpN0lliuzSnuZkp6uknOgL1t/ao2XJIRYESlmVGV+Edfiub5EK
z/nUdDmw62YB2I11AScGnicRzun/8BOQfR9YiwI2/QeVNlBjP3r2sRkJOXrVtSxU
DxT2KiqkWvELMDvCfU+XP8cn/NpKRyhWjJgepd6tW+8=
-----END CERTIFICATE-----
