Certificate:
    Data:
        Version: 1 (0x0)
        Serial Number:
            9b:27:d7:e8:d1:ba:0a:9a
        Signature Algorithm: md5WithRSAEncryption
        Issuer: C=DE, ST=Saarland, O=MPI-SWS, OU=Distributed Systems Group, CN=Andreas Haeberlen/emailAddress=democa@octarine.de
        Validity
            Not Before: Apr 20 20:47:28 2015 GMT
            Not After : Apr 19 20:47:28 2016 GMT
        Subject: C=DE, ST=Saarland, O=MPI-SWS, OU=Distributed Systems Group, CN=72ded0c05e0d66887d28d3d6e0ba9991b6f97c9d/emailAddress=node0706@octarine.de
        Subject Public Key Info:
            Public Key Algorithm: rsaEncryption
            RSA Public Key: (1024 bit)
                Modulus (1024 bit):
                    00:ed:7a:be:10:45:71:3a:cd:c7:94:18:15:54:83:
                    f0:9f:e6:fa:a6:81:89:af:18:d4:45:25:2a:42:03:
                    a1:28:cd:3b:68:22:5d:31:6f:8e:e1:e1:22:00:e3:
                    bf:30:e4:ad:69:44:02:9e:50:37:6a:81:83:06:81:
                    17:5f:e6:13:17:9f:26:24:22:80:57:49:46:e7:e2:
                    2d:73:8e:2a:f7:06:a7:94:bc:ef:6b:8b:1e:6c:95:
                    7c:4f:1f:88:16:55:09:38:42:8c:35:0b:f9:95:2f:
                    e6:47:ef:15:0e:e8:18:fa:4d:f5:0a:e2:38:f8:7a:
                    d9:6f:d5:6b:ba:ac:a0:b3:6b
                Exponent: 65537 (0x10001)
    Signature Algorithm: md5WithRSAEncryption
        58:94:28:34:5d:ed:ff:cf:c2:87:68:f0:2b:63:3b:e5:f4:3b:
        b1:d8:22:e9:25:32:a8:af:26:b4:09:75:57:27:17:41:4f:b8:
        6c:26:80:68:04:5e:bc:b9:aa:16:c3:64:5f:d2:73:4f:ca:28:
        29:ad:33:63:21:24:bb:57:ec:47:a4:2c:8b:42:ff:61:24:53:
        86:78:31:fb:c0:9b:77:95:02:49:ef:f1:1e:fe:05:ec:dc:91:
        9e:a8:51:c1:3e:c2:6e:25:7b:97:c2:99:09:2a:af:ef:94:ae:
        4e:1f:6d:42:2c:b5:c7:23:6a:13:03:ef:58:6c:5a:43:83:bc:
        ed:77
-----BEGIN CERTIFICATE-----
MIICvDCCAiUCCQCbJ9fo0boKmjANBgkqhkiG9w0BAQQFADCBlTELMAkGA1UEBhMC
REUxETAPBgNVBAgTCFNhYXJsYW5kMRAwDgYDVQQKEwdNUEktU1dTMSIwIAYDVQQL
ExlEaXN0cmlidXRlZCBTeXN0ZW1zIEdyb3VwMRowGAYDVQQDExFBbmRyZWFzIEhh
ZWJlcmxlbjEhMB8GCSqGSIb3DQEJARYSZGVtb2NhQG9jdGFyaW5lLmRlMB4XDTE1
MDQyMDIwNDcyOFoXDTE2MDQxOTIwNDcyOFowga4xCzAJBgNVBAYTAkRFMREwDwYD
VQQIEwhTYWFybGFuZDEQMA4GA1UEChMHTVBJLVNXUzEiMCAGA1UECxMZRGlzdHJp
YnV0ZWQgU3lzdGVtcyBHcm91cDExMC8GA1UEAxMoNzJkZWQwYzA1ZTBkNjY4ODdk
MjhkM2Q2ZTBiYTk5OTFiNmY5N2M5ZDEjMCEGCSqGSIb3DQEJARYUbm9kZTA3MDZA
b2N0YXJpbmUuZGUwgZ8wDQYJKoZIhvcNAQEBBQADgY0AMIGJAoGBAO16vhBFcTrN
x5QYFVSD8J/m+qaBia8Y1EUlKkIDoSjNO2giXTFvjuHhIgDjvzDkrWlEAp5QN2qB
gwaBF1/mExefJiQigFdJRufiLXOOKvcGp5S872uLHmyVfE8fiBZVCThCjDUL+ZUv
5kfvFQ7oGPpN9QriOPh62W/Va7qsoLNrAgMBAAEwDQYJKoZIhvcNAQEEBQADgYEA
WJQoNF3t/8/Ch2jwK2M75fQ7sdgi6SUyqK8mtAl1VycXQU+4bCaAaARevLmqFsNk
X9JzT8ooKa0zYyEku1fsR6Qsi0L/YSRThngx+8Cbd5UCSe/xHv4F7NyRnqhRwT7C
biV7l8KZCSqv75SuTh9tQiy1xyNqEwPvWGxaQ4O87Xc=
-----END CERTIFICATE-----
