Certificate:
    Data:
        Version: 1 (0x0)
        Serial Number:
            9b:27:d7:e8:d1:ba:0b:a6
        Signature Algorithm: md5WithRSAEncryption
        Issuer: C=DE, ST=Saarland, O=MPI-SWS, OU=Distributed Systems Group, CN=Andreas Haeberlen/emailAddress=democa@octarine.de
        Validity
            Not Before: Apr 20 20:47:40 2015 GMT
            Not After : Apr 19 20:47:40 2016 GMT
        Subject: C=DE, ST=Saarland, O=MPI-SWS, OU=Distributed Systems Group, CN=ca83c0dff06e5d27150be607c496132dda1abe9b/emailAddress=node0974@octarine.de
        Subject Public Key Info:
            Public Key Algorithm: rsaEncryption
            RSA Public Key: (1024 bit)
                Modulus (1024 bit):
                    00:ab:76:7e:7b:6d:b4:32:2b:de:17:c5:51:34:79:
                    c5:82:5c:b1:c3:97:fa:88:8b:b8:58:f4:14:bd:97:
                    e0:80:fb:d6:5a:37:0b:36:81:b7:43:a1:53:7e:62:
                    25:96:86:a8:38:41:9d:6f:95:5e:4a:42:88:b8:6f:
                    f6:e3:c2:8e:4d:eb:e0:14:68:65:f3:7c:45:16:8b:
                    61:6d:11:06:24:55:73:35:f6:aa:3e:19:fa:01:41:
                    f8:8e:b1:ac:c5:de:2a:0f:b2:af:72:c5:80:94:32:
                    0c:fc:d7:8e:fc:87:65:bd:66:68:9a:bb:bb:70:80:
                    6a:9c:9c:af:c6:b2:ef:3b:af
                Exponent: 65537 (0x10001)
    Signature Algorithm: md5WithRSAEncryption
        26:38:33:8e:30:20:3e:3f:b4:d9:a4:e0:9d:4e:e0:cf:87:76:
        7e:ba:21:53:b0:87:d6:f7:39:43:60:e3:4c:5f:25:c0:99:a0:
        d9:b5:1d:70:8e:3d:2f:d0:ed:8e:20:cd:ac:51:6f:a9:fb:d6:
        76:02:6b:79:d5:dc:a7:28:cb:33:5f:53:68:6f:d1:19:1e:cb:
        21:32:c8:b8:99:87:28:1e:44:36:2e:10:fd:4b:4a:3b:dd:b0:
        28:53:30:09:4e:af:69:ad:81:0c:df:e5:76:bf:3d:d7:e3:0f:
        9d:6c:be:23:2b:58:e7:f0:82:e0:af:18:77:d4:92:3b:6c:06:
        c9:11
-----BEGIN CERTIFICATE-----
MIICvDCCAiUCCQCbJ9fo0boLpjANBgkqhkiG9w0BAQQFADCBlTELMAkGA1UEBhMC
REUxETAPBgNVBAgTCFNhYXJsYW5kMRAwDgYDVQQKEwdNUEktU1dTMSIwIAYDVQQL
ExlEaXN0cmlidXRlZCBTeXN0ZW1zIEdyb3VwMRowGAYDVQQDExFBbmRyZWFzIEhh
ZWJlcmxlbjEhMB8GCSqGSIb3DQEJARYSZGVtb2NhQG9jdGFyaW5lLmRlMB4XDTE1
MDQyMDIwNDc0MFoXDTE2MDQxOTIwNDc0MFowga4xCzAJBgNVBAYTAkRFMREwDwYD
VQQIEwhTYWFybGFuZDEQMA4GA1UEChMHTVBJLVNXUzEiMCAGA1UECxMZRGlzdHJp
YnV0ZWQgU3lzdGVtcyBHcm91cDExMC8GA1UEAxMoY2E4M2MwZGZmMDZlNWQyNzE1
MGJlNjA3YzQ5NjEzMmRkYTFhYmU5YjEjMCEGCSqGSIb3DQEJARYUbm9kZTA5NzRA
b2N0YXJpbmUuZGUwgZ8wDQYJKoZIhvcNAQEBBQADgY0AMIGJAoGBAKt2fntttDIr
3hfFUTR5xYJcscOX+oiLuFj0FL2X4ID71lo3CzaBt0OhU35iJZaGqDhBnW+VXkpC
iLhv9uPCjk3r4BRoZfN8RRaLYW0RBiRVczX2qj4Z+gFB+I6xrMXeKg+yr3LFgJQy
DPzXjvyHZb1maJq7u3CAapycr8ay7zuvAgMBAAEwDQYJKoZIhvcNAQEEBQADgYEA
JjgzjjAgPj+02aTgnU7gz4d2frohU7CH1vc5Q2DjTF8lwJmg2bUdcI49L9DtjiDN
rFFvqfvWdgJredXcpyjLM19TaG/RGR7LITLIuJmHKB5ENi4Q/UtKO92wKFMwCU6v
aa2BDN/ldr891+MPnWy+IytY5/CC4K8Yd9SSO2wGyRE=
-----END CERTIFICATE-----
