Certificate:
    Data:
        Version: 1 (0x0)
        Serial Number:
            9b:27:d7:e8:d1:ba:09:e6
        Signature Algorithm: md5WithRSAEncryption
        Issuer: C=DE, ST=Saarland, O=MPI-SWS, OU=Distributed Systems Group, CN=Andreas Haeberlen/emailAddress=democa@octarine.de
        Validity
            Not Before: Apr 20 20:47:20 2015 GMT
            Not After : Apr 19 20:47:20 2016 GMT
        Subject: C=DE, ST=Saarland, O=MPI-SWS, OU=Distributed Systems Group, CN=a53b788eaa163d0467615db453de469ecd945220/emailAddress=node0526@octarine.de
        Subject Public Key Info:
            Public Key Algorithm: rsaEncryption
            RSA Public Key: (1024 bit)
                Modulus (1024 bit):
                    00:b7:bb:1b:1c:ce:ce:dd:54:55:35:b2:1d:6f:a7:
                    ea:57:d8:19:0e:09:58:c6:53:b1:bb:11:00:0d:2d:
                    0c:be:eb:65:13:24:df:70:d3:c5:22:f8:40:d9:d9:
                    27:0e:2f:00:59:7a:55:3f:43:e2:49:9a:73:f8:0b:
                    4c:2c:bd:16:92:a1:be:03:2f:0e:3e:da:1e:34:69:
                    d3:03:77:4c:08:45:3e:ed:0a:17:bb:16:dc:69:ef:
                    c9:d5:31:f6:9a:ae:4d:b7:f8:d3:90:62:63:07:39:
                    77:c0:d6:a5:e4:bd:24:6f:2a:ef:81:87:55:f7:eb:
                    53:44:33:c5:16:7a:26:ef:41
                Exponent: 65537 (0x10001)
    Signature Algorithm: md5WithRSAEncryption
        37:ea:59:85:45:e5:1e:60:05:ec:12:e7:3b:e0:3d:59:bf:5a:
        e4:1a:3a:ba:a2:a2:81:e6:03:0e:55:97:52:05:22:dc:ca:e5:
        39:6c:26:a4:95:9b:97:d0:7c:41:ab:26:ae:c7:cd:68:a9:35:
        4a:b9:1e:13:f7:7c:24:f2:bd:52:90:2a:d2:c4:de:14:11:4f:
        5b:59:cf:95:55:9d:0b:6c:13:0b:4b:c2:f2:4a:eb:48:ce:e1:
        0d:90:4b:ba:c5:97:2c:00:7b:b3:6d:e4:bb:a1:d3:a7:6b:1c:
        66:f4:c6:46:90:0a:bf:fa:3f:43:fb:fb:b1:3a:cb:d0:50:5f:
        74:80
-----BEGIN CERTIFICATE-----
MIICvDCCAiUCCQCbJ9fo0boJ5jANBgkqhkiG9w0BAQQFADCBlTELMAkGA1UEBhMC
REUxETAPBgNVBAgTCFNhYXJsYW5kMRAwDgYDVQQKEwdNUEktU1dTMSIwIAYDVQQL
ExlEaXN0cmlidXRlZCBTeXN0ZW1zIEdyb3VwMRowGAYDVQQDExFBbmRyZWFzIEhh
ZWJlcmxlbjEhMB8GCSqGSIb3DQEJARYSZGVtb2NhQG9jdGFyaW5lLmRlMB4XDTE1
MDQyMDIwNDcyMFoXDTE2MDQxOTIwNDcyMFowga4xCzAJBgNVBAYTAkRFMREwDwYD
VQQIEwhTYWFybGFuZDEQMA4GA1UEChMHTVBJLVNXUzEiMCAGA1UECxMZRGlzdHJp
YnV0ZWQgU3lzdGVtcyBHcm91cDExMC8GA1UEAxMoYTUzYjc4OGVhYTE2M2QwNDY3
NjE1ZGI0NTNkZTQ2OWVjZDk0NTIyMDEjMCEGCSqGSIb3DQEJARYUbm9kZTA1MjZA
b2N0YXJpbmUuZGUwgZ8wDQYJKoZIhvcNAQEBBQADgY0AMIGJAoGBALe7GxzOzt1U
VTWyHW+n6lfYGQ4JWMZTsbsRAA0tDL7rZRMk33DTxSL4QNnZJw4vAFl6VT9D4kma
c/gLTCy9FpKhvgMvDj7aHjRp0wN3TAhFPu0KF7sW3GnvydUx9pquTbf405BiYwc5
d8DWpeS9JG8q74GHVffrU0QzxRZ6Ju9BAgMBAAEwDQYJKoZIhvcNAQEEBQADgYEA
N+pZhUXlHmAF7BLnO+A9Wb9a5Bo6uqKigeYDDlWXUgUi3MrlOWwmpJWbl9B8Qasm
rsfNaKk1SrkeE/d8JPK9UpAq0sTeFBFPW1nPlVWdC2wTC0vC8krrSM7hDZBLusWX
LAB7s23ku6HTp2scZvTGRpAKv/o/Q/v7sTrL0FBfdIA=
-----END CERTIFICATE-----
