Certificate:
    Data:
        Version: 1 (0x0)
        Serial Number:
            9b:27:d7:e8:d1:ba:08:dd
        Signature Algorithm: md5WithRSAEncryption
        Issuer: C=DE, ST=Saarland, O=MPI-SWS, OU=Distributed Systems Group, CN=Andreas Haeberlen/emailAddress=democa@octarine.de
        Validity
            Not Before: Apr 20 20:47:08 2015 GMT
            Not After : Apr 19 20:47:08 2016 GMT
        Subject: C=DE, ST=Saarland, O=MPI-SWS, OU=Distributed Systems Group, CN=c5adc5b62dd9c95c909c2115aa4896c5b728deff/emailAddress=node0261@octarine.de
        Subject Public Key Info:
            Public Key Algorithm: rsaEncryption
            RSA Public Key: (1024 bit)
                Modulus (1024 bit):
                    00:cc:06:77:bf:23:88:ef:86:96:ab:48:60:99:89:
                    77:f9:70:92:33:75:43:10:99:d6:f0:2b:8b:47:19:
                    0f:a7:64:70:7b:38:54:01:f1:5b:b0:ca:63:c0:c5:
                    5e:fd:52:8a:df:06:92:17:51:8d:4e:7a:f1:09:41:
                    b6:a7:15:a7:3f:5f:aa:71:3c:38:f0:0f:eb:a9:f8:
                    0f:63:39:77:45:5e:e5:2c:ae:94:94:df:6c:d9:17:
                    46:56:3c:28:ae:8d:02:80:98:5a:c0:ed:7d:89:87:
                    e3:2f:87:cc:df:82:81:82:51:0d:86:63:a8:77:02:
                    6f:93:9f:8f:7a:61:10:b2:75
                Exponent: 65537 (0x10001)
    Signature Algorithm: md5WithRSAEncryption
        00:9a:7e:3c:8f:f0:e0:06:fb:6e:12:c9:68:c9:ee:05:04:fb:
        14:4a:70:17:75:1d:28:0e:46:e3:c8:7f:ff:81:6f:dd:bc:9d:
        9c:f7:7d:d2:3a:07:f6:0e:9d:12:2e:a2:85:40:3e:3a:6d:4f:
        12:44:5c:a2:c2:fe:ed:94:3e:82:49:e7:ca:96:8d:02:94:da:
        4e:1d:31:13:e2:2f:6a:ad:94:1b:3f:00:41:ac:87:d5:f5:c2:
        ef:bd:88:ad:09:58:53:ae:27:e9:cc:41:56:25:b1:2a:52:38:
        83:1f:da:b8:13:08:a6:61:9c:3b:60:27:7d:ad:7f:51:ad:44:
        dc:44
-----BEGIN CERTIFICATE-----
MIICvDCCAiUCCQCbJ9fo0boI3TANBgkqhkiG9w0BAQQFADCBlTELMAkGA1UEBhMC
REUxETAPBgNVBAgTCFNhYXJsYW5kMRAwDgYDVQQKEwdNUEktU1dTMSIwIAYDVQQL
ExlEaXN0cmlidXRlZCBTeXN0ZW1zIEdyb3VwMRowGAYDVQQDExFBbmRyZWFzIEhh
ZWJlcmxlbjEhMB8GCSqGSIb3DQEJARYSZGVtb2NhQG9jdGFyaW5lLmRlMB4XDTE1
MDQyMDIwNDcwOFoXDTE2MDQxOTIwNDcwOFowga4xCzAJBgNVBAYTAkRFMREwDwYD
VQQIEwhTYWFybGFuZDEQMA4GA1UEChMHTVBJLVNXUzEiMCAGA1UECxMZRGlzdHJp
YnV0ZWQgU3lzdGVtcyBHcm91cDExMC8GA1UEAxMoYzVhZGM1YjYyZGQ5Yzk1Yzkw
OWMyMTE1YWE0ODk2YzViNzI4ZGVmZjEjMCEGCSqGSIb3DQEJARYUbm9kZTAyNjFA
b2N0YXJpbmUuZGUwgZ8wDQYJKoZIhvcNAQEBBQADgY0AMIGJAoGBAMwGd78jiO+G
lqtIYJmJd/lwkjN1QxCZ1vAri0cZD6dkcHs4VAHxW7DKY8DFXv1Sit8GkhdRjU56
8QlBtqcVpz9fqnE8OPAP66n4D2M5d0Ve5SyulJTfbNkXRlY8KK6NAoCYWsDtfYmH
4y+HzN+CgYJRDYZjqHcCb5Ofj3phELJ1AgMBAAEwDQYJKoZIhvcNAQEEBQADgYEA
AJp+PI/w4Ab7bhLJaMnuBQT7FEpwF3UdKA5G48h//4Fv3bydnPd90joH9g6dEi6i
hUA+Om1PEkRcosL+7ZQ+gknnypaNApTaTh0xE+Ivaq2UGz8AQayH1fXC772IrQlY
U64n6cxBViWxKlI4gx/auBMIpmGcO2Anfa1/Ua1E3EQ=
-----END CERTIFICATE-----
