Certificate:
    Data:
        Version: 1 (0x0)
        Serial Number:
            9b:27:d7:e8:d1:ba:0a:f9
        Signature Algorithm: md5WithRSAEncryption
        Issuer: C=DE, ST=Saarland, O=MPI-SWS, OU=Distributed Systems Group, CN=Andreas Haeberlen/emailAddress=democa@octarine.de
        Validity
            Not Before: Apr 20 20:47:32 2015 GMT
            Not After : Apr 19 20:47:32 2016 GMT
        Subject: C=DE, ST=Saarland, O=MPI-SWS, OU=Distributed Systems Group, CN=6d7b661109d3ec4167879302ac91e165fd054274/emailAddress=node0801@octarine.de
        Subject Public Key Info:
            Public Key Algorithm: rsaEncryption
            RSA Public Key: (1024 bit)
                Modulus (1024 bit):
                    00:c7:5a:36:74:7e:18:fb:7d:ce:70:48:b9:98:b9:
                    a9:1d:91:99:3d:c9:c9:b2:7b:95:38:b2:ad:dd:ca:
                    23:6e:75:ed:df:63:9d:77:d2:63:a6:39:db:2a:87:
                    f5:72:d3:5e:41:2e:bf:f9:12:38:04:ac:1f:a6:66:
                    23:b6:6e:6a:71:52:9b:57:ca:89:ef:f8:35:88:9f:
                    d6:26:00:d4:4a:eb:aa:b4:48:ce:54:69:59:6d:42:
                    71:59:62:43:35:e7:d3:97:3d:f6:c6:f0:11:bb:21:
                    36:39:77:46:ce:70:af:63:a1:59:4b:3a:1c:4e:1d:
                    f9:fa:f8:9e:90:28:97:b4:4b
                Exponent: 65537 (0x10001)
    Signature Algorithm: md5WithRSAEncryption
        28:5b:fd:99:74:a6:31:91:a2:b5:0f:98:96:6f:7a:37:39:19:
        98:da:ec:51:59:48:ea:c5:3a:c1:09:9d:70:67:77:a3:97:e2:
        b4:9f:d8:c2:bd:4d:65:b1:9f:b0:b2:b4:3d:8e:3e:53:f3:10:
        ff:3f:08:02:f3:6c:a7:25:1b:12:87:29:33:0d:ba:8a:7c:29:
        99:be:41:c9:3b:e0:02:28:16:a5:0a:37:fb:97:01:a2:46:08:
        6c:06:c2:45:d8:7e:29:c8:56:4c:f4:2b:d2:ef:d9:57:0f:c1:
        c5:0f:c6:fd:ba:04:17:a7:6f:95:31:b2:d3:99:4e:af:47:d8:
        64:0c
-----BEGIN CERTIFICATE-----
MIICvDCCAiUCCQCbJ9fo0boK+TANBgkqhkiG9w0BAQQFADCBlTELMAkGA1UEBhMC
REUxETAPBgNVBAgTCFNhYXJsYW5kMRAwDgYDVQQKEwdNUEktU1dTMSIwIAYDVQQL
ExlEaXN0cmlidXRlZCBTeXN0ZW1zIEdyb3VwMRowGAYDVQQDExFBbmRyZWFzIEhh
ZWJlcmxlbjEhMB8GCSqGSIb3DQEJARYSZGVtb2NhQG9jdGFyaW5lLmRlMB4XDTE1
MDQyMDIwNDczMloXDTE2MDQxOTIwNDczMlowga4xCzAJBgNVBAYTAkRFMREwDwYD
VQQIEwhTYWFybGFuZDEQMA4GA1UEChMHTVBJLVNXUzEiMCAGA1UECxMZRGlzdHJp
YnV0ZWQgU3lzdGVtcyBHcm91cDExMC8GA1UEAxMoNmQ3YjY2MTEwOWQzZWM0MTY3
ODc5MzAyYWM5MWUxNjVmZDA1NDI3NDEjMCEGCSqGSIb3DQEJARYUbm9kZTA4MDFA
b2N0YXJpbmUuZGUwgZ8wDQYJKoZIhvcNAQEBBQADgY0AMIGJAoGBAMdaNnR+GPt9
znBIuZi5qR2RmT3JybJ7lTiyrd3KI2517d9jnXfSY6Y52yqH9XLTXkEuv/kSOASs
H6ZmI7ZuanFSm1fKie/4NYif1iYA1ErrqrRIzlRpWW1CcVliQzXn05c99sbwEbsh
Njl3Rs5wr2OhWUs6HE4d+fr4npAol7RLAgMBAAEwDQYJKoZIhvcNAQEEBQADgYEA
KFv9mXSmMZGitQ+Ylm96NzkZmNrsUVlI6sU6wQmdcGd3o5fitJ/Ywr1NZbGfsLK0
PY4+U/MQ/z8IAvNspyUbEocpMw26inwpmb5ByTvgAigWpQo3+5cBokYIbAbCRdh+
KchWTPQr0u/ZVw/BxQ/G/boEF6dvlTGy05lOr0fYZAw=
-----END CERTIFICATE-----
