Certificate:
    Data:
        Version: 1 (0x0)
        Serial Number:
            9b:27:d7:e8:d1:ba:09:81
        Signature Algorithm: md5WithRSAEncryption
        Issuer: C=DE, ST=Saarland, O=MPI-SWS, OU=Distributed Systems Group, CN=Andreas Haeberlen/emailAddress=democa@octarine.de
        Validity
            Not Before: Apr 20 20:47:15 2015 GMT
            Not After : Apr 19 20:47:15 2016 GMT
        Subject: C=DE, ST=Saarland, O=MPI-SWS, OU=Distributed Systems Group, CN=c1894a5d609f990854f20632e4652c2fdb926f0c/emailAddress=node0425@octarine.de
        Subject Public Key Info:
            Public Key Algorithm: rsaEncryption
            RSA Public Key: (1024 bit)
                Modulus (1024 bit):
                    00:b4:da:50:6c:50:f9:c1:57:ef:53:51:74:01:f6:
                    4e:ec:14:36:84:b1:38:90:76:4d:88:29:96:d6:df:
                    93:a4:e2:29:c5:b3:18:3f:c6:bf:d7:06:2f:4e:d1:
                    16:5b:e2:d8:7d:99:ba:dd:36:a8:1b:28:63:81:19:
                    86:fd:b6:98:9d:d3:a7:94:a5:47:79:8d:c3:8e:f2:
                    38:43:26:0d:8d:9a:26:8b:78:b7:37:d2:32:4b:c6:
                    f8:57:89:e9:de:56:e8:95:1f:3d:b9:da:fa:ec:f1:
                    eb:8f:ef:74:15:0c:9c:bf:b8:58:da:f4:35:31:fc:
                    09:40:b8:b0:a1:63:66:19:3f
                Exponent: 65537 (0x10001)
    Signature Algorithm: md5WithRSAEncryption
        07:53:f7:c5:27:4b:b1:cb:2f:34:32:7d:66:db:99:2a:3b:e4:
        38:ab:52:b9:aa:a5:13:12:52:7d:2a:98:99:7b:d8:40:52:99:
        ca:5f:a5:5f:5e:1e:f5:c8:3f:2c:f9:c8:86:89:1f:35:e7:c4:
        30:fe:f8:42:5f:01:cb:e6:cc:03:9c:a5:bf:64:d4:b2:48:f5:
        f1:36:8b:ea:33:be:d4:7b:4f:67:c5:26:45:a6:52:d0:ac:72:
        5a:57:1f:da:ea:cb:7a:06:c6:3d:76:ee:db:6c:af:37:e8:00:
        c7:86:7c:cc:4b:34:32:b0:8d:16:77:ff:29:69:f7:3c:0d:31:
        d0:bc
-----BEGIN CERTIFICATE-----
MIICvDCCAiUCCQCbJ9fo0boJgTANBgkqhkiG9w0BAQQFADCBlTELMAkGA1UEBhMC
REUxETAPBgNVBAgTCFNhYXJsYW5kMRAwDgYDVQQKEwdNUEktU1dTMSIwIAYDVQQL
ExlEaXN0cmlidXRlZCBTeXN0ZW1zIEdyb3VwMRowGAYDVQQDExFBbmRyZWFzIEhh
ZWJlcmxlbjEhMB8GCSqGSIb3DQEJARYSZGVtb2NhQG9jdGFyaW5lLmRlMB4XDTE1
MDQyMDIwNDcxNVoXDTE2MDQxOTIwNDcxNVowga4xCzAJBgNVBAYTAkRFMREwDwYD
VQQIEwhTYWFybGFuZDEQMA4GA1UEChMHTVBJLVNXUzEiMCAGA1UECxMZRGlzdHJp
YnV0ZWQgU3lzdGVtcyBHcm91cDExMC8GA1UEAxMoYzE4OTRhNWQ2MDlmOTkwODU0
ZjIwNjMyZTQ2NTJjMmZkYjkyNmYwYzEjMCEGCSqGSIb3DQEJARYUbm9kZTA0MjVA
b2N0YXJpbmUuZGUwgZ8wDQYJKoZIhvcNAQEBBQADgY0AMIGJAoGBALTaUGxQ+cFX
71NRdAH2TuwUNoSxOJB2TYgpltbfk6TiKcWzGD/Gv9cGL07RFlvi2H2Zut02qBso
Y4EZhv22mJ3Tp5SlR3mNw47yOEMmDY2aJot4tzfSMkvG+FeJ6d5W6JUfPbna+uzx
64/vdBUMnL+4WNr0NTH8CUC4sKFjZhk/AgMBAAEwDQYJKoZIhvcNAQEEBQADgYEA
B1P3xSdLscsvNDJ9ZtuZKjvkOKtSuaqlExJSfSqYmXvYQFKZyl+lX14e9cg/LPnI
hokfNefEMP74Ql8By+bMA5ylv2TUskj18TaL6jO+1HtPZ8UmRaZS0KxyWlcf2urL
egbGPXbu22yvN+gAx4Z8zEs0MrCNFnf/KWn3PA0x0Lw=
-----END CERTIFICATE-----
