Certificate:
    Data:
        Version: 1 (0x0)
        Serial Number:
            9b:27:d7:e8:d1:ba:08:93
        Signature Algorithm: md5WithRSAEncryption
        Issuer: C=DE, ST=Saarland, O=MPI-SWS, OU=Distributed Systems Group, CN=Andreas Haeberlen/emailAddress=democa@octarine.de
        Validity
            Not Before: Apr 20 20:47:05 2015 GMT
            Not After : Apr 19 20:47:05 2016 GMT
        Subject: C=DE, ST=Saarland, O=MPI-SWS, OU=Distributed Systems Group, CN=5d0c4995fa68fa512e874cee067c19c77d4b6d15/emailAddress=node0187@octarine.de
        Subject Public Key Info:
            Public Key Algorithm: rsaEncryption
            RSA Public Key: (1024 bit)
                Modulus (1024 bit):
                    00:e5:9e:98:f2:7b:07:d5:95:47:16:7f:5d:26:a4:
                    14:a0:b5:ad:a2:9f:f0:8b:bc:06:cf:5e:27:6d:61:
                    ce:c5:20:47:b7:7b:b4:b2:40:52:b9:f0:04:cb:8b:
                    fa:97:1e:2a:1f:96:7d:3f:27:72:f2:c8:fc:7b:09:
                    23:4b:87:bc:54:13:23:0b:13:22:d3:21:0a:c4:e3:
                    09:72:8a:31:7a:1a:f6:8c:e1:5e:9d:87:dd:33:e6:
                    b9:a7:bd:d5:57:55:89:5f:2c:ba:40:f6:9a:c6:d7:
                    91:3d:6c:37:36:71:8e:90:47:bf:f2:ab:86:10:0e:
                    83:18:18:51:af:4f:7a:87:49
                Exponent: 65537 (0x10001)
    Signature Algorithm: md5WithRSAEncryption
        76:6e:b0:2e:e4:5b:0a:9a:0d:19:b6:e9:14:fb:95:9f:10:ed:
        91:72:3e:8f:75:7c:9c:8d:52:5b:54:be:ec:5e:a0:3f:35:1b:
        c5:30:cd:2d:89:8f:1b:7e:96:6e:2f:87:ac:9f:21:62:22:75:
        68:25:bc:91:26:69:37:b0:a3:02:08:39:0a:0a:a4:d2:ec:8e:
        cc:89:4c:55:64:6b:93:53:1e:55:0c:23:5f:8f:f8:92:1c:e2:
        bc:2f:19:7a:27:8c:2d:4b:aa:f5:b4:0d:3c:c6:01:69:ee:d1:
        88:35:6a:82:95:3a:33:1a:85:d8:e8:89:9e:ff:07:fa:0c:75:
        6b:d3
-----BEGIN CERTIFICATE-----
MIICvDCCAiUCCQCbJ9fo0boIkzANBgkqhkiG9w0BAQQFADCBlTELMAkGA1UEBhMC
REUxETAPBgNVBAgTCFNhYXJsYW5kMRAwDgYDVQQKEwdNUEktU1dTMSIwIAYDVQQL
ExlEaXN0cmlidXRlZCBTeXN0ZW1zIEdyb3VwMRowGAYDVQQDExFBbmRyZWFzIEhh
ZWJlcmxlbjEhMB8GCSqGSIb3DQEJARYSZGVtb2NhQG9jdGFyaW5lLmRlMB4XDTE1
MDQyMDIwNDcwNVoXDTE2MDQxOTIwNDcwNVowga4xCzAJBgNVBAYTAkRFMREwDwYD
VQQIEwhTYWFybGFuZDEQMA4GA1UEChMHTVBJLVNXUzEiMCAGA1UECxMZRGlzdHJp
YnV0ZWQgU3lzdGVtcyBHcm91cDExMC8GA1UEAxMoNWQwYzQ5OTVmYTY4ZmE1MTJl
ODc0Y2VlMDY3YzE5Yzc3ZDRiNmQxNTEjMCEGCSqGSIb3DQEJARYUbm9kZTAxODdA
b2N0YXJpbmUuZGUwgZ8wDQYJKoZIhvcNAQEBBQADgY0AMIGJAoGBAOWemPJ7B9WV
RxZ/XSakFKC1raKf8Iu8Bs9eJ21hzsUgR7d7tLJAUrnwBMuL+pceKh+WfT8ncvLI
/HsJI0uHvFQTIwsTItMhCsTjCXKKMXoa9ozhXp2H3TPmuae91VdViV8sukD2msbX
kT1sNzZxjpBHv/KrhhAOgxgYUa9PeodJAgMBAAEwDQYJKoZIhvcNAQEEBQADgYEA
dm6wLuRbCpoNGbbpFPuVnxDtkXI+j3V8nI1SW1S+7F6gPzUbxTDNLYmPG36Wbi+H
rJ8hYiJ1aCW8kSZpN7CjAgg5Cgqk0uyOzIlMVWRrk1MeVQwjX4/4khzivC8ZeieM
LUuq9bQNPMYBae7RiDVqgpU6MxqF2OiJnv8H+gx1a9M=
-----END CERTIFICATE-----
