Certificate:
    Data:
        Version: 1 (0x0)
        Serial Number:
            9b:27:d7:e8:d1:ba:0a:df
        Signature Algorithm: md5WithRSAEncryption
        Issuer: C=DE, ST=Saarland, O=MPI-SWS, OU=Distributed Systems Group, CN=Andreas Haeberlen/emailAddress=democa@octarine.de
        Validity
            Not Before: Apr 20 20:47:31 2015 GMT
            Not After : Apr 19 20:47:31 2016 GMT
        Subject: C=DE, ST=Saarland, O=MPI-SWS, OU=Distributed Systems Group, CN=edca9ac977e88f505d8b3b457f86be09bc3570ff/emailAddress=node0775@octarine.de
        Subject Public Key Info:
            Public Key Algorithm: rsaEncryption
            RSA Public Key: (1024 bit)
                Modulus (1024 bit):
                    00:c1:81:6c:5d:b4:09:c6:0e:64:2c:24:65:7d:ee:
                    7f:4a:30:7f:43:92:0b:cf:94:70:16:b8:09:34:3f:
                    44:6b:47:e0:89:50:77:2d:c9:7a:dd:bd:1e:ec:8b:
                    a2:58:aa:24:1a:8e:84:07:31:45:2c:9b:2b:65:c1:
                    8b:fc:f0:12:db:b6:4f:f3:94:dc:f4:b2:d6:71:f6:
                    9a:45:8d:4b:b7:44:55:28:38:16:a0:9c:5c:db:7f:
                    33:98:35:c5:7d:58:aa:47:8f:c4:ff:a5:1a:69:43:
                    89:0e:b6:d0:87:7f:03:71:4b:53:b8:75:62:14:1d:
                    8e:54:fc:83:1d:3f:b2:5b:ed
                Exponent: 65537 (0x10001)
    Signature Algorithm: md5WithRSAEncryption
        bb:ef:c6:7a:d2:2e:d8:88:5e:0a:7e:cc:21:94:4d:c1:5e:db:
        eb:4f:bf:3f:94:28:6d:a5:c9:69:02:05:a7:9f:3c:0c:cc:ec:
        3a:88:a1:d1:45:04:30:8b:db:9e:ec:2d:dd:0a:28:fa:5d:a2:
        a1:b1:fe:d3:98:fa:95:4f:2b:34:7d:85:12:78:ef:b7:eb:2f:
        5a:23:e7:9f:15:d1:f9:37:a8:3b:4f:4b:1b:84:20:b5:26:82:
        37:0a:ec:52:cb:ed:87:2b:44:d8:34:5e:e5:ef:ea:d7:f4:19:
        7a:13:ab:c9:85:7a:6a:cb:c5:e5:8b:4c:19:ab:8d:6c:36:1d:
        7e:08
-----BEGIN CERTIFICATE-----
MIICvDCCAiUCCQCbJ9fo0boK3zANBgkqhkiG9w0BAQQFADCBlTELMAkGA1UEBhMC
REUxETAPBgNVBAgTCFNhYXJsYW5kMRAwDgYDVQQKEwdNUEktU1dTMSIwIAYDVQQL
ExlEaXN0cmlidXRlZCBTeXN0ZW1zIEdyb3VwMRowGAYDVQQDExFBbmRyZWFzIEhh
ZWJlcmxlbjEhMB8GCSqGSIb3DQEJARYSZGVtb2NhQG9jdGFyaW5lLmRlMB4XDTE1
MDQyMDIwNDczMVoXDTE2MDQxOTIwNDczMVowga4xCzAJBgNVBAYTAkRFMREwDwYD
VQQIEwhTYWFybGFuZDEQMA4GA1UEChMHTVBJLVNXUzEiMCAGA1UECxMZRGlzdHJp
YnV0ZWQgU3lzdGVtcyBHcm91cDExMC8GA1UEAxMoZWRjYTlhYzk3N2U4OGY1MDVk
OGIzYjQ1N2Y4NmJlMDliYzM1NzBmZjEjMCEGCSqGSIb3DQEJARYUbm9kZTA3NzVA
b2N0YXJpbmUuZGUwgZ8wDQYJKoZIhvcNAQEBBQADgY0AMIGJAoGBAMGBbF20CcYO
ZCwkZX3uf0owf0OSC8+UcBa4CTQ/RGtH4IlQdy3Jet29HuyLoliqJBqOhAcxRSyb
K2XBi/zwEtu2T/OU3PSy1nH2mkWNS7dEVSg4FqCcXNt/M5g1xX1YqkePxP+lGmlD
iQ620Id/A3FLU7h1YhQdjlT8gx0/slvtAgMBAAEwDQYJKoZIhvcNAQEEBQADgYEA
u+/GetIu2IheCn7MIZRNwV7b60+/P5QobaXJaQIFp588DMzsOoih0UUEMIvbnuwt
3Qoo+l2iobH+05j6lU8rNH2FEnjvt+svWiPnnxXR+TeoO09LG4QgtSaCNwrsUsvt
hytE2DRe5e/q1/QZehOryYV6asvF5YtMGauNbDYdfgg=
-----END CERTIFICATE-----
