Certificate:
    Data:
        Version: 1 (0x0)
        Serial Number:
            9b:27:d7:e8:d1:ba:08:9e
        Signature Algorithm: md5WithRSAEncryption
        Issuer: C=DE, ST=Saarland, O=MPI-SWS, OU=Distributed Systems Group, CN=Andreas Haeberlen/emailAddress=democa@octarine.de
        Validity
            Not Before: Apr 20 20:47:05 2015 GMT
            Not After : Apr 19 20:47:05 2016 GMT
        Subject: C=DE, ST=Saarland, O=MPI-SWS, OU=Distributed Systems Group, CN=758248e00c41f06ff0ce5ab05c181f295bc93aa4/emailAddress=node0198@octarine.de
        Subject Public Key Info:
            Public Key Algorithm: rsaEncryption
            RSA Public Key: (1024 bit)
                Modulus (1024 bit):
                    00:b4:03:24:ba:68:62:16:9f:24:90:26:f8:43:79:
                    11:f2:ac:17:ab:7d:e6:bc:3e:d4:0c:2f:e1:1c:e1:
                    5c:f0:4e:15:70:f9:d3:fe:13:35:0e:8d:f2:9d:a0:
                    f7:f2:ff:70:4e:8a:eb:52:54:b2:5c:1c:b1:3e:85:
                    1f:44:a9:cb:ba:b9:e8:90:1c:29:e2:ac:5f:e6:c1:
                    0b:c7:3b:da:0f:a5:3e:46:db:41:29:a7:ed:dd:a5:
                    f2:45:b6:3e:42:9e:2f:7b:3f:0f:fe:bc:64:93:d0:
                    34:0d:01:b0:2b:b0:f4:08:3f:1c:19:59:d6:cb:d6:
                    fd:ea:a0:4a:ae:22:ed:c6:87
                Exponent: 65537 (0x10001)
    Signature Algorithm: md5WithRSAEncryption
        2a:4c:da:76:47:27:6c:f8:4b:9a:f5:c9:61:cc:28:48:25:55:
        33:18:9f:fc:f7:9c:75:ae:64:96:d4:c3:ce:4e:7f:d8:00:94:
        3f:6d:2a:fe:1c:3d:de:18:09:6f:46:f2:4b:3f:99:54:05:a7:
        49:20:83:82:44:23:43:37:32:8c:0d:a8:9f:a0:c7:f6:e2:c8:
        ef:ef:2c:54:26:ee:7e:54:6d:d6:be:c7:8e:ed:32:85:a4:d9:
        67:e7:fd:5f:74:7e:72:3f:fc:97:bb:d4:0d:c0:75:6e:0e:90:
        32:71:28:dc:e3:a9:39:fe:cd:a1:81:f5:2e:15:64:bb:15:9c:
        e3:26
-----BEGIN CERTIFICATE-----
MIICvDCCAiUCCQCbJ9fo0boInjANBgkqhkiG9w0BAQQFADCBlTELMAkGA1UEBhMC
REUxETAPBgNVBAgTCFNhYXJsYW5kMRAwDgYDVQQKEwdNUEktU1dTMSIwIAYDVQQL
ExlEaXN0cmlidXRlZCBTeXN0ZW1zIEdyb3VwMRowGAYDVQQDExFBbmRyZWFzIEhh
ZWJlcmxlbjEhMB8GCSqGSIb3DQEJARYSZGVtb2NhQG9jdGFyaW5lLmRlMB4XDTE1
MDQyMDIwNDcwNVoXDTE2MDQxOTIwNDcwNVowga4xCzAJBgNVBAYTAkRFMREwDwYD
VQQIEwhTYWFybGFuZDEQMA4GA1UEChMHTVBJLVNXUzEiMCAGA1UECxMZRGlzdHJp
YnV0ZWQgU3lzdGVtcyBHcm91cDExMC8GA1UEAxMoNzU4MjQ4ZTAwYzQxZjA2ZmYw
Y2U1YWIwNWMxODFmMjk1YmM5M2FhNDEjMCEGCSqGSIb3DQEJARYUbm9kZTAxOThA
b2N0YXJpbmUuZGUwgZ8wDQYJKoZIhvcNAQEBBQADgY0AMIGJAoGBALQDJLpoYhaf
JJAm+EN5EfKsF6t95rw+1Awv4RzhXPBOFXD50/4TNQ6N8p2g9/L/cE6K61JUslwc
sT6FH0Spy7q56JAcKeKsX+bBC8c72g+lPkbbQSmn7d2l8kW2PkKeL3s/D/68ZJPQ
NA0BsCuw9Ag/HBlZ1svW/eqgSq4i7caHAgMBAAEwDQYJKoZIhvcNAQEEBQADgYEA
KkzadkcnbPhLmvXJYcwoSCVVMxif/Pecda5kltTDzk5/2ACUP20q/hw93hgJb0by
Sz+ZVAWnSSCDgkQjQzcyjA2on6DH9uLI7+8sVCbuflRt1r7Hju0yhaTZZ+f9X3R+
cj/8l7vUDcB1bg6QMnEo3OOpOf7NoYH1LhVkuxWc4yY=
-----END CERTIFICATE-----
