Certificate:
    Data:
        Version: 1 (0x0)
        Serial Number:
            9b:27:d7:e8:d1:ba:09:27
        Signature Algorithm: md5WithRSAEncryption
        Issuer: C=DE, ST=Saarland, O=MPI-SWS, OU=Distributed Systems Group, CN=Andreas Haeberlen/emailAddress=democa@octarine.de
        Validity
            Not Before: Apr 20 20:47:11 2015 GMT
            Not After : Apr 19 20:47:11 2016 GMT
        Subject: C=DE, ST=Saarland, O=MPI-SWS, OU=Distributed Systems Group, CN=750b2a2f0efe0d03ced97d37df3dc843d5f0f200/emailAddress=node0335@octarine.de
        Subject Public Key Info:
            Public Key Algorithm: rsaEncryption
            RSA Public Key: (1024 bit)
                Modulus (1024 bit):
                    00:ae:1c:6b:0b:87:29:25:e8:62:41:ab:b0:4d:59:
                    23:b2:e4:c4:dc:57:09:cc:8c:88:2e:43:20:6c:a0:
                    8a:97:10:d8:a2:3e:b0:4b:26:54:c9:0e:e5:9c:25:
                    9e:44:8e:ee:6d:8a:e5:e6:a3:fa:f6:5c:f6:9c:cd:
                    56:27:36:58:d7:23:3a:f8:3b:0b:6b:f5:b1:02:0a:
                    71:ef:a9:bb:c3:00:e0:cd:3e:25:c7:38:3c:76:d2:
                    77:d5:45:b4:c8:fc:e0:f2:53:37:b8:0a:82:32:c7:
                    0c:c5:1f:48:98:e0:68:62:d5:22:54:cf:34:c4:01:
                    80:d7:08:75:24:36:7e:5a:e9
                Exponent: 65537 (0x10001)
    Signature Algorithm: md5WithRSAEncryption
        ba:2f:f9:e6:5a:71:94:e5:b1:67:ee:2a:b7:14:ed:ef:3d:7d:
        fc:e8:67:63:12:0d:a1:0d:30:f0:94:2a:6f:77:b4:3f:47:6b:
        c6:a3:49:4d:81:03:9a:be:12:ea:f3:57:6d:df:b9:b4:95:40:
        00:fa:46:f0:35:a3:e6:b6:9d:d6:15:e9:89:4f:6f:0f:8b:56:
        e0:7c:48:d0:ef:54:a0:8d:37:91:90:68:2f:d6:77:e9:d4:9a:
        10:90:09:89:02:54:43:8d:2e:db:9a:06:3c:c6:a3:f9:a4:f4:
        89:44:ed:b8:4a:8b:d3:8b:db:81:67:c6:b6:73:e7:a0:89:bf:
        21:75
-----BEGIN CERTIFICATE-----
MIICvDCCAiUCCQCbJ9fo0boJJzANBgkqhkiG9w0BAQQFADCBlTELMAkGA1UEBhMC
REUxETAPBgNVBAgTCFNhYXJsYW5kMRAwDgYDVQQKEwdNUEktU1dTMSIwIAYDVQQL
ExlEaXN0cmlidXRlZCBTeXN0ZW1zIEdyb3VwMRowGAYDVQQDExFBbmRyZWFzIEhh
ZWJlcmxlbjEhMB8GCSqGSIb3DQEJARYSZGVtb2NhQG9jdGFyaW5lLmRlMB4XDTE1
MDQyMDIwNDcxMVoXDTE2MDQxOTIwNDcxMVowga4xCzAJBgNVBAYTAkRFMREwDwYD
VQQIEwhTYWFybGFuZDEQMA4GA1UEChMHTVBJLVNXUzEiMCAGA1UECxMZRGlzdHJp
YnV0ZWQgU3lzdGVtcyBHcm91cDExMC8GA1UEAxMoNzUwYjJhMmYwZWZlMGQwM2Nl
ZDk3ZDM3ZGYzZGM4NDNkNWYwZjIwMDEjMCEGCSqGSIb3DQEJARYUbm9kZTAzMzVA
b2N0YXJpbmUuZGUwgZ8wDQYJKoZIhvcNAQEBBQADgY0AMIGJAoGBAK4cawuHKSXo
YkGrsE1ZI7LkxNxXCcyMiC5DIGygipcQ2KI+sEsmVMkO5ZwlnkSO7m2K5eaj+vZc
9pzNVic2WNcjOvg7C2v1sQIKce+pu8MA4M0+Jcc4PHbSd9VFtMj84PJTN7gKgjLH
DMUfSJjgaGLVIlTPNMQBgNcIdSQ2flrpAgMBAAEwDQYJKoZIhvcNAQEEBQADgYEA
ui/55lpxlOWxZ+4qtxTt7z19/OhnYxINoQ0w8JQqb3e0P0drxqNJTYEDmr4S6vNX
bd+5tJVAAPpG8DWj5rad1hXpiU9vD4tW4HxI0O9UoI03kZBoL9Z36dSaEJAJiQJU
Q40u25oGPMaj+aT0iUTtuEqL04vbgWfGtnPnoIm/IXU=
-----END CERTIFICATE-----
