Certificate:
    Data:
        Version: 1 (0x0)
        Serial Number:
            9b:27:d7:e8:d1:ba:0a:84
        Signature Algorithm: md5WithRSAEncryption
        Issuer: C=DE, ST=Saarland, O=MPI-SWS, OU=Distributed Systems Group, CN=Andreas Haeberlen/emailAddress=democa@octarine.de
        Validity
            Not Before: Apr 20 20:47:27 2015 GMT
            Not After : Apr 19 20:47:27 2016 GMT
        Subject: C=DE, ST=Saarland, O=MPI-SWS, OU=Distributed Systems Group, CN=3260b4586d660d81adc5a1893f4f32c7437f7d7e/emailAddress=node0684@octarine.de
        Subject Public Key Info:
            Public Key Algorithm: rsaEncryption
            RSA Public Key: (1024 bit)
                Modulus (1024 bit):
                    00:cc:d5:4f:2d:cc:2f:f9:a6:7b:a8:1f:93:aa:3e:
                    54:aa:3a:db:f9:e2:29:80:c4:b7:38:8c:1c:8d:2e:
                    a4:02:4f:a8:be:94:48:84:16:3b:88:00:1b:07:eb:
                    16:43:23:03:3a:39:2f:c0:99:70:3e:97:23:28:a2:
                    d3:72:2f:19:eb:f8:1f:09:2b:e2:bb:78:2f:0e:f9:
                    82:33:3e:e9:a7:40:23:5e:81:3f:a6:8d:17:5e:bf:
                    7c:97:40:67:88:ba:5d:4d:f6:ef:4d:40:7e:fc:5e:
                    87:09:5b:4a:c0:9b:3a:8d:59:aa:8a:b3:7b:a3:1c:
                    9c:55:83:e4:8a:86:fa:ef:27
                Exponent: 65537 (0x10001)
    Signature Algorithm: md5WithRSAEncryption
        37:95:16:7b:9d:86:e1:2a:be:06:14:69:3b:2b:b2:82:c7:e1:
        4a:f2:c1:b1:7b:b7:50:a1:08:e4:6c:0d:8c:21:7b:60:ec:2b:
        ab:18:5a:70:61:ac:69:13:9a:b5:d9:8e:52:ca:01:2b:8d:72:
        e6:2f:57:6a:ac:0a:99:a0:f3:ab:ce:02:25:2a:dd:a9:2c:30:
        cb:1f:6d:fc:ad:27:78:72:f3:f8:73:36:3d:47:36:f3:da:94:
        5c:36:b7:82:57:04:4b:87:6b:7f:91:ac:88:1c:c0:10:1e:30:
        f5:46:cd:fb:e7:bd:dd:68:76:3e:46:75:03:62:7f:dd:57:7b:
        71:cf
-----BEGIN CERTIFICATE-----
MIICvDCCAiUCCQCbJ9fo0boKhDANBgkqhkiG9w0BAQQFADCBlTELMAkGA1UEBhMC
REUxETAPBgNVBAgTCFNhYXJsYW5kMRAwDgYDVQQKEwdNUEktU1dTMSIwIAYDVQQL
ExlEaXN0cmlidXRlZCBTeXN0ZW1zIEdyb3VwMRowGAYDVQQDExFBbmRyZWFzIEhh
ZWJlcmxlbjEhMB8GCSqGSIb3DQEJARYSZGVtb2NhQG9jdGFyaW5lLmRlMB4XDTE1
MDQyMDIwNDcyN1oXDTE2MDQxOTIwNDcyN1owga4xCzAJBgNVBAYTAkRFMREwDwYD
VQQIEwhTYWFybGFuZDEQMA4GA1UEChMHTVBJLVNXUzEiMCAGA1UECxMZRGlzdHJp
YnV0ZWQgU3lzdGVtcyBHcm91cDExMC8GA1UEAxMoMzI2MGI0NTg2ZDY2MGQ4MWFk
YzVhMTg5M2Y0ZjMyYzc0MzdmN2Q3ZTEjMCEGCSqGSIb3DQEJARYUbm9kZTA2ODRA
b2N0YXJpbmUuZGUwgZ8wDQYJKoZIhvcNAQEBBQADgY0AMIGJAoGBAMzVTy3ML/mm
e6gfk6o+VKo62/niKYDEtziMHI0upAJPqL6USIQWO4gAGwfrFkMjAzo5L8CZcD6X
Iyii03IvGev4Hwkr4rt4Lw75gjM+6adAI16BP6aNF16/fJdAZ4i6XU32701Afvxe
hwlbSsCbOo1Zqoqze6McnFWD5IqG+u8nAgMBAAEwDQYJKoZIhvcNAQEEBQADgYEA
N5UWe52G4Sq+BhRpOyuygsfhSvLBsXu3UKEI5GwNjCF7YOwrqxhacGGsaROatdmO
UsoBK41y5i9XaqwKmaDzq84CJSrdqSwwyx9t/K0neHLz+HM2PUc289qUXDa3glcE
S4drf5GsiBzAEB4w9UbN++e93Wh2PkZ1A2J/3Vd7cc8=
-----END CERTIFICATE-----
