Certificate:
    Data:
        Version: 1 (0x0)
        Serial Number:
            9b:27:d7:e8:d1:ba:08:eb
        Signature Algorithm: md5WithRSAEncryption
        Issuer: C=DE, ST=Saarland, O=MPI-SWS, OU=Distributed Systems Group, CN=Andreas Haeberlen/emailAddress=democa@octarine.de
        Validity
            Not Before: Apr 20 20:47:09 2015 GMT
            Not After : Apr 19 20:47:09 2016 GMT
        Subject: C=DE, ST=Saarland, O=MPI-SWS, OU=Distributed Systems Group, CN=359148a19932c78cee360ad8949f41187aab35dc/emailAddress=node0275@octarine.de
        Subject Public Key Info:
            Public Key Algorithm: rsaEncryption
            RSA Public Key: (1024 bit)
                Modulus (1024 bit):
                    00:e5:9f:d9:5b:eb:e1:d5:99:dc:cf:91:a2:04:33:
                    3b:4b:08:b9:e0:49:f8:e8:dd:18:f0:e5:ea:d8:3a:
                    12:1a:84:cc:0c:2c:ce:81:c4:b9:fb:79:1a:88:1c:
                    70:69:e1:e8:87:b8:d7:4a:b7:25:57:aa:4e:d4:7e:
                    b8:ee:b9:e2:6b:e9:4e:41:40:6c:7b:42:0c:ae:24:
                    da:05:85:2c:6c:08:fa:b4:0e:9e:44:f0:11:af:6d:
                    ee:d7:3a:f3:80:b4:dc:97:38:f8:0c:dd:59:4d:11:
                    86:d9:36:a5:21:9d:c7:21:5f:89:14:e9:c8:16:f6:
                    03:8a:d3:79:b7:68:d6:c9:f9
                Exponent: 65537 (0x10001)
    Signature Algorithm: md5WithRSAEncryption
        73:98:83:15:e3:7c:bd:cd:b7:d9:84:2e:77:bc:11:6a:8c:e6:
        01:8f:39:7e:97:40:81:7f:56:c2:29:08:f2:65:0c:3c:8b:e4:
        c0:4f:9e:9a:a9:0f:e2:a7:7b:b3:78:93:b1:54:69:a6:78:63:
        74:b9:c5:ef:c9:26:40:ad:8f:c3:16:f2:9f:da:00:47:8c:4b:
        c3:cb:ae:31:32:0d:a5:da:d2:0e:39:39:d8:2c:e7:79:8e:cf:
        d7:09:2d:0b:86:31:ad:fe:a8:94:b3:cc:22:bb:48:25:ab:a7:
        17:55:bb:24:64:c0:0d:d5:9c:69:44:8c:f4:f1:48:34:93:fe:
        65:2e
-----BEGIN CERTIFICATE-----
MIICvDCCAiUCCQCbJ9fo0boI6zANBgkqhkiG9w0BAQQFADCBlTELMAkGA1UEBhMC
REUxETAPBgNVBAgTCFNhYXJsYW5kMRAwDgYDVQQKEwdNUEktU1dTMSIwIAYDVQQL
ExlEaXN0cmlidXRlZCBTeXN0ZW1zIEdyb3VwMRowGAYDVQQDExFBbmRyZWFzIEhh
ZWJlcmxlbjEhMB8GCSqGSIb3DQEJARYSZGVtb2NhQG9jdGFyaW5lLmRlMB4XDTE1
MDQyMDIwNDcwOVoXDTE2MDQxOTIwNDcwOVowga4xCzAJBgNVBAYTAkRFMREwDwYD
VQQIEwhTYWFybGFuZDEQMA4GA1UEChMHTVBJLVNXUzEiMCAGA1UECxMZRGlzdHJp
YnV0ZWQgU3lzdGVtcyBHcm91cDExMC8GA1UEAxMoMzU5MTQ4YTE5OTMyYzc4Y2Vl
MzYwYWQ4OTQ5ZjQxMTg3YWFiMzVkYzEjMCEGCSqGSIb3DQEJARYUbm9kZTAyNzVA
b2N0YXJpbmUuZGUwgZ8wDQYJKoZIhvcNAQEBBQADgY0AMIGJAoGBAOWf2Vvr4dWZ
3M+RogQzO0sIueBJ+OjdGPDl6tg6EhqEzAwszoHEuft5GogccGnh6Ie410q3JVeq
TtR+uO654mvpTkFAbHtCDK4k2gWFLGwI+rQOnkTwEa9t7tc684C03Jc4+AzdWU0R
htk2pSGdxyFfiRTpyBb2A4rTebdo1sn5AgMBAAEwDQYJKoZIhvcNAQEEBQADgYEA
c5iDFeN8vc232YQud7wRaozmAY85fpdAgX9WwikI8mUMPIvkwE+emqkP4qd7s3iT
sVRppnhjdLnF78kmQK2Pwxbyn9oAR4xLw8uuMTINpdrSDjk52CzneY7P1wktC4Yx
rf6olLPMIrtIJaunF1W7JGTADdWcaUSM9PFINJP+ZS4=
-----END CERTIFICATE-----
