Certificate:
    Data:
        Version: 1 (0x0)
        Serial Number:
            9b:27:d7:e8:d1:ba:08:13
        Signature Algorithm: md5WithRSAEncryption
        Issuer: C=DE, ST=Saarland, O=MPI-SWS, OU=Distributed Systems Group, CN=Andreas Haeberlen/emailAddress=democa@octarine.de
        Validity
            Not Before: Apr 20 20:46:59 2015 GMT
            Not After : Apr 19 20:46:59 2016 GMT
        Subject: C=DE, ST=Saarland, O=MPI-SWS, OU=Distributed Systems Group, CN=f7a63480bd414d89b0fdcd4eb4aa89d707e4b657/emailAddress=node0059@octarine.de
        Subject Public Key Info:
            Public Key Algorithm: rsaEncryption
            RSA Public Key: (1024 bit)
                Modulus (1024 bit):
                    00:bd:2e:29:a5:75:78:37:9e:ea:40:71:aa:f0:1b:
                    08:bb:da:41:78:55:fb:b9:ab:2f:4b:89:75:85:46:
                    4c:0f:ed:97:c0:96:c6:2d:bf:ea:0e:35:62:33:24:
                    95:e9:2a:b0:ed:39:a7:78:ed:1b:ca:5c:07:c0:dc:
                    d4:7f:7a:e3:ea:ec:5d:b2:54:0c:ed:0a:87:e1:7b:
                    b4:4a:33:5c:a4:8a:16:92:2a:ad:eb:ad:df:c2:21:
                    b3:2f:5e:51:4f:69:ee:af:41:1f:fc:39:2d:29:62:
                    92:81:d0:39:d7:e7:dd:83:99:69:1d:64:7d:48:d8:
                    5a:f8:34:78:60:a5:2c:80:65
                Exponent: 65537 (0x10001)
    Signature Algorithm: md5WithRSAEncryption
        a9:47:2f:06:16:04:42:47:5e:77:de:fe:1b:fe:12:66:46:95:
        c6:f1:a4:7f:43:87:93:44:49:3e:c2:b8:6c:c6:df:3f:fa:58:
        88:d8:df:42:a3:f0:93:e5:54:aa:7f:61:f4:bb:82:45:fb:84:
        39:a6:5c:50:52:58:69:1f:4d:62:e3:44:b9:85:92:26:74:2b:
        8e:5d:57:9d:83:93:c1:2b:a5:ed:55:15:b3:12:98:05:4b:c1:
        74:30:37:28:a3:1d:cd:66:f3:4b:24:d8:8d:f6:67:97:0a:d0:
        57:cc:77:22:36:0c:5d:a7:3b:db:07:05:8f:b6:3e:ce:a9:40:
        fd:9a
-----BEGIN CERTIFICATE-----
MIICvDCCAiUCCQCbJ9fo0boIEzANBgkqhkiG9w0BAQQFADCBlTELMAkGA1UEBhMC
REUxETAPBgNVBAgTCFNhYXJsYW5kMRAwDgYDVQQKEwdNUEktU1dTMSIwIAYDVQQL
ExlEaXN0cmlidXRlZCBTeXN0ZW1zIEdyb3VwMRowGAYDVQQDExFBbmRyZWFzIEhh
ZWJlcmxlbjEhMB8GCSqGSIb3DQEJARYSZGVtb2NhQG9jdGFyaW5lLmRlMB4XDTE1
MDQyMDIwNDY1OVoXDTE2MDQxOTIwNDY1OVowga4xCzAJBgNVBAYTAkRFMREwDwYD
VQQIEwhTYWFybGFuZDEQMA4GA1UEChMHTVBJLVNXUzEiMCAGA1UECxMZRGlzdHJp
YnV0ZWQgU3lzdGVtcyBHcm91cDExMC8GA1UEAxMoZjdhNjM0ODBiZDQxNGQ4OWIw
ZmRjZDRlYjRhYTg5ZDcwN2U0YjY1NzEjMCEGCSqGSIb3DQEJARYUbm9kZTAwNTlA
b2N0YXJpbmUuZGUwgZ8wDQYJKoZIhvcNAQEBBQADgY0AMIGJAoGBAL0uKaV1eDee
6kBxqvAbCLvaQXhV+7mrL0uJdYVGTA/tl8CWxi2/6g41YjMklekqsO05p3jtG8pc
B8Dc1H964+rsXbJUDO0Kh+F7tEozXKSKFpIqreut38Ihsy9eUU9p7q9BH/w5LSli
koHQOdfn3YOZaR1kfUjYWvg0eGClLIBlAgMBAAEwDQYJKoZIhvcNAQEEBQADgYEA
qUcvBhYEQkded97+G/4SZkaVxvGkf0OHk0RJPsK4bMbfP/pYiNjfQqPwk+VUqn9h
9LuCRfuEOaZcUFJYaR9NYuNEuYWSJnQrjl1XnYOTwSul7VUVsxKYBUvBdDA3KKMd
zWbzSyTYjfZnlwrQV8x3IjYMXac72wcFj7Y+zqlA/Zo=
-----END CERTIFICATE-----
