Certificate:
    Data:
        Version: 1 (0x0)
        Serial Number:
            9b:27:d7:e8:d1:ba:09:d9
        Signature Algorithm: md5WithRSAEncryption
        Issuer: C=DE, ST=Saarland, O=MPI-SWS, OU=Distributed Systems Group, CN=Andreas Haeberlen/emailAddress=democa@octarine.de
        Validity
            Not Before: Apr 20 20:47:19 2015 GMT
            Not After : Apr 19 20:47:19 2016 GMT
        Subject: C=DE, ST=Saarland, O=MPI-SWS, OU=Distributed Systems Group, CN=96c23fd0323be1b05192abec2e43398c05e35c48/emailAddress=node0513@octarine.de
        Subject Public Key Info:
            Public Key Algorithm: rsaEncryption
            RSA Public Key: (1024 bit)
                Modulus (1024 bit):
                    00:b5:45:e1:44:8e:1b:0f:91:1c:86:f1:7f:57:52:
                    15:f8:ae:07:a9:e1:9b:83:25:10:aa:0c:4f:58:9b:
                    35:70:3b:2a:9d:f3:0a:cf:8a:f3:9a:eb:03:91:b5:
                    34:38:97:11:e7:ab:6c:ea:59:cc:ad:0e:c2:c3:3d:
                    e8:c5:f7:e5:88:e8:23:27:d1:6c:0d:2e:4a:fa:3c:
                    38:c1:93:34:aa:fb:fe:9f:a8:53:2c:47:32:33:e8:
                    9f:21:20:6b:59:a2:c9:78:49:5d:b2:87:2d:a3:14:
                    17:da:0e:e6:74:28:9d:a7:d9:03:96:c7:12:f0:4b:
                    e0:e5:06:cb:f7:b6:25:e5:77
                Exponent: 65537 (0x10001)
    Signature Algorithm: md5WithRSAEncryption
        93:2f:fe:a4:63:ce:b2:b3:91:b5:28:03:fa:47:14:80:4d:63:
        53:c9:a9:d9:c3:84:78:17:da:c3:66:d5:af:98:9c:c5:a6:1c:
        77:94:69:98:ba:8c:24:6c:72:6e:85:89:ed:b6:6c:9d:55:74:
        c7:86:b7:7c:61:df:67:1b:e3:30:84:6d:1a:e9:9c:85:76:c1:
        ce:36:68:9f:1a:21:ee:5c:55:d2:20:49:30:6e:b5:00:53:78:
        14:12:b2:72:29:5c:d7:84:af:19:25:71:cc:f0:32:8c:af:b8:
        eb:d0:54:2f:1c:ce:4a:85:4a:74:76:f7:ef:95:3f:e3:f4:4e:
        f5:ce
-----BEGIN CERTIFICATE-----
MIICvDCCAiUCCQCbJ9fo0boJ2TANBgkqhkiG9w0BAQQFADCBlTELMAkGA1UEBhMC
REUxETAPBgNVBAgTCFNhYXJsYW5kMRAwDgYDVQQKEwdNUEktU1dTMSIwIAYDVQQL
ExlEaXN0cmlidXRlZCBTeXN0ZW1zIEdyb3VwMRowGAYDVQQDExFBbmRyZWFzIEhh
ZWJlcmxlbjEhMB8GCSqGSIb3DQEJARYSZGVtb2NhQG9jdGFyaW5lLmRlMB4XDTE1
MDQyMDIwNDcxOVoXDTE2MDQxOTIwNDcxOVowga4xCzAJBgNVBAYTAkRFMREwDwYD
VQQIEwhTYWFybGFuZDEQMA4GA1UEChMHTVBJLVNXUzEiMCAGA1UECxMZRGlzdHJp
YnV0ZWQgU3lzdGVtcyBHcm91cDExMC8GA1UEAxMoOTZjMjNmZDAzMjNiZTFiMDUx
OTJhYmVjMmU0MzM5OGMwNWUzNWM0ODEjMCEGCSqGSIb3DQEJARYUbm9kZTA1MTNA
b2N0YXJpbmUuZGUwgZ8wDQYJKoZIhvcNAQEBBQADgY0AMIGJAoGBALVF4USOGw+R
HIbxf1dSFfiuB6nhm4MlEKoMT1ibNXA7Kp3zCs+K85rrA5G1NDiXEeerbOpZzK0O
wsM96MX35YjoIyfRbA0uSvo8OMGTNKr7/p+oUyxHMjPonyEga1miyXhJXbKHLaMU
F9oO5nQonafZA5bHEvBL4OUGy/e2JeV3AgMBAAEwDQYJKoZIhvcNAQEEBQADgYEA
ky/+pGPOsrORtSgD+kcUgE1jU8mp2cOEeBfaw2bVr5icxaYcd5RpmLqMJGxyboWJ
7bZsnVV0x4a3fGHfZxvjMIRtGumchXbBzjZonxoh7lxV0iBJMG61AFN4FBKycilc
14SvGSVxzPAyjK+469BULxzOSoVKdHb375U/4/RO9c4=
-----END CERTIFICATE-----
