Certificate:
    Data:
        Version: 1 (0x0)
        Serial Number:
            9b:27:d7:e8:d1:ba:09:dc
        Signature Algorithm: md5WithRSAEncryption
        Issuer: C=DE, ST=Saarland, O=MPI-SWS, OU=Distributed Systems Group, CN=Andreas Haeberlen/emailAddress=democa@octarine.de
        Validity
            Not Before: Apr 20 20:47:19 2015 GMT
            Not After : Apr 19 20:47:19 2016 GMT
        Subject: C=DE, ST=Saarland, O=MPI-SWS, OU=Distributed Systems Group, CN=1fc6c5369d8cd366538c041f58047fe9fb0c042a/emailAddress=node0516@octarine.de
        Subject Public Key Info:
            Public Key Algorithm: rsaEncryption
            RSA Public Key: (1024 bit)
                Modulus (1024 bit):
                    00:da:f9:e8:15:9b:63:b9:f2:da:d5:7a:61:38:fe:
                    77:98:bd:a0:cc:06:b4:a2:b3:07:17:56:45:2b:f5:
                    db:83:d3:3c:0f:88:b7:60:d9:c7:bf:58:82:60:17:
                    fd:45:70:1e:7c:33:98:e8:9d:ba:81:11:d4:a2:ba:
                    58:1e:50:aa:cf:9c:41:a5:1c:0c:92:47:a8:dc:91:
                    98:f3:68:28:ab:2f:95:af:1a:9c:ae:4a:28:8a:67:
                    5d:13:70:cd:f5:dd:ce:19:6e:f8:1b:08:1b:70:22:
                    56:3c:6d:df:68:88:70:ab:c7:12:bd:01:e4:de:1e:
                    a1:ec:3d:7d:bf:47:eb:d7:ad
                Exponent: 65537 (0x10001)
    Signature Algorithm: md5WithRSAEncryption
        21:8a:c0:d6:8e:00:c6:23:fd:c5:d5:51:11:75:20:78:6c:df:
        85:23:39:50:11:4b:37:d5:9b:0a:de:8a:c9:42:85:75:e0:63:
        a9:dc:f4:f3:4d:e0:fa:f9:d7:f5:e7:0d:f3:cc:34:3b:43:93:
        a9:65:7e:19:18:10:82:07:df:68:f1:53:3d:ca:08:25:60:6a:
        f5:64:84:a0:f3:be:0c:20:f8:2c:71:0c:5b:80:82:4a:b2:3d:
        e6:ca:15:56:de:0a:01:38:3b:e9:1b:74:be:b1:1d:17:9f:63:
        c4:e8:81:9c:db:82:a5:26:ef:24:94:6e:5a:cc:6c:46:71:a8:
        3a:95
-----BEGIN CERTIFICATE-----
MIICvDCCAiUCCQCbJ9fo0boJ3DANBgkqhkiG9w0BAQQFADCBlTELMAkGA1UEBhMC
REUxETAPBgNVBAgTCFNhYXJsYW5kMRAwDgYDVQQKEwdNUEktU1dTMSIwIAYDVQQL
ExlEaXN0cmlidXRlZCBTeXN0ZW1zIEdyb3VwMRowGAYDVQQDExFBbmRyZWFzIEhh
ZWJlcmxlbjEhMB8GCSqGSIb3DQEJARYSZGVtb2NhQG9jdGFyaW5lLmRlMB4XDTE1
MDQyMDIwNDcxOVoXDTE2MDQxOTIwNDcxOVowga4xCzAJBgNVBAYTAkRFMREwDwYD
VQQIEwhTYWFybGFuZDEQMA4GA1UEChMHTVBJLVNXUzEiMCAGA1UECxMZRGlzdHJp
YnV0ZWQgU3lzdGVtcyBHcm91cDExMC8GA1UEAxMoMWZjNmM1MzY5ZDhjZDM2NjUz
OGMwNDFmNTgwNDdmZTlmYjBjMDQyYTEjMCEGCSqGSIb3DQEJARYUbm9kZTA1MTZA
b2N0YXJpbmUuZGUwgZ8wDQYJKoZIhvcNAQEBBQADgY0AMIGJAoGBANr56BWbY7ny
2tV6YTj+d5i9oMwGtKKzBxdWRSv124PTPA+It2DZx79YgmAX/UVwHnwzmOiduoER
1KK6WB5Qqs+cQaUcDJJHqNyRmPNoKKsvla8anK5KKIpnXRNwzfXdzhlu+BsIG3Ai
Vjxt32iIcKvHEr0B5N4eoew9fb9H69etAgMBAAEwDQYJKoZIhvcNAQEEBQADgYEA
IYrA1o4AxiP9xdVREXUgeGzfhSM5UBFLN9WbCt6KyUKFdeBjqdz0803g+vnX9ecN
88w0O0OTqWV+GRgQggffaPFTPcoIJWBq9WSEoPO+DCD4LHEMW4CCSrI95soVVt4K
ATg76Rt0vrEdF59jxOiBnNuCpSbvJJRuWsxsRnGoOpU=
-----END CERTIFICATE-----
