Certificate:
    Data:
        Version: 1 (0x0)
        Serial Number:
            9b:27:d7:e8:d1:ba:09:24
        Signature Algorithm: md5WithRSAEncryption
        Issuer: C=DE, ST=Saarland, O=MPI-SWS, OU=Distributed Systems Group, CN=Andreas Haeberlen/emailAddress=democa@octarine.de
        Validity
            Not Before: Apr 20 20:47:11 2015 GMT
            Not After : Apr 19 20:47:11 2016 GMT
        Subject: C=DE, ST=Saarland, O=MPI-SWS, OU=Distributed Systems Group, CN=e55ffbbeeb2847becad999846bbb7815d75c20a1/emailAddress=node0332@octarine.de
        Subject Public Key Info:
            Public Key Algorithm: rsaEncryption
            RSA Public Key: (1024 bit)
                Modulus (1024 bit):
                    00:f1:ca:dc:a2:73:00:09:2c:a8:58:fa:89:a2:3c:
                    6d:4e:4a:a1:7b:54:dd:0d:da:b1:c1:fb:f7:20:13:
                    c0:a2:2a:81:58:8b:02:12:ee:21:59:05:46:1a:6a:
                    63:22:e9:fa:c6:39:46:f1:d5:34:e7:3a:00:0e:dd:
                    77:7a:1a:b0:78:6a:26:0d:19:05:4d:10:41:4e:2d:
                    e6:02:d7:5c:c1:8d:f7:3f:a0:60:d3:c1:e0:f0:3a:
                    85:2d:42:3d:98:cf:88:2c:b2:6c:a1:18:f0:ab:77:
                    8e:21:98:d9:0b:83:ca:bc:e5:4b:f5:8f:cd:da:cb:
                    0a:5c:e4:9b:73:1c:e8:21:0d
                Exponent: 65537 (0x10001)
    Signature Algorithm: md5WithRSAEncryption
        61:6a:c1:f1:6c:31:d9:a0:27:3e:17:5b:23:55:a2:c1:be:12:
        ec:8b:28:fe:3c:ae:74:e3:af:06:dc:2f:5f:51:8c:c5:fc:ad:
        6c:de:c0:71:d8:4e:db:62:36:12:d6:c8:c2:da:2e:b0:bd:38:
        ae:f6:d5:45:fa:13:51:e6:57:5d:ac:de:fd:c9:a6:b5:65:ce:
        d0:10:4c:da:9a:7d:33:bc:a4:f9:b3:33:79:d1:11:b2:b8:b7:
        7b:d2:ec:1d:bf:b7:55:eb:67:63:1c:9c:3d:9f:c3:3c:c2:ae:
        b7:18:e1:f7:13:19:03:4b:43:0f:24:de:26:86:3d:c0:69:87:
        75:f6
-----BEGIN CERTIFICATE-----
MIICvDCCAiUCCQCbJ9fo0boJJDANBgkqhkiG9w0BAQQFADCBlTELMAkGA1UEBhMC
REUxETAPBgNVBAgTCFNhYXJsYW5kMRAwDgYDVQQKEwdNUEktU1dTMSIwIAYDVQQL
ExlEaXN0cmlidXRlZCBTeXN0ZW1zIEdyb3VwMRowGAYDVQQDExFBbmRyZWFzIEhh
ZWJlcmxlbjEhMB8GCSqGSIb3DQEJARYSZGVtb2NhQG9jdGFyaW5lLmRlMB4XDTE1
MDQyMDIwNDcxMVoXDTE2MDQxOTIwNDcxMVowga4xCzAJBgNVBAYTAkRFMREwDwYD
VQQIEwhTYWFybGFuZDEQMA4GA1UEChMHTVBJLVNXUzEiMCAGA1UECxMZRGlzdHJp
YnV0ZWQgU3lzdGVtcyBHcm91cDExMC8GA1UEAxMoZTU1ZmZiYmVlYjI4NDdiZWNh
ZDk5OTg0NmJiYjc4MTVkNzVjMjBhMTEjMCEGCSqGSIb3DQEJARYUbm9kZTAzMzJA
b2N0YXJpbmUuZGUwgZ8wDQYJKoZIhvcNAQEBBQADgY0AMIGJAoGBAPHK3KJzAAks
qFj6iaI8bU5KoXtU3Q3ascH79yATwKIqgViLAhLuIVkFRhpqYyLp+sY5RvHVNOc6
AA7dd3oasHhqJg0ZBU0QQU4t5gLXXMGN9z+gYNPB4PA6hS1CPZjPiCyybKEY8Kt3
jiGY2QuDyrzlS/WPzdrLClzkm3Mc6CENAgMBAAEwDQYJKoZIhvcNAQEEBQADgYEA
YWrB8Wwx2aAnPhdbI1Wiwb4S7Iso/jyudOOvBtwvX1GMxfytbN7AcdhO22I2EtbI
wtousL04rvbVRfoTUeZXXaze/cmmtWXO0BBM2pp9M7yk+bMzedERsri3e9LsHb+3
VetnYxycPZ/DPMKutxjh9xMZA0tDDyTeJoY9wGmHdfY=
-----END CERTIFICATE-----
