Certificate:
    Data:
        Version: 1 (0x0)
        Serial Number:
            9b:27:d7:e8:d1:ba:0b:4b
        Signature Algorithm: md5WithRSAEncryption
        Issuer: C=DE, ST=Saarland, O=MPI-SWS, OU=Distributed Systems Group, CN=Andreas Haeberlen/emailAddress=democa@octarine.de
        Validity
            Not Before: Apr 20 20:47:36 2015 GMT
            Not After : Apr 19 20:47:36 2016 GMT
        Subject: C=DE, ST=Saarland, O=MPI-SWS, OU=Distributed Systems Group, CN=795fd4ca9982e01498f149e361cad0649b460019/emailAddress=node0883@octarine.de
        Subject Public Key Info:
            Public Key Algorithm: rsaEncryption
            RSA Public Key: (1024 bit)
                Modulus (1024 bit):
                    00:b9:40:51:d4:42:ae:5f:7b:89:b9:5b:e9:5f:31:
                    d2:82:48:ce:e7:59:5d:b7:ae:70:21:3e:0c:9a:1c:
                    7b:ce:1b:6a:fe:87:1e:93:60:f2:1e:93:14:0f:60:
                    58:bc:54:6d:24:19:19:49:d4:70:76:96:85:6e:34:
                    71:0a:56:af:71:02:1c:cf:28:4c:72:d1:37:d7:01:
                    96:bb:50:7c:90:a7:e1:21:66:6c:35:f7:28:64:87:
                    7f:e4:13:6b:ac:2a:8e:e9:52:4b:de:0b:89:a1:58:
                    39:b6:df:9b:f9:c0:3b:ef:56:b5:b9:e1:d9:b1:78:
                    ab:df:a8:71:43:ca:d2:ec:29
                Exponent: 65537 (0x10001)
    Signature Algorithm: md5WithRSAEncryption
        4a:6a:11:61:dc:a7:dc:81:e1:c3:da:90:a1:e9:11:87:94:d3:
        55:fe:97:bf:5c:98:99:f5:64:80:51:ee:b9:f0:ae:a8:e1:e3:
        31:35:f3:6a:b6:16:af:a6:ef:59:75:14:ac:70:af:56:3e:f7:
        1d:fa:14:af:5f:e0:0a:aa:ee:97:53:71:35:6c:e5:d8:d0:47:
        2b:f2:66:de:be:e5:22:53:7a:15:95:c5:79:45:a6:16:84:3b:
        f3:a1:eb:38:8e:17:2f:2a:dc:49:f8:bf:1c:95:96:f5:6d:5d:
        2b:6c:0c:e9:52:0b:dd:cc:29:48:5d:d5:7b:a4:7f:8c:f7:ca:
        2f:d9
-----BEGIN CERTIFICATE-----
MIICvDCCAiUCCQCbJ9fo0boLSzANBgkqhkiG9w0BAQQFADCBlTELMAkGA1UEBhMC
REUxETAPBgNVBAgTCFNhYXJsYW5kMRAwDgYDVQQKEwdNUEktU1dTMSIwIAYDVQQL
ExlEaXN0cmlidXRlZCBTeXN0ZW1zIEdyb3VwMRowGAYDVQQDExFBbmRyZWFzIEhh
ZWJlcmxlbjEhMB8GCSqGSIb3DQEJARYSZGVtb2NhQG9jdGFyaW5lLmRlMB4XDTE1
MDQyMDIwNDczNloXDTE2MDQxOTIwNDczNlowga4xCzAJBgNVBAYTAkRFMREwDwYD
VQQIEwhTYWFybGFuZDEQMA4GA1UEChMHTVBJLVNXUzEiMCAGA1UECxMZRGlzdHJp
YnV0ZWQgU3lzdGVtcyBHcm91cDExMC8GA1UEAxMoNzk1ZmQ0Y2E5OTgyZTAxNDk4
ZjE0OWUzNjFjYWQwNjQ5YjQ2MDAxOTEjMCEGCSqGSIb3DQEJARYUbm9kZTA4ODNA
b2N0YXJpbmUuZGUwgZ8wDQYJKoZIhvcNAQEBBQADgY0AMIGJAoGBALlAUdRCrl97
iblb6V8x0oJIzudZXbeucCE+DJoce84bav6HHpNg8h6TFA9gWLxUbSQZGUnUcHaW
hW40cQpWr3ECHM8oTHLRN9cBlrtQfJCn4SFmbDX3KGSHf+QTa6wqjulSS94LiaFY
Obbfm/nAO+9Wtbnh2bF4q9+ocUPK0uwpAgMBAAEwDQYJKoZIhvcNAQEEBQADgYEA
SmoRYdyn3IHhw9qQoekRh5TTVf6Xv1yYmfVkgFHuufCuqOHjMTXzarYWr6bvWXUU
rHCvVj73HfoUr1/gCqrul1NxNWzl2NBHK/Jm3r7lIlN6FZXFeUWmFoQ786HrOI4X
LyrcSfi/HJWW9W1dK2wM6VIL3cwpSF3Ve6R/jPfKL9k=
-----END CERTIFICATE-----
