Certificate:
    Data:
        Version: 1 (0x0)
        Serial Number:
            9b:27:d7:e8:d1:ba:08:cc
        Signature Algorithm: md5WithRSAEncryption
        Issuer: C=DE, ST=Saarland, O=MPI-SWS, OU=Distributed Systems Group, CN=Andreas Haeberlen/emailAddress=democa@octarine.de
        Validity
            Not Before: Apr 20 20:47:07 2015 GMT
            Not After : Apr 19 20:47:07 2016 GMT
        Subject: C=DE, ST=Saarland, O=MPI-SWS, OU=Distributed Systems Group, CN=811b5f13610d3e18c14a1cd5bb3cc825a40f322a/emailAddress=node0244@octarine.de
        Subject Public Key Info:
            Public Key Algorithm: rsaEncryption
            RSA Public Key: (1024 bit)
                Modulus (1024 bit):
                    00:d2:54:91:11:28:44:da:d1:f1:4e:22:bb:37:28:
                    66:85:25:2a:18:92:ac:1d:6c:af:ab:fa:c6:9a:df:
                    8c:96:e2:05:21:14:53:5b:ac:01:33:f4:69:88:18:
                    39:0e:c7:24:68:f4:97:a9:5a:52:f1:80:6c:d7:db:
                    87:51:1d:6b:2a:d8:6d:88:2b:97:a1:fb:bf:0b:94:
                    41:e2:b8:f9:d2:86:65:8f:07:56:68:35:e4:02:d8:
                    6d:1d:39:12:72:b7:15:51:ec:bb:06:0b:2a:49:63:
                    9e:41:e4:31:43:3d:e0:6d:c4:38:25:c9:20:f6:c1:
                    cf:94:db:84:5e:04:44:e9:25
                Exponent: 65537 (0x10001)
    Signature Algorithm: md5WithRSAEncryption
        6b:e6:6e:ab:7d:06:7f:ad:a0:e5:4a:d6:f6:87:7e:6e:01:84:
        86:7d:d5:46:43:b6:2c:ae:f8:c5:43:92:11:fa:a1:21:f0:02:
        c6:99:e3:6a:d1:7a:46:20:fc:b4:be:73:65:c7:c9:30:78:ec:
        68:0a:95:75:3b:63:a6:52:d5:b1:d5:c2:bc:55:3f:39:29:d2:
        3d:13:0b:80:dd:6f:d3:43:0d:70:84:71:60:ad:b2:7d:15:94:
        6c:33:d0:1b:33:af:33:16:00:de:9b:a0:b2:0f:f4:98:a0:ad:
        12:18:24:e8:a5:40:b4:76:e1:9b:ad:d9:11:23:03:ef:18:99:
        c9:04
-----BEGIN CERTIFICATE-----
MIICvDCCAiUCCQCbJ9fo0boIzDANBgkqhkiG9w0BAQQFADCBlTELMAkGA1UEBhMC
REUxETAPBgNVBAgTCFNhYXJsYW5kMRAwDgYDVQQKEwdNUEktU1dTMSIwIAYDVQQL
ExlEaXN0cmlidXRlZCBTeXN0ZW1zIEdyb3VwMRowGAYDVQQDExFBbmRyZWFzIEhh
ZWJlcmxlbjEhMB8GCSqGSIb3DQEJARYSZGVtb2NhQG9jdGFyaW5lLmRlMB4XDTE1
MDQyMDIwNDcwN1oXDTE2MDQxOTIwNDcwN1owga4xCzAJBgNVBAYTAkRFMREwDwYD
VQQIEwhTYWFybGFuZDEQMA4GA1UEChMHTVBJLVNXUzEiMCAGA1UECxMZRGlzdHJp
YnV0ZWQgU3lzdGVtcyBHcm91cDExMC8GA1UEAxMoODExYjVmMTM2MTBkM2UxOGMx
NGExY2Q1YmIzY2M4MjVhNDBmMzIyYTEjMCEGCSqGSIb3DQEJARYUbm9kZTAyNDRA
b2N0YXJpbmUuZGUwgZ8wDQYJKoZIhvcNAQEBBQADgY0AMIGJAoGBANJUkREoRNrR
8U4iuzcoZoUlKhiSrB1sr6v6xprfjJbiBSEUU1usATP0aYgYOQ7HJGj0l6laUvGA
bNfbh1EdayrYbYgrl6H7vwuUQeK4+dKGZY8HVmg15ALYbR05EnK3FVHsuwYLKklj
nkHkMUM94G3EOCXJIPbBz5TbhF4EROklAgMBAAEwDQYJKoZIhvcNAQEEBQADgYEA
a+Zuq30Gf62g5UrW9od+bgGEhn3VRkO2LK74xUOSEfqhIfACxpnjatF6RiD8tL5z
ZcfJMHjsaAqVdTtjplLVsdXCvFU/OSnSPRMLgN1v00MNcIRxYK2yfRWUbDPQGzOv
MxYA3pugsg/0mKCtEhgk6KVAtHbhm63ZESMD7xiZyQQ=
-----END CERTIFICATE-----
