Certificate:
    Data:
        Version: 1 (0x0)
        Serial Number:
            9b:27:d7:e8:d1:ba:0b:88
        Signature Algorithm: md5WithRSAEncryption
        Issuer: C=DE, ST=Saarland, O=MPI-SWS, OU=Distributed Systems Group, CN=Andreas Haeberlen/emailAddress=democa@octarine.de
        Validity
            Not Before: Apr 20 20:47:39 2015 GMT
            Not After : Apr 19 20:47:39 2016 GMT
        Subject: C=DE, ST=Saarland, O=MPI-SWS, OU=Distributed Systems Group, CN=fe74fe075b8524d675c9c1854b12f85f7c36a4ef/emailAddress=node0944@octarine.de
        Subject Public Key Info:
            Public Key Algorithm: rsaEncryption
            RSA Public Key: (1024 bit)
                Modulus (1024 bit):
                    00:cd:c0:0a:9c:a2:07:ee:ad:df:6e:c9:65:3f:e9:
                    1a:58:75:9b:8a:e5:8a:33:45:3a:d0:7a:cb:4f:49:
                    06:67:dd:36:6f:d3:fa:d5:f2:a7:98:47:0d:62:ca:
                    4e:24:5b:59:e8:ad:14:63:a4:51:54:8b:e5:91:ad:
                    62:54:cd:35:d7:f9:7c:19:28:89:b7:3c:82:3b:96:
                    c4:e0:ca:2f:b6:5d:64:c0:35:6e:bc:13:8f:a6:66:
                    94:56:3f:a1:8f:34:c5:a9:74:43:26:59:75:b6:10:
                    58:9b:a0:4f:98:71:53:4f:f2:02:d0:a5:a5:75:3c:
                    d6:cb:b4:eb:a5:51:bc:a5:11
                Exponent: 65537 (0x10001)
    Signature Algorithm: md5WithRSAEncryption
        3d:f1:6e:39:bb:a1:da:dd:fa:83:c3:72:c0:ad:34:a0:57:b0:
        24:12:2b:b7:0e:f0:a3:cf:27:d7:2f:0d:90:40:d5:70:f3:a7:
        75:83:2d:4a:69:4a:67:b7:59:2b:36:44:57:19:1c:5b:4f:f8:
        66:21:bc:aa:35:be:96:30:c6:ab:b8:07:41:f2:a3:5a:23:ba:
        06:6d:ae:56:19:30:7d:38:38:44:64:7b:0d:b8:4b:4f:d8:02:
        2e:68:77:8c:e3:39:b6:9e:f3:64:90:03:01:8f:9d:70:85:bf:
        5c:4f:7a:dd:28:51:88:51:a3:58:bf:d2:cc:bc:64:b5:31:80:
        2b:8e
-----BEGIN CERTIFICATE-----
MIICvDCCAiUCCQCbJ9fo0boLiDANBgkqhkiG9w0BAQQFADCBlTELMAkGA1UEBhMC
REUxETAPBgNVBAgTCFNhYXJsYW5kMRAwDgYDVQQKEwdNUEktU1dTMSIwIAYDVQQL
ExlEaXN0cmlidXRlZCBTeXN0ZW1zIEdyb3VwMRowGAYDVQQDExFBbmRyZWFzIEhh
ZWJlcmxlbjEhMB8GCSqGSIb3DQEJARYSZGVtb2NhQG9jdGFyaW5lLmRlMB4XDTE1
MDQyMDIwNDczOVoXDTE2MDQxOTIwNDczOVowga4xCzAJBgNVBAYTAkRFMREwDwYD
VQQIEwhTYWFybGFuZDEQMA4GA1UEChMHTVBJLVNXUzEiMCAGA1UECxMZRGlzdHJp
YnV0ZWQgU3lzdGVtcyBHcm91cDExMC8GA1UEAxMoZmU3NGZlMDc1Yjg1MjRkNjc1
YzljMTg1NGIxMmY4NWY3YzM2YTRlZjEjMCEGCSqGSIb3DQEJARYUbm9kZTA5NDRA
b2N0YXJpbmUuZGUwgZ8wDQYJKoZIhvcNAQEBBQADgY0AMIGJAoGBAM3ACpyiB+6t
327JZT/pGlh1m4rlijNFOtB6y09JBmfdNm/T+tXyp5hHDWLKTiRbWeitFGOkUVSL
5ZGtYlTNNdf5fBkoibc8gjuWxODKL7ZdZMA1brwTj6ZmlFY/oY80xal0QyZZdbYQ
WJugT5hxU0/yAtClpXU81su066VRvKURAgMBAAEwDQYJKoZIhvcNAQEEBQADgYEA
PfFuObuh2t36g8NywK00oFewJBIrtw7wo88n1y8NkEDVcPOndYMtSmlKZ7dZKzZE
VxkcW0/4ZiG8qjW+ljDGq7gHQfKjWiO6Bm2uVhkwfTg4RGR7DbhLT9gCLmh3jOM5
tp7zZJADAY+dcIW/XE963ShRiFGjWL/SzLxktTGAK44=
-----END CERTIFICATE-----
