Certificate:
    Data:
        Version: 1 (0x0)
        Serial Number:
            9b:27:d7:e8:d1:ba:0a:9d
        Signature Algorithm: md5WithRSAEncryption
        Issuer: C=DE, ST=Saarland, O=MPI-SWS, OU=Distributed Systems Group, CN=Andreas Haeberlen/emailAddress=democa@octarine.de
        Validity
            Not Before: Apr 20 20:47:28 2015 GMT
            Not After : Apr 19 20:47:28 2016 GMT
        Subject: C=DE, ST=Saarland, O=MPI-SWS, OU=Distributed Systems Group, CN=5dd1ba50788a8ff0643711c495b01256038cddc5/emailAddress=node0709@octarine.de
        Subject Public Key Info:
            Public Key Algorithm: rsaEncryption
            RSA Public Key: (1024 bit)
                Modulus (1024 bit):
                    00:c3:f5:85:61:63:76:be:8f:e7:7d:87:d8:0b:66:
                    ef:3e:bb:c2:c9:0d:eb:43:00:8e:2a:87:80:a8:ea:
                    4f:54:7e:df:13:d5:b1:49:83:18:8f:aa:0f:c4:a3:
                    8c:ef:0f:fc:f3:d0:a5:75:73:f0:68:aa:f2:3d:4b:
                    f4:c6:d5:04:9a:c1:fb:55:45:0e:37:0d:2e:e0:e5:
                    fe:a5:b8:98:66:9b:4a:5e:08:7e:11:c7:da:2c:c2:
                    7b:5b:d3:c6:db:19:69:06:05:66:fa:f4:61:47:75:
                    00:2f:0a:45:31:bd:53:16:a8:1a:bd:39:40:db:35:
                    bc:74:fb:f4:2b:1e:f0:c2:39
                Exponent: 65537 (0x10001)
    Signature Algorithm: md5WithRSAEncryption
        5b:9f:0d:c7:f2:13:61:0e:e8:f2:a1:d4:c3:8f:f1:ce:d4:f7:
        8f:4d:a7:df:1c:cb:46:28:39:97:3c:74:72:9d:a2:c5:03:cc:
        d7:07:4f:26:88:c2:7c:cf:ae:92:32:52:9b:4b:64:63:93:aa:
        fc:aa:ef:ed:ad:3e:36:0e:df:3c:19:1b:a7:ae:aa:dd:14:98:
        78:1f:e6:08:63:ad:56:ca:27:89:14:4e:65:a0:60:77:79:8e:
        b6:df:60:ea:c5:59:bc:cf:9f:4b:a7:63:91:61:71:9a:f3:b0:
        fd:9d:f3:c5:b9:49:2f:06:12:30:89:00:4f:a7:14:35:00:dd:
        ce:f8
-----BEGIN CERTIFICATE-----
MIICvDCCAiUCCQCbJ9fo0boKnTANBgkqhkiG9w0BAQQFADCBlTELMAkGA1UEBhMC
REUxETAPBgNVBAgTCFNhYXJsYW5kMRAwDgYDVQQKEwdNUEktU1dTMSIwIAYDVQQL
ExlEaXN0cmlidXRlZCBTeXN0ZW1zIEdyb3VwMRowGAYDVQQDExFBbmRyZWFzIEhh
ZWJlcmxlbjEhMB8GCSqGSIb3DQEJARYSZGVtb2NhQG9jdGFyaW5lLmRlMB4XDTE1
MDQyMDIwNDcyOFoXDTE2MDQxOTIwNDcyOFowga4xCzAJBgNVBAYTAkRFMREwDwYD
VQQIEwhTYWFybGFuZDEQMA4GA1UEChMHTVBJLVNXUzEiMCAGA1UECxMZRGlzdHJp
YnV0ZWQgU3lzdGVtcyBHcm91cDExMC8GA1UEAxMoNWRkMWJhNTA3ODhhOGZmMDY0
MzcxMWM0OTViMDEyNTYwMzhjZGRjNTEjMCEGCSqGSIb3DQEJARYUbm9kZTA3MDlA
b2N0YXJpbmUuZGUwgZ8wDQYJKoZIhvcNAQEBBQADgY0AMIGJAoGBAMP1hWFjdr6P
532H2Atm7z67wskN60MAjiqHgKjqT1R+3xPVsUmDGI+qD8SjjO8P/PPQpXVz8Giq
8j1L9MbVBJrB+1VFDjcNLuDl/qW4mGabSl4IfhHH2izCe1vTxtsZaQYFZvr0YUd1
AC8KRTG9UxaoGr05QNs1vHT79Cse8MI5AgMBAAEwDQYJKoZIhvcNAQEEBQADgYEA
W58Nx/ITYQ7o8qHUw4/xztT3j02n3xzLRig5lzx0cp2ixQPM1wdPJojCfM+ukjJS
m0tkY5Oq/Krv7a0+Ng7fPBkbp66q3RSYeB/mCGOtVsoniRROZaBgd3mOtt9g6sVZ
vM+fS6djkWFxmvOw/Z3zxblJLwYSMIkAT6cUNQDdzvg=
-----END CERTIFICATE-----
