Certificate:
    Data:
        Version: 1 (0x0)
        Serial Number:
            9b:27:d7:e8:d1:ba:08:bf
        Signature Algorithm: md5WithRSAEncryption
        Issuer: C=DE, ST=Saarland, O=MPI-SWS, OU=Distributed Systems Group, CN=Andreas Haeberlen/emailAddress=democa@octarine.de
        Validity
            Not Before: Apr 20 20:47:07 2015 GMT
            Not After : Apr 19 20:47:07 2016 GMT
        Subject: C=DE, ST=Saarland, O=MPI-SWS, OU=Distributed Systems Group, CN=088c8377d5993277085ca9559cac29a222fa5612/emailAddress=node0231@octarine.de
        Subject Public Key Info:
            Public Key Algorithm: rsaEncryption
            RSA Public Key: (1024 bit)
                Modulus (1024 bit):
                    00:e0:b5:f7:bb:2c:71:58:26:a6:5c:98:7c:5d:88:
                    ba:36:20:82:ed:4d:86:44:de:95:dc:ca:e1:be:4d:
                    69:a0:ef:43:f1:eb:99:f4:73:f9:50:b4:5d:3d:cc:
                    47:4d:7f:bc:15:7d:ea:d2:08:f6:77:83:48:f2:1c:
                    21:3b:72:9a:b5:af:c1:b8:75:c7:7e:b0:ef:43:73:
                    43:40:69:49:de:96:b4:9b:e8:f3:ff:31:1c:42:11:
                    b9:eb:c9:6b:33:a8:5c:3d:53:90:38:d5:7d:38:77:
                    26:b3:5f:6a:4c:81:4f:ea:50:ef:8f:91:ef:c1:06:
                    d1:c1:cb:22:4e:5a:8b:7c:d5
                Exponent: 65537 (0x10001)
    Signature Algorithm: md5WithRSAEncryption
        5c:70:8f:ee:b9:32:13:d0:d3:a4:4d:8a:b7:a1:8e:79:aa:42:
        a2:68:dd:f7:3c:05:9a:2a:dc:44:96:f1:ae:3f:30:b4:9a:b8:
        c1:e3:53:08:19:12:f2:47:9e:bd:a6:9f:7a:a8:14:ae:9c:0b:
        00:79:95:4f:fd:0d:6c:65:92:b6:27:67:4a:0b:08:49:9b:da:
        be:64:87:63:66:ff:10:6a:23:83:df:85:ed:19:1c:e4:61:18:
        6e:3b:7b:1f:82:ce:42:88:11:92:2c:99:72:dc:3e:64:55:8a:
        c1:bf:9f:8c:72:ba:ea:07:2c:6a:4c:76:4c:c0:e9:4d:07:c9:
        e0:a1
-----BEGIN CERTIFICATE-----
MIICvDCCAiUCCQCbJ9fo0boIvzANBgkqhkiG9w0BAQQFADCBlTELMAkGA1UEBhMC
REUxETAPBgNVBAgTCFNhYXJsYW5kMRAwDgYDVQQKEwdNUEktU1dTMSIwIAYDVQQL
ExlEaXN0cmlidXRlZCBTeXN0ZW1zIEdyb3VwMRowGAYDVQQDExFBbmRyZWFzIEhh
ZWJlcmxlbjEhMB8GCSqGSIb3DQEJARYSZGVtb2NhQG9jdGFyaW5lLmRlMB4XDTE1
MDQyMDIwNDcwN1oXDTE2MDQxOTIwNDcwN1owga4xCzAJBgNVBAYTAkRFMREwDwYD
VQQIEwhTYWFybGFuZDEQMA4GA1UEChMHTVBJLVNXUzEiMCAGA1UECxMZRGlzdHJp
YnV0ZWQgU3lzdGVtcyBHcm91cDExMC8GA1UEAxMoMDg4YzgzNzdkNTk5MzI3NzA4
NWNhOTU1OWNhYzI5YTIyMmZhNTYxMjEjMCEGCSqGSIb3DQEJARYUbm9kZTAyMzFA
b2N0YXJpbmUuZGUwgZ8wDQYJKoZIhvcNAQEBBQADgY0AMIGJAoGBAOC197sscVgm
plyYfF2IujYggu1NhkTeldzK4b5NaaDvQ/HrmfRz+VC0XT3MR01/vBV96tII9neD
SPIcITtymrWvwbh1x36w70NzQ0BpSd6WtJvo8/8xHEIRuevJazOoXD1TkDjVfTh3
JrNfakyBT+pQ74+R78EG0cHLIk5ai3zVAgMBAAEwDQYJKoZIhvcNAQEEBQADgYEA
XHCP7rkyE9DTpE2Kt6GOeapComjd9zwFmircRJbxrj8wtJq4weNTCBkS8keevaaf
eqgUrpwLAHmVT/0NbGWStidnSgsISZvavmSHY2b/EGojg9+F7Rkc5GEYbjt7H4LO
QogRkiyZctw+ZFWKwb+fjHK66gcsakx2TMDpTQfJ4KE=
-----END CERTIFICATE-----
