Certificate:
    Data:
        Version: 1 (0x0)
        Serial Number:
            9b:27:d7:e8:d1:ba:08:a3
        Signature Algorithm: md5WithRSAEncryption
        Issuer: C=DE, ST=Saarland, O=MPI-SWS, OU=Distributed Systems Group, CN=Andreas Haeberlen/emailAddress=democa@octarine.de
        Validity
            Not Before: Apr 20 20:47:05 2015 GMT
            Not After : Apr 19 20:47:05 2016 GMT
        Subject: C=DE, ST=Saarland, O=MPI-SWS, OU=Distributed Systems Group, CN=06c0d7f223ce067ef525c1edfbedd55eb1f88fbb/emailAddress=node0203@octarine.de
        Subject Public Key Info:
            Public Key Algorithm: rsaEncryption
            RSA Public Key: (1024 bit)
                Modulus (1024 bit):
                    00:e9:a5:5c:b6:34:99:07:a9:8a:1a:18:bd:9c:9d:
                    56:15:f8:c0:d0:7d:0d:77:04:28:f8:47:a1:6e:cd:
                    55:0f:f1:5e:81:d9:e0:a2:81:df:f2:0f:a2:3a:34:
                    05:12:1c:90:13:97:32:84:6d:a0:63:db:e8:61:44:
                    c6:6f:19:f5:fe:bc:ce:69:05:a7:e5:af:2a:2e:80:
                    86:86:e4:e1:74:90:9f:a9:b8:c1:a3:29:dd:d7:c6:
                    d8:cd:42:77:8e:5f:9f:87:1a:e7:5e:27:a7:1c:39:
                    c3:81:87:b9:9e:8e:da:45:7f:6a:7d:72:dc:d4:ae:
                    28:c6:3a:d9:21:fa:5c:b8:a5
                Exponent: 65537 (0x10001)
    Signature Algorithm: md5WithRSAEncryption
        58:1b:a8:24:99:21:89:94:18:62:67:8d:43:93:c6:a3:28:dd:
        9c:75:a8:9b:30:3d:81:dc:e0:d5:bd:77:f4:e1:6a:d4:51:f1:
        ac:80:03:0c:e4:0b:d0:38:e9:32:81:31:2e:25:71:2b:25:ea:
        be:16:a6:94:56:d6:67:20:a5:38:72:48:5c:b6:12:b0:57:c8:
        5c:7e:c6:a4:6e:dd:db:fe:fb:65:43:d1:30:17:93:1f:cd:00:
        ad:75:4d:cb:de:29:59:cc:93:ec:10:27:b8:9e:19:a2:41:b7:
        14:29:56:28:9c:55:0b:8d:0c:84:0f:88:1d:50:1f:89:14:fb:
        50:59
-----BEGIN CERTIFICATE-----
MIICvDCCAiUCCQCbJ9fo0boIozANBgkqhkiG9w0BAQQFADCBlTELMAkGA1UEBhMC
REUxETAPBgNVBAgTCFNhYXJsYW5kMRAwDgYDVQQKEwdNUEktU1dTMSIwIAYDVQQL
ExlEaXN0cmlidXRlZCBTeXN0ZW1zIEdyb3VwMRowGAYDVQQDExFBbmRyZWFzIEhh
ZWJlcmxlbjEhMB8GCSqGSIb3DQEJARYSZGVtb2NhQG9jdGFyaW5lLmRlMB4XDTE1
MDQyMDIwNDcwNVoXDTE2MDQxOTIwNDcwNVowga4xCzAJBgNVBAYTAkRFMREwDwYD
VQQIEwhTYWFybGFuZDEQMA4GA1UEChMHTVBJLVNXUzEiMCAGA1UECxMZRGlzdHJp
YnV0ZWQgU3lzdGVtcyBHcm91cDExMC8GA1UEAxMoMDZjMGQ3ZjIyM2NlMDY3ZWY1
MjVjMWVkZmJlZGQ1NWViMWY4OGZiYjEjMCEGCSqGSIb3DQEJARYUbm9kZTAyMDNA
b2N0YXJpbmUuZGUwgZ8wDQYJKoZIhvcNAQEBBQADgY0AMIGJAoGBAOmlXLY0mQep
ihoYvZydVhX4wNB9DXcEKPhHoW7NVQ/xXoHZ4KKB3/IPojo0BRIckBOXMoRtoGPb
6GFExm8Z9f68zmkFp+WvKi6Ahobk4XSQn6m4waMp3dfG2M1Cd45fn4ca514npxw5
w4GHuZ6O2kV/an1y3NSuKMY62SH6XLilAgMBAAEwDQYJKoZIhvcNAQEEBQADgYEA
WBuoJJkhiZQYYmeNQ5PGoyjdnHWomzA9gdzg1b139OFq1FHxrIADDOQL0DjpMoEx
LiVxKyXqvhamlFbWZyClOHJIXLYSsFfIXH7GpG7d2/77ZUPRMBeTH80ArXVNy94p
WcyT7BAnuJ4ZokG3FClWKJxVC40MhA+IHVAfiRT7UFk=
-----END CERTIFICATE-----
