Certificate:
    Data:
        Version: 1 (0x0)
        Serial Number:
            9b:27:d7:e8:d1:ba:09:21
        Signature Algorithm: md5WithRSAEncryption
        Issuer: C=DE, ST=Saarland, O=MPI-SWS, OU=Distributed Systems Group, CN=Andreas Haeberlen/emailAddress=democa@octarine.de
        Validity
            Not Before: Apr 20 20:47:11 2015 GMT
            Not After : Apr 19 20:47:11 2016 GMT
        Subject: C=DE, ST=Saarland, O=MPI-SWS, OU=Distributed Systems Group, CN=afc228d1e98180f42035d872082766215e377095/emailAddress=node0329@octarine.de
        Subject Public Key Info:
            Public Key Algorithm: rsaEncryption
            RSA Public Key: (1024 bit)
                Modulus (1024 bit):
                    00:c7:86:6c:0c:05:a3:2c:c9:00:00:62:e8:c9:66:
                    e3:c7:c4:10:91:a6:1e:bc:ff:64:75:13:a8:85:3e:
                    a4:29:cc:ec:85:79:be:c7:7c:b7:ea:ff:d8:d5:22:
                    85:cc:f8:9e:05:a9:33:74:f3:df:b3:f8:a1:92:be:
                    7f:60:62:da:d0:7b:96:9e:14:dd:92:4e:b1:30:b6:
                    51:a0:12:c0:29:de:1d:49:df:cb:9e:41:54:3b:c1:
                    f6:43:e7:6c:db:6c:d0:7f:80:5d:71:9c:ab:95:b1:
                    46:de:08:d8:30:68:52:e6:79:0a:ae:df:df:6c:47:
                    ad:cc:70:19:45:c9:5c:3e:49
                Exponent: 65537 (0x10001)
    Signature Algorithm: md5WithRSAEncryption
        7b:5b:b4:d3:ed:50:52:7c:95:5d:fd:40:8f:72:e8:fb:ad:21:
        f1:85:1f:f8:8b:1a:46:7c:9d:5e:95:33:f2:13:6c:31:74:3f:
        e6:eb:50:74:72:22:c7:27:05:b0:4b:4f:cc:a8:58:e0:e2:40:
        df:c5:36:d6:d2:97:d7:65:54:e6:c8:ca:b2:4e:86:b1:c0:84:
        71:46:b6:e0:4e:8a:41:a3:11:ea:b5:4f:89:90:46:96:2a:46:
        ce:9b:92:44:b7:0d:30:3d:ba:69:e2:1f:3a:c5:37:a4:5c:7f:
        3c:49:9a:c6:86:50:1a:89:dc:ce:bd:c2:3c:15:27:c2:61:4a:
        67:ec
-----BEGIN CERTIFICATE-----
MIICvDCCAiUCCQCbJ9fo0boJITANBgkqhkiG9w0BAQQFADCBlTELMAkGA1UEBhMC
REUxETAPBgNVBAgTCFNhYXJsYW5kMRAwDgYDVQQKEwdNUEktU1dTMSIwIAYDVQQL
ExlEaXN0cmlidXRlZCBTeXN0ZW1zIEdyb3VwMRowGAYDVQQDExFBbmRyZWFzIEhh
ZWJlcmxlbjEhMB8GCSqGSIb3DQEJARYSZGVtb2NhQG9jdGFyaW5lLmRlMB4XDTE1
MDQyMDIwNDcxMVoXDTE2MDQxOTIwNDcxMVowga4xCzAJBgNVBAYTAkRFMREwDwYD
VQQIEwhTYWFybGFuZDEQMA4GA1UEChMHTVBJLVNXUzEiMCAGA1UECxMZRGlzdHJp
YnV0ZWQgU3lzdGVtcyBHcm91cDExMC8GA1UEAxMoYWZjMjI4ZDFlOTgxODBmNDIw
MzVkODcyMDgyNzY2MjE1ZTM3NzA5NTEjMCEGCSqGSIb3DQEJARYUbm9kZTAzMjlA
b2N0YXJpbmUuZGUwgZ8wDQYJKoZIhvcNAQEBBQADgY0AMIGJAoGBAMeGbAwFoyzJ
AABi6Mlm48fEEJGmHrz/ZHUTqIU+pCnM7IV5vsd8t+r/2NUihcz4ngWpM3Tz37P4
oZK+f2Bi2tB7lp4U3ZJOsTC2UaASwCneHUnfy55BVDvB9kPnbNts0H+AXXGcq5Wx
Rt4I2DBoUuZ5Cq7f32xHrcxwGUXJXD5JAgMBAAEwDQYJKoZIhvcNAQEEBQADgYEA
e1u00+1QUnyVXf1Aj3Lo+60h8YUf+IsaRnydXpUz8hNsMXQ/5utQdHIixycFsEtP
zKhY4OJA38U21tKX12VU5sjKsk6GscCEcUa24E6KQaMR6rVPiZBGlipGzpuSRLcN
MD26aeIfOsU3pFx/PEmaxoZQGonczr3CPBUnwmFKZ+w=
-----END CERTIFICATE-----
