Certificate:
    Data:
        Version: 1 (0x0)
        Serial Number:
            9b:27:d7:e8:d1:ba:0b:5b
        Signature Algorithm: md5WithRSAEncryption
        Issuer: C=DE, ST=Saarland, O=MPI-SWS, OU=Distributed Systems Group, CN=Andreas Haeberlen/emailAddress=democa@octarine.de
        Validity
            Not Before: Apr 20 20:47:37 2015 GMT
            Not After : Apr 19 20:47:37 2016 GMT
        Subject: C=DE, ST=Saarland, O=MPI-SWS, OU=Distributed Systems Group, CN=1f24b4962309b39eba22bf548658ac6cb806dadf/emailAddress=node0899@octarine.de
        Subject Public Key Info:
            Public Key Algorithm: rsaEncryption
            RSA Public Key: (1024 bit)
                Modulus (1024 bit):
                    00:c1:ea:d9:40:9c:72:c6:03:8a:33:2e:0d:39:f3:
                    b1:d3:6c:e0:d8:e0:37:15:f3:bc:92:2e:f4:0e:3e:
                    01:df:d1:df:58:de:ca:4b:88:74:09:b6:fd:d1:93:
                    8d:09:dc:f6:1a:d0:05:aa:f8:a4:5b:59:e2:3f:dc:
                    10:f0:50:80:28:a3:f7:18:c9:c4:c5:f7:72:67:8e:
                    85:b5:e1:6a:dd:dd:52:3e:2e:23:78:5f:89:af:9e:
                    64:fb:a9:4e:f9:0d:35:8b:97:38:ff:5a:5f:c3:6f:
                    25:b8:32:b4:24:3b:21:4d:70:6d:ab:4e:9f:f3:dd:
                    0c:3c:e7:7a:7c:8b:3f:c3:c5
                Exponent: 65537 (0x10001)
    Signature Algorithm: md5WithRSAEncryption
        c5:fd:e0:bf:db:92:ff:85:4b:c7:c6:85:3f:0c:d0:53:fc:11:
        e2:4d:22:53:7f:13:35:36:d7:e8:ef:08:3d:81:de:40:67:4d:
        75:96:74:07:9b:fa:89:e2:ab:e8:54:0c:3b:30:55:ef:12:df:
        4d:c9:fe:81:42:b9:da:d8:46:1a:c6:1e:30:87:49:4a:6e:a2:
        48:8a:f1:4b:4a:a7:e0:c9:bb:19:20:19:19:ea:60:cf:5b:81:
        45:c9:b6:0c:98:37:dd:67:40:bf:70:4b:a0:af:ec:9b:46:98:
        56:1e:dc:2f:e3:86:c3:e3:71:ab:1e:80:b7:28:e5:74:7a:91:
        a8:5d
-----BEGIN CERTIFICATE-----
MIICvDCCAiUCCQCbJ9fo0boLWzANBgkqhkiG9w0BAQQFADCBlTELMAkGA1UEBhMC
REUxETAPBgNVBAgTCFNhYXJsYW5kMRAwDgYDVQQKEwdNUEktU1dTMSIwIAYDVQQL
ExlEaXN0cmlidXRlZCBTeXN0ZW1zIEdyb3VwMRowGAYDVQQDExFBbmRyZWFzIEhh
ZWJlcmxlbjEhMB8GCSqGSIb3DQEJARYSZGVtb2NhQG9jdGFyaW5lLmRlMB4XDTE1
MDQyMDIwNDczN1oXDTE2MDQxOTIwNDczN1owga4xCzAJBgNVBAYTAkRFMREwDwYD
VQQIEwhTYWFybGFuZDEQMA4GA1UEChMHTVBJLVNXUzEiMCAGA1UECxMZRGlzdHJp
YnV0ZWQgU3lzdGVtcyBHcm91cDExMC8GA1UEAxMoMWYyNGI0OTYyMzA5YjM5ZWJh
MjJiZjU0ODY1OGFjNmNiODA2ZGFkZjEjMCEGCSqGSIb3DQEJARYUbm9kZTA4OTlA
b2N0YXJpbmUuZGUwgZ8wDQYJKoZIhvcNAQEBBQADgY0AMIGJAoGBAMHq2UCccsYD
ijMuDTnzsdNs4NjgNxXzvJIu9A4+Ad/R31jeykuIdAm2/dGTjQnc9hrQBar4pFtZ
4j/cEPBQgCij9xjJxMX3cmeOhbXhat3dUj4uI3hfia+eZPupTvkNNYuXOP9aX8Nv
JbgytCQ7IU1wbatOn/PdDDznenyLP8PFAgMBAAEwDQYJKoZIhvcNAQEEBQADgYEA
xf3gv9uS/4VLx8aFPwzQU/wR4k0iU38TNTbX6O8IPYHeQGdNdZZ0B5v6ieKr6FQM
OzBV7xLfTcn+gUK52thGGsYeMIdJSm6iSIrxS0qn4Mm7GSAZGepgz1uBRcm2DJg3
3WdAv3BLoK/sm0aYVh7cL+OGw+Nxqx6AtyjldHqRqF0=
-----END CERTIFICATE-----
