Certificate:
    Data:
        Version: 1 (0x0)
        Serial Number:
            9b:27:d7:e8:d1:ba:07:fb
        Signature Algorithm: md5WithRSAEncryption
        Issuer: C=DE, ST=Saarland, O=MPI-SWS, OU=Distributed Systems Group, CN=Andreas Haeberlen/emailAddress=democa@octarine.de
        Validity
            Not Before: Apr 20 20:46:58 2015 GMT
            Not After : Apr 19 20:46:58 2016 GMT
        Subject: C=DE, ST=Saarland, O=MPI-SWS, OU=Distributed Systems Group, CN=82c515969227da3250784550f67e296ab30c8932/emailAddress=node0035@octarine.de
        Subject Public Key Info:
            Public Key Algorithm: rsaEncryption
            RSA Public Key: (1024 bit)
                Modulus (1024 bit):
                    00:e7:a3:96:99:31:85:c9:81:6f:8a:0f:a7:52:22:
                    22:6c:9b:88:83:4b:39:6b:2b:a7:c2:c1:3c:9d:13:
                    fc:49:0f:36:d3:7b:76:55:aa:7b:2d:74:53:a4:94:
                    7a:d7:85:34:e8:1e:64:69:e4:45:26:f6:fe:a9:c3:
                    80:83:8d:53:ab:14:3c:42:c5:4a:bd:be:82:43:f7:
                    06:34:95:0a:d6:14:9b:40:ee:40:7c:c7:dd:98:f7:
                    5d:ed:b4:f8:b2:91:68:20:f8:a0:39:b9:69:1d:66:
                    a6:15:8f:5d:55:c1:ff:cf:7b:63:f3:93:19:bc:6b:
                    3d:ad:27:af:94:fa:dd:19:2d
                Exponent: 65537 (0x10001)
    Signature Algorithm: md5WithRSAEncryption
        80:f2:17:f1:a1:fd:1c:aa:aa:21:7d:5f:49:e7:59:41:2a:df:
        14:84:30:17:a0:63:3a:19:9a:2d:56:a0:b1:e8:1b:51:41:b1:
        a4:00:b6:7f:5e:23:2b:a9:75:d3:82:91:f2:dc:e9:5f:47:75:
        e4:32:b2:77:3b:82:4f:ee:97:4e:10:1a:3c:12:ee:7b:d1:89:
        7b:2f:89:77:d0:dc:0a:ff:f9:b4:a7:e2:04:81:20:5a:e7:25:
        6e:62:6a:fa:4c:32:e7:ca:b4:4f:16:23:6d:dd:56:16:15:2d:
        8e:91:a5:79:8c:ff:90:b7:d0:45:ef:ae:da:dc:7a:9d:9d:58:
        1a:a4
-----BEGIN CERTIFICATE-----
MIICvDCCAiUCCQCbJ9fo0boH+zANBgkqhkiG9w0BAQQFADCBlTELMAkGA1UEBhMC
REUxETAPBgNVBAgTCFNhYXJsYW5kMRAwDgYDVQQKEwdNUEktU1dTMSIwIAYDVQQL
ExlEaXN0cmlidXRlZCBTeXN0ZW1zIEdyb3VwMRowGAYDVQQDExFBbmRyZWFzIEhh
ZWJlcmxlbjEhMB8GCSqGSIb3DQEJARYSZGVtb2NhQG9jdGFyaW5lLmRlMB4XDTE1
MDQyMDIwNDY1OFoXDTE2MDQxOTIwNDY1OFowga4xCzAJBgNVBAYTAkRFMREwDwYD
VQQIEwhTYWFybGFuZDEQMA4GA1UEChMHTVBJLVNXUzEiMCAGA1UECxMZRGlzdHJp
YnV0ZWQgU3lzdGVtcyBHcm91cDExMC8GA1UEAxMoODJjNTE1OTY5MjI3ZGEzMjUw
Nzg0NTUwZjY3ZTI5NmFiMzBjODkzMjEjMCEGCSqGSIb3DQEJARYUbm9kZTAwMzVA
b2N0YXJpbmUuZGUwgZ8wDQYJKoZIhvcNAQEBBQADgY0AMIGJAoGBAOejlpkxhcmB
b4oPp1IiImybiINLOWsrp8LBPJ0T/EkPNtN7dlWqey10U6SUeteFNOgeZGnkRSb2
/qnDgIONU6sUPELFSr2+gkP3BjSVCtYUm0DuQHzH3Zj3Xe20+LKRaCD4oDm5aR1m
phWPXVXB/897Y/OTGbxrPa0nr5T63RktAgMBAAEwDQYJKoZIhvcNAQEEBQADgYEA
gPIX8aH9HKqqIX1fSedZQSrfFIQwF6BjOhmaLVagsegbUUGxpAC2f14jK6l104KR
8tzpX0d15DKydzuCT+6XThAaPBLue9GJey+Jd9DcCv/5tKfiBIEgWuclbmJq+kwy
58q0TxYjbd1WFhUtjpGleYz/kLfQRe+u2tx6nZ1YGqQ=
-----END CERTIFICATE-----
