Certificate:
    Data:
        Version: 1 (0x0)
        Serial Number:
            9b:27:d7:e8:d1:ba:0a:0e
        Signature Algorithm: md5WithRSAEncryption
        Issuer: C=DE, ST=Saarland, O=MPI-SWS, OU=Distributed Systems Group, CN=Andreas Haeberlen/emailAddress=democa@octarine.de
        Validity
            Not Before: Apr 20 20:47:22 2015 GMT
            Not After : Apr 19 20:47:22 2016 GMT
        Subject: C=DE, ST=Saarland, O=MPI-SWS, OU=Distributed Systems Group, CN=d114595e3b123e240525c959e46ea1b72db8716a/emailAddress=node0566@octarine.de
        Subject Public Key Info:
            Public Key Algorithm: rsaEncryption
            RSA Public Key: (1024 bit)
                Modulus (1024 bit):
                    00:ee:4d:53:fd:a8:94:48:67:a1:a3:cd:86:23:c5:
                    6f:10:0a:83:37:91:b9:88:8b:3b:33:98:9b:00:9f:
                    88:de:1d:a8:d0:94:ee:64:ab:0d:de:23:f7:59:34:
                    90:79:54:0d:92:7d:48:01:3a:98:7f:cc:21:15:5d:
                    68:57:ed:c2:81:a6:6a:8d:9c:ea:de:59:b8:0f:20:
                    d3:c1:65:bc:5f:15:fa:be:8f:6a:17:28:f4:13:a3:
                    b4:8d:c7:0f:51:e2:f6:d2:f8:5b:52:7b:b3:d5:ef:
                    73:8e:4c:9f:7d:27:ab:99:1a:73:ac:9e:81:c0:fb:
                    b2:ec:54:33:c4:96:f1:71:cb
                Exponent: 65537 (0x10001)
    Signature Algorithm: md5WithRSAEncryption
        63:ec:2a:a9:89:05:b9:97:d8:a0:79:32:06:39:5c:47:42:0f:
        cb:c6:10:7e:f5:aa:fb:74:14:ae:72:ab:59:39:2d:2c:43:a1:
        b3:b7:16:27:d1:3b:d2:64:18:a7:2d:30:7b:fb:8e:f6:8d:50:
        d6:f9:75:ec:7a:9c:91:be:13:a4:ce:a5:65:c2:50:cc:bc:63:
        1c:13:be:ff:40:9e:58:f1:7f:68:32:df:68:d5:6a:36:e0:90:
        ae:6c:17:f5:0d:9b:7c:ef:ce:c3:0c:a3:6c:d3:23:43:03:89:
        ee:5e:19:3b:9a:b2:ca:c8:cd:b4:4e:ae:2e:fb:be:35:1f:93:
        e3:ab
-----BEGIN CERTIFICATE-----
MIICvDCCAiUCCQCbJ9fo0boKDjANBgkqhkiG9w0BAQQFADCBlTELMAkGA1UEBhMC
REUxETAPBgNVBAgTCFNhYXJsYW5kMRAwDgYDVQQKEwdNUEktU1dTMSIwIAYDVQQL
ExlEaXN0cmlidXRlZCBTeXN0ZW1zIEdyb3VwMRowGAYDVQQDExFBbmRyZWFzIEhh
ZWJlcmxlbjEhMB8GCSqGSIb3DQEJARYSZGVtb2NhQG9jdGFyaW5lLmRlMB4XDTE1
MDQyMDIwNDcyMloXDTE2MDQxOTIwNDcyMlowga4xCzAJBgNVBAYTAkRFMREwDwYD
VQQIEwhTYWFybGFuZDEQMA4GA1UEChMHTVBJLVNXUzEiMCAGA1UECxMZRGlzdHJp
YnV0ZWQgU3lzdGVtcyBHcm91cDExMC8GA1UEAxMoZDExNDU5NWUzYjEyM2UyNDA1
MjVjOTU5ZTQ2ZWExYjcyZGI4NzE2YTEjMCEGCSqGSIb3DQEJARYUbm9kZTA1NjZA
b2N0YXJpbmUuZGUwgZ8wDQYJKoZIhvcNAQEBBQADgY0AMIGJAoGBAO5NU/2olEhn
oaPNhiPFbxAKgzeRuYiLOzOYmwCfiN4dqNCU7mSrDd4j91k0kHlUDZJ9SAE6mH/M
IRVdaFftwoGmao2c6t5ZuA8g08FlvF8V+r6Pahco9BOjtI3HD1Hi9tL4W1J7s9Xv
c45Mn30nq5kac6yegcD7suxUM8SW8XHLAgMBAAEwDQYJKoZIhvcNAQEEBQADgYEA
Y+wqqYkFuZfYoHkyBjlcR0IPy8YQfvWq+3QUrnKrWTktLEOhs7cWJ9E70mQYpy0w
e/uO9o1Q1vl17Hqckb4TpM6lZcJQzLxjHBO+/0CeWPF/aDLfaNVqNuCQrmwX9Q2b
fO/OwwyjbNMjQwOJ7l4ZO5qyysjNtE6uLvu+NR+T46s=
-----END CERTIFICATE-----
