Certificate:
    Data:
        Version: 1 (0x0)
        Serial Number:
            9b:27:d7:e8:d1:ba:09:97
        Signature Algorithm: md5WithRSAEncryption
        Issuer: C=DE, ST=Saarland, O=MPI-SWS, OU=Distributed Systems Group, CN=Andreas Haeberlen/emailAddress=democa@octarine.de
        Validity
            Not Before: Apr 20 20:47:16 2015 GMT
            Not After : Apr 19 20:47:16 2016 GMT
        Subject: C=DE, ST=Saarland, O=MPI-SWS, OU=Distributed Systems Group, CN=899bae8618b00cf172bb2ae30be00f689044fca0/emailAddress=node0447@octarine.de
        Subject Public Key Info:
            Public Key Algorithm: rsaEncryption
            RSA Public Key: (1024 bit)
                Modulus (1024 bit):
                    00:bb:11:51:97:1d:cf:fc:80:d0:85:c0:6c:29:bc:
                    dc:f3:be:d6:38:12:d8:4d:c2:58:45:85:6c:91:12:
                    4c:61:9f:78:06:3f:be:43:1a:82:70:5e:8e:bd:09:
                    4e:48:ca:5a:96:62:46:c5:f9:0a:b0:f7:73:ed:99:
                    dd:4c:46:0a:b1:41:4a:73:0c:8d:63:42:f6:fa:30:
                    9a:ff:21:b5:43:31:60:38:75:61:60:d3:ab:77:e1:
                    f2:78:35:25:3c:28:e0:9f:72:ad:95:87:1a:83:14:
                    90:ae:0e:a8:6e:47:95:81:f3:5a:8a:fc:30:4a:55:
                    5d:2b:9d:f6:2f:d8:74:4f:7d
                Exponent: 65537 (0x10001)
    Signature Algorithm: md5WithRSAEncryption
        44:24:05:ac:94:7a:a7:00:0a:ed:e2:59:92:53:cd:d6:60:d0:
        d3:de:15:81:9b:b5:5d:54:e0:a0:3c:15:64:b1:d1:3c:e7:e4:
        23:02:e4:b7:a9:9f:82:07:a0:30:fe:2d:2a:2b:59:80:0f:b1:
        50:83:a8:b7:bf:9a:37:bf:aa:f2:27:4e:b6:8a:f5:9d:31:0f:
        96:c8:47:f7:e0:ec:f5:61:f8:29:86:3e:e5:ae:de:60:81:4e:
        25:2b:3f:f3:10:ff:da:cb:68:42:4c:4e:2f:74:ba:4a:d4:f9:
        86:5c:84:ec:6f:ed:46:18:ea:36:e6:af:d9:01:a0:56:d4:56:
        51:96
-----BEGIN CERTIFICATE-----
MIICvDCCAiUCCQCbJ9fo0boJlzANBgkqhkiG9w0BAQQFADCBlTELMAkGA1UEBhMC
REUxETAPBgNVBAgTCFNhYXJsYW5kMRAwDgYDVQQKEwdNUEktU1dTMSIwIAYDVQQL
ExlEaXN0cmlidXRlZCBTeXN0ZW1zIEdyb3VwMRowGAYDVQQDExFBbmRyZWFzIEhh
ZWJlcmxlbjEhMB8GCSqGSIb3DQEJARYSZGVtb2NhQG9jdGFyaW5lLmRlMB4XDTE1
MDQyMDIwNDcxNloXDTE2MDQxOTIwNDcxNlowga4xCzAJBgNVBAYTAkRFMREwDwYD
VQQIEwhTYWFybGFuZDEQMA4GA1UEChMHTVBJLVNXUzEiMCAGA1UECxMZRGlzdHJp
YnV0ZWQgU3lzdGVtcyBHcm91cDExMC8GA1UEAxMoODk5YmFlODYxOGIwMGNmMTcy
YmIyYWUzMGJlMDBmNjg5MDQ0ZmNhMDEjMCEGCSqGSIb3DQEJARYUbm9kZTA0NDdA
b2N0YXJpbmUuZGUwgZ8wDQYJKoZIhvcNAQEBBQADgY0AMIGJAoGBALsRUZcdz/yA
0IXAbCm83PO+1jgS2E3CWEWFbJESTGGfeAY/vkMagnBejr0JTkjKWpZiRsX5CrD3
c+2Z3UxGCrFBSnMMjWNC9vowmv8htUMxYDh1YWDTq3fh8ng1JTwo4J9yrZWHGoMU
kK4OqG5HlYHzWor8MEpVXSud9i/YdE99AgMBAAEwDQYJKoZIhvcNAQEEBQADgYEA
RCQFrJR6pwAK7eJZklPN1mDQ094VgZu1XVTgoDwVZLHRPOfkIwLkt6mfggegMP4t
KitZgA+xUIOot7+aN7+q8idOtor1nTEPlshH9+Ds9WH4KYY+5a7eYIFOJSs/8xD/
2stoQkxOL3S6StT5hlyE7G/tRhjqNuav2QGgVtRWUZY=
-----END CERTIFICATE-----
