Certificate:
    Data:
        Version: 1 (0x0)
        Serial Number:
            9b:27:d7:e8:d1:ba:0a:49
        Signature Algorithm: md5WithRSAEncryption
        Issuer: C=DE, ST=Saarland, O=MPI-SWS, OU=Distributed Systems Group, CN=Andreas Haeberlen/emailAddress=democa@octarine.de
        Validity
            Not Before: Apr 20 20:47:24 2015 GMT
            Not After : Apr 19 20:47:24 2016 GMT
        Subject: C=DE, ST=Saarland, O=MPI-SWS, OU=Distributed Systems Group, CN=2e1ce4bf120a1d55c716db22ae30c30f21b06607/emailAddress=node0625@octarine.de
        Subject Public Key Info:
            Public Key Algorithm: rsaEncryption
            RSA Public Key: (1024 bit)
                Modulus (1024 bit):
                    00:cb:48:2c:da:c7:06:23:65:b2:93:8c:e0:81:64:
                    d7:b6:88:69:7f:6c:51:37:3e:28:d4:f9:ca:f1:47:
                    a9:79:72:bd:d9:5a:e9:14:6f:71:55:7a:ba:48:32:
                    7f:4e:c8:ad:a6:50:15:b7:21:b6:cb:ea:e1:cb:5e:
                    87:9d:e5:44:cc:0b:d3:49:1f:c6:b6:6a:c0:c6:8d:
                    aa:de:f0:fc:1e:30:9c:e3:84:13:62:5e:d2:66:3d:
                    d3:c7:7e:04:5d:4a:df:e5:5f:7d:4b:48:2a:bf:37:
                    1e:99:61:51:55:07:ab:c3:cc:c6:6b:6b:54:a0:c7:
                    ec:d1:d9:34:f9:c3:41:77:95
                Exponent: 65537 (0x10001)
    Signature Algorithm: md5WithRSAEncryption
        c7:ca:21:5c:83:63:61:52:e8:31:b0:8d:e1:e3:72:6d:96:03:
        f4:93:4c:8f:28:11:9b:03:81:a6:de:d0:fd:1e:3a:78:64:39:
        b3:0a:d6:e9:63:b8:51:83:50:02:bf:2f:b6:75:b2:0b:97:e7:
        e4:c3:55:8e:e4:a7:6b:93:c5:c7:44:53:d8:68:97:b0:dc:75:
        6e:16:35:10:5d:6c:2d:d3:eb:57:e2:c1:38:23:dd:11:33:3b:
        db:3d:de:f4:51:fc:9f:2d:00:cb:e5:e2:93:86:e2:2d:bd:a7:
        27:03:65:ff:5f:e7:ea:1e:e2:22:33:1f:5e:9e:88:43:6a:05:
        e8:27
-----BEGIN CERTIFICATE-----
MIICvDCCAiUCCQCbJ9fo0boKSTANBgkqhkiG9w0BAQQFADCBlTELMAkGA1UEBhMC
REUxETAPBgNVBAgTCFNhYXJsYW5kMRAwDgYDVQQKEwdNUEktU1dTMSIwIAYDVQQL
ExlEaXN0cmlidXRlZCBTeXN0ZW1zIEdyb3VwMRowGAYDVQQDExFBbmRyZWFzIEhh
ZWJlcmxlbjEhMB8GCSqGSIb3DQEJARYSZGVtb2NhQG9jdGFyaW5lLmRlMB4XDTE1
MDQyMDIwNDcyNFoXDTE2MDQxOTIwNDcyNFowga4xCzAJBgNVBAYTAkRFMREwDwYD
VQQIEwhTYWFybGFuZDEQMA4GA1UEChMHTVBJLVNXUzEiMCAGA1UECxMZRGlzdHJp
YnV0ZWQgU3lzdGVtcyBHcm91cDExMC8GA1UEAxMoMmUxY2U0YmYxMjBhMWQ1NWM3
MTZkYjIyYWUzMGMzMGYyMWIwNjYwNzEjMCEGCSqGSIb3DQEJARYUbm9kZTA2MjVA
b2N0YXJpbmUuZGUwgZ8wDQYJKoZIhvcNAQEBBQADgY0AMIGJAoGBAMtILNrHBiNl
spOM4IFk17aIaX9sUTc+KNT5yvFHqXlyvdla6RRvcVV6ukgyf07IraZQFbchtsvq
4cteh53lRMwL00kfxrZqwMaNqt7w/B4wnOOEE2Je0mY908d+BF1K3+VffUtIKr83
HplhUVUHq8PMxmtrVKDH7NHZNPnDQXeVAgMBAAEwDQYJKoZIhvcNAQEEBQADgYEA
x8ohXINjYVLoMbCN4eNybZYD9JNMjygRmwOBpt7Q/R46eGQ5swrW6WO4UYNQAr8v
tnWyC5fn5MNVjuSna5PFx0RT2GiXsNx1bhY1EF1sLdPrV+LBOCPdETM72z3e9FH8
ny0Ay+Xik4biLb2nJwNl/1/n6h7iIjMfXp6IQ2oF6Cc=
-----END CERTIFICATE-----
