Certificate:
    Data:
        Version: 1 (0x0)
        Serial Number:
            9b:27:d7:e8:d1:ba:08:ea
        Signature Algorithm: md5WithRSAEncryption
        Issuer: C=DE, ST=Saarland, O=MPI-SWS, OU=Distributed Systems Group, CN=Andreas Haeberlen/emailAddress=democa@octarine.de
        Validity
            Not Before: Apr 20 20:47:09 2015 GMT
            Not After : Apr 19 20:47:09 2016 GMT
        Subject: C=DE, ST=Saarland, O=MPI-SWS, OU=Distributed Systems Group, CN=f6908796b3d7dfe9c0e29235f76772678f716071/emailAddress=node0274@octarine.de
        Subject Public Key Info:
            Public Key Algorithm: rsaEncryption
            RSA Public Key: (1024 bit)
                Modulus (1024 bit):
                    00:a3:74:bb:7f:58:d9:8e:d6:58:f4:02:ed:7c:2f:
                    d6:56:a2:ca:d4:d1:a6:ca:ea:96:3e:a3:00:e1:6b:
                    75:e6:f7:91:0c:e2:01:bd:bc:14:ad:c2:31:85:38:
                    7a:50:42:b5:a6:19:c3:2a:61:26:61:ce:f8:b5:2f:
                    90:9d:d9:2d:95:c4:b4:69:12:07:9b:24:29:10:8d:
                    f6:13:94:df:38:06:6d:5d:48:3d:53:ab:5c:4c:c3:
                    d0:cb:1f:40:f3:7b:27:d3:50:bd:23:24:a9:65:5b:
                    5a:7f:fe:03:f7:c7:48:0e:c0:d6:44:4c:98:83:8e:
                    aa:e9:8a:d3:9e:eb:92:f2:df
                Exponent: 65537 (0x10001)
    Signature Algorithm: md5WithRSAEncryption
        8f:54:49:36:c5:bf:76:f3:8f:2e:59:de:e7:b1:c2:73:c6:f3:
        47:97:38:d0:f4:97:ba:ef:d3:83:41:ae:e5:3f:9e:d6:e4:b0:
        c5:38:b2:19:03:36:ff:5c:52:24:7f:5c:3f:44:d3:bf:1e:6a:
        80:1a:f4:0e:f4:c6:b3:ce:29:73:e7:3a:c1:ba:93:21:73:a8:
        c7:80:67:6b:5e:2f:9e:7d:20:19:d0:6a:1e:ba:20:1a:75:75:
        5f:eb:4f:95:18:5e:57:44:eb:41:9a:2e:63:29:51:81:da:b9:
        16:76:15:61:5a:ee:01:26:3e:7c:3d:5c:68:64:4f:82:73:d9:
        8f:cf
-----BEGIN CERTIFICATE-----
MIICvDCCAiUCCQCbJ9fo0boI6jANBgkqhkiG9w0BAQQFADCBlTELMAkGA1UEBhMC
REUxETAPBgNVBAgTCFNhYXJsYW5kMRAwDgYDVQQKEwdNUEktU1dTMSIwIAYDVQQL
ExlEaXN0cmlidXRlZCBTeXN0ZW1zIEdyb3VwMRowGAYDVQQDExFBbmRyZWFzIEhh
ZWJlcmxlbjEhMB8GCSqGSIb3DQEJARYSZGVtb2NhQG9jdGFyaW5lLmRlMB4XDTE1
MDQyMDIwNDcwOVoXDTE2MDQxOTIwNDcwOVowga4xCzAJBgNVBAYTAkRFMREwDwYD
VQQIEwhTYWFybGFuZDEQMA4GA1UEChMHTVBJLVNXUzEiMCAGA1UECxMZRGlzdHJp
YnV0ZWQgU3lzdGVtcyBHcm91cDExMC8GA1UEAxMoZjY5MDg3OTZiM2Q3ZGZlOWMw
ZTI5MjM1Zjc2NzcyNjc4ZjcxNjA3MTEjMCEGCSqGSIb3DQEJARYUbm9kZTAyNzRA
b2N0YXJpbmUuZGUwgZ8wDQYJKoZIhvcNAQEBBQADgY0AMIGJAoGBAKN0u39Y2Y7W
WPQC7Xwv1laiytTRpsrqlj6jAOFrdeb3kQziAb28FK3CMYU4elBCtaYZwyphJmHO
+LUvkJ3ZLZXEtGkSB5skKRCN9hOU3zgGbV1IPVOrXEzD0MsfQPN7J9NQvSMkqWVb
Wn/+A/fHSA7A1kRMmIOOqumK057rkvLfAgMBAAEwDQYJKoZIhvcNAQEEBQADgYEA
j1RJNsW/dvOPLlne57HCc8bzR5c40PSXuu/Tg0Gu5T+e1uSwxTiyGQM2/1xSJH9c
P0TTvx5qgBr0DvTGs84pc+c6wbqTIXOox4Bna14vnn0gGdBqHrogGnV1X+tPlRhe
V0TrQZouYylRgdq5FnYVYVruASY+fD1caGRPgnPZj88=
-----END CERTIFICATE-----
