Certificate:
    Data:
        Version: 1 (0x0)
        Serial Number:
            9b:27:d7:e8:d1:ba:0b:46
        Signature Algorithm: md5WithRSAEncryption
        Issuer: C=DE, ST=Saarland, O=MPI-SWS, OU=Distributed Systems Group, CN=Andreas Haeberlen/emailAddress=democa@octarine.de
        Validity
            Not Before: Apr 20 20:47:36 2015 GMT
            Not After : Apr 19 20:47:36 2016 GMT
        Subject: C=DE, ST=Saarland, O=MPI-SWS, OU=Distributed Systems Group, CN=544f2c8cda5b5f427a4814a151cc5eeb23b5f42d/emailAddress=node0878@octarine.de
        Subject Public Key Info:
            Public Key Algorithm: rsaEncryption
            RSA Public Key: (1024 bit)
                Modulus (1024 bit):
                    00:c6:1d:50:01:9d:16:df:6e:60:2d:f1:39:75:8f:
                    4f:09:5c:1b:07:04:15:8b:f4:c8:e5:5e:c1:1a:e1:
                    dc:9a:99:33:36:c6:c1:a3:86:f4:4e:08:fa:e7:5b:
                    ad:9a:dc:94:41:50:a4:83:33:87:b2:8d:bd:79:28:
                    eb:05:9a:eb:ad:67:58:89:97:97:cb:14:74:dc:d3:
                    2f:4f:f6:90:01:36:4d:f4:43:e2:7a:38:e6:2a:80:
                    1a:0b:fd:33:bf:47:44:80:20:83:01:94:9b:09:4e:
                    51:ba:35:21:1c:09:df:13:db:4d:7f:7e:2c:9d:4c:
                    48:8c:f8:9e:48:11:41:ff:79
                Exponent: 65537 (0x10001)
    Signature Algorithm: md5WithRSAEncryption
        03:e3:ec:29:a4:a0:6f:d1:40:e6:5d:5b:24:14:10:25:24:e5:
        73:3d:a1:e5:83:59:ee:98:02:2e:16:a2:03:2c:63:66:ca:54:
        00:d9:8c:52:51:d9:5c:2c:cb:e9:ab:14:ac:e8:b0:2e:4c:02:
        cd:8f:9a:c6:75:43:48:71:fa:f8:4f:63:7c:48:01:08:30:25:
        0b:4d:88:22:b7:bf:22:31:57:59:fc:29:b6:18:1e:64:63:6f:
        e7:d0:82:61:10:4c:0e:cb:54:6d:ce:ce:d4:67:f9:9f:6f:6a:
        18:40:ab:66:0e:e5:c5:06:1c:bd:92:74:bc:6a:27:13:76:27:
        98:bf
-----BEGIN CERTIFICATE-----
MIICvDCCAiUCCQCbJ9fo0boLRjANBgkqhkiG9w0BAQQFADCBlTELMAkGA1UEBhMC
REUxETAPBgNVBAgTCFNhYXJsYW5kMRAwDgYDVQQKEwdNUEktU1dTMSIwIAYDVQQL
ExlEaXN0cmlidXRlZCBTeXN0ZW1zIEdyb3VwMRowGAYDVQQDExFBbmRyZWFzIEhh
ZWJlcmxlbjEhMB8GCSqGSIb3DQEJARYSZGVtb2NhQG9jdGFyaW5lLmRlMB4XDTE1
MDQyMDIwNDczNloXDTE2MDQxOTIwNDczNlowga4xCzAJBgNVBAYTAkRFMREwDwYD
VQQIEwhTYWFybGFuZDEQMA4GA1UEChMHTVBJLVNXUzEiMCAGA1UECxMZRGlzdHJp
YnV0ZWQgU3lzdGVtcyBHcm91cDExMC8GA1UEAxMoNTQ0ZjJjOGNkYTViNWY0Mjdh
NDgxNGExNTFjYzVlZWIyM2I1ZjQyZDEjMCEGCSqGSIb3DQEJARYUbm9kZTA4NzhA
b2N0YXJpbmUuZGUwgZ8wDQYJKoZIhvcNAQEBBQADgY0AMIGJAoGBAMYdUAGdFt9u
YC3xOXWPTwlcGwcEFYv0yOVewRrh3JqZMzbGwaOG9E4I+udbrZrclEFQpIMzh7KN
vXko6wWa661nWImXl8sUdNzTL0/2kAE2TfRD4no45iqAGgv9M79HRIAggwGUmwlO
Ubo1IRwJ3xPbTX9+LJ1MSIz4nkgRQf95AgMBAAEwDQYJKoZIhvcNAQEEBQADgYEA
A+PsKaSgb9FA5l1bJBQQJSTlcz2h5YNZ7pgCLhaiAyxjZspUANmMUlHZXCzL6asU
rOiwLkwCzY+axnVDSHH6+E9jfEgBCDAlC02IIre/IjFXWfwpthgeZGNv59CCYRBM
DstUbc7O1Gf5n29qGECrZg7lxQYcvZJ0vGonE3YnmL8=
-----END CERTIFICATE-----
