Certificate:
    Data:
        Version: 1 (0x0)
        Serial Number:
            9b:27:d7:e8:d1:ba:0a:52
        Signature Algorithm: md5WithRSAEncryption
        Issuer: C=DE, ST=Saarland, O=MPI-SWS, OU=Distributed Systems Group, CN=Andreas Haeberlen/emailAddress=democa@octarine.de
        Validity
            Not Before: Apr 20 20:47:25 2015 GMT
            Not After : Apr 19 20:47:25 2016 GMT
        Subject: C=DE, ST=Saarland, O=MPI-SWS, OU=Distributed Systems Group, CN=dec244caacadf2011aa1daa154d5c49a25c7a924/emailAddress=node0634@octarine.de
        Subject Public Key Info:
            Public Key Algorithm: rsaEncryption
            RSA Public Key: (1024 bit)
                Modulus (1024 bit):
                    00:a7:2b:5e:77:5d:37:73:7b:c7:ff:58:74:b2:12:
                    22:90:fc:40:29:22:89:d3:83:90:a4:b2:28:ff:2c:
                    e9:41:87:74:b8:41:f4:4b:d8:41:80:16:a3:75:b1:
                    10:c9:6f:33:bc:17:38:62:f1:eb:c5:b3:7f:a6:58:
                    93:c5:c3:22:09:6b:70:b9:df:85:00:8d:51:e9:59:
                    23:6d:dc:88:61:32:2c:bc:79:1f:65:3f:03:71:2b:
                    02:51:c9:c2:a5:f3:39:e7:12:ae:58:89:23:94:05:
                    3e:1d:89:7e:3c:8b:19:07:58:9f:7c:f1:0a:76:96:
                    2d:21:64:0c:c8:29:96:cc:63
                Exponent: 65537 (0x10001)
    Signature Algorithm: md5WithRSAEncryption
        2f:28:db:ae:74:35:e9:98:bc:34:2a:34:a8:2c:e7:53:df:49:
        9a:68:bd:4c:87:5b:17:6c:84:d4:a2:f9:41:a6:d8:41:8f:3b:
        dc:b4:67:24:ac:b9:9f:3f:0e:ce:d5:a7:d1:97:61:bc:0c:da:
        0e:30:ab:9b:b1:e9:4b:1b:7c:c0:09:96:81:ea:4d:09:e8:60:
        12:c4:2c:60:3d:e7:eb:43:b6:db:b4:b6:39:56:97:5f:7d:3c:
        87:12:c7:b0:bd:4c:47:fe:18:84:3e:25:af:d2:4e:e3:dc:51:
        0d:2a:c9:a6:ca:f6:20:5d:c6:d8:dd:39:da:0d:1e:aa:9d:5a:
        7a:7d
-----BEGIN CERTIFICATE-----
MIICvDCCAiUCCQCbJ9fo0boKUjANBgkqhkiG9w0BAQQFADCBlTELMAkGA1UEBhMC
REUxETAPBgNVBAgTCFNhYXJsYW5kMRAwDgYDVQQKEwdNUEktU1dTMSIwIAYDVQQL
ExlEaXN0cmlidXRlZCBTeXN0ZW1zIEdyb3VwMRowGAYDVQQDExFBbmRyZWFzIEhh
ZWJlcmxlbjEhMB8GCSqGSIb3DQEJARYSZGVtb2NhQG9jdGFyaW5lLmRlMB4XDTE1
MDQyMDIwNDcyNVoXDTE2MDQxOTIwNDcyNVowga4xCzAJBgNVBAYTAkRFMREwDwYD
VQQIEwhTYWFybGFuZDEQMA4GA1UEChMHTVBJLVNXUzEiMCAGA1UECxMZRGlzdHJp
YnV0ZWQgU3lzdGVtcyBHcm91cDExMC8GA1UEAxMoZGVjMjQ0Y2FhY2FkZjIwMTFh
YTFkYWExNTRkNWM0OWEyNWM3YTkyNDEjMCEGCSqGSIb3DQEJARYUbm9kZTA2MzRA
b2N0YXJpbmUuZGUwgZ8wDQYJKoZIhvcNAQEBBQADgY0AMIGJAoGBAKcrXnddN3N7
x/9YdLISIpD8QCkiidODkKSyKP8s6UGHdLhB9EvYQYAWo3WxEMlvM7wXOGLx68Wz
f6ZYk8XDIglrcLnfhQCNUelZI23ciGEyLLx5H2U/A3ErAlHJwqXzOecSrliJI5QF
Ph2JfjyLGQdYn3zxCnaWLSFkDMgplsxjAgMBAAEwDQYJKoZIhvcNAQEEBQADgYEA
LyjbrnQ16Zi8NCo0qCznU99Jmmi9TIdbF2yE1KL5QabYQY873LRnJKy5nz8OztWn
0ZdhvAzaDjCrm7HpSxt8wAmWgepNCehgEsQsYD3n60O227S2OVaXX308hxLHsL1M
R/4YhD4lr9JO49xRDSrJpsr2IF3G2N052g0eqp1aen0=
-----END CERTIFICATE-----
