Certificate:
    Data:
        Version: 1 (0x0)
        Serial Number:
            9b:27:d7:e8:d1:ba:09:61
        Signature Algorithm: md5WithRSAEncryption
        Issuer: C=DE, ST=Saarland, O=MPI-SWS, OU=Distributed Systems Group, CN=Andreas Haeberlen/emailAddress=democa@octarine.de
        Validity
            Not Before: Apr 20 20:47:14 2015 GMT
            Not After : Apr 19 20:47:14 2016 GMT
        Subject: C=DE, ST=Saarland, O=MPI-SWS, OU=Distributed Systems Group, CN=680042eec9b5553531020a06a96efd3554596483/emailAddress=node0393@octarine.de
        Subject Public Key Info:
            Public Key Algorithm: rsaEncryption
            RSA Public Key: (1024 bit)
                Modulus (1024 bit):
                    00:d8:ce:ee:f5:b6:1f:bf:8b:bc:f7:94:55:a5:f6:
                    02:8d:d3:56:36:71:1a:8c:54:91:2c:99:bb:bb:01:
                    9b:d8:3b:34:fa:b9:0b:4d:17:0c:c8:a5:55:26:77:
                    62:32:e8:1f:ce:0b:c7:a3:b9:da:8d:83:81:76:1c:
                    8e:2d:66:59:ae:ba:63:88:9a:4b:16:f7:c1:eb:d8:
                    a1:d2:8a:97:f6:59:10:bc:cb:fe:6b:84:d7:e6:dd:
                    88:1a:3a:83:13:53:8b:88:30:32:67:c9:07:32:ac:
                    08:a6:16:46:d5:54:a6:6d:e1:df:6c:36:f1:a6:a0:
                    1f:2d:e2:7b:23:83:6f:0e:ef
                Exponent: 65537 (0x10001)
    Signature Algorithm: md5WithRSAEncryption
        62:dc:d1:16:67:dc:06:71:a6:1f:a5:09:05:00:e9:b1:62:45:
        78:fc:cd:fd:96:cd:f1:0a:c6:dd:cb:29:6b:75:7d:34:3f:f1:
        a0:88:97:b2:48:80:fa:68:77:36:3a:c6:39:f7:15:6b:07:a7:
        c4:61:a5:89:d7:8c:0e:48:33:51:c6:ae:53:ac:bc:b2:cf:72:
        85:c4:61:6b:29:a9:eb:5d:08:30:7b:ad:02:e4:e0:be:69:ff:
        28:3d:f2:1f:1f:0a:cb:bb:4c:43:6f:37:a2:9f:ad:92:00:6a:
        0c:c4:ba:dd:76:f5:47:70:f5:2b:ff:0a:f4:bc:99:36:3f:06:
        ee:dc
-----BEGIN CERTIFICATE-----
MIICvDCCAiUCCQCbJ9fo0boJYTANBgkqhkiG9w0BAQQFADCBlTELMAkGA1UEBhMC
REUxETAPBgNVBAgTCFNhYXJsYW5kMRAwDgYDVQQKEwdNUEktU1dTMSIwIAYDVQQL
ExlEaXN0cmlidXRlZCBTeXN0ZW1zIEdyb3VwMRowGAYDVQQDExFBbmRyZWFzIEhh
ZWJlcmxlbjEhMB8GCSqGSIb3DQEJARYSZGVtb2NhQG9jdGFyaW5lLmRlMB4XDTE1
MDQyMDIwNDcxNFoXDTE2MDQxOTIwNDcxNFowga4xCzAJBgNVBAYTAkRFMREwDwYD
VQQIEwhTYWFybGFuZDEQMA4GA1UEChMHTVBJLVNXUzEiMCAGA1UECxMZRGlzdHJp
YnV0ZWQgU3lzdGVtcyBHcm91cDExMC8GA1UEAxMoNjgwMDQyZWVjOWI1NTUzNTMx
MDIwYTA2YTk2ZWZkMzU1NDU5NjQ4MzEjMCEGCSqGSIb3DQEJARYUbm9kZTAzOTNA
b2N0YXJpbmUuZGUwgZ8wDQYJKoZIhvcNAQEBBQADgY0AMIGJAoGBANjO7vW2H7+L
vPeUVaX2Ao3TVjZxGoxUkSyZu7sBm9g7NPq5C00XDMilVSZ3YjLoH84Lx6O52o2D
gXYcji1mWa66Y4iaSxb3wevYodKKl/ZZELzL/muE1+bdiBo6gxNTi4gwMmfJBzKs
CKYWRtVUpm3h32w28aagHy3ieyODbw7vAgMBAAEwDQYJKoZIhvcNAQEEBQADgYEA
YtzRFmfcBnGmH6UJBQDpsWJFePzN/ZbN8QrG3cspa3V9ND/xoIiXskiA+mh3NjrG
OfcVawenxGGlideMDkgzUcauU6y8ss9yhcRhaymp610IMHutAuTgvmn/KD3yHx8K
y7tMQ283op+tkgBqDMS63Xb1R3D1K/8K9LyZNj8G7tw=
-----END CERTIFICATE-----
