Certificate:
    Data:
        Version: 1 (0x0)
        Serial Number:
            9b:27:d7:e8:d1:ba:08:6d
        Signature Algorithm: md5WithRSAEncryption
        Issuer: C=DE, ST=Saarland, O=MPI-SWS, OU=Distributed Systems Group, CN=Andreas Haeberlen/emailAddress=democa@octarine.de
        Validity
            Not Before: Apr 20 20:47:03 2015 GMT
            Not After : Apr 19 20:47:03 2016 GMT
        Subject: C=DE, ST=Saarland, O=MPI-SWS, OU=Distributed Systems Group, CN=08ee95e1c9abfea747ba06b2e883e52ed1d77b83/emailAddress=node0149@octarine.de
        Subject Public Key Info:
            Public Key Algorithm: rsaEncryption
            RSA Public Key: (1024 bit)
                Modulus (1024 bit):
                    00:bc:1e:f2:30:fc:5c:35:c7:32:7e:d4:bc:b0:b9:
                    e5:2c:bb:48:1f:8f:39:c5:4c:48:5f:c5:eb:43:5e:
                    c9:49:ba:da:c6:75:88:7a:08:14:c5:eb:b8:63:8a:
                    1c:da:09:07:92:95:f1:34:78:26:79:1a:e0:fc:22:
                    8c:5f:09:f2:43:1c:dc:87:0f:70:07:13:28:23:15:
                    e4:75:36:c6:d3:0d:e4:fb:3a:ac:b9:0b:67:3d:d6:
                    08:44:4b:3b:ae:56:2a:08:c8:5b:3d:67:49:c3:ee:
                    0d:09:58:8f:9e:b3:78:8a:d0:3c:2f:64:22:d0:ca:
                    d8:ef:37:1a:12:c3:d5:0e:f1
                Exponent: 65537 (0x10001)
    Signature Algorithm: md5WithRSAEncryption
        a1:89:35:08:8a:9c:11:5b:e2:01:f8:90:a5:98:92:08:5d:98:
        cc:dc:ce:94:cc:1c:be:f6:72:96:18:b7:7f:bd:14:f7:21:41:
        59:f9:aa:c6:ac:61:60:e3:e3:18:ef:c5:4d:70:85:84:f9:08:
        4a:bb:54:f6:8d:4b:25:8a:14:be:54:d6:33:69:a9:24:5c:28:
        ab:63:96:04:ab:6a:8a:0a:35:5b:e5:c9:f2:1a:be:cc:c2:2b:
        84:0f:35:bb:d0:b0:99:2a:1f:7a:79:9d:ad:0a:f2:83:fc:bf:
        e3:de:2d:9f:44:b2:2a:11:f3:6d:0a:1e:db:6b:23:6c:ca:ce:
        c3:64
-----BEGIN CERTIFICATE-----
MIICvDCCAiUCCQCbJ9fo0boIbTANBgkqhkiG9w0BAQQFADCBlTELMAkGA1UEBhMC
REUxETAPBgNVBAgTCFNhYXJsYW5kMRAwDgYDVQQKEwdNUEktU1dTMSIwIAYDVQQL
ExlEaXN0cmlidXRlZCBTeXN0ZW1zIEdyb3VwMRowGAYDVQQDExFBbmRyZWFzIEhh
ZWJlcmxlbjEhMB8GCSqGSIb3DQEJARYSZGVtb2NhQG9jdGFyaW5lLmRlMB4XDTE1
MDQyMDIwNDcwM1oXDTE2MDQxOTIwNDcwM1owga4xCzAJBgNVBAYTAkRFMREwDwYD
VQQIEwhTYWFybGFuZDEQMA4GA1UEChMHTVBJLVNXUzEiMCAGA1UECxMZRGlzdHJp
YnV0ZWQgU3lzdGVtcyBHcm91cDExMC8GA1UEAxMoMDhlZTk1ZTFjOWFiZmVhNzQ3
YmEwNmIyZTg4M2U1MmVkMWQ3N2I4MzEjMCEGCSqGSIb3DQEJARYUbm9kZTAxNDlA
b2N0YXJpbmUuZGUwgZ8wDQYJKoZIhvcNAQEBBQADgY0AMIGJAoGBALwe8jD8XDXH
Mn7UvLC55Sy7SB+POcVMSF/F60NeyUm62sZ1iHoIFMXruGOKHNoJB5KV8TR4Jnka
4PwijF8J8kMc3IcPcAcTKCMV5HU2xtMN5Ps6rLkLZz3WCERLO65WKgjIWz1nScPu
DQlYj56zeIrQPC9kItDK2O83GhLD1Q7xAgMBAAEwDQYJKoZIhvcNAQEEBQADgYEA
oYk1CIqcEVviAfiQpZiSCF2YzNzOlMwcvvZylhi3f70U9yFBWfmqxqxhYOPjGO/F
TXCFhPkISrtU9o1LJYoUvlTWM2mpJFwoq2OWBKtqigo1W+XJ8hq+zMIrhA81u9Cw
mSofenmdrQryg/y/494tn0SyKhHzbQoe22sjbMrOw2Q=
-----END CERTIFICATE-----
