Certificate:
    Data:
        Version: 1 (0x0)
        Serial Number:
            9b:27:d7:e8:d1:ba:08:48
        Signature Algorithm: md5WithRSAEncryption
        Issuer: C=DE, ST=Saarland, O=MPI-SWS, OU=Distributed Systems Group, CN=Andreas Haeberlen/emailAddress=democa@octarine.de
        Validity
            Not Before: Apr 20 20:47:01 2015 GMT
            Not After : Apr 19 20:47:01 2016 GMT
        Subject: C=DE, ST=Saarland, O=MPI-SWS, OU=Distributed Systems Group, CN=8b7a47c35d54901a71dc450ed40b3dbc936ea220/emailAddress=node0112@octarine.de
        Subject Public Key Info:
            Public Key Algorithm: rsaEncryption
            RSA Public Key: (1024 bit)
                Modulus (1024 bit):
                    00:c8:71:18:c9:e1:a6:b7:69:31:12:b7:8b:1d:7e:
                    a9:97:14:39:45:17:00:ae:9a:29:d3:a9:f1:36:e8:
                    3c:0c:af:83:9b:92:88:a6:bc:57:9c:c9:fb:75:e4:
                    aa:d3:e6:6a:d0:ef:0a:ac:45:47:e1:f9:f7:ba:a4:
                    09:a4:57:53:ee:2f:dd:b3:b4:16:8f:0b:ce:46:d8:
                    6d:63:7b:e6:c5:f3:6d:34:71:1c:06:93:a2:8f:60:
                    2a:c4:dd:dc:2d:6a:e6:b3:db:b6:17:ed:5e:40:5c:
                    31:ca:0c:9b:c3:64:12:4a:2b:bc:eb:6f:57:54:40:
                    b6:22:d2:93:fd:66:4a:70:a5
                Exponent: 65537 (0x10001)
    Signature Algorithm: md5WithRSAEncryption
        bf:4c:49:fe:0b:4f:79:42:b6:fc:ff:d2:10:23:f8:f9:6b:ae:
        a0:e8:e9:d8:fb:dc:e3:ff:23:8b:11:3b:bc:b4:7b:28:08:3a:
        0a:76:4f:c8:7f:ac:62:ca:b6:55:89:2e:26:46:43:48:75:bb:
        95:8e:59:c1:c3:c8:c3:78:2e:a4:74:55:2f:e2:72:85:47:8a:
        35:12:e6:42:2a:a7:b8:3a:bb:a1:58:46:34:3d:2b:a7:f9:02:
        cd:00:66:28:e8:45:49:ea:fe:df:c6:26:45:49:57:33:9c:68:
        a2:6f:e8:03:8c:65:9f:32:ed:99:9c:7a:2c:29:cf:2b:ad:39:
        90:1d
-----BEGIN CERTIFICATE-----
MIICvDCCAiUCCQCbJ9fo0boISDANBgkqhkiG9w0BAQQFADCBlTELMAkGA1UEBhMC
REUxETAPBgNVBAgTCFNhYXJsYW5kMRAwDgYDVQQKEwdNUEktU1dTMSIwIAYDVQQL
ExlEaXN0cmlidXRlZCBTeXN0ZW1zIEdyb3VwMRowGAYDVQQDExFBbmRyZWFzIEhh
ZWJlcmxlbjEhMB8GCSqGSIb3DQEJARYSZGVtb2NhQG9jdGFyaW5lLmRlMB4XDTE1
MDQyMDIwNDcwMVoXDTE2MDQxOTIwNDcwMVowga4xCzAJBgNVBAYTAkRFMREwDwYD
VQQIEwhTYWFybGFuZDEQMA4GA1UEChMHTVBJLVNXUzEiMCAGA1UECxMZRGlzdHJp
YnV0ZWQgU3lzdGVtcyBHcm91cDExMC8GA1UEAxMoOGI3YTQ3YzM1ZDU0OTAxYTcx
ZGM0NTBlZDQwYjNkYmM5MzZlYTIyMDEjMCEGCSqGSIb3DQEJARYUbm9kZTAxMTJA
b2N0YXJpbmUuZGUwgZ8wDQYJKoZIhvcNAQEBBQADgY0AMIGJAoGBAMhxGMnhprdp
MRK3ix1+qZcUOUUXAK6aKdOp8TboPAyvg5uSiKa8V5zJ+3XkqtPmatDvCqxFR+H5
97qkCaRXU+4v3bO0Fo8LzkbYbWN75sXzbTRxHAaToo9gKsTd3C1q5rPbthftXkBc
McoMm8NkEkorvOtvV1RAtiLSk/1mSnClAgMBAAEwDQYJKoZIhvcNAQEEBQADgYEA
v0xJ/gtPeUK2/P/SECP4+WuuoOjp2Pvc4/8jixE7vLR7KAg6CnZPyH+sYsq2VYku
JkZDSHW7lY5ZwcPIw3gupHRVL+JyhUeKNRLmQiqnuDq7oVhGND0rp/kCzQBmKOhF
Ser+38YmRUlXM5xoom/oA4xlnzLtmZx6LCnPK605kB0=
-----END CERTIFICATE-----
