Certificate:
    Data:
        Version: 1 (0x0)
        Serial Number:
            9b:27:d7:e8:d1:ba:09:6d
        Signature Algorithm: md5WithRSAEncryption
        Issuer: C=DE, ST=Saarland, O=MPI-SWS, OU=Distributed Systems Group, CN=Andreas Haeberlen/emailAddress=democa@octarine.de
        Validity
            Not Before: Apr 20 20:47:14 2015 GMT
            Not After : Apr 19 20:47:14 2016 GMT
        Subject: C=DE, ST=Saarland, O=MPI-SWS, OU=Distributed Systems Group, CN=cb454ef3f0bfbdf8aec0b0d6c1a85d619b7e9619/emailAddress=node0405@octarine.de
        Subject Public Key Info:
            Public Key Algorithm: rsaEncryption
            RSA Public Key: (1024 bit)
                Modulus (1024 bit):
                    00:eb:bd:d6:ee:e3:e0:ae:10:7e:3e:98:b9:ec:7c:
                    13:f6:e7:99:e0:18:a8:6e:57:67:56:19:a2:20:52:
                    1f:21:c1:a5:78:3a:99:71:f9:84:bb:93:47:fc:40:
                    fb:7e:a1:fe:bf:5f:4a:a3:e0:51:e9:99:b2:ae:ea:
                    3d:fe:84:81:e8:e6:a0:48:37:16:f3:58:e0:22:71:
                    1d:93:d7:0c:fc:66:7c:5f:db:41:0f:fa:07:9c:bb:
                    ff:94:9a:20:54:64:0f:00:60:49:af:f4:68:84:06:
                    f3:ac:e9:d3:bb:c8:75:ce:0f:9f:4c:5e:8d:ef:d6:
                    f9:6c:b6:61:6a:cd:1e:42:ed
                Exponent: 65537 (0x10001)
    Signature Algorithm: md5WithRSAEncryption
        90:52:f1:e8:6b:62:f7:b2:01:39:47:78:e5:00:19:42:98:2e:
        1b:9c:39:be:01:7a:5e:ee:a3:0d:b2:7d:21:35:63:2c:7b:f8:
        13:1f:c1:e9:6e:ab:ae:40:da:4a:57:99:c3:86:85:9c:8e:35:
        e2:8d:08:8d:81:da:e7:de:06:f0:e0:1e:86:bc:19:f1:37:94:
        66:32:e0:91:e8:96:52:94:60:fc:24:fb:96:d3:06:47:da:9a:
        ac:b3:c6:48:a7:dc:17:ab:13:56:6b:4a:25:0e:f1:96:9b:1e:
        ec:3a:62:03:15:8f:11:f0:8a:e2:98:d9:77:c3:16:89:0a:2c:
        ab:f1
-----BEGIN CERTIFICATE-----
MIICvDCCAiUCCQCbJ9fo0boJbTANBgkqhkiG9w0BAQQFADCBlTELMAkGA1UEBhMC
REUxETAPBgNVBAgTCFNhYXJsYW5kMRAwDgYDVQQKEwdNUEktU1dTMSIwIAYDVQQL
ExlEaXN0cmlidXRlZCBTeXN0ZW1zIEdyb3VwMRowGAYDVQQDExFBbmRyZWFzIEhh
ZWJlcmxlbjEhMB8GCSqGSIb3DQEJARYSZGVtb2NhQG9jdGFyaW5lLmRlMB4XDTE1
MDQyMDIwNDcxNFoXDTE2MDQxOTIwNDcxNFowga4xCzAJBgNVBAYTAkRFMREwDwYD
VQQIEwhTYWFybGFuZDEQMA4GA1UEChMHTVBJLVNXUzEiMCAGA1UECxMZRGlzdHJp
YnV0ZWQgU3lzdGVtcyBHcm91cDExMC8GA1UEAxMoY2I0NTRlZjNmMGJmYmRmOGFl
YzBiMGQ2YzFhODVkNjE5YjdlOTYxOTEjMCEGCSqGSIb3DQEJARYUbm9kZTA0MDVA
b2N0YXJpbmUuZGUwgZ8wDQYJKoZIhvcNAQEBBQADgY0AMIGJAoGBAOu91u7j4K4Q
fj6Yuex8E/bnmeAYqG5XZ1YZoiBSHyHBpXg6mXH5hLuTR/xA+36h/r9fSqPgUemZ
sq7qPf6EgejmoEg3FvNY4CJxHZPXDPxmfF/bQQ/6B5y7/5SaIFRkDwBgSa/0aIQG
86zp07vIdc4Pn0xeje/W+Wy2YWrNHkLtAgMBAAEwDQYJKoZIhvcNAQEEBQADgYEA
kFLx6Gti97IBOUd45QAZQpguG5w5vgF6Xu6jDbJ9ITVjLHv4Ex/B6W6rrkDaSleZ
w4aFnI414o0IjYHa594G8OAehrwZ8TeUZjLgkeiWUpRg/CT7ltMGR9qarLPGSKfc
F6sTVmtKJQ7xlpse7DpiAxWPEfCK4pjZd8MWiQosq/E=
-----END CERTIFICATE-----
