Certificate:
    Data:
        Version: 1 (0x0)
        Serial Number:
            9b:27:d7:e8:d1:ba:0a:75
        Signature Algorithm: md5WithRSAEncryption
        Issuer: C=DE, ST=Saarland, O=MPI-SWS, OU=Distributed Systems Group, CN=Andreas Haeberlen/emailAddress=democa@octarine.de
        Validity
            Not Before: Apr 20 20:47:26 2015 GMT
            Not After : Apr 19 20:47:26 2016 GMT
        Subject: C=DE, ST=Saarland, O=MPI-SWS, OU=Distributed Systems Group, CN=addf15640877f72928ba6b2963d739fd6dd823d3/emailAddress=node0669@octarine.de
        Subject Public Key Info:
            Public Key Algorithm: rsaEncryption
            RSA Public Key: (1024 bit)
                Modulus (1024 bit):
                    00:d4:4d:73:a5:10:6a:cc:87:ae:37:db:ae:34:c8:
                    18:5d:47:bb:70:f5:05:f1:f6:f2:56:ac:57:7d:1a:
                    cc:d4:0d:34:dc:d6:57:54:d5:94:77:32:54:ec:ee:
                    f5:ce:c8:fa:fc:56:82:8c:0a:70:12:27:e5:21:0a:
                    c1:7e:c1:08:1f:24:a0:99:91:80:85:97:28:b4:d0:
                    20:84:a0:a1:a4:1b:de:c1:4f:33:93:14:9a:17:0d:
                    11:37:60:93:70:9f:87:81:23:c7:af:46:64:c6:c3:
                    92:34:fa:44:5b:3d:d8:0f:40:9d:9d:8a:99:57:cf:
                    0c:ae:d7:44:fb:11:fc:e6:c3
                Exponent: 65537 (0x10001)
    Signature Algorithm: md5WithRSAEncryption
        76:dc:ed:b9:80:85:c2:15:cd:dc:e0:3c:f0:6e:6c:da:c0:c7:
        98:63:ee:c5:2c:df:fe:c2:3a:e8:fa:61:36:98:3c:59:0a:93:
        25:f2:2c:1d:dc:6c:68:51:46:d1:8d:25:08:c8:43:85:b2:02:
        91:60:75:bb:be:c9:8c:19:ae:79:bc:05:c6:c9:f1:4b:e0:5c:
        e0:94:cd:29:db:7e:8c:f4:82:86:6b:98:0b:54:e4:3f:cc:7e:
        34:72:48:b5:1d:19:8f:46:11:f9:df:7a:6b:7d:35:75:46:00:
        d5:9c:49:b4:3b:51:9d:96:fe:d8:35:eb:ab:6c:11:f9:f6:da:
        2e:6d
-----BEGIN CERTIFICATE-----
MIICvDCCAiUCCQCbJ9fo0boKdTANBgkqhkiG9w0BAQQFADCBlTELMAkGA1UEBhMC
REUxETAPBgNVBAgTCFNhYXJsYW5kMRAwDgYDVQQKEwdNUEktU1dTMSIwIAYDVQQL
ExlEaXN0cmlidXRlZCBTeXN0ZW1zIEdyb3VwMRowGAYDVQQDExFBbmRyZWFzIEhh
ZWJlcmxlbjEhMB8GCSqGSIb3DQEJARYSZGVtb2NhQG9jdGFyaW5lLmRlMB4XDTE1
MDQyMDIwNDcyNloXDTE2MDQxOTIwNDcyNlowga4xCzAJBgNVBAYTAkRFMREwDwYD
VQQIEwhTYWFybGFuZDEQMA4GA1UEChMHTVBJLVNXUzEiMCAGA1UECxMZRGlzdHJp
YnV0ZWQgU3lzdGVtcyBHcm91cDExMC8GA1UEAxMoYWRkZjE1NjQwODc3ZjcyOTI4
YmE2YjI5NjNkNzM5ZmQ2ZGQ4MjNkMzEjMCEGCSqGSIb3DQEJARYUbm9kZTA2NjlA
b2N0YXJpbmUuZGUwgZ8wDQYJKoZIhvcNAQEBBQADgY0AMIGJAoGBANRNc6UQasyH
rjfbrjTIGF1Hu3D1BfH28lasV30azNQNNNzWV1TVlHcyVOzu9c7I+vxWgowKcBIn
5SEKwX7BCB8koJmRgIWXKLTQIISgoaQb3sFPM5MUmhcNETdgk3Cfh4Ejx69GZMbD
kjT6RFs92A9AnZ2KmVfPDK7XRPsR/ObDAgMBAAEwDQYJKoZIhvcNAQEEBQADgYEA
dtztuYCFwhXN3OA88G5s2sDHmGPuxSzf/sI66PphNpg8WQqTJfIsHdxsaFFG0Y0l
CMhDhbICkWB1u77JjBmuebwFxsnxS+Bc4JTNKdt+jPSChmuYC1TkP8x+NHJItR0Z
j0YR+d96a301dUYA1ZxJtDtRnZb+2DXrq2wR+fbaLm0=
-----END CERTIFICATE-----
