Certificate:
    Data:
        Version: 1 (0x0)
        Serial Number:
            9b:27:d7:e8:d1:ba:07:ef
        Signature Algorithm: md5WithRSAEncryption
        Issuer: C=DE, ST=Saarland, O=MPI-SWS, OU=Distributed Systems Group, CN=Andreas Haeberlen/emailAddress=democa@octarine.de
        Validity
            Not Before: Apr 20 20:46:58 2015 GMT
            Not After : Apr 19 20:46:58 2016 GMT
        Subject: C=DE, ST=Saarland, O=MPI-SWS, OU=Distributed Systems Group, CN=10229f49b1785f284423d47236531642664069a1/emailAddress=node0023@octarine.de
        Subject Public Key Info:
            Public Key Algorithm: rsaEncryption
            RSA Public Key: (1024 bit)
                Modulus (1024 bit):
                    00:9f:a1:04:8d:18:ee:dd:80:a1:f1:d1:52:4a:df:
                    64:e6:ce:4f:44:7a:bc:60:cb:c4:59:a6:5b:27:ad:
                    cc:32:d2:bb:16:9f:a9:f1:b7:a2:a8:1c:f1:4a:97:
                    12:4b:0c:d0:f2:cb:2b:dc:f8:cc:29:d9:7a:d9:20:
                    df:9e:ce:a8:5c:78:e2:a6:6c:6d:4f:54:1b:ee:b2:
                    f3:7d:1d:1f:9c:68:de:ef:e0:da:5d:5a:c2:7c:51:
                    a7:42:d6:c4:78:d2:0e:4c:86:7c:0a:32:26:05:65:
                    e6:00:da:ed:17:d2:50:95:1f:37:4b:9b:57:23:ad:
                    e2:2f:2b:23:53:82:4f:60:39
                Exponent: 65537 (0x10001)
    Signature Algorithm: md5WithRSAEncryption
        2a:d7:5f:f3:27:ce:d1:56:72:15:e9:e7:8a:89:48:a4:43:1f:
        f1:4f:bd:78:24:87:5e:1b:96:41:5f:7c:22:c4:62:18:72:89:
        5c:46:8d:d1:ca:17:b6:a3:51:2d:4f:71:c7:54:cf:46:39:a9:
        c7:10:85:b5:7b:fc:b9:8a:1b:63:13:b9:df:97:ce:25:91:52:
        0d:3b:11:ba:97:2f:a6:89:a8:38:86:f1:e6:88:67:08:bc:38:
        71:93:06:b9:ed:37:39:6e:02:57:23:e2:38:ff:23:a6:18:b7:
        39:5d:48:ca:29:da:40:1e:bf:46:92:67:5e:da:34:fd:12:d3:
        b6:b3
-----BEGIN CERTIFICATE-----
MIICvDCCAiUCCQCbJ9fo0boH7zANBgkqhkiG9w0BAQQFADCBlTELMAkGA1UEBhMC
REUxETAPBgNVBAgTCFNhYXJsYW5kMRAwDgYDVQQKEwdNUEktU1dTMSIwIAYDVQQL
ExlEaXN0cmlidXRlZCBTeXN0ZW1zIEdyb3VwMRowGAYDVQQDExFBbmRyZWFzIEhh
ZWJlcmxlbjEhMB8GCSqGSIb3DQEJARYSZGVtb2NhQG9jdGFyaW5lLmRlMB4XDTE1
MDQyMDIwNDY1OFoXDTE2MDQxOTIwNDY1OFowga4xCzAJBgNVBAYTAkRFMREwDwYD
VQQIEwhTYWFybGFuZDEQMA4GA1UEChMHTVBJLVNXUzEiMCAGA1UECxMZRGlzdHJp
YnV0ZWQgU3lzdGVtcyBHcm91cDExMC8GA1UEAxMoMTAyMjlmNDliMTc4NWYyODQ0
MjNkNDcyMzY1MzE2NDI2NjQwNjlhMTEjMCEGCSqGSIb3DQEJARYUbm9kZTAwMjNA
b2N0YXJpbmUuZGUwgZ8wDQYJKoZIhvcNAQEBBQADgY0AMIGJAoGBAJ+hBI0Y7t2A
ofHRUkrfZObOT0R6vGDLxFmmWyetzDLSuxafqfG3oqgc8UqXEksM0PLLK9z4zCnZ
etkg357OqFx44qZsbU9UG+6y830dH5xo3u/g2l1awnxRp0LWxHjSDkyGfAoyJgVl
5gDa7RfSUJUfN0ubVyOt4i8rI1OCT2A5AgMBAAEwDQYJKoZIhvcNAQEEBQADgYEA
Ktdf8yfO0VZyFenniolIpEMf8U+9eCSHXhuWQV98IsRiGHKJXEaN0coXtqNRLU9x
x1TPRjmpxxCFtXv8uYobYxO535fOJZFSDTsRupcvpomoOIbx5ohnCLw4cZMGue03
OW4CVyPiOP8jphi3OV1IyinaQB6/RpJnXto0/RLTtrM=
-----END CERTIFICATE-----
