Certificate:
    Data:
        Version: 1 (0x0)
        Serial Number:
            9b:27:d7:e8:d1:ba:0a:50
        Signature Algorithm: md5WithRSAEncryption
        Issuer: C=DE, ST=Saarland, O=MPI-SWS, OU=Distributed Systems Group, CN=Andreas Haeberlen/emailAddress=democa@octarine.de
        Validity
            Not Before: Apr 20 20:47:25 2015 GMT
            Not After : Apr 19 20:47:25 2016 GMT
        Subject: C=DE, ST=Saarland, O=MPI-SWS, OU=Distributed Systems Group, CN=c1ce77a20673889e105d2fe05ed5ad37ff666197/emailAddress=node0632@octarine.de
        Subject Public Key Info:
            Public Key Algorithm: rsaEncryption
            RSA Public Key: (1024 bit)
                Modulus (1024 bit):
                    00:a4:1e:58:86:c1:ff:44:ce:20:62:9a:6c:a7:96:
                    d5:76:b4:74:fb:8d:6e:f6:4f:26:cc:0f:66:d2:80:
                    9f:e4:ec:1f:31:0b:e8:a8:35:32:88:2c:5b:7b:ab:
                    15:7e:63:30:d6:3a:eb:fd:83:bb:7f:a9:71:c3:67:
                    73:09:b4:0d:70:01:d2:cd:e6:c0:a9:80:27:4a:87:
                    12:e1:7a:ac:62:3d:2a:86:ef:1c:09:33:30:4a:d8:
                    7e:9b:f2:06:d8:f3:a9:fe:71:11:ab:e9:1f:39:1a:
                    f2:70:8c:69:51:c6:9c:d3:41:ec:19:74:80:c3:70:
                    8a:82:8d:8b:1a:a0:5c:d6:45
                Exponent: 65537 (0x10001)
    Signature Algorithm: md5WithRSAEncryption
        5f:36:9f:79:13:cc:17:4c:65:2f:14:15:8e:01:93:e9:e1:bb:
        b7:30:1c:38:3d:4b:3a:06:12:00:12:ee:a8:7d:08:5c:44:67:
        44:33:fd:bd:68:d0:8b:1f:51:d6:aa:c3:20:da:14:fa:e3:0d:
        82:e8:75:e5:5c:88:52:d3:73:2c:a2:1e:83:84:05:1f:82:e4:
        55:00:21:c3:1a:58:6e:cc:ae:98:e1:72:b7:67:b7:53:55:1a:
        77:24:63:d1:bc:09:1d:a9:01:1f:a1:c3:3a:a4:6d:57:92:0f:
        75:ff:3b:f9:af:b0:25:ea:98:b0:c4:02:ad:47:21:ca:e7:d1:
        e7:e9
-----BEGIN CERTIFICATE-----
MIICvDCCAiUCCQCbJ9fo0boKUDANBgkqhkiG9w0BAQQFADCBlTELMAkGA1UEBhMC
REUxETAPBgNVBAgTCFNhYXJsYW5kMRAwDgYDVQQKEwdNUEktU1dTMSIwIAYDVQQL
ExlEaXN0cmlidXRlZCBTeXN0ZW1zIEdyb3VwMRowGAYDVQQDExFBbmRyZWFzIEhh
ZWJlcmxlbjEhMB8GCSqGSIb3DQEJARYSZGVtb2NhQG9jdGFyaW5lLmRlMB4XDTE1
MDQyMDIwNDcyNVoXDTE2MDQxOTIwNDcyNVowga4xCzAJBgNVBAYTAkRFMREwDwYD
VQQIEwhTYWFybGFuZDEQMA4GA1UEChMHTVBJLVNXUzEiMCAGA1UECxMZRGlzdHJp
YnV0ZWQgU3lzdGVtcyBHcm91cDExMC8GA1UEAxMoYzFjZTc3YTIwNjczODg5ZTEw
NWQyZmUwNWVkNWFkMzdmZjY2NjE5NzEjMCEGCSqGSIb3DQEJARYUbm9kZTA2MzJA
b2N0YXJpbmUuZGUwgZ8wDQYJKoZIhvcNAQEBBQADgY0AMIGJAoGBAKQeWIbB/0TO
IGKabKeW1Xa0dPuNbvZPJswPZtKAn+TsHzEL6Kg1MogsW3urFX5jMNY66/2Du3+p
ccNncwm0DXAB0s3mwKmAJ0qHEuF6rGI9KobvHAkzMErYfpvyBtjzqf5xEavpHzka
8nCMaVHGnNNB7Bl0gMNwioKNixqgXNZFAgMBAAEwDQYJKoZIhvcNAQEEBQADgYEA
XzafeRPMF0xlLxQVjgGT6eG7tzAcOD1LOgYSABLuqH0IXERnRDP9vWjQix9R1qrD
INoU+uMNguh15VyIUtNzLKIeg4QFH4LkVQAhwxpYbsyumOFyt2e3U1UadyRj0bwJ
HakBH6HDOqRtV5IPdf87+a+wJeqYsMQCrUchyufR5+k=
-----END CERTIFICATE-----
