Certificate:
    Data:
        Version: 1 (0x0)
        Serial Number:
            9b:27:d7:e8:d1:ba:09:b9
        Signature Algorithm: md5WithRSAEncryption
        Issuer: C=DE, ST=Saarland, O=MPI-SWS, OU=Distributed Systems Group, CN=Andreas Haeberlen/emailAddress=democa@octarine.de
        Validity
            Not Before: Apr 20 20:47:18 2015 GMT
            Not After : Apr 19 20:47:18 2016 GMT
        Subject: C=DE, ST=Saarland, O=MPI-SWS, OU=Distributed Systems Group, CN=963f80b2dc52287cedbc7c769ad7e907047942c2/emailAddress=node0481@octarine.de
        Subject Public Key Info:
            Public Key Algorithm: rsaEncryption
            RSA Public Key: (1024 bit)
                Modulus (1024 bit):
                    00:a5:2f:94:ff:12:75:b4:26:e8:8e:33:8f:2a:5a:
                    bb:1e:b2:5c:7b:dd:a9:14:ba:c7:d7:e1:53:e1:2e:
                    24:07:1e:69:5d:a3:a4:14:c4:ba:a2:05:be:f9:77:
                    92:87:77:5c:f0:39:17:ae:e9:66:89:8b:43:9e:2d:
                    72:42:8b:0b:63:98:f6:c6:72:e3:9c:a3:03:a1:18:
                    d2:24:fd:51:a4:6c:6d:6e:27:2a:f4:9e:51:e3:18:
                    ce:c6:0a:10:23:b7:a0:32:b3:3f:bf:5d:fb:74:6a:
                    a3:43:9c:03:1b:75:e1:27:cf:e0:d3:ad:f5:18:e5:
                    e7:35:a5:d7:6d:e5:d9:fd:87
                Exponent: 65537 (0x10001)
    Signature Algorithm: md5WithRSAEncryption
        4a:83:a1:08:6c:bc:5b:21:63:23:67:e2:3d:bd:55:7a:ea:2b:
        b8:62:bf:69:96:a4:88:f3:b0:b7:40:f5:e8:50:d8:46:ba:3f:
        8e:a1:ec:a5:58:b2:b5:16:7a:79:0c:b1:0e:7e:51:58:0d:75:
        0f:3f:d8:f0:e9:ac:74:5a:ac:df:b3:89:91:a1:6a:f5:03:fe:
        07:87:2a:1e:e7:2d:70:6b:2d:ad:39:60:bf:bd:17:31:9d:56:
        5e:f5:14:a2:61:17:53:85:38:db:c5:28:d5:6e:e9:4c:63:5a:
        4e:c8:8d:db:b3:d2:2c:89:ca:45:e8:20:16:87:b5:85:9a:54:
        8e:10
-----BEGIN CERTIFICATE-----
MIICvDCCAiUCCQCbJ9fo0boJuTANBgkqhkiG9w0BAQQFADCBlTELMAkGA1UEBhMC
REUxETAPBgNVBAgTCFNhYXJsYW5kMRAwDgYDVQQKEwdNUEktU1dTMSIwIAYDVQQL
ExlEaXN0cmlidXRlZCBTeXN0ZW1zIEdyb3VwMRowGAYDVQQDExFBbmRyZWFzIEhh
ZWJlcmxlbjEhMB8GCSqGSIb3DQEJARYSZGVtb2NhQG9jdGFyaW5lLmRlMB4XDTE1
MDQyMDIwNDcxOFoXDTE2MDQxOTIwNDcxOFowga4xCzAJBgNVBAYTAkRFMREwDwYD
VQQIEwhTYWFybGFuZDEQMA4GA1UEChMHTVBJLVNXUzEiMCAGA1UECxMZRGlzdHJp
YnV0ZWQgU3lzdGVtcyBHcm91cDExMC8GA1UEAxMoOTYzZjgwYjJkYzUyMjg3Y2Vk
YmM3Yzc2OWFkN2U5MDcwNDc5NDJjMjEjMCEGCSqGSIb3DQEJARYUbm9kZTA0ODFA
b2N0YXJpbmUuZGUwgZ8wDQYJKoZIhvcNAQEBBQADgY0AMIGJAoGBAKUvlP8SdbQm
6I4zjypaux6yXHvdqRS6x9fhU+EuJAceaV2jpBTEuqIFvvl3kod3XPA5F67pZomL
Q54tckKLC2OY9sZy45yjA6EY0iT9UaRsbW4nKvSeUeMYzsYKECO3oDKzP79d+3Rq
o0OcAxt14SfP4NOt9Rjl5zWl123l2f2HAgMBAAEwDQYJKoZIhvcNAQEEBQADgYEA
SoOhCGy8WyFjI2fiPb1VeuoruGK/aZakiPOwt0D16FDYRro/jqHspViytRZ6eQyx
Dn5RWA11Dz/Y8OmsdFqs37OJkaFq9QP+B4cqHuctcGstrTlgv70XMZ1WXvUUomEX
U4U428Uo1W7pTGNaTsiN27PSLInKReggFoe1hZpUjhA=
-----END CERTIFICATE-----
