Certificate:
    Data:
        Version: 1 (0x0)
        Serial Number:
            9b:27:d7:e8:d1:ba:09:74
        Signature Algorithm: md5WithRSAEncryption
        Issuer: C=DE, ST=Saarland, O=MPI-SWS, OU=Distributed Systems Group, CN=Andreas Haeberlen/emailAddress=democa@octarine.de
        Validity
            Not Before: Apr 20 20:47:14 2015 GMT
            Not After : Apr 19 20:47:14 2016 GMT
        Subject: C=DE, ST=Saarland, O=MPI-SWS, OU=Distributed Systems Group, CN=968f06f5a2bd4b4969c015ff29ba26dcc5bcbb26/emailAddress=node0412@octarine.de
        Subject Public Key Info:
            Public Key Algorithm: rsaEncryption
            RSA Public Key: (1024 bit)
                Modulus (1024 bit):
                    00:ba:aa:5a:3d:d3:d8:d1:c8:58:96:64:a1:92:8b:
                    c5:7b:b8:51:fc:55:e5:ee:35:c5:24:ff:a2:05:dc:
                    e9:e1:6f:2a:ac:e4:cc:ff:07:9f:f7:20:29:ec:cf:
                    85:38:ba:03:0a:cb:31:6b:12:1e:eb:db:07:a1:1d:
                    37:79:90:ed:44:1d:bd:66:18:b1:b9:6d:e8:34:a7:
                    16:73:dd:d3:c8:b5:e2:04:21:30:cf:47:6e:84:74:
                    48:7f:da:3e:4a:6d:37:ab:f4:0e:1e:d8:5e:e9:54:
                    f8:13:d5:c7:03:aa:11:5c:3e:63:33:df:85:16:7d:
                    58:8e:07:eb:2d:f7:60:b1:5b
                Exponent: 65537 (0x10001)
    Signature Algorithm: md5WithRSAEncryption
        61:6c:1a:86:13:40:5d:cd:f8:5b:a7:2e:97:cc:3e:2f:5e:8b:
        74:29:e1:9b:6c:4e:44:e8:0b:b2:85:a0:e1:37:09:6e:a6:e0:
        87:07:e1:91:a9:d0:5a:eb:0c:41:b0:d5:62:c9:0c:37:3a:eb:
        84:63:ad:08:36:b9:71:de:18:4d:d1:49:9c:bd:63:1b:1d:6e:
        97:24:eb:31:f8:29:48:fa:bd:3b:c5:48:a2:c8:76:c8:1a:71:
        80:45:97:82:8f:ea:c1:f7:75:ba:fd:4a:2f:fa:ac:2c:12:88:
        f2:62:df:ea:1c:fd:5f:40:da:0f:87:c5:ca:6f:78:4d:84:6a:
        ea:05
-----BEGIN CERTIFICATE-----
MIICvDCCAiUCCQCbJ9fo0boJdDANBgkqhkiG9w0BAQQFADCBlTELMAkGA1UEBhMC
REUxETAPBgNVBAgTCFNhYXJsYW5kMRAwDgYDVQQKEwdNUEktU1dTMSIwIAYDVQQL
ExlEaXN0cmlidXRlZCBTeXN0ZW1zIEdyb3VwMRowGAYDVQQDExFBbmRyZWFzIEhh
ZWJlcmxlbjEhMB8GCSqGSIb3DQEJARYSZGVtb2NhQG9jdGFyaW5lLmRlMB4XDTE1
MDQyMDIwNDcxNFoXDTE2MDQxOTIwNDcxNFowga4xCzAJBgNVBAYTAkRFMREwDwYD
VQQIEwhTYWFybGFuZDEQMA4GA1UEChMHTVBJLVNXUzEiMCAGA1UECxMZRGlzdHJp
YnV0ZWQgU3lzdGVtcyBHcm91cDExMC8GA1UEAxMoOTY4ZjA2ZjVhMmJkNGI0OTY5
YzAxNWZmMjliYTI2ZGNjNWJjYmIyNjEjMCEGCSqGSIb3DQEJARYUbm9kZTA0MTJA
b2N0YXJpbmUuZGUwgZ8wDQYJKoZIhvcNAQEBBQADgY0AMIGJAoGBALqqWj3T2NHI
WJZkoZKLxXu4UfxV5e41xST/ogXc6eFvKqzkzP8Hn/cgKezPhTi6AwrLMWsSHuvb
B6EdN3mQ7UQdvWYYsblt6DSnFnPd08i14gQhMM9HboR0SH/aPkptN6v0Dh7YXulU
+BPVxwOqEVw+YzPfhRZ9WI4H6y33YLFbAgMBAAEwDQYJKoZIhvcNAQEEBQADgYEA
YWwahhNAXc34W6cul8w+L16LdCnhm2xOROgLsoWg4TcJbqbghwfhkanQWusMQbDV
YskMNzrrhGOtCDa5cd4YTdFJnL1jGx1ulyTrMfgpSPq9O8VIosh2yBpxgEWXgo/q
wfd1uv1KL/qsLBKI8mLf6hz9X0DaD4fFym94TYRq6gU=
-----END CERTIFICATE-----
