Certificate:
    Data:
        Version: 1 (0x0)
        Serial Number:
            9b:27:d7:e8:d1:ba:09:5f
        Signature Algorithm: md5WithRSAEncryption
        Issuer: C=DE, ST=Saarland, O=MPI-SWS, OU=Distributed Systems Group, CN=Andreas Haeberlen/emailAddress=democa@octarine.de
        Validity
            Not Before: Apr 20 20:47:13 2015 GMT
            Not After : Apr 19 20:47:13 2016 GMT
        Subject: C=DE, ST=Saarland, O=MPI-SWS, OU=Distributed Systems Group, CN=b746a5c05d65d2f1db39cab52e8e2e0d5440a000/emailAddress=node0391@octarine.de
        Subject Public Key Info:
            Public Key Algorithm: rsaEncryption
            RSA Public Key: (1024 bit)
                Modulus (1024 bit):
                    00:d3:a9:f6:8a:96:2c:5a:41:e0:e7:73:a1:cc:3b:
                    63:db:cd:13:df:92:8d:8d:b5:df:07:94:c7:c8:ec:
                    8a:01:de:6c:f3:70:10:73:2b:8a:28:3e:ce:4a:40:
                    78:a1:57:5c:5e:c8:76:24:f5:38:93:ac:14:70:8d:
                    43:d5:a1:cb:ae:91:64:dd:0d:fd:47:8d:24:3a:a2:
                    32:21:77:5c:a0:37:2a:02:c0:39:06:88:4b:5b:03:
                    29:dc:bd:24:ac:5e:a7:13:74:8c:da:81:f7:5d:cb:
                    d9:fd:10:db:91:2c:72:cf:4d:95:a5:41:55:26:7f:
                    3f:7b:77:5f:74:1d:b3:1f:91
                Exponent: 65537 (0x10001)
    Signature Algorithm: md5WithRSAEncryption
        3c:5e:43:10:a8:3e:70:a9:72:57:1f:69:9f:1a:98:22:0b:28:
        40:d6:80:73:1f:05:1b:4d:e2:91:24:cd:d8:7d:91:cc:3c:8f:
        e2:d5:dd:b8:30:0b:98:da:ba:cf:0e:db:b4:27:15:1d:4c:6c:
        96:54:a5:45:f4:af:e6:28:31:b7:5f:3a:e3:a5:6e:5b:10:3b:
        ee:39:91:79:65:8f:9d:7a:1d:7c:a2:f7:6a:13:4c:69:62:a2:
        ed:c1:f5:d6:32:d5:ec:ed:2b:a6:aa:f0:fd:98:58:c5:8f:6a:
        78:9f:fd:2e:ed:ce:28:67:00:ce:dd:cf:95:5b:b6:12:49:31:
        70:00
-----BEGIN CERTIFICATE-----
MIICvDCCAiUCCQCbJ9fo0boJXzANBgkqhkiG9w0BAQQFADCBlTELMAkGA1UEBhMC
REUxETAPBgNVBAgTCFNhYXJsYW5kMRAwDgYDVQQKEwdNUEktU1dTMSIwIAYDVQQL
ExlEaXN0cmlidXRlZCBTeXN0ZW1zIEdyb3VwMRowGAYDVQQDExFBbmRyZWFzIEhh
ZWJlcmxlbjEhMB8GCSqGSIb3DQEJARYSZGVtb2NhQG9jdGFyaW5lLmRlMB4XDTE1
MDQyMDIwNDcxM1oXDTE2MDQxOTIwNDcxM1owga4xCzAJBgNVBAYTAkRFMREwDwYD
VQQIEwhTYWFybGFuZDEQMA4GA1UEChMHTVBJLVNXUzEiMCAGA1UECxMZRGlzdHJp
YnV0ZWQgU3lzdGVtcyBHcm91cDExMC8GA1UEAxMoYjc0NmE1YzA1ZDY1ZDJmMWRi
MzljYWI1MmU4ZTJlMGQ1NDQwYTAwMDEjMCEGCSqGSIb3DQEJARYUbm9kZTAzOTFA
b2N0YXJpbmUuZGUwgZ8wDQYJKoZIhvcNAQEBBQADgY0AMIGJAoGBANOp9oqWLFpB
4Odzocw7Y9vNE9+SjY213weUx8jsigHebPNwEHMriig+zkpAeKFXXF7IdiT1OJOs
FHCNQ9Why66RZN0N/UeNJDqiMiF3XKA3KgLAOQaIS1sDKdy9JKxepxN0jNqB913L
2f0Q25Escs9NlaVBVSZ/P3t3X3Qdsx+RAgMBAAEwDQYJKoZIhvcNAQEEBQADgYEA
PF5DEKg+cKlyVx9pnxqYIgsoQNaAcx8FG03ikSTN2H2RzDyP4tXduDALmNq6zw7b
tCcVHUxsllSlRfSv5igxt18646VuWxA77jmReWWPnXodfKL3ahNMaWKi7cH11jLV
7O0rpqrw/ZhYxY9qeJ/9Lu3OKGcAzt3PlVu2EkkxcAA=
-----END CERTIFICATE-----
