Certificate:
    Data:
        Version: 1 (0x0)
        Serial Number:
            9b:27:d7:e8:d1:ba:0a:77
        Signature Algorithm: md5WithRSAEncryption
        Issuer: C=DE, ST=Saarland, O=MPI-SWS, OU=Distributed Systems Group, CN=Andreas Haeberlen/emailAddress=democa@octarine.de
        Validity
            Not Before: Apr 20 20:47:26 2015 GMT
            Not After : Apr 19 20:47:26 2016 GMT
        Subject: C=DE, ST=Saarland, O=MPI-SWS, OU=Distributed Systems Group, CN=c357fa9ec308cfb3b6cbe97c0e63a0d632e3c819/emailAddress=node0671@octarine.de
        Subject Public Key Info:
            Public Key Algorithm: rsaEncryption
            RSA Public Key: (1024 bit)
                Modulus (1024 bit):
                    00:b0:b2:82:78:fe:53:fe:61:66:22:bd:45:02:a6:
                    7b:d8:c7:a8:83:11:10:b9:4a:16:cd:51:4b:8f:77:
                    a1:51:3c:cb:e5:46:b6:cf:4c:34:27:f7:21:54:57:
                    f9:26:42:be:0f:e6:e9:4b:d4:66:53:d0:61:6b:22:
                    74:13:9d:da:b6:28:85:3f:96:43:69:07:e1:be:d7:
                    2b:60:d5:34:2d:75:a3:4d:4c:a5:67:f1:cf:63:9e:
                    32:f9:29:c1:3d:7b:4d:2b:bc:60:4b:b4:6c:9d:0a:
                    a8:90:f1:3e:9a:34:15:9b:09:94:b3:05:08:fb:18:
                    8d:0b:0c:f8:96:a3:38:6b:3f
                Exponent: 65537 (0x10001)
    Signature Algorithm: md5WithRSAEncryption
        1e:a0:2b:a7:dd:63:ec:60:a4:e3:fe:7b:4a:7c:3c:94:d7:75:
        fc:d1:63:a0:bc:e6:54:d4:2a:03:2d:ef:29:43:99:c7:1f:63:
        77:d0:dc:1e:99:66:ca:0c:de:87:eb:24:56:b0:69:81:f2:85:
        18:1e:36:31:93:93:3c:e2:56:5e:b0:18:10:99:3e:90:47:79:
        35:2a:18:c7:86:38:6f:f1:09:4c:e4:7a:85:35:d1:84:52:a6:
        db:e7:b7:12:85:ad:90:a2:7c:cc:04:06:bb:7b:18:cd:66:a1:
        38:49:4c:76:59:dd:55:5e:7c:70:97:73:59:66:1e:0f:c5:7b:
        22:31
-----BEGIN CERTIFICATE-----
MIICvDCCAiUCCQCbJ9fo0boKdzANBgkqhkiG9w0BAQQFADCBlTELMAkGA1UEBhMC
REUxETAPBgNVBAgTCFNhYXJsYW5kMRAwDgYDVQQKEwdNUEktU1dTMSIwIAYDVQQL
ExlEaXN0cmlidXRlZCBTeXN0ZW1zIEdyb3VwMRowGAYDVQQDExFBbmRyZWFzIEhh
ZWJlcmxlbjEhMB8GCSqGSIb3DQEJARYSZGVtb2NhQG9jdGFyaW5lLmRlMB4XDTE1
MDQyMDIwNDcyNloXDTE2MDQxOTIwNDcyNlowga4xCzAJBgNVBAYTAkRFMREwDwYD
VQQIEwhTYWFybGFuZDEQMA4GA1UEChMHTVBJLVNXUzEiMCAGA1UECxMZRGlzdHJp
YnV0ZWQgU3lzdGVtcyBHcm91cDExMC8GA1UEAxMoYzM1N2ZhOWVjMzA4Y2ZiM2I2
Y2JlOTdjMGU2M2EwZDYzMmUzYzgxOTEjMCEGCSqGSIb3DQEJARYUbm9kZTA2NzFA
b2N0YXJpbmUuZGUwgZ8wDQYJKoZIhvcNAQEBBQADgY0AMIGJAoGBALCygnj+U/5h
ZiK9RQKme9jHqIMRELlKFs1RS493oVE8y+VGts9MNCf3IVRX+SZCvg/m6UvUZlPQ
YWsidBOd2rYohT+WQ2kH4b7XK2DVNC11o01MpWfxz2OeMvkpwT17TSu8YEu0bJ0K
qJDxPpo0FZsJlLMFCPsYjQsM+JajOGs/AgMBAAEwDQYJKoZIhvcNAQEEBQADgYEA
HqArp91j7GCk4/57Snw8lNd1/NFjoLzmVNQqAy3vKUOZxx9jd9DcHplmygzeh+sk
VrBpgfKFGB42MZOTPOJWXrAYEJk+kEd5NSoYx4Y4b/EJTOR6hTXRhFKm2+e3EoWt
kKJ8zAQGu3sYzWahOElMdlndVV58cJdzWWYeD8V7IjE=
-----END CERTIFICATE-----
