Certificate:
    Data:
        Version: 1 (0x0)
        Serial Number:
            9b:27:d7:e8:d1:ba:07:f1
        Signature Algorithm: md5WithRSAEncryption
        Issuer: C=DE, ST=Saarland, O=MPI-SWS, OU=Distributed Systems Group, CN=Andreas Haeberlen/emailAddress=democa@octarine.de
        Validity
            Not Before: Apr 20 20:46:58 2015 GMT
            Not After : Apr 19 20:46:58 2016 GMT
        Subject: C=DE, ST=Saarland, O=MPI-SWS, OU=Distributed Systems Group, CN=9e29e4d5c4daf8f185a143548a597bd190a748c1/emailAddress=node0025@octarine.de
        Subject Public Key Info:
            Public Key Algorithm: rsaEncryption
            RSA Public Key: (1024 bit)
                Modulus (1024 bit):
                    00:ba:3f:6c:10:68:c3:65:1e:57:d0:61:88:5c:d6:
                    c4:80:e2:4b:bf:65:d5:f8:98:d5:d2:42:72:49:d5:
                    b9:52:aa:f5:c3:3b:2a:d4:bd:99:10:fc:90:cd:da:
                    af:fd:f2:de:0e:e3:da:1f:1a:5f:b5:0c:ee:5b:13:
                    e5:ab:c4:23:bd:81:0d:a1:d5:c3:ce:5f:54:7f:3d:
                    43:84:89:14:35:98:c5:d7:50:71:db:78:3a:be:8b:
                    dc:b7:23:e6:95:98:7c:df:c6:b8:33:b1:57:c1:c5:
                    34:54:16:71:83:25:a9:01:dc:91:69:0c:8e:51:f2:
                    ab:7b:02:ac:7a:cb:dd:fa:03
                Exponent: 65537 (0x10001)
    Signature Algorithm: md5WithRSAEncryption
        42:83:9a:f8:bb:4c:9d:50:1d:08:a9:d2:77:e2:62:4e:66:99:
        55:45:ba:be:94:56:94:9e:0c:a7:85:67:5e:78:ee:47:82:12:
        36:2f:53:5b:5e:f6:dd:50:20:02:33:8b:1d:3c:28:52:2f:b4:
        17:70:dd:bd:d1:0c:32:4f:b7:a0:64:3f:b2:9f:9e:7f:c3:fa:
        9d:14:79:0f:44:f8:bf:72:ba:78:9e:9e:0e:15:5c:39:3e:a9:
        26:ec:b5:a6:7e:7f:e2:1d:1d:98:41:cb:06:fb:37:db:d6:8e:
        f1:5f:8d:59:dc:8e:15:1c:1a:d1:60:36:1e:fe:17:f4:f8:c8:
        30:a4
-----BEGIN CERTIFICATE-----
MIICvDCCAiUCCQCbJ9fo0boH8TANBgkqhkiG9w0BAQQFADCBlTELMAkGA1UEBhMC
REUxETAPBgNVBAgTCFNhYXJsYW5kMRAwDgYDVQQKEwdNUEktU1dTMSIwIAYDVQQL
ExlEaXN0cmlidXRlZCBTeXN0ZW1zIEdyb3VwMRowGAYDVQQDExFBbmRyZWFzIEhh
ZWJlcmxlbjEhMB8GCSqGSIb3DQEJARYSZGVtb2NhQG9jdGFyaW5lLmRlMB4XDTE1
MDQyMDIwNDY1OFoXDTE2MDQxOTIwNDY1OFowga4xCzAJBgNVBAYTAkRFMREwDwYD
VQQIEwhTYWFybGFuZDEQMA4GA1UEChMHTVBJLVNXUzEiMCAGA1UECxMZRGlzdHJp
YnV0ZWQgU3lzdGVtcyBHcm91cDExMC8GA1UEAxMoOWUyOWU0ZDVjNGRhZjhmMTg1
YTE0MzU0OGE1OTdiZDE5MGE3NDhjMTEjMCEGCSqGSIb3DQEJARYUbm9kZTAwMjVA
b2N0YXJpbmUuZGUwgZ8wDQYJKoZIhvcNAQEBBQADgY0AMIGJAoGBALo/bBBow2Ue
V9BhiFzWxIDiS79l1fiY1dJCcknVuVKq9cM7KtS9mRD8kM3ar/3y3g7j2h8aX7UM
7lsT5avEI72BDaHVw85fVH89Q4SJFDWYxddQcdt4Or6L3Lcj5pWYfN/GuDOxV8HF
NFQWcYMlqQHckWkMjlHyq3sCrHrL3foDAgMBAAEwDQYJKoZIhvcNAQEEBQADgYEA
QoOa+LtMnVAdCKnSd+JiTmaZVUW6vpRWlJ4Mp4VnXnjuR4ISNi9TW1723VAgAjOL
HTwoUi+0F3DdvdEMMk+3oGQ/sp+ef8P6nRR5D0T4v3K6eJ6eDhVcOT6pJuy1pn5/
4h0dmEHLBvs329aO8V+NWdyOFRwa0WA2Hv4X9PjIMKQ=
-----END CERTIFICATE-----
