Certificate:
    Data:
        Version: 1 (0x0)
        Serial Number:
            9b:27:d7:e8:d1:ba:09:b7
        Signature Algorithm: md5WithRSAEncryption
        Issuer: C=DE, ST=Saarland, O=MPI-SWS, OU=Distributed Systems Group, CN=Andreas Haeberlen/emailAddress=democa@octarine.de
        Validity
            Not Before: Apr 20 20:47:17 2015 GMT
            Not After : Apr 19 20:47:17 2016 GMT
        Subject: C=DE, ST=Saarland, O=MPI-SWS, OU=Distributed Systems Group, CN=78e20264d2f7d356c95600714705874f03205953/emailAddress=node0479@octarine.de
        Subject Public Key Info:
            Public Key Algorithm: rsaEncryption
            RSA Public Key: (1024 bit)
                Modulus (1024 bit):
                    00:a7:27:17:fe:ee:4d:29:6a:8e:f9:d9:8b:d6:96:
                    b3:c3:23:65:29:1a:dd:91:6e:5e:51:57:03:4f:a6:
                    f9:63:41:80:1f:39:d1:01:68:92:d4:76:78:9f:9a:
                    2f:35:52:50:2b:70:1f:bf:54:68:94:b4:b1:7e:00:
                    eb:f4:15:76:ea:7a:f9:a8:00:ea:99:45:31:22:8b:
                    06:cf:1b:54:3d:55:52:dc:06:92:62:8a:f0:6a:4f:
                    89:11:39:2b:e0:bf:04:ce:65:87:03:9e:ca:0b:8f:
                    47:74:60:02:9e:a7:21:10:a5:c3:8c:e9:46:50:b4:
                    15:dd:bc:6d:bc:b5:0b:36:67
                Exponent: 65537 (0x10001)
    Signature Algorithm: md5WithRSAEncryption
        3c:21:05:0b:72:60:f6:bc:a1:f2:95:43:c8:fa:2b:92:6a:f7:
        31:51:4c:c4:d0:5b:e4:ea:27:59:4b:f1:ec:51:44:ef:e8:ec:
        05:e5:be:31:c2:45:01:57:c9:87:6f:bc:f1:c5:24:62:7a:16:
        0b:2b:3d:50:69:2e:6e:69:01:6f:d8:f3:f4:86:4e:d5:fa:de:
        2e:6e:55:c4:fc:56:75:68:94:19:24:c4:58:32:08:89:b5:21:
        84:c2:c3:a7:f6:b2:2d:9e:5e:31:9b:26:34:62:d9:96:9b:85:
        c7:c1:e9:4d:f1:93:a8:be:c0:4f:4f:fa:db:49:d7:97:39:90:
        05:cf
-----BEGIN CERTIFICATE-----
MIICvDCCAiUCCQCbJ9fo0boJtzANBgkqhkiG9w0BAQQFADCBlTELMAkGA1UEBhMC
REUxETAPBgNVBAgTCFNhYXJsYW5kMRAwDgYDVQQKEwdNUEktU1dTMSIwIAYDVQQL
ExlEaXN0cmlidXRlZCBTeXN0ZW1zIEdyb3VwMRowGAYDVQQDExFBbmRyZWFzIEhh
ZWJlcmxlbjEhMB8GCSqGSIb3DQEJARYSZGVtb2NhQG9jdGFyaW5lLmRlMB4XDTE1
MDQyMDIwNDcxN1oXDTE2MDQxOTIwNDcxN1owga4xCzAJBgNVBAYTAkRFMREwDwYD
VQQIEwhTYWFybGFuZDEQMA4GA1UEChMHTVBJLVNXUzEiMCAGA1UECxMZRGlzdHJp
YnV0ZWQgU3lzdGVtcyBHcm91cDExMC8GA1UEAxMoNzhlMjAyNjRkMmY3ZDM1NmM5
NTYwMDcxNDcwNTg3NGYwMzIwNTk1MzEjMCEGCSqGSIb3DQEJARYUbm9kZTA0NzlA
b2N0YXJpbmUuZGUwgZ8wDQYJKoZIhvcNAQEBBQADgY0AMIGJAoGBAKcnF/7uTSlq
jvnZi9aWs8MjZSka3ZFuXlFXA0+m+WNBgB850QFoktR2eJ+aLzVSUCtwH79UaJS0
sX4A6/QVdup6+agA6plFMSKLBs8bVD1VUtwGkmKK8GpPiRE5K+C/BM5lhwOeyguP
R3RgAp6nIRClw4zpRlC0Fd28bby1CzZnAgMBAAEwDQYJKoZIhvcNAQEEBQADgYEA
PCEFC3Jg9ryh8pVDyPorkmr3MVFMxNBb5OonWUvx7FFE7+jsBeW+McJFAVfJh2+8
8cUkYnoWCys9UGkubmkBb9jz9IZO1freLm5VxPxWdWiUGSTEWDIIibUhhMLDp/ay
LZ5eMZsmNGLZlpuFx8HpTfGTqL7AT0/620nXlzmQBc8=
-----END CERTIFICATE-----
