Certificate:
    Data:
        Version: 1 (0x0)
        Serial Number:
            9b:27:d7:e8:d1:ba:0a:72
        Signature Algorithm: md5WithRSAEncryption
        Issuer: C=DE, ST=Saarland, O=MPI-SWS, OU=Distributed Systems Group, CN=Andreas Haeberlen/emailAddress=democa@octarine.de
        Validity
            Not Before: Apr 20 20:47:26 2015 GMT
            Not After : Apr 19 20:47:26 2016 GMT
        Subject: C=DE, ST=Saarland, O=MPI-SWS, OU=Distributed Systems Group, CN=90510477e9f72e1445e358aebe35010a15b1a288/emailAddress=node0666@octarine.de
        Subject Public Key Info:
            Public Key Algorithm: rsaEncryption
            RSA Public Key: (1024 bit)
                Modulus (1024 bit):
                    00:c7:51:51:d1:ed:bd:dc:d2:69:5c:4f:33:54:6d:
                    6f:33:e3:6f:d5:96:ea:b0:11:6d:2b:0d:6e:b5:5d:
                    65:3d:50:27:2e:b0:46:8e:c7:6e:2c:36:83:90:a7:
                    06:ff:3b:8c:56:b6:6a:2e:a7:f5:51:cc:9e:ed:9b:
                    f2:d0:1f:37:9e:2d:ae:39:d5:54:47:4d:38:c7:95:
                    2f:af:66:95:a1:80:3b:b7:7a:b4:2f:6e:18:d6:00:
                    b4:39:e7:d9:e7:a4:83:39:7b:18:be:b7:c2:94:db:
                    3f:62:b4:0d:22:c5:7f:52:cc:76:d6:bb:ff:d5:bc:
                    49:76:d3:71:2c:fa:d6:51:1d
                Exponent: 65537 (0x10001)
    Signature Algorithm: md5WithRSAEncryption
        27:bb:f9:ba:b9:93:c9:2d:63:a3:8a:ed:0a:f1:d3:7d:e4:05:
        b2:8b:46:f6:6c:90:3e:95:8b:82:db:4f:d0:e7:d1:3c:d0:7d:
        4e:1a:54:3d:4c:1a:a6:85:a6:4b:11:84:9c:d8:5a:d2:9b:ba:
        74:35:a6:23:54:18:96:36:27:c0:b3:7c:f4:26:c2:6a:9d:6e:
        3e:ec:8a:00:4e:59:8e:ed:a5:47:6b:ca:0c:1a:d3:d0:50:d4:
        b4:35:a4:28:ca:58:c2:f7:88:06:f2:ce:02:ad:ea:09:82:a9:
        8d:33:ae:23:8a:db:13:5a:bc:21:85:af:5e:72:1a:9f:fd:7b:
        3b:be
-----BEGIN CERTIFICATE-----
MIICvDCCAiUCCQCbJ9fo0boKcjANBgkqhkiG9w0BAQQFADCBlTELMAkGA1UEBhMC
REUxETAPBgNVBAgTCFNhYXJsYW5kMRAwDgYDVQQKEwdNUEktU1dTMSIwIAYDVQQL
ExlEaXN0cmlidXRlZCBTeXN0ZW1zIEdyb3VwMRowGAYDVQQDExFBbmRyZWFzIEhh
ZWJlcmxlbjEhMB8GCSqGSIb3DQEJARYSZGVtb2NhQG9jdGFyaW5lLmRlMB4XDTE1
MDQyMDIwNDcyNloXDTE2MDQxOTIwNDcyNlowga4xCzAJBgNVBAYTAkRFMREwDwYD
VQQIEwhTYWFybGFuZDEQMA4GA1UEChMHTVBJLVNXUzEiMCAGA1UECxMZRGlzdHJp
YnV0ZWQgU3lzdGVtcyBHcm91cDExMC8GA1UEAxMoOTA1MTA0NzdlOWY3MmUxNDQ1
ZTM1OGFlYmUzNTAxMGExNWIxYTI4ODEjMCEGCSqGSIb3DQEJARYUbm9kZTA2NjZA
b2N0YXJpbmUuZGUwgZ8wDQYJKoZIhvcNAQEBBQADgY0AMIGJAoGBAMdRUdHtvdzS
aVxPM1RtbzPjb9WW6rARbSsNbrVdZT1QJy6wRo7Hbiw2g5CnBv87jFa2ai6n9VHM
nu2b8tAfN54trjnVVEdNOMeVL69mlaGAO7d6tC9uGNYAtDnn2eekgzl7GL63wpTb
P2K0DSLFf1LMdta7/9W8SXbTcSz61lEdAgMBAAEwDQYJKoZIhvcNAQEEBQADgYEA
J7v5urmTyS1jo4rtCvHTfeQFsotG9myQPpWLgttP0OfRPNB9ThpUPUwapoWmSxGE
nNha0pu6dDWmI1QYljYnwLN89CbCap1uPuyKAE5Zju2lR2vKDBrT0FDUtDWkKMpY
wveIBvLOAq3qCYKpjTOuI4rbE1q8IYWvXnIan/17O74=
-----END CERTIFICATE-----
