Certificate:
    Data:
        Version: 1 (0x0)
        Serial Number:
            9b:27:d7:e8:d1:ba:08:45
        Signature Algorithm: md5WithRSAEncryption
        Issuer: C=DE, ST=Saarland, O=MPI-SWS, OU=Distributed Systems Group, CN=Andreas Haeberlen/emailAddress=democa@octarine.de
        Validity
            Not Before: Apr 20 20:47:01 2015 GMT
            Not After : Apr 19 20:47:01 2016 GMT
        Subject: C=DE, ST=Saarland, O=MPI-SWS, OU=Distributed Systems Group, CN=c90215f1ec5c7a54a5b560aba553ca8939b4eb5c/emailAddress=node0109@octarine.de
        Subject Public Key Info:
            Public Key Algorithm: rsaEncryption
            RSA Public Key: (1024 bit)
                Modulus (1024 bit):
                    00:c9:ff:3a:5a:dd:79:5d:33:c9:09:93:dd:c4:5a:
                    13:d9:5f:37:6e:07:16:d8:ea:bd:e2:d3:67:be:9c:
                    1e:ab:a9:cb:08:06:f1:aa:62:de:58:be:bd:f9:6a:
                    19:bb:23:ce:25:95:b9:b8:11:43:fa:05:9f:a8:e5:
                    01:b3:97:53:7d:f8:01:02:52:8a:24:24:b3:5e:74:
                    86:dd:06:5d:b5:33:6e:45:a9:00:0e:e4:52:2a:b2:
                    e9:5e:c1:01:9a:49:82:6d:fb:b2:bb:3a:26:75:9c:
                    0e:8a:0e:52:45:ea:62:b7:be:07:9f:bd:81:bf:42:
                    75:2d:a0:f1:f8:33:0c:30:3d
                Exponent: 65537 (0x10001)
    Signature Algorithm: md5WithRSAEncryption
        4b:e6:1e:ab:bc:d5:0b:a2:85:10:4e:3c:b3:54:d8:84:a6:c4:
        16:f1:7b:10:57:c0:5a:ad:52:a4:5a:14:30:11:d8:45:03:d1:
        68:23:7b:e3:e3:9b:6e:5d:80:7e:9e:20:bd:ef:98:96:61:d3:
        63:1a:76:ed:f6:cc:28:91:39:7b:b3:56:d5:ba:00:e0:7a:2d:
        f0:3b:46:52:eb:4e:83:19:1e:64:dc:0a:ea:db:2f:c6:f0:0f:
        8c:2f:28:54:54:03:86:92:61:af:ec:5a:c6:18:5f:00:c6:fb:
        12:dd:50:ae:4e:5c:68:dd:07:e7:43:a4:35:84:dc:29:24:df:
        2a:14
-----BEGIN CERTIFICATE-----
MIICvDCCAiUCCQCbJ9fo0boIRTANBgkqhkiG9w0BAQQFADCBlTELMAkGA1UEBhMC
REUxETAPBgNVBAgTCFNhYXJsYW5kMRAwDgYDVQQKEwdNUEktU1dTMSIwIAYDVQQL
ExlEaXN0cmlidXRlZCBTeXN0ZW1zIEdyb3VwMRowGAYDVQQDExFBbmRyZWFzIEhh
ZWJlcmxlbjEhMB8GCSqGSIb3DQEJARYSZGVtb2NhQG9jdGFyaW5lLmRlMB4XDTE1
MDQyMDIwNDcwMVoXDTE2MDQxOTIwNDcwMVowga4xCzAJBgNVBAYTAkRFMREwDwYD
VQQIEwhTYWFybGFuZDEQMA4GA1UEChMHTVBJLVNXUzEiMCAGA1UECxMZRGlzdHJp
YnV0ZWQgU3lzdGVtcyBHcm91cDExMC8GA1UEAxMoYzkwMjE1ZjFlYzVjN2E1NGE1
YjU2MGFiYTU1M2NhODkzOWI0ZWI1YzEjMCEGCSqGSIb3DQEJARYUbm9kZTAxMDlA
b2N0YXJpbmUuZGUwgZ8wDQYJKoZIhvcNAQEBBQADgY0AMIGJAoGBAMn/OlrdeV0z
yQmT3cRaE9lfN24HFtjqveLTZ76cHqupywgG8api3li+vflqGbsjziWVubgRQ/oF
n6jlAbOXU334AQJSiiQks150ht0GXbUzbkWpAA7kUiqy6V7BAZpJgm37srs6JnWc
DooOUkXqYre+B5+9gb9CdS2g8fgzDDA9AgMBAAEwDQYJKoZIhvcNAQEEBQADgYEA
S+Yeq7zVC6KFEE48s1TYhKbEFvF7EFfAWq1SpFoUMBHYRQPRaCN74+Obbl2Afp4g
ve+YlmHTYxp27fbMKJE5e7NW1boA4Hot8DtGUutOgxkeZNwK6tsvxvAPjC8oVFQD
hpJhr+xaxhhfAMb7Et1Qrk5caN0H50OkNYTcKSTfKhQ=
-----END CERTIFICATE-----
