Certificate:
    Data:
        Version: 1 (0x0)
        Serial Number:
            9b:27:d7:e8:d1:ba:0b:36
        Signature Algorithm: md5WithRSAEncryption
        Issuer: C=DE, ST=Saarland, O=MPI-SWS, OU=Distributed Systems Group, CN=Andreas Haeberlen/emailAddress=democa@octarine.de
        Validity
            Not Before: Apr 20 20:47:35 2015 GMT
            Not After : Apr 19 20:47:35 2016 GMT
        Subject: C=DE, ST=Saarland, O=MPI-SWS, OU=Distributed Systems Group, CN=d636591eea1c9058d55aa8d51d252060796c37a1/emailAddress=node0862@octarine.de
        Subject Public Key Info:
            Public Key Algorithm: rsaEncryption
            RSA Public Key: (1024 bit)
                Modulus (1024 bit):
                    00:d5:83:b2:98:8c:5d:a9:3c:99:e0:67:2a:f9:dc:
                    ee:ae:9e:21:71:39:e6:be:27:fb:d8:10:fc:c8:e7:
                    2d:c9:ad:34:e2:57:39:a2:05:eb:fe:72:12:4c:75:
                    0d:aa:94:7c:51:7e:57:99:db:68:83:c6:c2:9d:5d:
                    0a:5d:a2:f0:9a:e3:92:a3:fb:b6:83:02:bb:00:a0:
                    32:06:33:39:75:15:45:04:0b:1c:5a:23:be:d1:ec:
                    86:b1:2f:7f:a9:07:d3:f2:f2:dd:7d:4f:90:ae:41:
                    50:bd:17:bf:6a:ab:5a:31:49:d8:ce:69:45:81:60:
                    10:c8:9d:f6:43:21:6c:da:13
                Exponent: 65537 (0x10001)
    Signature Algorithm: md5WithRSAEncryption
        32:ab:54:88:21:d3:2d:fc:cf:63:ef:1c:4d:9a:ec:62:9a:a6:
        42:e1:57:19:80:b1:9d:e5:9a:62:c4:fd:f2:f0:40:a6:eb:4d:
        63:65:2d:62:01:82:d3:42:84:98:c4:48:06:22:72:34:e1:55:
        f9:af:2d:5e:bd:91:a4:df:af:4b:3e:76:98:d0:5a:09:0e:32:
        c2:16:86:a2:0d:8f:2d:c1:bc:fd:3a:0d:e7:b7:ef:27:bc:58:
        55:31:04:1d:bc:ca:c8:86:c5:a3:c6:3d:18:e1:ca:de:2b:0f:
        3a:63:3e:ed:97:40:ca:4a:e7:19:00:1e:27:b7:fe:14:c1:5d:
        b7:d8
-----BEGIN CERTIFICATE-----
MIICvDCCAiUCCQCbJ9fo0boLNjANBgkqhkiG9w0BAQQFADCBlTELMAkGA1UEBhMC
REUxETAPBgNVBAgTCFNhYXJsYW5kMRAwDgYDVQQKEwdNUEktU1dTMSIwIAYDVQQL
ExlEaXN0cmlidXRlZCBTeXN0ZW1zIEdyb3VwMRowGAYDVQQDExFBbmRyZWFzIEhh
ZWJlcmxlbjEhMB8GCSqGSIb3DQEJARYSZGVtb2NhQG9jdGFyaW5lLmRlMB4XDTE1
MDQyMDIwNDczNVoXDTE2MDQxOTIwNDczNVowga4xCzAJBgNVBAYTAkRFMREwDwYD
VQQIEwhTYWFybGFuZDEQMA4GA1UEChMHTVBJLVNXUzEiMCAGA1UECxMZRGlzdHJp
YnV0ZWQgU3lzdGVtcyBHcm91cDExMC8GA1UEAxMoZDYzNjU5MWVlYTFjOTA1OGQ1
NWFhOGQ1MWQyNTIwNjA3OTZjMzdhMTEjMCEGCSqGSIb3DQEJARYUbm9kZTA4NjJA
b2N0YXJpbmUuZGUwgZ8wDQYJKoZIhvcNAQEBBQADgY0AMIGJAoGBANWDspiMXak8
meBnKvnc7q6eIXE55r4n+9gQ/MjnLcmtNOJXOaIF6/5yEkx1DaqUfFF+V5nbaIPG
wp1dCl2i8JrjkqP7toMCuwCgMgYzOXUVRQQLHFojvtHshrEvf6kH0/Ly3X1PkK5B
UL0Xv2qrWjFJ2M5pRYFgEMid9kMhbNoTAgMBAAEwDQYJKoZIhvcNAQEEBQADgYEA
MqtUiCHTLfzPY+8cTZrsYpqmQuFXGYCxneWaYsT98vBAputNY2UtYgGC00KEmMRI
BiJyNOFV+a8tXr2RpN+vSz52mNBaCQ4ywhaGog2PLcG8/ToN57fvJ7xYVTEEHbzK
yIbFo8Y9GOHK3isPOmM+7ZdAykrnGQAeJ7f+FMFdt9g=
-----END CERTIFICATE-----
