Certificate:
    Data:
        Version: 1 (0x0)
        Serial Number:
            9b:27:d7:e8:d1:ba:09:53
        Signature Algorithm: md5WithRSAEncryption
        Issuer: C=DE, ST=Saarland, O=MPI-SWS, OU=Distributed Systems Group, CN=Andreas Haeberlen/emailAddress=democa@octarine.de
        Validity
            Not Before: Apr 20 20:47:13 2015 GMT
            Not After : Apr 19 20:47:13 2016 GMT
        Subject: C=DE, ST=Saarland, O=MPI-SWS, OU=Distributed Systems Group, CN=18367f1d9bc4a9e60d96c90333ffdd4f675d66b0/emailAddress=node0379@octarine.de
        Subject Public Key Info:
            Public Key Algorithm: rsaEncryption
            RSA Public Key: (1024 bit)
                Modulus (1024 bit):
                    00:d6:14:ae:e8:38:b3:68:6e:48:93:ac:6b:8d:df:
                    ad:34:d3:02:56:bb:fd:c4:a2:01:ab:38:62:b7:22:
                    aa:c6:18:6a:8c:6d:c8:e9:81:a9:75:76:76:a4:a8:
                    15:45:25:30:41:0f:3e:5d:41:cc:17:e2:58:8c:4a:
                    12:94:5c:bc:bc:9e:d9:a6:47:83:b7:4d:c9:3f:e1:
                    be:43:a8:4d:36:42:07:da:7a:38:78:a7:d2:ca:a2:
                    26:ae:81:f9:d2:27:20:dd:d7:ec:78:49:cc:c2:d6:
                    4d:be:e3:62:a3:a0:ea:77:4c:f3:bc:e0:97:ae:3b:
                    18:f8:08:ef:1c:6f:3f:8d:c5
                Exponent: 65537 (0x10001)
    Signature Algorithm: md5WithRSAEncryption
        66:e2:42:b6:21:83:68:75:8f:42:fa:55:9b:67:7d:08:f6:e8:
        93:f6:79:11:7f:fe:0b:13:bd:d2:9f:73:cc:29:db:6d:b2:fb:
        7d:37:9f:7e:e0:32:0d:33:2e:00:93:ce:c6:4c:3a:d4:f1:18:
        54:7f:e4:f4:3f:19:c6:28:db:90:17:3d:07:07:0f:55:0b:8c:
        a7:ad:d3:0d:4b:95:a2:4a:88:05:fa:35:64:f1:32:d3:7a:f8:
        6e:12:36:59:0c:dd:5c:10:fa:be:57:1b:a0:b7:54:4e:63:8e:
        16:d9:ea:f9:de:f6:87:60:c1:66:00:34:72:8b:4f:21:65:a1:
        ff:85
-----BEGIN CERTIFICATE-----
MIICvDCCAiUCCQCbJ9fo0boJUzANBgkqhkiG9w0BAQQFADCBlTELMAkGA1UEBhMC
REUxETAPBgNVBAgTCFNhYXJsYW5kMRAwDgYDVQQKEwdNUEktU1dTMSIwIAYDVQQL
ExlEaXN0cmlidXRlZCBTeXN0ZW1zIEdyb3VwMRowGAYDVQQDExFBbmRyZWFzIEhh
ZWJlcmxlbjEhMB8GCSqGSIb3DQEJARYSZGVtb2NhQG9jdGFyaW5lLmRlMB4XDTE1
MDQyMDIwNDcxM1oXDTE2MDQxOTIwNDcxM1owga4xCzAJBgNVBAYTAkRFMREwDwYD
VQQIEwhTYWFybGFuZDEQMA4GA1UEChMHTVBJLVNXUzEiMCAGA1UECxMZRGlzdHJp
YnV0ZWQgU3lzdGVtcyBHcm91cDExMC8GA1UEAxMoMTgzNjdmMWQ5YmM0YTllNjBk
OTZjOTAzMzNmZmRkNGY2NzVkNjZiMDEjMCEGCSqGSIb3DQEJARYUbm9kZTAzNzlA
b2N0YXJpbmUuZGUwgZ8wDQYJKoZIhvcNAQEBBQADgY0AMIGJAoGBANYUrug4s2hu
SJOsa43frTTTAla7/cSiAas4YrciqsYYaoxtyOmBqXV2dqSoFUUlMEEPPl1BzBfi
WIxKEpRcvLye2aZHg7dNyT/hvkOoTTZCB9p6OHin0sqiJq6B+dInIN3X7HhJzMLW
Tb7jYqOg6ndM87zgl647GPgI7xxvP43FAgMBAAEwDQYJKoZIhvcNAQEEBQADgYEA
ZuJCtiGDaHWPQvpVm2d9CPbok/Z5EX/+CxO90p9zzCnbbbL7fTeffuAyDTMuAJPO
xkw61PEYVH/k9D8ZxijbkBc9BwcPVQuMp63TDUuVokqIBfo1ZPEy03r4bhI2WQzd
XBD6vlcboLdUTmOOFtnq+d72h2DBZgA0cotPIWWh/4U=
-----END CERTIFICATE-----
