Certificate:
    Data:
        Version: 1 (0x0)
        Serial Number:
            9b:27:d7:e8:d1:ba:09:0e
        Signature Algorithm: md5WithRSAEncryption
        Issuer: C=DE, ST=Saarland, O=MPI-SWS, OU=Distributed Systems Group, CN=Andreas Haeberlen/emailAddress=democa@octarine.de
        Validity
            Not Before: Apr 20 20:47:10 2015 GMT
            Not After : Apr 19 20:47:10 2016 GMT
        Subject: C=DE, ST=Saarland, O=MPI-SWS, OU=Distributed Systems Group, CN=c51ca648f2b1c8aed61079cee8a4d1d96f616ba5/emailAddress=node0310@octarine.de
        Subject Public Key Info:
            Public Key Algorithm: rsaEncryption
            RSA Public Key: (1024 bit)
                Modulus (1024 bit):
                    00:e1:03:fe:65:17:c8:56:23:92:bb:f4:72:e6:76:
                    00:8a:5c:c5:72:d0:29:f2:96:f3:7e:f5:72:cf:28:
                    8a:7f:4f:17:60:57:2e:fb:4d:2f:f0:8a:02:1e:74:
                    7f:8a:21:61:0f:54:21:57:01:28:f6:7c:a8:58:11:
                    b9:fe:6e:ba:a8:61:80:7d:34:80:52:13:36:8d:20:
                    d2:a5:b2:99:71:33:1c:f6:0f:29:2c:49:5b:4d:65:
                    05:de:43:d9:70:50:c8:0e:26:a5:f7:cb:7e:67:61:
                    71:5e:7f:fe:33:4c:7d:0c:87:29:74:2a:7a:f0:37:
                    ec:3c:b7:3d:b1:ca:e4:19:b9
                Exponent: 65537 (0x10001)
    Signature Algorithm: md5WithRSAEncryption
        b1:15:15:63:96:81:fb:d4:ef:77:3f:a2:6f:dc:a5:6b:98:0d:
        3b:73:59:05:86:42:ed:11:b7:f2:95:9b:a8:0c:b8:6a:d9:0d:
        63:83:2d:0d:86:8c:c0:42:cb:22:fc:de:ac:47:96:15:83:2c:
        6c:f1:24:00:75:83:c9:7e:a1:0b:df:de:b1:ac:e6:e6:13:07:
        a0:8d:5e:2d:73:69:ea:57:16:f0:06:b3:67:bd:f8:ee:1c:06:
        58:b5:6b:5f:51:0e:70:1b:5e:88:cf:eb:44:c4:bb:ba:93:0a:
        b3:c9:6d:07:1b:79:41:91:dd:e4:19:fd:d1:93:ad:65:e0:00:
        c7:55
-----BEGIN CERTIFICATE-----
MIICvDCCAiUCCQCbJ9fo0boJDjANBgkqhkiG9w0BAQQFADCBlTELMAkGA1UEBhMC
REUxETAPBgNVBAgTCFNhYXJsYW5kMRAwDgYDVQQKEwdNUEktU1dTMSIwIAYDVQQL
ExlEaXN0cmlidXRlZCBTeXN0ZW1zIEdyb3VwMRowGAYDVQQDExFBbmRyZWFzIEhh
ZWJlcmxlbjEhMB8GCSqGSIb3DQEJARYSZGVtb2NhQG9jdGFyaW5lLmRlMB4XDTE1
MDQyMDIwNDcxMFoXDTE2MDQxOTIwNDcxMFowga4xCzAJBgNVBAYTAkRFMREwDwYD
VQQIEwhTYWFybGFuZDEQMA4GA1UEChMHTVBJLVNXUzEiMCAGA1UECxMZRGlzdHJp
YnV0ZWQgU3lzdGVtcyBHcm91cDExMC8GA1UEAxMoYzUxY2E2NDhmMmIxYzhhZWQ2
MTA3OWNlZThhNGQxZDk2ZjYxNmJhNTEjMCEGCSqGSIb3DQEJARYUbm9kZTAzMTBA
b2N0YXJpbmUuZGUwgZ8wDQYJKoZIhvcNAQEBBQADgY0AMIGJAoGBAOED/mUXyFYj
krv0cuZ2AIpcxXLQKfKW8371cs8oin9PF2BXLvtNL/CKAh50f4ohYQ9UIVcBKPZ8
qFgRuf5uuqhhgH00gFITNo0g0qWymXEzHPYPKSxJW01lBd5D2XBQyA4mpffLfmdh
cV5//jNMfQyHKXQqevA37Dy3PbHK5Bm5AgMBAAEwDQYJKoZIhvcNAQEEBQADgYEA
sRUVY5aB+9Tvdz+ib9yla5gNO3NZBYZC7RG38pWbqAy4atkNY4MtDYaMwELLIvze
rEeWFYMsbPEkAHWDyX6hC9/esazm5hMHoI1eLXNp6lcW8AazZ7347hwGWLVrX1EO
cBteiM/rRMS7upMKs8ltBxt5QZHd5Bn90ZOtZeAAx1U=
-----END CERTIFICATE-----
