Certificate:
    Data:
        Version: 1 (0x0)
        Serial Number:
            9b:27:d7:e8:d1:ba:0b:1e
        Signature Algorithm: md5WithRSAEncryption
        Issuer: C=DE, ST=Saarland, O=MPI-SWS, OU=Distributed Systems Group, CN=Andreas Haeberlen/emailAddress=democa@octarine.de
        Validity
            Not Before: Apr 20 20:47:34 2015 GMT
            Not After : Apr 19 20:47:34 2016 GMT
        Subject: C=DE, ST=Saarland, O=MPI-SWS, OU=Distributed Systems Group, CN=fd7b0afd2f76a2a66c81e59d095d052029b33b06/emailAddress=node0838@octarine.de
        Subject Public Key Info:
            Public Key Algorithm: rsaEncryption
            RSA Public Key: (1024 bit)
                Modulus (1024 bit):
                    00:e4:5f:9a:14:f5:0e:3a:c1:bd:6f:c5:6b:57:26:
                    7f:55:80:ed:07:48:2f:18:93:bd:ba:ad:49:6a:3f:
                    8f:84:a9:94:b8:19:df:b6:00:6d:df:8f:09:9b:f7:
                    70:2e:a7:e8:44:70:c9:a1:50:94:23:22:83:36:0b:
                    d6:70:f4:53:c8:30:19:0f:2a:87:95:e1:a2:84:2a:
                    c5:0a:58:c7:69:03:57:ca:82:6a:e8:30:c1:f0:93:
                    e7:b7:e8:24:23:df:45:30:76:76:81:96:e5:97:e7:
                    c2:99:fa:8e:39:03:96:69:02:c2:cd:1a:2d:41:69:
                    16:3c:24:ce:a3:28:1e:2e:97
                Exponent: 65537 (0x10001)
    Signature Algorithm: md5WithRSAEncryption
        95:06:9f:cc:b1:46:e1:df:19:52:12:47:09:cd:24:73:80:b6:
        44:f5:45:52:d4:f8:7e:1d:00:41:78:5b:7b:3d:3d:b7:9c:0e:
        9e:e1:fc:a0:2a:83:55:47:7d:45:12:4b:ec:b3:a1:f1:c6:5b:
        d3:b3:a4:1f:8b:5a:9d:bf:21:ce:5a:cf:28:65:eb:b9:15:e5:
        cb:77:c5:96:00:58:f0:b2:df:49:4e:db:02:4e:0a:e1:bd:12:
        da:50:71:00:58:e5:54:9d:36:7c:8c:90:3b:ee:23:b4:7b:92:
        77:6f:ce:01:28:56:a0:74:e5:52:d3:01:1e:5b:3c:26:cc:f7:
        f6:c0
-----BEGIN CERTIFICATE-----
MIICvDCCAiUCCQCbJ9fo0boLHjANBgkqhkiG9w0BAQQFADCBlTELMAkGA1UEBhMC
REUxETAPBgNVBAgTCFNhYXJsYW5kMRAwDgYDVQQKEwdNUEktU1dTMSIwIAYDVQQL
ExlEaXN0cmlidXRlZCBTeXN0ZW1zIEdyb3VwMRowGAYDVQQDExFBbmRyZWFzIEhh
ZWJlcmxlbjEhMB8GCSqGSIb3DQEJARYSZGVtb2NhQG9jdGFyaW5lLmRlMB4XDTE1
MDQyMDIwNDczNFoXDTE2MDQxOTIwNDczNFowga4xCzAJBgNVBAYTAkRFMREwDwYD
VQQIEwhTYWFybGFuZDEQMA4GA1UEChMHTVBJLVNXUzEiMCAGA1UECxMZRGlzdHJp
YnV0ZWQgU3lzdGVtcyBHcm91cDExMC8GA1UEAxMoZmQ3YjBhZmQyZjc2YTJhNjZj
ODFlNTlkMDk1ZDA1MjAyOWIzM2IwNjEjMCEGCSqGSIb3DQEJARYUbm9kZTA4MzhA
b2N0YXJpbmUuZGUwgZ8wDQYJKoZIhvcNAQEBBQADgY0AMIGJAoGBAORfmhT1DjrB
vW/Fa1cmf1WA7QdILxiTvbqtSWo/j4SplLgZ37YAbd+PCZv3cC6n6ERwyaFQlCMi
gzYL1nD0U8gwGQ8qh5XhooQqxQpYx2kDV8qCaugwwfCT57foJCPfRTB2doGW5Zfn
wpn6jjkDlmkCws0aLUFpFjwkzqMoHi6XAgMBAAEwDQYJKoZIhvcNAQEEBQADgYEA
lQafzLFG4d8ZUhJHCc0kc4C2RPVFUtT4fh0AQXhbez09t5wOnuH8oCqDVUd9RRJL
7LOh8cZb07OkH4tanb8hzlrPKGXruRXly3fFlgBY8LLfSU7bAk4K4b0S2lBxAFjl
VJ02fIyQO+4jtHuSd2/OAShWoHTlUtMBHls8Jsz39sA=
-----END CERTIFICATE-----
