Certificate:
    Data:
        Version: 1 (0x0)
        Serial Number:
            9b:27:d7:e8:d1:ba:0b:9f
        Signature Algorithm: md5WithRSAEncryption
        Issuer: C=DE, ST=Saarland, O=MPI-SWS, OU=Distributed Systems Group, CN=Andreas Haeberlen/emailAddress=democa@octarine.de
        Validity
            Not Before: Apr 20 20:47:40 2015 GMT
            Not After : Apr 19 20:47:40 2016 GMT
        Subject: C=DE, ST=Saarland, O=MPI-SWS, OU=Distributed Systems Group, CN=8f0b3e4cadc1da9f012b41de52b3476d668a4d6f/emailAddress=node0967@octarine.de
        Subject Public Key Info:
            Public Key Algorithm: rsaEncryption
            RSA Public Key: (1024 bit)
                Modulus (1024 bit):
                    00:dc:d8:00:2a:c8:08:6e:ff:01:cf:a6:f7:9d:94:
                    24:ae:b0:21:1e:c1:39:8b:a8:b9:2a:6b:3f:84:0b:
                    eb:e3:1c:b2:0b:98:37:e4:55:69:66:1d:ee:5e:1e:
                    35:25:c7:05:61:e6:b0:00:54:c9:9e:d9:9b:f9:50:
                    bf:96:67:ae:80:3a:23:8a:83:10:9d:e9:bf:46:57:
                    19:ea:17:05:72:80:81:08:6d:6a:60:5c:5d:28:5f:
                    91:60:ca:d3:fd:bb:1c:5b:83:b4:52:48:a7:ba:81:
                    3e:af:7b:7d:50:3c:5c:6c:c5:bf:ce:87:5c:d1:54:
                    3c:7a:12:7a:51:a5:ea:6c:9d
                Exponent: 65537 (0x10001)
    Signature Algorithm: md5WithRSAEncryption
        12:fa:7a:a3:62:df:f1:22:eb:b6:26:28:13:71:51:04:d4:13:
        36:da:ac:a7:42:55:be:a1:c2:7a:c9:ab:82:92:50:b0:47:9d:
        24:c8:84:ab:fd:6a:e4:e6:4e:b3:17:97:2b:df:ab:85:88:d2:
        1a:66:2d:59:11:b5:05:7a:59:91:c0:a6:e3:97:a2:cc:25:99:
        95:5d:bd:73:c4:55:f3:46:93:0a:41:aa:e8:e9:1b:e6:60:23:
        b5:d7:9b:2b:8c:26:0c:7e:5a:b0:39:56:80:61:e5:71:7b:07:
        70:e0:78:93:0f:07:eb:cf:5c:16:48:94:5a:0d:a7:55:53:16:
        ca:a4
-----BEGIN CERTIFICATE-----
MIICvDCCAiUCCQCbJ9fo0boLnzANBgkqhkiG9w0BAQQFADCBlTELMAkGA1UEBhMC
REUxETAPBgNVBAgTCFNhYXJsYW5kMRAwDgYDVQQKEwdNUEktU1dTMSIwIAYDVQQL
ExlEaXN0cmlidXRlZCBTeXN0ZW1zIEdyb3VwMRowGAYDVQQDExFBbmRyZWFzIEhh
ZWJlcmxlbjEhMB8GCSqGSIb3DQEJARYSZGVtb2NhQG9jdGFyaW5lLmRlMB4XDTE1
MDQyMDIwNDc0MFoXDTE2MDQxOTIwNDc0MFowga4xCzAJBgNVBAYTAkRFMREwDwYD
VQQIEwhTYWFybGFuZDEQMA4GA1UEChMHTVBJLVNXUzEiMCAGA1UECxMZRGlzdHJp
YnV0ZWQgU3lzdGVtcyBHcm91cDExMC8GA1UEAxMoOGYwYjNlNGNhZGMxZGE5ZjAx
MmI0MWRlNTJiMzQ3NmQ2NjhhNGQ2ZjEjMCEGCSqGSIb3DQEJARYUbm9kZTA5NjdA
b2N0YXJpbmUuZGUwgZ8wDQYJKoZIhvcNAQEBBQADgY0AMIGJAoGBANzYACrICG7/
Ac+m952UJK6wIR7BOYuouSprP4QL6+McsguYN+RVaWYd7l4eNSXHBWHmsABUyZ7Z
m/lQv5ZnroA6I4qDEJ3pv0ZXGeoXBXKAgQhtamBcXShfkWDK0/27HFuDtFJIp7qB
Pq97fVA8XGzFv86HXNFUPHoSelGl6mydAgMBAAEwDQYJKoZIhvcNAQEEBQADgYEA
Evp6o2Lf8SLrtiYoE3FRBNQTNtqsp0JVvqHCesmrgpJQsEedJMiEq/1q5OZOsxeX
K9+rhYjSGmYtWRG1BXpZkcCm45eizCWZlV29c8RV80aTCkGq6Okb5mAjtdebK4wm
DH5asDlWgGHlcXsHcOB4kw8H689cFkiUWg2nVVMWyqQ=
-----END CERTIFICATE-----
