Certificate:
    Data:
        Version: 1 (0x0)
        Serial Number:
            9b:27:d7:e8:d1:ba:0a:d7
        Signature Algorithm: md5WithRSAEncryption
        Issuer: C=DE, ST=Saarland, O=MPI-SWS, OU=Distributed Systems Group, CN=Andreas Haeberlen/emailAddress=democa@octarine.de
        Validity
            Not Before: Apr 20 20:47:31 2015 GMT
            Not After : Apr 19 20:47:31 2016 GMT
        Subject: C=DE, ST=Saarland, O=MPI-SWS, OU=Distributed Systems Group, CN=5b476e3b1d76d603fcd8ef7598181107d4f322e4/emailAddress=node0767@octarine.de
        Subject Public Key Info:
            Public Key Algorithm: rsaEncryption
            RSA Public Key: (1024 bit)
                Modulus (1024 bit):
                    00:b8:d8:c3:87:02:af:54:03:7e:1c:c0:02:f0:d3:
                    52:01:ff:bf:51:be:63:9b:c0:65:b0:66:a3:e3:00:
                    a3:c0:d8:aa:36:1e:17:94:09:c1:d3:b3:4e:4e:06:
                    80:f8:37:c3:75:68:e0:6f:4c:02:b6:ff:e2:2a:76:
                    f6:20:0e:1e:08:c5:d0:5d:18:19:98:fe:b7:76:da:
                    a5:24:fd:95:30:31:6d:f9:c9:24:b8:c2:09:17:5a:
                    83:b7:a5:01:76:98:06:d9:63:58:c8:72:45:38:9a:
                    ad:56:32:31:89:22:dd:0f:1b:53:79:93:37:69:2a:
                    d2:c3:bf:5d:3f:59:50:59:75
                Exponent: 65537 (0x10001)
    Signature Algorithm: md5WithRSAEncryption
        21:be:4c:af:63:84:51:51:36:43:01:27:70:b8:90:b5:7d:2e:
        c7:4c:52:98:d1:c8:f4:1a:da:52:a5:81:56:30:36:11:0b:4a:
        80:7b:ef:d6:a1:c3:b7:a7:c5:72:03:9e:9a:80:8e:8a:e0:ea:
        55:ec:98:a9:c6:55:bf:71:bd:f2:31:5d:6d:5d:b9:c2:11:a4:
        77:a5:66:46:fa:81:46:23:5b:c3:1c:f9:c4:37:f7:06:b0:47:
        fc:1b:97:e7:0f:f1:d4:de:93:64:bc:98:b3:42:de:91:45:cb:
        c2:9e:2a:0b:9c:e0:67:03:35:42:bb:a6:04:59:dd:74:0e:c7:
        f9:eb
-----BEGIN CERTIFICATE-----
MIICvDCCAiUCCQCbJ9fo0boK1zANBgkqhkiG9w0BAQQFADCBlTELMAkGA1UEBhMC
REUxETAPBgNVBAgTCFNhYXJsYW5kMRAwDgYDVQQKEwdNUEktU1dTMSIwIAYDVQQL
ExlEaXN0cmlidXRlZCBTeXN0ZW1zIEdyb3VwMRowGAYDVQQDExFBbmRyZWFzIEhh
ZWJlcmxlbjEhMB8GCSqGSIb3DQEJARYSZGVtb2NhQG9jdGFyaW5lLmRlMB4XDTE1
MDQyMDIwNDczMVoXDTE2MDQxOTIwNDczMVowga4xCzAJBgNVBAYTAkRFMREwDwYD
VQQIEwhTYWFybGFuZDEQMA4GA1UEChMHTVBJLVNXUzEiMCAGA1UECxMZRGlzdHJp
YnV0ZWQgU3lzdGVtcyBHcm91cDExMC8GA1UEAxMoNWI0NzZlM2IxZDc2ZDYwM2Zj
ZDhlZjc1OTgxODExMDdkNGYzMjJlNDEjMCEGCSqGSIb3DQEJARYUbm9kZTA3NjdA
b2N0YXJpbmUuZGUwgZ8wDQYJKoZIhvcNAQEBBQADgY0AMIGJAoGBALjYw4cCr1QD
fhzAAvDTUgH/v1G+Y5vAZbBmo+MAo8DYqjYeF5QJwdOzTk4GgPg3w3Vo4G9MArb/
4ip29iAOHgjF0F0YGZj+t3bapST9lTAxbfnJJLjCCRdag7elAXaYBtljWMhyRTia
rVYyMYki3Q8bU3mTN2kq0sO/XT9ZUFl1AgMBAAEwDQYJKoZIhvcNAQEEBQADgYEA
Ib5Mr2OEUVE2QwEncLiQtX0ux0xSmNHI9BraUqWBVjA2EQtKgHvv1qHDt6fFcgOe
moCOiuDqVeyYqcZVv3G98jFdbV25whGkd6VmRvqBRiNbwxz5xDf3BrBH/BuX5w/x
1N6TZLyYs0LekUXLwp4qC5zgZwM1QrumBFnddA7H+es=
-----END CERTIFICATE-----
