Certificate:
    Data:
        Version: 1 (0x0)
        Serial Number:
            9b:27:d7:e8:d1:ba:0b:4f
        Signature Algorithm: md5WithRSAEncryption
        Issuer: C=DE, ST=Saarland, O=MPI-SWS, OU=Distributed Systems Group, CN=Andreas Haeberlen/emailAddress=democa@octarine.de
        Validity
            Not Before: Apr 20 20:47:36 2015 GMT
            Not After : Apr 19 20:47:36 2016 GMT
        Subject: C=DE, ST=Saarland, O=MPI-SWS, OU=Distributed Systems Group, CN=90657fe994497486b397d6faca707b01c66365df/emailAddress=node0887@octarine.de
        Subject Public Key Info:
            Public Key Algorithm: rsaEncryption
            RSA Public Key: (1024 bit)
                Modulus (1024 bit):
                    00:be:da:a8:c8:24:98:28:a1:9f:94:fa:f4:ee:20:
                    f0:27:4e:5e:86:2b:b7:fb:49:98:e2:ff:24:ed:68:
                    b9:6a:9b:3e:b0:c8:95:ae:fc:65:63:66:6d:5f:7b:
                    bd:94:13:13:8a:6c:b5:43:f1:ff:f7:a5:75:a6:fb:
                    8b:97:8b:92:f2:2d:f9:64:c0:a4:b9:0c:b0:b1:6d:
                    2a:45:96:54:c4:e6:da:37:68:74:c0:16:f5:4c:b6:
                    2e:7e:4e:95:64:96:5a:27:c2:3b:19:b4:18:a0:6b:
                    67:de:6f:63:ed:ba:a9:fc:6e:2c:f0:22:11:10:29:
                    ed:b5:9b:cb:6d:32:a1:a1:91
                Exponent: 65537 (0x10001)
    Signature Algorithm: md5WithRSAEncryption
        0b:25:ab:bd:7a:1e:a3:ba:10:41:27:03:16:80:e4:5a:e2:bb:
        ab:e1:64:a4:e1:11:e0:7c:db:23:dc:cd:2e:b5:44:df:db:61:
        00:3a:15:4c:e7:74:e9:51:57:f0:7d:bd:35:d4:31:93:c6:c1:
        81:fd:ea:ff:ca:cb:92:a3:59:8c:ea:80:b4:0d:8d:a7:e2:42:
        33:25:32:54:8c:e0:a6:38:5f:c3:99:b8:8d:34:96:d5:b0:1f:
        ce:48:07:8d:de:50:bd:a1:43:36:50:fc:eb:48:2a:90:eb:87:
        a2:c8:4e:7c:58:6b:e6:c7:8e:91:a4:d2:11:77:ce:d4:74:0e:
        87:0d
-----BEGIN CERTIFICATE-----
MIICvDCCAiUCCQCbJ9fo0boLTzANBgkqhkiG9w0BAQQFADCBlTELMAkGA1UEBhMC
REUxETAPBgNVBAgTCFNhYXJsYW5kMRAwDgYDVQQKEwdNUEktU1dTMSIwIAYDVQQL
ExlEaXN0cmlidXRlZCBTeXN0ZW1zIEdyb3VwMRowGAYDVQQDExFBbmRyZWFzIEhh
ZWJlcmxlbjEhMB8GCSqGSIb3DQEJARYSZGVtb2NhQG9jdGFyaW5lLmRlMB4XDTE1
MDQyMDIwNDczNloXDTE2MDQxOTIwNDczNlowga4xCzAJBgNVBAYTAkRFMREwDwYD
VQQIEwhTYWFybGFuZDEQMA4GA1UEChMHTVBJLVNXUzEiMCAGA1UECxMZRGlzdHJp
YnV0ZWQgU3lzdGVtcyBHcm91cDExMC8GA1UEAxMoOTA2NTdmZTk5NDQ5NzQ4NmIz
OTdkNmZhY2E3MDdiMDFjNjYzNjVkZjEjMCEGCSqGSIb3DQEJARYUbm9kZTA4ODdA
b2N0YXJpbmUuZGUwgZ8wDQYJKoZIhvcNAQEBBQADgY0AMIGJAoGBAL7aqMgkmCih
n5T69O4g8CdOXoYrt/tJmOL/JO1ouWqbPrDIla78ZWNmbV97vZQTE4pstUPx//el
dab7i5eLkvIt+WTApLkMsLFtKkWWVMTm2jdodMAW9Uy2Ln5OlWSWWifCOxm0GKBr
Z95vY+26qfxuLPAiERAp7bWby20yoaGRAgMBAAEwDQYJKoZIhvcNAQEEBQADgYEA
CyWrvXoeo7oQQScDFoDkWuK7q+FkpOER4HzbI9zNLrVE39thADoVTOd06VFX8H29
NdQxk8bBgf3q/8rLkqNZjOqAtA2Np+JCMyUyVIzgpjhfw5m4jTSW1bAfzkgHjd5Q
vaFDNlD860gqkOuHoshOfFhr5seOkaTSEXfO1HQOhw0=
-----END CERTIFICATE-----
