Certificate:
    Data:
        Version: 1 (0x0)
        Serial Number:
            9b:27:d7:e8:d1:ba:09:a9
        Signature Algorithm: md5WithRSAEncryption
        Issuer: C=DE, ST=Saarland, O=MPI-SWS, OU=Distributed Systems Group, CN=Andreas Haeberlen/emailAddress=democa@octarine.de
        Validity
            Not Before: Apr 20 20:47:17 2015 GMT
            Not After : Apr 19 20:47:17 2016 GMT
        Subject: C=DE, ST=Saarland, O=MPI-SWS, OU=Distributed Systems Group, CN=219955b42b734ea18acd7fd9872982ab434980eb/emailAddress=node0465@octarine.de
        Subject Public Key Info:
            Public Key Algorithm: rsaEncryption
            RSA Public Key: (1024 bit)
                Modulus (1024 bit):
                    00:e6:f0:cd:13:32:d4:3c:a8:3a:eb:f8:04:fe:a7:
                    ad:08:07:a1:2e:e0:ad:bf:65:e0:a7:93:10:7f:8e:
                    e8:6e:b6:f2:ba:73:e9:1f:9f:0b:80:e5:eb:05:51:
                    0e:a6:bb:51:82:42:79:12:db:9d:23:16:a6:a2:ef:
                    69:8c:21:30:73:04:ee:21:e7:3e:6e:c6:e4:da:0d:
                    c1:a1:ad:87:c2:3c:ba:e1:54:d2:b6:2f:fe:a7:93:
                    f2:fb:10:4f:09:c4:0a:3b:60:21:39:5b:12:91:18:
                    74:f5:31:7c:40:51:de:8a:98:63:86:e5:ba:df:29:
                    44:f5:68:8d:97:e3:c7:cd:a1
                Exponent: 65537 (0x10001)
    Signature Algorithm: md5WithRSAEncryption
        6f:fd:26:49:93:96:cc:08:d3:9a:0f:3d:52:53:e6:51:44:47:
        d8:77:a6:f5:3b:1b:a6:7b:78:ef:4c:e7:98:96:7e:25:66:38:
        71:54:b8:fe:e3:52:df:fb:60:88:e2:8b:0e:c8:de:b3:04:15:
        9b:8d:61:e6:58:d6:0f:ba:87:0c:69:a5:1e:19:ed:41:9c:69:
        15:86:77:95:91:55:56:b5:b0:f0:2b:fa:30:c8:d4:c6:fd:f3:
        55:56:03:62:aa:82:c3:98:c7:4e:2c:19:48:10:e3:fb:ad:d5:
        d9:bf:08:18:2b:05:14:a6:98:83:f5:2b:11:ce:b5:34:ec:71:
        58:74
-----BEGIN CERTIFICATE-----
MIICvDCCAiUCCQCbJ9fo0boJqTANBgkqhkiG9w0BAQQFADCBlTELMAkGA1UEBhMC
REUxETAPBgNVBAgTCFNhYXJsYW5kMRAwDgYDVQQKEwdNUEktU1dTMSIwIAYDVQQL
ExlEaXN0cmlidXRlZCBTeXN0ZW1zIEdyb3VwMRowGAYDVQQDExFBbmRyZWFzIEhh
ZWJlcmxlbjEhMB8GCSqGSIb3DQEJARYSZGVtb2NhQG9jdGFyaW5lLmRlMB4XDTE1
MDQyMDIwNDcxN1oXDTE2MDQxOTIwNDcxN1owga4xCzAJBgNVBAYTAkRFMREwDwYD
VQQIEwhTYWFybGFuZDEQMA4GA1UEChMHTVBJLVNXUzEiMCAGA1UECxMZRGlzdHJp
YnV0ZWQgU3lzdGVtcyBHcm91cDExMC8GA1UEAxMoMjE5OTU1YjQyYjczNGVhMThh
Y2Q3ZmQ5ODcyOTgyYWI0MzQ5ODBlYjEjMCEGCSqGSIb3DQEJARYUbm9kZTA0NjVA
b2N0YXJpbmUuZGUwgZ8wDQYJKoZIhvcNAQEBBQADgY0AMIGJAoGBAObwzRMy1Dyo
Ouv4BP6nrQgHoS7grb9l4KeTEH+O6G628rpz6R+fC4Dl6wVRDqa7UYJCeRLbnSMW
pqLvaYwhMHME7iHnPm7G5NoNwaGth8I8uuFU0rYv/qeT8vsQTwnECjtgITlbEpEY
dPUxfEBR3oqYY4blut8pRPVojZfjx82hAgMBAAEwDQYJKoZIhvcNAQEEBQADgYEA
b/0mSZOWzAjTmg89UlPmUURH2Hem9Tsbpnt470znmJZ+JWY4cVS4/uNS3/tgiOKL
DsjeswQVm41h5ljWD7qHDGmlHhntQZxpFYZ3lZFVVrWw8Cv6MMjUxv3zVVYDYqqC
w5jHTiwZSBDj+63V2b8IGCsFFKaYg/UrEc61NOxxWHQ=
-----END CERTIFICATE-----
