Certificate:
    Data:
        Version: 1 (0x0)
        Serial Number:
            9b:27:d7:e8:d1:ba:09:ac
        Signature Algorithm: md5WithRSAEncryption
        Issuer: C=DE, ST=Saarland, O=MPI-SWS, OU=Distributed Systems Group, CN=Andreas Haeberlen/emailAddress=democa@octarine.de
        Validity
            Not Before: Apr 20 20:47:17 2015 GMT
            Not After : Apr 19 20:47:17 2016 GMT
        Subject: C=DE, ST=Saarland, O=MPI-SWS, OU=Distributed Systems Group, CN=827bbdbdc07477add1da7be5342b4eed058c239f/emailAddress=node0468@octarine.de
        Subject Public Key Info:
            Public Key Algorithm: rsaEncryption
            RSA Public Key: (1024 bit)
                Modulus (1024 bit):
                    00:ca:73:91:98:b2:8b:2f:fd:5d:cf:d3:c6:02:05:
                    49:83:5d:cd:ba:50:35:ac:29:dd:59:eb:56:00:42:
                    78:64:a1:e6:a4:31:43:8c:f8:bb:70:2c:79:92:a3:
                    05:78:dd:8a:00:06:d7:d0:08:4e:77:57:2a:b9:b2:
                    b8:28:38:3e:f0:60:78:2c:a1:ca:5b:5c:d4:c6:5c:
                    60:51:3f:1e:5d:3d:dd:ad:51:c4:1c:5a:dc:f6:b5:
                    99:09:ab:1c:50:9f:e4:f2:eb:84:a3:ab:9c:ce:24:
                    fc:32:95:2e:8a:af:66:21:50:17:67:11:35:9b:0f:
                    0b:23:e4:4e:35:a3:af:a0:99
                Exponent: 65537 (0x10001)
    Signature Algorithm: md5WithRSAEncryption
        b9:17:e5:9f:67:86:f3:d9:b3:0a:6b:bc:43:81:df:d9:71:d2:
        2d:3c:a9:3a:b0:79:05:68:0e:d6:c4:a2:fb:f7:b6:db:86:9b:
        83:5a:fe:08:50:2c:33:09:ad:70:80:5e:ce:b8:83:41:54:bb:
        9b:dd:10:e3:91:c8:44:2d:27:a5:90:b0:46:c7:a0:17:17:96:
        87:fb:55:b1:fa:63:f9:a8:e6:91:b5:8b:c8:8c:f4:3a:09:30:
        a2:c6:f2:ba:52:ec:e2:cb:5e:c1:e1:cc:86:af:f3:6b:da:04:
        84:5a:64:58:a5:ee:18:a9:55:4d:1e:31:f6:5e:ba:23:78:01:
        35:5f
-----BEGIN CERTIFICATE-----
MIICvDCCAiUCCQCbJ9fo0boJrDANBgkqhkiG9w0BAQQFADCBlTELMAkGA1UEBhMC
REUxETAPBgNVBAgTCFNhYXJsYW5kMRAwDgYDVQQKEwdNUEktU1dTMSIwIAYDVQQL
ExlEaXN0cmlidXRlZCBTeXN0ZW1zIEdyb3VwMRowGAYDVQQDExFBbmRyZWFzIEhh
ZWJlcmxlbjEhMB8GCSqGSIb3DQEJARYSZGVtb2NhQG9jdGFyaW5lLmRlMB4XDTE1
MDQyMDIwNDcxN1oXDTE2MDQxOTIwNDcxN1owga4xCzAJBgNVBAYTAkRFMREwDwYD
VQQIEwhTYWFybGFuZDEQMA4GA1UEChMHTVBJLVNXUzEiMCAGA1UECxMZRGlzdHJp
YnV0ZWQgU3lzdGVtcyBHcm91cDExMC8GA1UEAxMoODI3YmJkYmRjMDc0NzdhZGQx
ZGE3YmU1MzQyYjRlZWQwNThjMjM5ZjEjMCEGCSqGSIb3DQEJARYUbm9kZTA0NjhA
b2N0YXJpbmUuZGUwgZ8wDQYJKoZIhvcNAQEBBQADgY0AMIGJAoGBAMpzkZiyiy/9
Xc/TxgIFSYNdzbpQNawp3VnrVgBCeGSh5qQxQ4z4u3AseZKjBXjdigAG19AITndX
KrmyuCg4PvBgeCyhyltc1MZcYFE/Hl093a1RxBxa3Pa1mQmrHFCf5PLrhKOrnM4k
/DKVLoqvZiFQF2cRNZsPCyPkTjWjr6CZAgMBAAEwDQYJKoZIhvcNAQEEBQADgYEA
uRfln2eG89mzCmu8Q4Hf2XHSLTypOrB5BWgO1sSi+/e224abg1r+CFAsMwmtcIBe
zriDQVS7m90Q45HIRC0npZCwRsegFxeWh/tVsfpj+ajmkbWLyIz0OgkwosbyulLs
4steweHMhq/za9oEhFpkWKXuGKlVTR4x9l66I3gBNV8=
-----END CERTIFICATE-----
