Certificate:
    Data:
        Version: 1 (0x0)
        Serial Number:
            9b:27:d7:e8:d1:ba:08:3b
        Signature Algorithm: md5WithRSAEncryption
        Issuer: C=DE, ST=Saarland, O=MPI-SWS, OU=Distributed Systems Group, CN=Andreas Haeberlen/emailAddress=democa@octarine.de
        Validity
            Not Before: Apr 20 20:47:01 2015 GMT
            Not After : Apr 19 20:47:01 2016 GMT
        Subject: C=DE, ST=Saarland, O=MPI-SWS, OU=Distributed Systems Group, CN=f633b6086fe88a3533e1d47d23e9d0bc7f0350cc/emailAddress=node0099@octarine.de
        Subject Public Key Info:
            Public Key Algorithm: rsaEncryption
            RSA Public Key: (1024 bit)
                Modulus (1024 bit):
                    00:b9:21:4e:c6:2b:17:f3:05:bd:6c:86:39:21:12:
                    18:52:aa:fe:b1:00:91:45:eb:a6:ad:2f:80:c9:b8:
                    da:fb:f1:45:61:a7:1d:83:f6:2c:d8:50:ee:1b:55:
                    7a:15:c2:88:04:cc:34:e0:4d:40:19:58:f3:dd:8c:
                    de:4f:e3:62:a2:40:99:41:b7:2e:51:77:8a:08:c5:
                    0c:49:90:95:16:77:42:bd:62:24:48:90:81:f3:c8:
                    c8:8f:9a:49:0a:a1:84:6b:b8:19:70:ad:3a:af:88:
                    36:37:9e:96:04:41:f1:42:45:50:e2:f8:29:8f:48:
                    18:6f:f8:26:cb:ec:92:a8:99
                Exponent: 65537 (0x10001)
    Signature Algorithm: md5WithRSAEncryption
        69:86:7e:82:f4:6f:8b:45:04:0c:02:fb:54:a9:d2:7d:ea:d9:
        65:dd:30:eb:f2:45:e5:95:05:13:60:d8:89:cf:48:03:f6:57:
        ed:91:6f:68:0c:b7:bb:2b:c1:34:6c:e2:f6:d3:cc:7e:a9:60:
        8d:46:38:40:73:87:a7:d0:f2:ab:24:8f:99:e3:05:16:9a:69:
        9e:88:18:e4:5c:79:21:27:52:65:43:81:ab:89:84:ca:24:ba:
        95:56:ac:0e:88:0b:24:0e:91:24:c2:00:d6:c8:ff:33:e6:0e:
        d8:e3:b2:c0:e3:a6:70:d8:01:6d:6e:d8:61:7c:e3:b0:d7:d1:
        83:f2
-----BEGIN CERTIFICATE-----
MIICvDCCAiUCCQCbJ9fo0boIOzANBgkqhkiG9w0BAQQFADCBlTELMAkGA1UEBhMC
REUxETAPBgNVBAgTCFNhYXJsYW5kMRAwDgYDVQQKEwdNUEktU1dTMSIwIAYDVQQL
ExlEaXN0cmlidXRlZCBTeXN0ZW1zIEdyb3VwMRowGAYDVQQDExFBbmRyZWFzIEhh
ZWJlcmxlbjEhMB8GCSqGSIb3DQEJARYSZGVtb2NhQG9jdGFyaW5lLmRlMB4XDTE1
MDQyMDIwNDcwMVoXDTE2MDQxOTIwNDcwMVowga4xCzAJBgNVBAYTAkRFMREwDwYD
VQQIEwhTYWFybGFuZDEQMA4GA1UEChMHTVBJLVNXUzEiMCAGA1UECxMZRGlzdHJp
YnV0ZWQgU3lzdGVtcyBHcm91cDExMC8GA1UEAxMoZjYzM2I2MDg2ZmU4OGEzNTMz
ZTFkNDdkMjNlOWQwYmM3ZjAzNTBjYzEjMCEGCSqGSIb3DQEJARYUbm9kZTAwOTlA
b2N0YXJpbmUuZGUwgZ8wDQYJKoZIhvcNAQEBBQADgY0AMIGJAoGBALkhTsYrF/MF
vWyGOSESGFKq/rEAkUXrpq0vgMm42vvxRWGnHYP2LNhQ7htVehXCiATMNOBNQBlY
892M3k/jYqJAmUG3LlF3igjFDEmQlRZ3Qr1iJEiQgfPIyI+aSQqhhGu4GXCtOq+I
NjeelgRB8UJFUOL4KY9IGG/4JsvskqiZAgMBAAEwDQYJKoZIhvcNAQEEBQADgYEA
aYZ+gvRvi0UEDAL7VKnSferZZd0w6/JF5ZUFE2DYic9IA/ZX7ZFvaAy3uyvBNGzi
9tPMfqlgjUY4QHOHp9DyqySPmeMFFpppnogY5Fx5ISdSZUOBq4mEyiS6lVasDogL
JA6RJMIA1sj/M+YO2OOywOOmcNgBbW7YYXzjsNfRg/I=
-----END CERTIFICATE-----
