Certificate:
    Data:
        Version: 1 (0x0)
        Serial Number:
            9b:27:d7:e8:d1:ba:0a:37
        Signature Algorithm: md5WithRSAEncryption
        Issuer: C=DE, ST=Saarland, O=MPI-SWS, OU=Distributed Systems Group, CN=Andreas Haeberlen/emailAddress=democa@octarine.de
        Validity
            Not Before: Apr 20 20:47:23 2015 GMT
            Not After : Apr 19 20:47:23 2016 GMT
        Subject: C=DE, ST=Saarland, O=MPI-SWS, OU=Distributed Systems Group, CN=804d8dcc6deaf8073eb9973a0c0771f023da0977/emailAddress=node0607@octarine.de
        Subject Public Key Info:
            Public Key Algorithm: rsaEncryption
            RSA Public Key: (1024 bit)
                Modulus (1024 bit):
                    00:cd:e1:b5:62:b3:65:2c:4e:d2:f1:1b:40:28:8f:
                    30:0c:5a:db:92:43:04:f9:87:8c:b0:f7:9b:06:e9:
                    0c:16:86:81:28:30:8a:83:a1:a4:b2:b4:88:da:a2:
                    fa:8f:55:6b:86:ff:fe:15:95:03:72:02:38:47:b8:
                    43:a6:17:8c:fd:b5:86:22:a6:8c:30:0c:7b:98:ec:
                    a5:1a:35:7b:7e:88:0c:50:24:a9:18:77:d1:87:ae:
                    94:c4:54:fb:ab:0c:4f:c2:54:40:fd:ef:fc:ff:38:
                    1d:0a:f0:58:c2:4b:cb:54:2e:fe:ca:21:bf:3a:df:
                    9f:b7:b6:b3:33:41:a9:4c:5f
                Exponent: 65537 (0x10001)
    Signature Algorithm: md5WithRSAEncryption
        37:7f:26:11:b8:0f:3f:6d:27:1e:2a:72:3f:a9:f5:83:7c:2b:
        d4:04:68:01:4d:5b:5d:49:84:38:47:5a:7f:30:d0:98:be:0e:
        25:b3:c4:90:8a:95:fb:55:53:16:90:cb:13:1f:01:53:90:84:
        79:d8:c8:77:2b:e6:54:dc:cb:6e:39:1f:cb:8b:88:1a:7c:7a:
        d2:59:32:38:76:33:7f:4f:95:39:1e:6f:e7:af:b1:df:11:b6:
        32:07:95:1e:6d:ea:a6:a9:45:0d:3e:d0:b9:e4:5e:06:ac:38:
        7e:0b:0f:9b:e3:f7:b0:bd:9d:24:d9:22:a0:18:8b:96:50:7a:
        74:03
-----BEGIN CERTIFICATE-----
MIICvDCCAiUCCQCbJ9fo0boKNzANBgkqhkiG9w0BAQQFADCBlTELMAkGA1UEBhMC
REUxETAPBgNVBAgTCFNhYXJsYW5kMRAwDgYDVQQKEwdNUEktU1dTMSIwIAYDVQQL
ExlEaXN0cmlidXRlZCBTeXN0ZW1zIEdyb3VwMRowGAYDVQQDExFBbmRyZWFzIEhh
ZWJlcmxlbjEhMB8GCSqGSIb3DQEJARYSZGVtb2NhQG9jdGFyaW5lLmRlMB4XDTE1
MDQyMDIwNDcyM1oXDTE2MDQxOTIwNDcyM1owga4xCzAJBgNVBAYTAkRFMREwDwYD
VQQIEwhTYWFybGFuZDEQMA4GA1UEChMHTVBJLVNXUzEiMCAGA1UECxMZRGlzdHJp
YnV0ZWQgU3lzdGVtcyBHcm91cDExMC8GA1UEAxMoODA0ZDhkY2M2ZGVhZjgwNzNl
Yjk5NzNhMGMwNzcxZjAyM2RhMDk3NzEjMCEGCSqGSIb3DQEJARYUbm9kZTA2MDdA
b2N0YXJpbmUuZGUwgZ8wDQYJKoZIhvcNAQEBBQADgY0AMIGJAoGBAM3htWKzZSxO
0vEbQCiPMAxa25JDBPmHjLD3mwbpDBaGgSgwioOhpLK0iNqi+o9Va4b//hWVA3IC
OEe4Q6YXjP21hiKmjDAMe5jspRo1e36IDFAkqRh30YeulMRU+6sMT8JUQP3v/P84
HQrwWMJLy1Qu/sohvzrfn7e2szNBqUxfAgMBAAEwDQYJKoZIhvcNAQEEBQADgYEA
N38mEbgPP20nHipyP6n1g3wr1ARoAU1bXUmEOEdafzDQmL4OJbPEkIqV+1VTFpDL
Ex8BU5CEedjIdyvmVNzLbjkfy4uIGnx60lkyOHYzf0+VOR5v56+x3xG2MgeVHm3q
pqlFDT7QueReBqw4fgsPm+P3sL2dJNkioBiLllB6dAM=
-----END CERTIFICATE-----
