Certificate:
    Data:
        Version: 1 (0x0)
        Serial Number:
            9b:27:d7:e8:d1:ba:09:c8
        Signature Algorithm: md5WithRSAEncryption
        Issuer: C=DE, ST=Saarland, O=MPI-SWS, OU=Distributed Systems Group, CN=Andreas Haeberlen/emailAddress=democa@octarine.de
        Validity
            Not Before: Apr 20 20:47:18 2015 GMT
            Not After : Apr 19 20:47:18 2016 GMT
        Subject: C=DE, ST=Saarland, O=MPI-SWS, OU=Distributed Systems Group, CN=0a2ec1dacc8246be46bbbf9026dfe21ec3c94a41/emailAddress=node0496@octarine.de
        Subject Public Key Info:
            Public Key Algorithm: rsaEncryption
            RSA Public Key: (1024 bit)
                Modulus (1024 bit):
                    00:a1:4b:40:af:f6:7d:53:69:b7:95:1e:59:33:84:
                    e8:2b:41:f4:96:c5:79:f7:6b:f1:cf:5a:5b:12:4b:
                    b9:fd:85:c9:4f:a8:8f:40:10:ae:c5:44:dd:0c:35:
                    ef:d1:d9:32:ef:fe:1b:9c:9c:7d:ef:23:94:cf:b4:
                    bb:62:79:d0:71:72:c9:ea:67:7b:d9:28:c7:28:01:
                    01:d3:b3:29:38:e2:34:0e:5f:c8:98:ce:e7:6b:cf:
                    dd:c9:d9:c9:ec:ca:cc:d3:09:7b:0b:c6:ee:8e:6f:
                    84:8b:a0:e3:bb:c3:cf:7a:8b:e6:54:31:5e:b6:31:
                    02:d5:8d:4e:bd:f0:1b:60:0d
                Exponent: 65537 (0x10001)
    Signature Algorithm: md5WithRSAEncryption
        24:d0:9b:fd:24:93:22:68:05:3c:26:00:20:d2:07:7d:6c:e9:
        19:63:00:9c:eb:d1:9b:1e:de:e0:95:ff:a2:b6:27:bf:27:82:
        e8:a8:cd:ea:26:ee:12:68:56:12:ee:60:58:a6:39:1e:7f:c4:
        07:97:d7:55:bb:06:71:d3:62:ef:1e:33:2c:36:0f:0d:d9:57:
        42:6d:4e:9f:ed:d9:00:9b:90:1f:b5:ff:eb:19:37:bc:cd:49:
        f1:4a:1e:67:d3:ce:db:3e:09:3f:0f:ef:b7:3e:38:49:44:57:
        7a:7f:c8:61:3a:02:f2:b1:7e:51:c4:f7:9e:37:14:fa:0a:7a:
        37:1a
-----BEGIN CERTIFICATE-----
MIICvDCCAiUCCQCbJ9fo0boJyDANBgkqhkiG9w0BAQQFADCBlTELMAkGA1UEBhMC
REUxETAPBgNVBAgTCFNhYXJsYW5kMRAwDgYDVQQKEwdNUEktU1dTMSIwIAYDVQQL
ExlEaXN0cmlidXRlZCBTeXN0ZW1zIEdyb3VwMRowGAYDVQQDExFBbmRyZWFzIEhh
ZWJlcmxlbjEhMB8GCSqGSIb3DQEJARYSZGVtb2NhQG9jdGFyaW5lLmRlMB4XDTE1
MDQyMDIwNDcxOFoXDTE2MDQxOTIwNDcxOFowga4xCzAJBgNVBAYTAkRFMREwDwYD
VQQIEwhTYWFybGFuZDEQMA4GA1UEChMHTVBJLVNXUzEiMCAGA1UECxMZRGlzdHJp
YnV0ZWQgU3lzdGVtcyBHcm91cDExMC8GA1UEAxMoMGEyZWMxZGFjYzgyNDZiZTQ2
YmJiZjkwMjZkZmUyMWVjM2M5NGE0MTEjMCEGCSqGSIb3DQEJARYUbm9kZTA0OTZA
b2N0YXJpbmUuZGUwgZ8wDQYJKoZIhvcNAQEBBQADgY0AMIGJAoGBAKFLQK/2fVNp
t5UeWTOE6CtB9JbFefdr8c9aWxJLuf2FyU+oj0AQrsVE3Qw179HZMu/+G5ycfe8j
lM+0u2J50HFyyepne9koxygBAdOzKTjiNA5fyJjO52vP3cnZyezKzNMJewvG7o5v
hIug47vDz3qL5lQxXrYxAtWNTr3wG2ANAgMBAAEwDQYJKoZIhvcNAQEEBQADgYEA
JNCb/SSTImgFPCYAINIHfWzpGWMAnOvRmx7e4JX/orYnvyeC6KjN6ibuEmhWEu5g
WKY5Hn/EB5fXVbsGcdNi7x4zLDYPDdlXQm1On+3ZAJuQH7X/6xk3vM1J8UoeZ9PO
2z4JPw/vtz44SURXen/IYToC8rF+UcT3njcU+gp6Nxo=
-----END CERTIFICATE-----
