Certificate:
    Data:
        Version: 1 (0x0)
        Serial Number:
            9b:27:d7:e8:d1:ba:09:64
        Signature Algorithm: md5WithRSAEncryption
        Issuer: C=DE, ST=Saarland, O=MPI-SWS, OU=Distributed Systems Group, CN=Andreas Haeberlen/emailAddress=democa@octarine.de
        Validity
            Not Before: Apr 20 20:47:14 2015 GMT
            Not After : Apr 19 20:47:14 2016 GMT
        Subject: C=DE, ST=Saarland, O=MPI-SWS, OU=Distributed Systems Group, CN=ed9331aa2c94bbc161a1145ae5dde2dd06137bda/emailAddress=node0396@octarine.de
        Subject Public Key Info:
            Public Key Algorithm: rsaEncryption
            RSA Public Key: (1024 bit)
                Modulus (1024 bit):
                    00:c3:d4:37:21:87:2c:b5:d4:49:52:1f:ca:0d:a3:
                    2f:8c:5c:e0:fe:4b:4c:02:98:57:7e:9a:ee:ae:d8:
                    53:53:21:81:02:d5:9a:05:42:f7:bf:f6:86:25:63:
                    74:d4:b1:d1:75:d8:cb:5c:f8:d2:55:2b:19:0b:3b:
                    02:95:39:85:bc:ad:66:8c:c1:83:50:9b:eb:0c:f3:
                    5f:e7:8f:82:40:4e:c2:5a:68:dd:cb:b2:62:52:b5:
                    b4:2b:a2:95:9a:d6:a8:76:97:4f:52:35:0f:8d:95:
                    96:b6:39:08:eb:3d:88:4b:7a:f5:be:8a:df:34:ea:
                    c6:84:83:0b:1e:9c:a0:00:b5
                Exponent: 65537 (0x10001)
    Signature Algorithm: md5WithRSAEncryption
        9f:28:1d:ef:24:83:13:c5:66:ca:fc:b9:a1:ff:7b:02:0c:f8:
        d2:fa:09:71:53:14:03:e6:a0:82:2c:2d:09:2d:fe:9c:c7:77:
        b3:27:f9:ed:0e:81:c8:a7:a2:60:a6:4f:21:aa:a0:a2:52:95:
        12:53:a1:24:53:70:00:86:6e:16:70:10:7a:47:af:71:24:77:
        d2:a1:17:bb:bb:13:78:ab:58:85:27:62:e7:23:e7:98:6e:fa:
        1b:f3:48:6c:cb:0e:90:12:72:fd:ac:2f:b5:89:e3:af:eb:4a:
        d3:68:56:d1:ea:58:64:95:1b:22:0b:b4:2e:1b:3e:49:71:b3:
        29:f8
-----BEGIN CERTIFICATE-----
MIICvDCCAiUCCQCbJ9fo0boJZDANBgkqhkiG9w0BAQQFADCBlTELMAkGA1UEBhMC
REUxETAPBgNVBAgTCFNhYXJsYW5kMRAwDgYDVQQKEwdNUEktU1dTMSIwIAYDVQQL
ExlEaXN0cmlidXRlZCBTeXN0ZW1zIEdyb3VwMRowGAYDVQQDExFBbmRyZWFzIEhh
ZWJlcmxlbjEhMB8GCSqGSIb3DQEJARYSZGVtb2NhQG9jdGFyaW5lLmRlMB4XDTE1
MDQyMDIwNDcxNFoXDTE2MDQxOTIwNDcxNFowga4xCzAJBgNVBAYTAkRFMREwDwYD
VQQIEwhTYWFybGFuZDEQMA4GA1UEChMHTVBJLVNXUzEiMCAGA1UECxMZRGlzdHJp
YnV0ZWQgU3lzdGVtcyBHcm91cDExMC8GA1UEAxMoZWQ5MzMxYWEyYzk0YmJjMTYx
YTExNDVhZTVkZGUyZGQwNjEzN2JkYTEjMCEGCSqGSIb3DQEJARYUbm9kZTAzOTZA
b2N0YXJpbmUuZGUwgZ8wDQYJKoZIhvcNAQEBBQADgY0AMIGJAoGBAMPUNyGHLLXU
SVIfyg2jL4xc4P5LTAKYV36a7q7YU1MhgQLVmgVC97/2hiVjdNSx0XXYy1z40lUr
GQs7ApU5hbytZozBg1Cb6wzzX+ePgkBOwlpo3cuyYlK1tCuilZrWqHaXT1I1D42V
lrY5COs9iEt69b6K3zTqxoSDCx6coAC1AgMBAAEwDQYJKoZIhvcNAQEEBQADgYEA
nygd7ySDE8Vmyvy5of97Agz40voJcVMUA+aggiwtCS3+nMd3syf57Q6ByKeiYKZP
IaqgolKVElOhJFNwAIZuFnAQekevcSR30qEXu7sTeKtYhSdi5yPnmG76G/NIbMsO
kBJy/awvtYnjr+tK02hW0epYZJUbIgu0Lhs+SXGzKfg=
-----END CERTIFICATE-----
