Certificate:
    Data:
        Version: 1 (0x0)
        Serial Number:
            9b:27:d7:e8:d1:ba:09:3f
        Signature Algorithm: md5WithRSAEncryption
        Issuer: C=DE, ST=Saarland, O=MPI-SWS, OU=Distributed Systems Group, CN=Andreas Haeberlen/emailAddress=democa@octarine.de
        Validity
            Not Before: Apr 20 20:47:12 2015 GMT
            Not After : Apr 19 20:47:12 2016 GMT
        Subject: C=DE, ST=Saarland, O=MPI-SWS, OU=Distributed Systems Group, CN=2b929914d575c61837ae8825f1cc0033cc5667b3/emailAddress=node0359@octarine.de
        Subject Public Key Info:
            Public Key Algorithm: rsaEncryption
            RSA Public Key: (1024 bit)
                Modulus (1024 bit):
                    00:c2:e9:29:9c:1f:6f:05:11:87:de:4f:b2:bc:69:
                    d7:0a:1f:21:af:9b:04:b5:b6:03:02:2c:c2:fa:18:
                    be:a5:a5:a5:59:5c:d8:06:7a:cb:7e:0a:9b:64:3a:
                    a6:5c:c8:5a:c5:a6:1c:1e:ed:e2:e6:4f:5b:d5:f5:
                    f2:f0:ea:40:69:9f:4b:87:30:9b:80:cc:ec:9a:50:
                    fc:68:de:36:7f:a7:fe:3a:ff:f1:44:e3:34:35:fa:
                    df:0c:f2:0f:f5:42:ad:10:c3:13:04:3b:4a:95:9b:
                    c5:9f:98:5c:03:38:13:20:76:05:86:48:14:90:09:
                    5a:2e:3a:0b:eb:24:bd:cb:f7
                Exponent: 65537 (0x10001)
    Signature Algorithm: md5WithRSAEncryption
        42:34:63:64:7c:be:ca:bc:f2:fc:bc:bb:6d:70:51:f5:4a:99:
        58:ee:1e:6c:ff:8e:5a:1c:e5:7b:b2:49:77:f8:8a:a7:f3:65:
        6f:29:3e:44:03:b8:e6:e8:27:4d:eb:e6:5d:af:e1:e8:d7:90:
        77:11:cf:aa:62:59:3a:89:8a:bf:1d:30:23:db:a2:93:5d:7b:
        a3:a9:4b:ea:48:3a:5e:31:13:26:26:2a:22:26:43:b9:5c:54:
        d8:1f:41:99:42:00:e0:6a:f0:e1:a7:60:30:1e:e4:1e:50:40:
        26:7e:1d:55:c8:33:2d:17:8a:44:01:ba:3f:4f:5c:91:43:6f:
        62:da
-----BEGIN CERTIFICATE-----
MIICvDCCAiUCCQCbJ9fo0boJPzANBgkqhkiG9w0BAQQFADCBlTELMAkGA1UEBhMC
REUxETAPBgNVBAgTCFNhYXJsYW5kMRAwDgYDVQQKEwdNUEktU1dTMSIwIAYDVQQL
ExlEaXN0cmlidXRlZCBTeXN0ZW1zIEdyb3VwMRowGAYDVQQDExFBbmRyZWFzIEhh
ZWJlcmxlbjEhMB8GCSqGSIb3DQEJARYSZGVtb2NhQG9jdGFyaW5lLmRlMB4XDTE1
MDQyMDIwNDcxMloXDTE2MDQxOTIwNDcxMlowga4xCzAJBgNVBAYTAkRFMREwDwYD
VQQIEwhTYWFybGFuZDEQMA4GA1UEChMHTVBJLVNXUzEiMCAGA1UECxMZRGlzdHJp
YnV0ZWQgU3lzdGVtcyBHcm91cDExMC8GA1UEAxMoMmI5Mjk5MTRkNTc1YzYxODM3
YWU4ODI1ZjFjYzAwMzNjYzU2NjdiMzEjMCEGCSqGSIb3DQEJARYUbm9kZTAzNTlA
b2N0YXJpbmUuZGUwgZ8wDQYJKoZIhvcNAQEBBQADgY0AMIGJAoGBAMLpKZwfbwUR
h95Psrxp1wofIa+bBLW2AwIswvoYvqWlpVlc2AZ6y34Km2Q6plzIWsWmHB7t4uZP
W9X18vDqQGmfS4cwm4DM7JpQ/GjeNn+n/jr/8UTjNDX63wzyD/VCrRDDEwQ7SpWb
xZ+YXAM4EyB2BYZIFJAJWi46C+skvcv3AgMBAAEwDQYJKoZIhvcNAQEEBQADgYEA
QjRjZHy+yrzy/Ly7bXBR9UqZWO4ebP+OWhzle7JJd/iKp/Nlbyk+RAO45ugnTevm
Xa/h6NeQdxHPqmJZOomKvx0wI9uik117o6lL6kg6XjETJiYqIiZDuVxU2B9BmUIA
4Grw4adgMB7kHlBAJn4dVcgzLReKRAG6P09ckUNvYto=
-----END CERTIFICATE-----
