Certificate:
    Data:
        Version: 1 (0x0)
        Serial Number:
            9b:27:d7:e8:d1:ba:08:8e
        Signature Algorithm: md5WithRSAEncryption
        Issuer: C=DE, ST=Saarland, O=MPI-SWS, OU=Distributed Systems Group, CN=Andreas Haeberlen/emailAddress=democa@octarine.de
        Validity
            Not Before: Apr 20 20:47:05 2015 GMT
            Not After : Apr 19 20:47:05 2016 GMT
        Subject: C=DE, ST=Saarland, O=MPI-SWS, OU=Distributed Systems Group, CN=447bebc472c8d465fa6e54c676354b19f84e302b/emailAddress=node0182@octarine.de
        Subject Public Key Info:
            Public Key Algorithm: rsaEncryption
            RSA Public Key: (1024 bit)
                Modulus (1024 bit):
                    00:a8:69:04:70:b7:22:3a:18:28:81:bb:a6:7f:29:
                    92:62:2c:b5:f7:2d:17:ba:c7:aa:31:64:1f:cf:27:
                    33:d2:49:91:88:2b:9d:44:62:f3:6c:4d:a0:a6:a0:
                    44:ed:8f:15:58:a8:3d:39:6f:34:d7:f1:4d:ac:b3:
                    54:b5:a0:05:3a:e5:a7:9f:11:2c:db:fa:7c:c8:75:
                    41:cf:e3:90:cb:07:ff:71:2d:e7:9c:5b:db:4c:f3:
                    87:73:4a:e5:0d:99:4b:3e:81:df:48:23:de:73:b1:
                    3b:81:e3:6f:5b:d0:02:db:d3:c4:4e:6d:ad:3c:1f:
                    87:43:7e:e8:4a:4a:64:96:3d
                Exponent: 65537 (0x10001)
    Signature Algorithm: md5WithRSAEncryption
        78:e7:93:6e:31:26:01:a5:a5:55:e4:8d:5d:aa:ef:1d:fb:16:
        fa:ac:b5:4a:17:ac:0f:31:a7:82:92:a1:c2:17:55:61:9e:17:
        a9:3a:31:10:8d:67:fe:77:d7:b1:28:d7:09:48:f4:c2:ed:e0:
        73:66:4a:79:fe:e8:0b:96:b4:6d:af:b7:7e:7e:85:c9:1b:8c:
        a7:28:0f:3b:16:0c:f3:af:df:47:ea:de:a5:38:bc:d7:86:d1:
        8b:66:71:df:bc:77:a3:08:8f:b0:6a:e2:5c:3d:11:58:27:0c:
        4b:94:ec:f0:a4:fc:a6:41:25:40:fb:cd:b6:da:f4:65:ba:1e:
        4e:67
-----BEGIN CERTIFICATE-----
MIICvDCCAiUCCQCbJ9fo0boIjjANBgkqhkiG9w0BAQQFADCBlTELMAkGA1UEBhMC
REUxETAPBgNVBAgTCFNhYXJsYW5kMRAwDgYDVQQKEwdNUEktU1dTMSIwIAYDVQQL
ExlEaXN0cmlidXRlZCBTeXN0ZW1zIEdyb3VwMRowGAYDVQQDExFBbmRyZWFzIEhh
ZWJlcmxlbjEhMB8GCSqGSIb3DQEJARYSZGVtb2NhQG9jdGFyaW5lLmRlMB4XDTE1
MDQyMDIwNDcwNVoXDTE2MDQxOTIwNDcwNVowga4xCzAJBgNVBAYTAkRFMREwDwYD
VQQIEwhTYWFybGFuZDEQMA4GA1UEChMHTVBJLVNXUzEiMCAGA1UECxMZRGlzdHJp
YnV0ZWQgU3lzdGVtcyBHcm91cDExMC8GA1UEAxMoNDQ3YmViYzQ3MmM4ZDQ2NWZh
NmU1NGM2NzYzNTRiMTlmODRlMzAyYjEjMCEGCSqGSIb3DQEJARYUbm9kZTAxODJA
b2N0YXJpbmUuZGUwgZ8wDQYJKoZIhvcNAQEBBQADgY0AMIGJAoGBAKhpBHC3IjoY
KIG7pn8pkmIstfctF7rHqjFkH88nM9JJkYgrnURi82xNoKagRO2PFVioPTlvNNfx
TayzVLWgBTrlp58RLNv6fMh1Qc/jkMsH/3Et55xb20zzh3NK5Q2ZSz6B30gj3nOx
O4Hjb1vQAtvTxE5trTwfh0N+6EpKZJY9AgMBAAEwDQYJKoZIhvcNAQEEBQADgYEA
eOeTbjEmAaWlVeSNXarvHfsW+qy1ShesDzGngpKhwhdVYZ4XqToxEI1n/nfXsSjX
CUj0wu3gc2ZKef7oC5a0ba+3fn6FyRuMpygPOxYM86/fR+repTi814bRi2Zx37x3
owiPsGriXD0RWCcMS5Ts8KT8pkElQPvNttr0ZboeTmc=
-----END CERTIFICATE-----
