Certificate:
    Data:
        Version: 1 (0x0)
        Serial Number:
            9b:27:d7:e8:d1:ba:08:4d
        Signature Algorithm: md5WithRSAEncryption
        Issuer: C=DE, ST=Saarland, O=MPI-SWS, OU=Distributed Systems Group, CN=Andreas Haeberlen/emailAddress=democa@octarine.de
        Validity
            Not Before: Apr 20 20:47:02 2015 GMT
            Not After : Apr 19 20:47:02 2016 GMT
        Subject: C=DE, ST=Saarland, O=MPI-SWS, OU=Distributed Systems Group, CN=058e68bb8c9ca77999c386c4de661b320b064c1c/emailAddress=node0117@octarine.de
        Subject Public Key Info:
            Public Key Algorithm: rsaEncryption
            RSA Public Key: (1024 bit)
                Modulus (1024 bit):
                    00:c4:00:43:f0:d9:1b:ba:a1:2b:a7:a3:25:a3:1c:
                    06:7f:d9:44:e0:d0:d3:8f:89:11:72:25:ca:03:3d:
                    48:32:9e:18:d5:80:5d:ef:2c:d3:b7:99:51:52:cf:
                    62:ea:1b:d1:d7:c5:01:2d:bb:0b:20:2a:fa:f8:5c:
                    5c:ac:60:d8:61:85:07:68:d1:79:39:3f:56:ce:02:
                    43:7c:9f:23:de:70:0f:1a:08:65:cf:3c:ae:e4:38:
                    5e:05:55:7a:e8:a8:27:d0:de:8b:37:b4:8a:0c:1d:
                    d2:81:a1:ab:63:b0:c0:62:77:cc:d6:25:97:ee:61:
                    f4:c6:8b:3d:42:d9:ef:d7:d9
                Exponent: 65537 (0x10001)
    Signature Algorithm: md5WithRSAEncryption
        50:5e:2b:c9:d6:34:18:62:8f:cf:64:93:4b:57:d5:be:40:5a:
        93:d0:e2:f0:7d:ea:38:7e:fe:09:74:5e:9b:b2:db:be:e2:48:
        26:dd:34:11:d0:ed:82:a1:a6:9b:14:70:1a:37:56:5c:a8:01:
        12:95:44:4e:0b:61:e5:7c:bb:ee:6e:0c:d2:fe:e8:cb:9e:2a:
        a4:94:72:83:91:8c:69:a4:d2:e2:c1:07:76:a4:f0:82:9b:90:
        a1:06:db:15:5e:2b:1f:0b:44:60:cd:b5:7c:f7:5d:fb:7e:ea:
        5f:31:2a:94:8d:27:7a:04:f1:fa:2f:3a:0b:7d:1b:d5:31:e5:
        4f:d5
-----BEGIN CERTIFICATE-----
MIICvDCCAiUCCQCbJ9fo0boITTANBgkqhkiG9w0BAQQFADCBlTELMAkGA1UEBhMC
REUxETAPBgNVBAgTCFNhYXJsYW5kMRAwDgYDVQQKEwdNUEktU1dTMSIwIAYDVQQL
ExlEaXN0cmlidXRlZCBTeXN0ZW1zIEdyb3VwMRowGAYDVQQDExFBbmRyZWFzIEhh
ZWJlcmxlbjEhMB8GCSqGSIb3DQEJARYSZGVtb2NhQG9jdGFyaW5lLmRlMB4XDTE1
MDQyMDIwNDcwMloXDTE2MDQxOTIwNDcwMlowga4xCzAJBgNVBAYTAkRFMREwDwYD
VQQIEwhTYWFybGFuZDEQMA4GA1UEChMHTVBJLVNXUzEiMCAGA1UECxMZRGlzdHJp
YnV0ZWQgU3lzdGVtcyBHcm91cDExMC8GA1UEAxMoMDU4ZTY4YmI4YzljYTc3OTk5
YzM4NmM0ZGU2NjFiMzIwYjA2NGMxYzEjMCEGCSqGSIb3DQEJARYUbm9kZTAxMTdA
b2N0YXJpbmUuZGUwgZ8wDQYJKoZIhvcNAQEBBQADgY0AMIGJAoGBAMQAQ/DZG7qh
K6ejJaMcBn/ZRODQ04+JEXIlygM9SDKeGNWAXe8s07eZUVLPYuob0dfFAS27CyAq
+vhcXKxg2GGFB2jReTk/Vs4CQ3yfI95wDxoIZc88ruQ4XgVVeuioJ9Deize0igwd
0oGhq2OwwGJ3zNYll+5h9MaLPULZ79fZAgMBAAEwDQYJKoZIhvcNAQEEBQADgYEA
UF4rydY0GGKPz2STS1fVvkBak9Di8H3qOH7+CXRem7LbvuJIJt00EdDtgqGmmxRw
GjdWXKgBEpVETgth5Xy77m4M0v7oy54qpJRyg5GMaaTS4sEHdqTwgpuQoQbbFV4r
HwtEYM21fPdd+37qXzEqlI0negTx+i86C30b1THlT9U=
-----END CERTIFICATE-----
