Certificate:
    Data:
        Version: 1 (0x0)
        Serial Number:
            9b:27:d7:e8:d1:ba:0b:86
        Signature Algorithm: md5WithRSAEncryption
        Issuer: C=DE, ST=Saarland, O=MPI-SWS, OU=Distributed Systems Group, CN=Andreas Haeberlen/emailAddress=democa@octarine.de
        Validity
            Not Before: Apr 20 20:47:39 2015 GMT
            Not After : Apr 19 20:47:39 2016 GMT
        Subject: C=DE, ST=Saarland, O=MPI-SWS, OU=Distributed Systems Group, CN=3eea7680bf0151be9a9b0991660e89db7c6f2e0e/emailAddress=node0942@octarine.de
        Subject Public Key Info:
            Public Key Algorithm: rsaEncryption
            RSA Public Key: (1024 bit)
                Modulus (1024 bit):
                    00:d0:4f:1f:29:90:0a:b2:2f:1b:f2:ae:85:bb:13:
                    77:e9:d6:b6:07:d2:7f:8b:7a:a4:43:61:6a:5f:b5:
                    17:cc:68:b8:2b:9d:53:86:c9:0e:88:fc:64:61:99:
                    e5:8a:f6:d3:af:2c:51:4f:95:d6:73:89:da:a6:8b:
                    77:43:94:fd:a3:e2:91:89:c7:62:37:50:c6:b3:c0:
                    eb:69:94:1f:48:93:7a:6b:76:08:c8:f7:f5:57:50:
                    f6:a7:6d:97:e8:e2:3d:90:06:ce:4c:f2:4b:0a:17:
                    88:14:8f:02:37:a4:7d:6d:8f:5b:8f:9c:7e:79:d5:
                    f0:0f:90:9b:ec:8f:4a:5f:21
                Exponent: 65537 (0x10001)
    Signature Algorithm: md5WithRSAEncryption
        08:66:b9:ec:0b:0b:a8:22:e9:37:5d:a4:be:f9:9a:d4:78:88:
        89:28:ed:ba:d0:55:6a:53:e6:3e:b9:07:d1:94:ff:fa:c8:1a:
        b5:e4:f4:81:4a:83:4f:b3:bf:12:73:97:95:4a:d1:6b:b3:90:
        94:b6:69:c3:f2:42:00:5c:77:27:be:99:ba:32:e9:bd:f6:9b:
        23:7a:75:d8:44:09:34:70:7c:74:9b:c8:bb:08:06:a3:bd:df:
        c5:e5:b3:d8:ee:14:0e:d3:22:b8:af:ff:04:27:e3:25:13:bb:
        0f:38:05:46:1e:4f:77:7d:a8:ce:21:c5:cd:25:b9:43:ab:a1:
        90:46
-----BEGIN CERTIFICATE-----
MIICvDCCAiUCCQCbJ9fo0boLhjANBgkqhkiG9w0BAQQFADCBlTELMAkGA1UEBhMC
REUxETAPBgNVBAgTCFNhYXJsYW5kMRAwDgYDVQQKEwdNUEktU1dTMSIwIAYDVQQL
ExlEaXN0cmlidXRlZCBTeXN0ZW1zIEdyb3VwMRowGAYDVQQDExFBbmRyZWFzIEhh
ZWJlcmxlbjEhMB8GCSqGSIb3DQEJARYSZGVtb2NhQG9jdGFyaW5lLmRlMB4XDTE1
MDQyMDIwNDczOVoXDTE2MDQxOTIwNDczOVowga4xCzAJBgNVBAYTAkRFMREwDwYD
VQQIEwhTYWFybGFuZDEQMA4GA1UEChMHTVBJLVNXUzEiMCAGA1UECxMZRGlzdHJp
YnV0ZWQgU3lzdGVtcyBHcm91cDExMC8GA1UEAxMoM2VlYTc2ODBiZjAxNTFiZTlh
OWIwOTkxNjYwZTg5ZGI3YzZmMmUwZTEjMCEGCSqGSIb3DQEJARYUbm9kZTA5NDJA
b2N0YXJpbmUuZGUwgZ8wDQYJKoZIhvcNAQEBBQADgY0AMIGJAoGBANBPHymQCrIv
G/KuhbsTd+nWtgfSf4t6pENhal+1F8xouCudU4bJDoj8ZGGZ5Yr2068sUU+V1nOJ
2qaLd0OU/aPikYnHYjdQxrPA62mUH0iTemt2CMj39VdQ9qdtl+jiPZAGzkzySwoX
iBSPAjekfW2PW4+cfnnV8A+Qm+yPSl8hAgMBAAEwDQYJKoZIhvcNAQEEBQADgYEA
CGa57AsLqCLpN12kvvma1HiIiSjtutBValPmPrkH0ZT/+sgateT0gUqDT7O/EnOX
lUrRa7OQlLZpw/JCAFx3J76ZujLpvfabI3p12EQJNHB8dJvIuwgGo73fxeWz2O4U
DtMiuK//BCfjJRO7DzgFRh5Pd32oziHFzSW5Q6uhkEY=
-----END CERTIFICATE-----
