Certificate:
    Data:
        Version: 1 (0x0)
        Serial Number:
            9b:27:d7:e8:d1:ba:09:22
        Signature Algorithm: md5WithRSAEncryption
        Issuer: C=DE, ST=Saarland, O=MPI-SWS, OU=Distributed Systems Group, CN=Andreas Haeberlen/emailAddress=democa@octarine.de
        Validity
            Not Before: Apr 20 20:47:11 2015 GMT
            Not After : Apr 19 20:47:11 2016 GMT
        Subject: C=DE, ST=Saarland, O=MPI-SWS, OU=Distributed Systems Group, CN=926126646aa43163a9b0fd25c5d3569f901b670c/emailAddress=node0330@octarine.de
        Subject Public Key Info:
            Public Key Algorithm: rsaEncryption
            RSA Public Key: (1024 bit)
                Modulus (1024 bit):
                    00:c4:d3:0d:77:41:03:c4:e0:96:b8:cb:cf:fb:6d:
                    e5:64:51:90:9f:00:64:37:61:da:de:a1:84:06:65:
                    50:0e:ae:6a:c9:c9:10:04:5b:7e:68:e5:89:0e:b9:
                    d5:19:78:f4:77:8c:bd:e9:01:ab:a7:f4:35:a9:94:
                    d4:57:be:29:42:ec:5c:85:4e:16:d6:54:d1:ea:e0:
                    f1:ec:68:0e:33:14:e0:e2:18:01:a6:1c:11:fa:76:
                    41:40:48:4b:03:58:48:8e:db:9c:38:5d:6e:6e:16:
                    01:b5:05:1b:c0:74:a1:78:e9:37:de:fc:68:cc:30:
                    d7:6e:92:1f:2c:4b:f5:5a:17
                Exponent: 65537 (0x10001)
    Signature Algorithm: md5WithRSAEncryption
        64:11:6b:14:64:6f:5a:ff:e1:88:b2:37:48:bd:c1:ac:78:6f:
        13:c6:ab:d4:e3:20:80:c0:4c:67:a7:6f:7c:a6:3e:d1:ed:77:
        25:89:db:0c:35:fb:3b:27:f8:3a:dc:f9:8e:0f:9e:9f:8f:87:
        0b:06:21:15:78:f1:17:ea:87:4e:65:3d:23:a9:01:68:7b:6a:
        43:93:7d:f5:4d:d6:37:62:45:07:79:41:eb:59:3c:ca:39:7b:
        f2:51:5e:a4:d8:0e:ce:e8:3f:b5:a9:59:5c:c8:0f:a4:9a:78:
        01:25:fd:cf:d2:47:53:8a:d7:98:00:2d:f2:d0:85:f4:09:2f:
        07:f8
-----BEGIN CERTIFICATE-----
MIICvDCCAiUCCQCbJ9fo0boJIjANBgkqhkiG9w0BAQQFADCBlTELMAkGA1UEBhMC
REUxETAPBgNVBAgTCFNhYXJsYW5kMRAwDgYDVQQKEwdNUEktU1dTMSIwIAYDVQQL
ExlEaXN0cmlidXRlZCBTeXN0ZW1zIEdyb3VwMRowGAYDVQQDExFBbmRyZWFzIEhh
ZWJlcmxlbjEhMB8GCSqGSIb3DQEJARYSZGVtb2NhQG9jdGFyaW5lLmRlMB4XDTE1
MDQyMDIwNDcxMVoXDTE2MDQxOTIwNDcxMVowga4xCzAJBgNVBAYTAkRFMREwDwYD
VQQIEwhTYWFybGFuZDEQMA4GA1UEChMHTVBJLVNXUzEiMCAGA1UECxMZRGlzdHJp
YnV0ZWQgU3lzdGVtcyBHcm91cDExMC8GA1UEAxMoOTI2MTI2NjQ2YWE0MzE2M2E5
YjBmZDI1YzVkMzU2OWY5MDFiNjcwYzEjMCEGCSqGSIb3DQEJARYUbm9kZTAzMzBA
b2N0YXJpbmUuZGUwgZ8wDQYJKoZIhvcNAQEBBQADgY0AMIGJAoGBAMTTDXdBA8Tg
lrjLz/tt5WRRkJ8AZDdh2t6hhAZlUA6uasnJEARbfmjliQ651Rl49HeMvekBq6f0
NamU1Fe+KULsXIVOFtZU0erg8exoDjMU4OIYAaYcEfp2QUBISwNYSI7bnDhdbm4W
AbUFG8B0oXjpN978aMww126SHyxL9VoXAgMBAAEwDQYJKoZIhvcNAQEEBQADgYEA
ZBFrFGRvWv/hiLI3SL3BrHhvE8ar1OMggMBMZ6dvfKY+0e13JYnbDDX7Oyf4Otz5
jg+en4+HCwYhFXjxF+qHTmU9I6kBaHtqQ5N99U3WN2JFB3lB61k8yjl78lFepNgO
zug/talZXMgPpJp4ASX9z9JHU4rXmAAt8tCF9AkvB/g=
-----END CERTIFICATE-----
