Certificate:
    Data:
        Version: 1 (0x0)
        Serial Number:
            9b:27:d7:e8:d1:ba:09:69
        Signature Algorithm: md5WithRSAEncryption
        Issuer: C=DE, ST=Saarland, O=MPI-SWS, OU=Distributed Systems Group, CN=Andreas Haeberlen/emailAddress=democa@octarine.de
        Validity
            Not Before: Apr 20 20:47:14 2015 GMT
            Not After : Apr 19 20:47:14 2016 GMT
        Subject: C=DE, ST=Saarland, O=MPI-SWS, OU=Distributed Systems Group, CN=98e4b5bc7732e95bf0551b4921a218ea0cfb2a79/emailAddress=node0401@octarine.de
        Subject Public Key Info:
            Public Key Algorithm: rsaEncryption
            RSA Public Key: (1024 bit)
                Modulus (1024 bit):
                    00:e6:a9:b7:89:1a:7d:fc:39:61:76:95:26:87:bd:
                    d9:69:2a:36:fb:ac:14:31:5e:cf:f4:48:de:c2:bd:
                    30:b8:2c:07:29:5e:ac:1f:eb:eb:cb:3a:2e:be:6a:
                    45:8f:f0:44:6c:9b:dc:ea:22:92:a9:38:ce:b8:67:
                    f6:0e:52:4f:92:1a:03:b1:ea:81:e2:61:09:bf:3b:
                    ee:2f:57:3e:96:1c:d9:d3:43:6d:50:f1:26:dc:da:
                    d3:2b:20:c2:e9:8e:5d:d8:65:c6:01:6a:84:54:3b:
                    12:43:22:75:90:68:7a:65:74:ab:8d:1e:f7:ba:b8:
                    53:a5:15:5f:58:30:ef:17:23
                Exponent: 65537 (0x10001)
    Signature Algorithm: md5WithRSAEncryption
        89:36:7e:4c:53:f8:ab:58:e9:c5:92:78:e5:ca:c8:22:de:e4:
        1e:61:be:d3:c8:7a:1c:f8:24:82:55:24:ab:4d:00:2a:e4:93:
        86:54:17:53:23:1f:0e:c5:48:f7:8e:73:41:46:89:08:a9:61:
        6f:ea:48:f1:19:6f:62:76:f5:8e:43:37:e8:26:1b:79:aa:f8:
        03:2c:c6:b7:69:2c:36:78:34:5f:37:e8:cf:70:72:aa:65:7a:
        c5:d2:10:5f:ba:70:1e:7a:46:9a:79:3c:2e:d1:33:be:d8:c6:
        c7:86:e7:cb:d6:df:18:dd:a6:a0:d1:75:3d:38:7d:55:bb:99:
        3a:ff
-----BEGIN CERTIFICATE-----
MIICvDCCAiUCCQCbJ9fo0boJaTANBgkqhkiG9w0BAQQFADCBlTELMAkGA1UEBhMC
REUxETAPBgNVBAgTCFNhYXJsYW5kMRAwDgYDVQQKEwdNUEktU1dTMSIwIAYDVQQL
ExlEaXN0cmlidXRlZCBTeXN0ZW1zIEdyb3VwMRowGAYDVQQDExFBbmRyZWFzIEhh
ZWJlcmxlbjEhMB8GCSqGSIb3DQEJARYSZGVtb2NhQG9jdGFyaW5lLmRlMB4XDTE1
MDQyMDIwNDcxNFoXDTE2MDQxOTIwNDcxNFowga4xCzAJBgNVBAYTAkRFMREwDwYD
VQQIEwhTYWFybGFuZDEQMA4GA1UEChMHTVBJLVNXUzEiMCAGA1UECxMZRGlzdHJp
YnV0ZWQgU3lzdGVtcyBHcm91cDExMC8GA1UEAxMoOThlNGI1YmM3NzMyZTk1YmYw
NTUxYjQ5MjFhMjE4ZWEwY2ZiMmE3OTEjMCEGCSqGSIb3DQEJARYUbm9kZTA0MDFA
b2N0YXJpbmUuZGUwgZ8wDQYJKoZIhvcNAQEBBQADgY0AMIGJAoGBAOapt4kaffw5
YXaVJoe92WkqNvusFDFez/RI3sK9MLgsBylerB/r68s6Lr5qRY/wRGyb3Ooikqk4
zrhn9g5ST5IaA7HqgeJhCb877i9XPpYc2dNDbVDxJtza0ysgwumOXdhlxgFqhFQ7
EkMidZBoemV0q40e97q4U6UVX1gw7xcjAgMBAAEwDQYJKoZIhvcNAQEEBQADgYEA
iTZ+TFP4q1jpxZJ45crIIt7kHmG+08h6HPgkglUkq00AKuSThlQXUyMfDsVI945z
QUaJCKlhb+pI8RlvYnb1jkM36CYbear4AyzGt2ksNng0Xzfoz3ByqmV6xdIQX7pw
HnpGmnk8LtEzvtjGx4bny9bfGN2moNF1PTh9VbuZOv8=
-----END CERTIFICATE-----
