Certificate:
    Data:
        Version: 1 (0x0)
        Serial Number:
            9b:27:d7:e8:d1:ba:0a:30
        Signature Algorithm: md5WithRSAEncryption
        Issuer: C=DE, ST=Saarland, O=MPI-SWS, OU=Distributed Systems Group, CN=Andreas Haeberlen/emailAddress=democa@octarine.de
        Validity
            Not Before: Apr 20 20:47:23 2015 GMT
            Not After : Apr 19 20:47:23 2016 GMT
        Subject: C=DE, ST=Saarland, O=MPI-SWS, OU=Distributed Systems Group, CN=dd812fa60a085b302e0d9fb2df7b54e316436ea6/emailAddress=node0600@octarine.de
        Subject Public Key Info:
            Public Key Algorithm: rsaEncryption
            RSA Public Key: (1024 bit)
                Modulus (1024 bit):
                    00:c0:19:33:86:32:21:7c:e4:f5:64:52:da:39:d1:
                    8d:3c:aa:e0:c4:5f:4b:cd:39:d4:fa:07:9e:4f:fe:
                    35:4e:fe:49:d7:99:aa:53:67:17:ee:03:de:2e:61:
                    25:a9:5e:7c:2d:fd:7f:a9:58:2a:7c:80:d5:0f:b0:
                    9e:b2:fb:13:9b:0b:eb:95:06:4e:fc:40:e5:dd:e9:
                    50:a7:3a:a5:30:04:76:f4:1a:58:6a:06:90:5f:a4:
                    63:3d:ce:71:22:dc:dd:cf:28:ad:f2:70:dd:dd:47:
                    c2:a5:77:66:39:de:13:a0:f3:ca:f2:8c:63:34:0d:
                    23:2b:1e:86:0f:91:49:2c:81
                Exponent: 65537 (0x10001)
    Signature Algorithm: md5WithRSAEncryption
        c6:4c:a3:b7:92:67:21:be:98:d3:23:20:52:00:e6:7b:55:9c:
        36:1a:9d:72:1c:ab:8a:b5:34:e5:b7:fa:8f:60:ce:bc:75:e3:
        aa:ca:f7:76:fb:2e:36:0c:86:d0:36:95:ba:8f:bb:9c:7f:d4:
        9e:2b:86:4d:41:45:3c:c8:4e:ab:60:9c:cb:d9:f4:e2:13:8b:
        db:2a:01:0e:43:3d:6f:7d:03:b6:64:50:84:30:75:2b:a0:fc:
        20:76:c9:41:fe:00:e5:df:2a:33:83:52:53:c6:9a:06:e0:e2:
        b8:73:61:bf:97:a9:53:45:59:b1:58:fd:16:cf:9b:71:25:9f:
        94:69
-----BEGIN CERTIFICATE-----
MIICvDCCAiUCCQCbJ9fo0boKMDANBgkqhkiG9w0BAQQFADCBlTELMAkGA1UEBhMC
REUxETAPBgNVBAgTCFNhYXJsYW5kMRAwDgYDVQQKEwdNUEktU1dTMSIwIAYDVQQL
ExlEaXN0cmlidXRlZCBTeXN0ZW1zIEdyb3VwMRowGAYDVQQDExFBbmRyZWFzIEhh
ZWJlcmxlbjEhMB8GCSqGSIb3DQEJARYSZGVtb2NhQG9jdGFyaW5lLmRlMB4XDTE1
MDQyMDIwNDcyM1oXDTE2MDQxOTIwNDcyM1owga4xCzAJBgNVBAYTAkRFMREwDwYD
VQQIEwhTYWFybGFuZDEQMA4GA1UEChMHTVBJLVNXUzEiMCAGA1UECxMZRGlzdHJp
YnV0ZWQgU3lzdGVtcyBHcm91cDExMC8GA1UEAxMoZGQ4MTJmYTYwYTA4NWIzMDJl
MGQ5ZmIyZGY3YjU0ZTMxNjQzNmVhNjEjMCEGCSqGSIb3DQEJARYUbm9kZTA2MDBA
b2N0YXJpbmUuZGUwgZ8wDQYJKoZIhvcNAQEBBQADgY0AMIGJAoGBAMAZM4YyIXzk
9WRS2jnRjTyq4MRfS8051PoHnk/+NU7+SdeZqlNnF+4D3i5hJalefC39f6lYKnyA
1Q+wnrL7E5sL65UGTvxA5d3pUKc6pTAEdvQaWGoGkF+kYz3OcSLc3c8orfJw3d1H
wqV3ZjneE6DzyvKMYzQNIysehg+RSSyBAgMBAAEwDQYJKoZIhvcNAQEEBQADgYEA
xkyjt5JnIb6Y0yMgUgDme1WcNhqdchyrirU05bf6j2DOvHXjqsr3dvsuNgyG0DaV
uo+7nH/UniuGTUFFPMhOq2Ccy9n04hOL2yoBDkM9b30DtmRQhDB1K6D8IHbJQf4A
5d8qM4NSU8aaBuDiuHNhv5epU0VZsVj9Fs+bcSWflGk=
-----END CERTIFICATE-----
