Certificate:
    Data:
        Version: 1 (0x0)
        Serial Number:
            9b:27:d7:e8:d1:ba:08:44
        Signature Algorithm: md5WithRSAEncryption
        Issuer: C=DE, ST=Saarland, O=MPI-SWS, OU=Distributed Systems Group, CN=Andreas Haeberlen/emailAddress=democa@octarine.de
        Validity
            Not Before: Apr 20 20:47:01 2015 GMT
            Not After : Apr 19 20:47:01 2016 GMT
        Subject: C=DE, ST=Saarland, O=MPI-SWS, OU=Distributed Systems Group, CN=a3444ecac54b684d09c4eb59cf06b1555aaa8744/emailAddress=node0108@octarine.de
        Subject Public Key Info:
            Public Key Algorithm: rsaEncryption
            RSA Public Key: (1024 bit)
                Modulus (1024 bit):
                    00:9a:c8:3c:b8:c7:eb:f9:2a:b1:e8:a7:fa:0b:b1:
                    fa:0b:59:63:52:a4:27:d8:c1:ff:d3:ec:94:51:69:
                    7c:78:c6:29:0c:c0:85:e4:f4:ba:e4:dc:af:eb:a7:
                    17:1d:2d:ea:22:11:ee:b9:13:b9:cf:f8:7c:cb:fc:
                    64:e0:af:64:47:3d:79:f8:1a:c6:04:7c:b0:72:d4:
                    7c:cd:ba:3d:73:59:86:12:1d:42:68:0f:fc:b1:56:
                    79:49:dc:53:e3:ee:61:70:92:fa:7b:77:f3:f4:69:
                    ee:f5:2b:b2:04:42:53:6c:d3:59:b3:78:bc:0b:3a:
                    8c:ee:4d:d0:4d:7b:2e:6f:d9
                Exponent: 65537 (0x10001)
    Signature Algorithm: md5WithRSAEncryption
        95:57:7b:8c:fb:a4:8b:42:3c:47:fd:ef:69:ce:c0:d2:51:0d:
        82:81:9d:c9:9a:f8:bd:15:3f:ec:bf:61:e7:c0:6a:0a:7d:38:
        86:85:e5:26:e4:38:2a:3e:c3:cd:2b:92:dd:2c:c7:8d:f4:65:
        3d:11:b4:84:42:03:e8:73:d3:8c:5f:a9:c7:19:4b:87:85:8a:
        fd:5e:98:5f:02:f7:66:1e:67:51:0f:e4:35:3d:27:67:4a:cd:
        5f:a9:24:d4:fa:2c:76:62:62:eb:f5:59:73:48:02:27:16:00:
        c7:4d:a4:be:c3:c0:00:ce:f6:ea:5d:76:37:4b:71:35:73:11:
        af:29
-----BEGIN CERTIFICATE-----
MIICvDCCAiUCCQCbJ9fo0boIRDANBgkqhkiG9w0BAQQFADCBlTELMAkGA1UEBhMC
REUxETAPBgNVBAgTCFNhYXJsYW5kMRAwDgYDVQQKEwdNUEktU1dTMSIwIAYDVQQL
ExlEaXN0cmlidXRlZCBTeXN0ZW1zIEdyb3VwMRowGAYDVQQDExFBbmRyZWFzIEhh
ZWJlcmxlbjEhMB8GCSqGSIb3DQEJARYSZGVtb2NhQG9jdGFyaW5lLmRlMB4XDTE1
MDQyMDIwNDcwMVoXDTE2MDQxOTIwNDcwMVowga4xCzAJBgNVBAYTAkRFMREwDwYD
VQQIEwhTYWFybGFuZDEQMA4GA1UEChMHTVBJLVNXUzEiMCAGA1UECxMZRGlzdHJp
YnV0ZWQgU3lzdGVtcyBHcm91cDExMC8GA1UEAxMoYTM0NDRlY2FjNTRiNjg0ZDA5
YzRlYjU5Y2YwNmIxNTU1YWFhODc0NDEjMCEGCSqGSIb3DQEJARYUbm9kZTAxMDhA
b2N0YXJpbmUuZGUwgZ8wDQYJKoZIhvcNAQEBBQADgY0AMIGJAoGBAJrIPLjH6/kq
sein+gux+gtZY1KkJ9jB/9PslFFpfHjGKQzAheT0uuTcr+unFx0t6iIR7rkTuc/4
fMv8ZOCvZEc9efgaxgR8sHLUfM26PXNZhhIdQmgP/LFWeUncU+PuYXCS+nt38/Rp
7vUrsgRCU2zTWbN4vAs6jO5N0E17Lm/ZAgMBAAEwDQYJKoZIhvcNAQEEBQADgYEA
lVd7jPuki0I8R/3vac7A0lENgoGdyZr4vRU/7L9h58BqCn04hoXlJuQ4Kj7DzSuS
3SzHjfRlPRG0hEID6HPTjF+pxxlLh4WK/V6YXwL3Zh5nUQ/kNT0nZ0rNX6kk1Pos
dmJi6/VZc0gCJxYAx02kvsPAAM726l12N0txNXMRryk=
-----END CERTIFICATE-----
