Certificate:
    Data:
        Version: 1 (0x0)
        Serial Number:
            9b:27:d7:e8:d1:ba:08:b5
        Signature Algorithm: md5WithRSAEncryption
        Issuer: C=DE, ST=Saarland, O=MPI-SWS, OU=Distributed Systems Group, CN=Andreas Haeberlen/emailAddress=democa@octarine.de
        Validity
            Not Before: Apr 20 20:47:06 2015 GMT
            Not After : Apr 19 20:47:06 2016 GMT
        Subject: C=DE, ST=Saarland, O=MPI-SWS, OU=Distributed Systems Group, CN=2314cff7849604e2e4381793a90e3816b2a819f9/emailAddress=node0221@octarine.de
        Subject Public Key Info:
            Public Key Algorithm: rsaEncryption
            RSA Public Key: (1024 bit)
                Modulus (1024 bit):
                    00:b4:32:c9:40:37:1b:fc:4d:73:e1:be:dd:f2:08:
                    ea:07:a3:a0:72:61:8a:18:c0:d4:64:ed:f0:1b:74:
                    18:3a:45:42:20:f6:d8:2a:81:6d:14:dc:be:86:0e:
                    a3:d6:3d:6a:80:b9:79:7e:d5:0a:2d:93:49:e4:fd:
                    d8:40:88:b3:16:ce:04:2f:06:7d:d9:b4:2b:2e:b4:
                    29:b4:6b:72:0f:ef:3e:d8:8a:9c:b5:52:d8:d9:98:
                    ea:60:2e:91:91:5d:1f:7e:05:c3:78:70:3f:4a:46:
                    27:bf:6c:2d:79:6d:22:f2:f0:a9:1a:eb:4b:40:22:
                    96:4c:54:9f:d7:49:4e:20:b9
                Exponent: 65537 (0x10001)
    Signature Algorithm: md5WithRSAEncryption
        cd:29:38:a1:e4:6d:62:85:b3:27:c7:45:48:e6:e5:f5:58:69:
        cb:e8:77:11:87:5b:0b:45:83:3f:e6:52:0a:56:49:ce:4a:08:
        b3:ae:a4:fc:20:99:69:a0:b7:d3:9f:32:b7:0a:33:12:b6:5e:
        dd:f3:5a:d1:b8:11:c0:fd:88:9d:31:f1:7d:eb:6c:7d:c3:37:
        45:93:26:c2:95:0b:52:29:6a:ff:01:7b:4d:13:9f:9c:27:30:
        dd:79:0a:3f:ae:f3:7b:3d:54:46:4f:b0:6e:02:3c:59:4a:40:
        0d:a6:aa:2d:0e:dc:a5:8e:16:27:40:5c:31:f6:2d:74:b8:4b:
        bb:53
-----BEGIN CERTIFICATE-----
MIICvDCCAiUCCQCbJ9fo0boItTANBgkqhkiG9w0BAQQFADCBlTELMAkGA1UEBhMC
REUxETAPBgNVBAgTCFNhYXJsYW5kMRAwDgYDVQQKEwdNUEktU1dTMSIwIAYDVQQL
ExlEaXN0cmlidXRlZCBTeXN0ZW1zIEdyb3VwMRowGAYDVQQDExFBbmRyZWFzIEhh
ZWJlcmxlbjEhMB8GCSqGSIb3DQEJARYSZGVtb2NhQG9jdGFyaW5lLmRlMB4XDTE1
MDQyMDIwNDcwNloXDTE2MDQxOTIwNDcwNlowga4xCzAJBgNVBAYTAkRFMREwDwYD
VQQIEwhTYWFybGFuZDEQMA4GA1UEChMHTVBJLVNXUzEiMCAGA1UECxMZRGlzdHJp
YnV0ZWQgU3lzdGVtcyBHcm91cDExMC8GA1UEAxMoMjMxNGNmZjc4NDk2MDRlMmU0
MzgxNzkzYTkwZTM4MTZiMmE4MTlmOTEjMCEGCSqGSIb3DQEJARYUbm9kZTAyMjFA
b2N0YXJpbmUuZGUwgZ8wDQYJKoZIhvcNAQEBBQADgY0AMIGJAoGBALQyyUA3G/xN
c+G+3fII6gejoHJhihjA1GTt8Bt0GDpFQiD22CqBbRTcvoYOo9Y9aoC5eX7VCi2T
SeT92ECIsxbOBC8Gfdm0Ky60KbRrcg/vPtiKnLVS2NmY6mAukZFdH34Fw3hwP0pG
J79sLXltIvLwqRrrS0AilkxUn9dJTiC5AgMBAAEwDQYJKoZIhvcNAQEEBQADgYEA
zSk4oeRtYoWzJ8dFSObl9Vhpy+h3EYdbC0WDP+ZSClZJzkoIs66k/CCZaaC3058y
twozErZe3fNa0bgRwP2InTHxfetsfcM3RZMmwpULUilq/wF7TROfnCcw3XkKP67z
ez1URk+wbgI8WUpADaaqLQ7cpY4WJ0BcMfYtdLhLu1M=
-----END CERTIFICATE-----
