Certificate:
    Data:
        Version: 1 (0x0)
        Serial Number:
            9b:27:d7:e8:d1:ba:0a:cf
        Signature Algorithm: md5WithRSAEncryption
        Issuer: C=DE, ST=Saarland, O=MPI-SWS, OU=Distributed Systems Group, CN=Andreas Haeberlen/emailAddress=democa@octarine.de
        Validity
            Not Before: Apr 20 20:47:30 2015 GMT
            Not After : Apr 19 20:47:30 2016 GMT
        Subject: C=DE, ST=Saarland, O=MPI-SWS, OU=Distributed Systems Group, CN=497aa3b07881cd0375f8a333db32a7df059b84b0/emailAddress=node0759@octarine.de
        Subject Public Key Info:
            Public Key Algorithm: rsaEncryption
            RSA Public Key: (1024 bit)
                Modulus (1024 bit):
                    00:da:63:b4:9f:68:29:dc:7e:24:a6:52:80:8b:10:
                    8b:6b:e9:cc:9e:14:eb:25:45:14:36:b0:d5:b3:60:
                    2d:52:f1:20:54:98:82:a2:24:9d:3c:83:51:93:bf:
                    68:b2:3d:a9:be:21:de:cf:8d:1e:a1:e5:be:85:a0:
                    6e:83:3f:a6:01:64:ef:c0:2a:b6:6b:de:2a:9a:69:
                    6b:e6:fc:41:d4:96:e8:36:f2:42:8b:ea:40:16:67:
                    ff:42:ce:57:1e:8d:a7:dc:1f:cb:ad:e0:6d:06:30:
                    ba:c0:49:77:b7:ea:de:99:03:7b:cc:66:1a:b1:b4:
                    1c:bb:b4:56:5a:b1:ee:0c:63
                Exponent: 65537 (0x10001)
    Signature Algorithm: md5WithRSAEncryption
        c5:09:25:04:c1:e1:a1:e8:6a:79:00:f1:fd:bf:20:fb:8a:69:
        9e:3c:13:bc:b6:bd:79:84:10:9d:a9:35:e3:68:aa:cc:41:48:
        bd:1b:6a:4a:21:e4:10:e1:d0:6f:38:06:69:6a:c9:01:58:cd:
        6c:cf:52:7b:5c:6d:a0:99:fd:af:2e:c1:40:26:e4:9f:8d:b1:
        27:6c:70:ac:da:5f:c3:f2:21:81:3e:b1:07:3f:69:cc:7f:d3:
        c8:c1:72:9f:17:95:98:b5:e4:8b:4e:6d:6a:57:c6:94:cc:79:
        45:d1:80:e0:5d:2f:94:cc:dd:eb:e9:12:bd:d4:1e:a3:1f:21:
        42:1b
-----BEGIN CERTIFICATE-----
MIICvDCCAiUCCQCbJ9fo0boKzzANBgkqhkiG9w0BAQQFADCBlTELMAkGA1UEBhMC
REUxETAPBgNVBAgTCFNhYXJsYW5kMRAwDgYDVQQKEwdNUEktU1dTMSIwIAYDVQQL
ExlEaXN0cmlidXRlZCBTeXN0ZW1zIEdyb3VwMRowGAYDVQQDExFBbmRyZWFzIEhh
ZWJlcmxlbjEhMB8GCSqGSIb3DQEJARYSZGVtb2NhQG9jdGFyaW5lLmRlMB4XDTE1
MDQyMDIwNDczMFoXDTE2MDQxOTIwNDczMFowga4xCzAJBgNVBAYTAkRFMREwDwYD
VQQIEwhTYWFybGFuZDEQMA4GA1UEChMHTVBJLVNXUzEiMCAGA1UECxMZRGlzdHJp
YnV0ZWQgU3lzdGVtcyBHcm91cDExMC8GA1UEAxMoNDk3YWEzYjA3ODgxY2QwMzc1
ZjhhMzMzZGIzMmE3ZGYwNTliODRiMDEjMCEGCSqGSIb3DQEJARYUbm9kZTA3NTlA
b2N0YXJpbmUuZGUwgZ8wDQYJKoZIhvcNAQEBBQADgY0AMIGJAoGBANpjtJ9oKdx+
JKZSgIsQi2vpzJ4U6yVFFDaw1bNgLVLxIFSYgqIknTyDUZO/aLI9qb4h3s+NHqHl
voWgboM/pgFk78AqtmveKpppa+b8QdSW6DbyQovqQBZn/0LOVx6Np9wfy63gbQYw
usBJd7fq3pkDe8xmGrG0HLu0Vlqx7gxjAgMBAAEwDQYJKoZIhvcNAQEEBQADgYEA
xQklBMHhoehqeQDx/b8g+4ppnjwTvLa9eYQQnak142iqzEFIvRtqSiHkEOHQbzgG
aWrJAVjNbM9Se1xtoJn9ry7BQCbkn42xJ2xwrNpfw/IhgT6xBz9pzH/TyMFynxeV
mLXki05talfGlMx5RdGA4F0vlMzd6+kSvdQeox8hQhs=
-----END CERTIFICATE-----
