Certificate:
    Data:
        Version: 1 (0x0)
        Serial Number:
            9b:27:d7:e8:d1:ba:0b:00
        Signature Algorithm: md5WithRSAEncryption
        Issuer: C=DE, ST=Saarland, O=MPI-SWS, OU=Distributed Systems Group, CN=Andreas Haeberlen/emailAddress=democa@octarine.de
        Validity
            Not Before: Apr 20 20:47:32 2015 GMT
            Not After : Apr 19 20:47:32 2016 GMT
        Subject: C=DE, ST=Saarland, O=MPI-SWS, OU=Distributed Systems Group, CN=ed2266cf26c01ed871045757725e0effc2228f2a/emailAddress=node0808@octarine.de
        Subject Public Key Info:
            Public Key Algorithm: rsaEncryption
            RSA Public Key: (1024 bit)
                Modulus (1024 bit):
                    00:da:c2:ce:b4:04:57:a3:e3:88:ea:ae:17:c6:fa:
                    8c:1f:3f:41:a9:12:ce:d6:87:d0:46:07:b0:d7:f3:
                    57:f8:1c:9d:5e:61:a1:67:69:aa:c9:9a:c5:e8:16:
                    1c:1b:69:4b:6a:62:97:69:93:92:35:48:c6:1a:04:
                    dd:f9:cc:9c:a2:98:05:21:e0:35:4d:90:24:e9:49:
                    b6:c5:3b:5e:48:f8:5b:b0:98:b2:32:c2:75:96:1c:
                    6e:75:d4:d0:05:d8:84:39:58:fd:26:5f:b5:9b:40:
                    15:ed:10:b8:99:d8:b8:ed:31:5a:38:42:3c:72:34:
                    43:93:0d:a3:74:29:42:e2:f5
                Exponent: 65537 (0x10001)
    Signature Algorithm: md5WithRSAEncryption
        16:a4:ac:9e:06:83:a4:8b:b7:3c:1f:08:0c:78:a3:2d:e5:4a:
        8d:d2:d2:46:06:0e:a9:fb:56:f0:33:e1:26:e7:07:24:16:0c:
        39:94:5d:60:bc:29:6a:d6:14:1f:65:00:b0:3e:17:0e:51:9e:
        cd:1d:d8:ae:da:63:8d:2b:42:9d:27:88:66:8f:bd:6c:11:8b:
        ad:9a:92:76:15:05:33:d2:01:b2:23:54:6e:ea:b0:fc:b3:4d:
        29:f8:5b:ff:e2:18:3e:88:95:c1:53:83:58:fc:5f:74:5e:e3:
        33:c3:91:46:f8:22:89:ab:85:bf:9e:2d:96:6e:0b:d0:e3:7f:
        18:db
-----BEGIN CERTIFICATE-----
MIICvDCCAiUCCQCbJ9fo0boLADANBgkqhkiG9w0BAQQFADCBlTELMAkGA1UEBhMC
REUxETAPBgNVBAgTCFNhYXJsYW5kMRAwDgYDVQQKEwdNUEktU1dTMSIwIAYDVQQL
ExlEaXN0cmlidXRlZCBTeXN0ZW1zIEdyb3VwMRowGAYDVQQDExFBbmRyZWFzIEhh
ZWJlcmxlbjEhMB8GCSqGSIb3DQEJARYSZGVtb2NhQG9jdGFyaW5lLmRlMB4XDTE1
MDQyMDIwNDczMloXDTE2MDQxOTIwNDczMlowga4xCzAJBgNVBAYTAkRFMREwDwYD
VQQIEwhTYWFybGFuZDEQMA4GA1UEChMHTVBJLVNXUzEiMCAGA1UECxMZRGlzdHJp
YnV0ZWQgU3lzdGVtcyBHcm91cDExMC8GA1UEAxMoZWQyMjY2Y2YyNmMwMWVkODcx
MDQ1NzU3NzI1ZTBlZmZjMjIyOGYyYTEjMCEGCSqGSIb3DQEJARYUbm9kZTA4MDhA
b2N0YXJpbmUuZGUwgZ8wDQYJKoZIhvcNAQEBBQADgY0AMIGJAoGBANrCzrQEV6Pj
iOquF8b6jB8/QakSztaH0EYHsNfzV/gcnV5hoWdpqsmaxegWHBtpS2pil2mTkjVI
xhoE3fnMnKKYBSHgNU2QJOlJtsU7Xkj4W7CYsjLCdZYcbnXU0AXYhDlY/SZftZtA
Fe0QuJnYuO0xWjhCPHI0Q5MNo3QpQuL1AgMBAAEwDQYJKoZIhvcNAQEEBQADgYEA
FqSsngaDpIu3PB8IDHijLeVKjdLSRgYOqftW8DPhJucHJBYMOZRdYLwpatYUH2UA
sD4XDlGezR3YrtpjjStCnSeIZo+9bBGLrZqSdhUFM9IBsiNUbuqw/LNNKfhb/+IY
PoiVwVODWPxfdF7jM8ORRvgiiauFv54tlm4L0ON/GNs=
-----END CERTIFICATE-----
