Certificate:
    Data:
        Version: 1 (0x0)
        Serial Number:
            9b:27:d7:e8:d1:ba:0b:7b
        Signature Algorithm: md5WithRSAEncryption
        Issuer: C=DE, ST=Saarland, O=MPI-SWS, OU=Distributed Systems Group, CN=Andreas Haeberlen/emailAddress=democa@octarine.de
        Validity
            Not Before: Apr 20 20:47:38 2015 GMT
            Not After : Apr 19 20:47:38 2016 GMT
        Subject: C=DE, ST=Saarland, O=MPI-SWS, OU=Distributed Systems Group, CN=b7d09e2f5e08e265a65d70f74978dcd93a9d8bde/emailAddress=node0931@octarine.de
        Subject Public Key Info:
            Public Key Algorithm: rsaEncryption
            RSA Public Key: (1024 bit)
                Modulus (1024 bit):
                    00:cd:72:1c:2c:0f:b7:97:31:e4:ca:aa:e3:7d:4b:
                    14:8d:1c:29:cb:e3:21:84:f8:5a:c5:c0:06:8c:5d:
                    95:a6:77:dd:f0:16:56:b1:ca:71:55:80:48:d8:c9:
                    51:5b:be:7f:82:bb:32:c8:61:dd:a8:c6:2d:f6:61:
                    18:b6:73:94:58:d8:e6:f9:53:da:21:05:db:b7:89:
                    f2:5a:05:5c:cc:e5:31:b4:7e:5a:2a:49:e8:37:65:
                    05:08:54:51:86:da:09:ff:ec:39:72:cc:74:17:64:
                    06:e3:5a:d6:f7:82:9e:9b:12:fc:7d:f0:eb:61:d3:
                    ba:f1:1e:98:16:2b:1f:90:d3
                Exponent: 65537 (0x10001)
    Signature Algorithm: md5WithRSAEncryption
        80:2e:b1:d0:32:ab:00:da:34:81:6a:a5:cc:ba:c9:14:33:90:
        b4:29:5a:fa:61:9a:2e:ca:d2:8b:ca:33:70:47:b0:21:26:ba:
        a3:03:cc:0e:65:02:00:5d:2e:79:a6:0a:db:91:e2:98:50:35:
        2c:2f:ba:8e:9b:f3:f4:46:87:85:29:a6:73:78:09:7b:35:18:
        6c:d9:0f:f8:57:09:ac:5a:71:ee:38:84:7b:59:e1:7d:9d:7a:
        96:c3:ff:5c:53:b6:65:0b:35:52:f2:9b:f6:e5:85:7b:2f:cb:
        d8:f9:1f:62:31:fb:a6:35:3f:83:c9:6c:2f:56:cd:ef:3e:77:
        30:13
-----BEGIN CERTIFICATE-----
MIICvDCCAiUCCQCbJ9fo0boLezANBgkqhkiG9w0BAQQFADCBlTELMAkGA1UEBhMC
REUxETAPBgNVBAgTCFNhYXJsYW5kMRAwDgYDVQQKEwdNUEktU1dTMSIwIAYDVQQL
ExlEaXN0cmlidXRlZCBTeXN0ZW1zIEdyb3VwMRowGAYDVQQDExFBbmRyZWFzIEhh
ZWJlcmxlbjEhMB8GCSqGSIb3DQEJARYSZGVtb2NhQG9jdGFyaW5lLmRlMB4XDTE1
MDQyMDIwNDczOFoXDTE2MDQxOTIwNDczOFowga4xCzAJBgNVBAYTAkRFMREwDwYD
VQQIEwhTYWFybGFuZDEQMA4GA1UEChMHTVBJLVNXUzEiMCAGA1UECxMZRGlzdHJp
YnV0ZWQgU3lzdGVtcyBHcm91cDExMC8GA1UEAxMoYjdkMDllMmY1ZTA4ZTI2NWE2
NWQ3MGY3NDk3OGRjZDkzYTlkOGJkZTEjMCEGCSqGSIb3DQEJARYUbm9kZTA5MzFA
b2N0YXJpbmUuZGUwgZ8wDQYJKoZIhvcNAQEBBQADgY0AMIGJAoGBAM1yHCwPt5cx
5Mqq431LFI0cKcvjIYT4WsXABoxdlaZ33fAWVrHKcVWASNjJUVu+f4K7Mshh3ajG
LfZhGLZzlFjY5vlT2iEF27eJ8loFXMzlMbR+WipJ6DdlBQhUUYbaCf/sOXLMdBdk
BuNa1veCnpsS/H3w62HTuvEemBYrH5DTAgMBAAEwDQYJKoZIhvcNAQEEBQADgYEA
gC6x0DKrANo0gWqlzLrJFDOQtCla+mGaLsrSi8ozcEewISa6owPMDmUCAF0ueaYK
25HimFA1LC+6jpvz9EaHhSmmc3gJezUYbNkP+FcJrFpx7jiEe1nhfZ16lsP/XFO2
ZQs1UvKb9uWFey/L2PkfYjH7pjU/g8lsL1bN7z53MBM=
-----END CERTIFICATE-----
