Certificate:
    Data:
        Version: 1 (0x0)
        Serial Number:
            9b:27:d7:e8:d1:ba:08:77
        Signature Algorithm: md5WithRSAEncryption
        Issuer: C=DE, ST=Saarland, O=MPI-SWS, OU=Distributed Systems Group, CN=Andreas Haeberlen/emailAddress=democa@octarine.de
        Validity
            Not Before: Apr 20 20:47:04 2015 GMT
            Not After : Apr 19 20:47:04 2016 GMT
        Subject: C=DE, ST=Saarland, O=MPI-SWS, OU=Distributed Systems Group, CN=f35a4b19576dd8ebfe544af7dcbf3ad2d2c1deb3/emailAddress=node0159@octarine.de
        Subject Public Key Info:
            Public Key Algorithm: rsaEncryption
            RSA Public Key: (1024 bit)
                Modulus (1024 bit):
                    00:db:ec:ee:27:e0:81:29:89:df:f5:61:80:1b:7a:
                    89:30:76:33:1d:c4:f2:72:fa:e7:8d:45:6a:5d:25:
                    b3:f4:70:f5:9d:78:b8:4e:4b:09:ca:15:d2:68:2d:
                    62:ed:d9:e1:bb:f3:e2:5d:1c:a7:4e:8f:6a:bb:b1:
                    dd:b5:b4:01:fb:02:31:82:71:61:df:c7:e7:a3:4e:
                    d8:87:44:09:c8:09:62:45:d1:12:e0:c1:75:41:6b:
                    32:03:5d:08:a7:61:ad:12:e0:7f:05:7d:a1:b5:6e:
                    60:88:ad:98:b1:3f:d9:b7:6d:80:16:1c:9e:a1:55:
                    6b:15:5c:2a:3e:7f:0f:d7:f5
                Exponent: 65537 (0x10001)
    Signature Algorithm: md5WithRSAEncryption
        0e:2d:cf:e4:0b:a3:b1:ba:ec:22:25:fc:0e:a7:0c:db:b4:5a:
        7f:e9:e6:47:0b:f3:26:98:cf:e8:d1:b2:18:40:c2:3b:ef:d5:
        32:58:29:a4:e8:24:f8:b8:9d:70:be:28:6d:06:fa:c8:cd:6a:
        f6:bb:5b:2f:cf:5a:b5:85:00:d2:6b:e8:f2:69:c3:de:01:0c:
        0f:af:47:3e:5e:9f:23:4f:be:fe:1d:cc:b5:d5:97:71:e2:a5:
        06:eb:04:93:3e:bc:82:e6:f1:e9:d7:54:7b:2c:60:83:37:55:
        71:af:19:b1:30:42:62:cc:d8:1b:16:5a:76:8d:1b:f7:3e:32:
        2f:ef
-----BEGIN CERTIFICATE-----
MIICvDCCAiUCCQCbJ9fo0boIdzANBgkqhkiG9w0BAQQFADCBlTELMAkGA1UEBhMC
REUxETAPBgNVBAgTCFNhYXJsYW5kMRAwDgYDVQQKEwdNUEktU1dTMSIwIAYDVQQL
ExlEaXN0cmlidXRlZCBTeXN0ZW1zIEdyb3VwMRowGAYDVQQDExFBbmRyZWFzIEhh
ZWJlcmxlbjEhMB8GCSqGSIb3DQEJARYSZGVtb2NhQG9jdGFyaW5lLmRlMB4XDTE1
MDQyMDIwNDcwNFoXDTE2MDQxOTIwNDcwNFowga4xCzAJBgNVBAYTAkRFMREwDwYD
VQQIEwhTYWFybGFuZDEQMA4GA1UEChMHTVBJLVNXUzEiMCAGA1UECxMZRGlzdHJp
YnV0ZWQgU3lzdGVtcyBHcm91cDExMC8GA1UEAxMoZjM1YTRiMTk1NzZkZDhlYmZl
NTQ0YWY3ZGNiZjNhZDJkMmMxZGViMzEjMCEGCSqGSIb3DQEJARYUbm9kZTAxNTlA
b2N0YXJpbmUuZGUwgZ8wDQYJKoZIhvcNAQEBBQADgY0AMIGJAoGBANvs7ifggSmJ
3/VhgBt6iTB2Mx3E8nL6541Fal0ls/Rw9Z14uE5LCcoV0mgtYu3Z4bvz4l0cp06P
arux3bW0AfsCMYJxYd/H56NO2IdECcgJYkXREuDBdUFrMgNdCKdhrRLgfwV9obVu
YIitmLE/2bdtgBYcnqFVaxVcKj5/D9f1AgMBAAEwDQYJKoZIhvcNAQEEBQADgYEA
Di3P5AujsbrsIiX8DqcM27Raf+nmRwvzJpjP6NGyGEDCO+/VMlgppOgk+LidcL4o
bQb6yM1q9rtbL89atYUA0mvo8mnD3gEMD69HPl6fI0++/h3MtdWXceKlBusEkz68
gubx6ddUeyxggzdVca8ZsTBCYszYGxZado0b9z4yL+8=
-----END CERTIFICATE-----
