Certificate:
    Data:
        Version: 1 (0x0)
        Serial Number:
            9b:27:d7:e8:d1:ba:0a:ff
        Signature Algorithm: md5WithRSAEncryption
        Issuer: C=DE, ST=Saarland, O=MPI-SWS, OU=Distributed Systems Group, CN=Andreas Haeberlen/emailAddress=democa@octarine.de
        Validity
            Not Before: Apr 20 20:47:32 2015 GMT
            Not After : Apr 19 20:47:32 2016 GMT
        Subject: C=DE, ST=Saarland, O=MPI-SWS, OU=Distributed Systems Group, CN=3dacd509a151383a9c9ceb1c6938d46110de6d81/emailAddress=node0807@octarine.de
        Subject Public Key Info:
            Public Key Algorithm: rsaEncryption
            RSA Public Key: (1024 bit)
                Modulus (1024 bit):
                    00:ac:b2:70:18:38:e2:23:95:21:b7:87:c9:a3:ec:
                    26:56:89:a4:c3:68:d4:f4:50:cd:73:fa:9a:31:32:
                    9e:18:b2:e2:e8:23:79:cc:1a:fe:f0:dd:d8:f1:4e:
                    56:9d:fe:3f:14:9b:71:84:3b:05:36:bd:93:c1:de:
                    2e:0a:e8:86:5e:5f:3d:1c:45:bd:4a:1f:71:f8:10:
                    c9:5f:09:d2:5a:69:db:e3:da:20:c7:a5:5a:71:dd:
                    fe:8f:58:99:2b:54:62:f3:3c:68:5d:f8:00:16:d3:
                    a7:96:02:91:e9:f3:45:66:37:bc:10:9c:56:76:15:
                    36:c2:d3:16:f6:0b:f7:19:4b
                Exponent: 65537 (0x10001)
    Signature Algorithm: md5WithRSAEncryption
        21:44:7f:54:14:24:d8:5c:f2:e1:52:31:f4:be:14:19:48:6f:
        ab:3c:e4:d3:4b:02:e5:0c:60:5c:0c:26:c9:e5:60:4c:69:e7:
        b1:f7:74:7c:bd:28:5d:71:71:d7:10:93:d0:6c:c8:b4:74:38:
        ea:c9:d2:28:15:a8:d0:57:bc:16:67:e7:4b:a3:09:51:8c:38:
        b2:f3:9f:c9:0c:c1:25:b5:b9:22:5f:37:5e:45:fd:49:bd:b3:
        2c:7c:56:d6:ea:e3:d1:7e:d0:72:48:a2:09:8c:46:ee:8b:12:
        9e:84:2d:63:49:76:b4:56:c1:ff:71:37:26:0e:51:3a:d8:69:
        b4:8f
-----BEGIN CERTIFICATE-----
MIICvDCCAiUCCQCbJ9fo0boK/zANBgkqhkiG9w0BAQQFADCBlTELMAkGA1UEBhMC
REUxETAPBgNVBAgTCFNhYXJsYW5kMRAwDgYDVQQKEwdNUEktU1dTMSIwIAYDVQQL
ExlEaXN0cmlidXRlZCBTeXN0ZW1zIEdyb3VwMRowGAYDVQQDExFBbmRyZWFzIEhh
ZWJlcmxlbjEhMB8GCSqGSIb3DQEJARYSZGVtb2NhQG9jdGFyaW5lLmRlMB4XDTE1
MDQyMDIwNDczMloXDTE2MDQxOTIwNDczMlowga4xCzAJBgNVBAYTAkRFMREwDwYD
VQQIEwhTYWFybGFuZDEQMA4GA1UEChMHTVBJLVNXUzEiMCAGA1UECxMZRGlzdHJp
YnV0ZWQgU3lzdGVtcyBHcm91cDExMC8GA1UEAxMoM2RhY2Q1MDlhMTUxMzgzYTlj
OWNlYjFjNjkzOGQ0NjExMGRlNmQ4MTEjMCEGCSqGSIb3DQEJARYUbm9kZTA4MDdA
b2N0YXJpbmUuZGUwgZ8wDQYJKoZIhvcNAQEBBQADgY0AMIGJAoGBAKyycBg44iOV
IbeHyaPsJlaJpMNo1PRQzXP6mjEynhiy4ugjecwa/vDd2PFOVp3+PxSbcYQ7BTa9
k8HeLgrohl5fPRxFvUofcfgQyV8J0lpp2+PaIMelWnHd/o9YmStUYvM8aF34ABbT
p5YCkenzRWY3vBCcVnYVNsLTFvYL9xlLAgMBAAEwDQYJKoZIhvcNAQEEBQADgYEA
IUR/VBQk2Fzy4VIx9L4UGUhvqzzk00sC5QxgXAwmyeVgTGnnsfd0fL0oXXFx1xCT
0GzItHQ46snSKBWo0Fe8FmfnS6MJUYw4svOfyQzBJbW5Il83XkX9Sb2zLHxW1urj
0X7QckiiCYxG7osSnoQtY0l2tFbB/3E3Jg5ROthptI8=
-----END CERTIFICATE-----
