Certificate:
    Data:
        Version: 1 (0x0)
        Serial Number:
            9b:27:d7:e8:d1:ba:0a:ce
        Signature Algorithm: md5WithRSAEncryption
        Issuer: C=DE, ST=Saarland, O=MPI-SWS, OU=Distributed Systems Group, CN=Andreas Haeberlen/emailAddress=democa@octarine.de
        Validity
            Not Before: Apr 20 20:47:30 2015 GMT
            Not After : Apr 19 20:47:30 2016 GMT
        Subject: C=DE, ST=Saarland, O=MPI-SWS, OU=Distributed Systems Group, CN=b55c5a63666b51c053d7a35e6a5b044b9a8f4e3b/emailAddress=node0758@octarine.de
        Subject Public Key Info:
            Public Key Algorithm: rsaEncryption
            RSA Public Key: (1024 bit)
                Modulus (1024 bit):
                    00:d9:e4:15:42:bc:cf:b0:d0:81:74:fc:07:a8:e1:
                    d4:ab:06:50:5d:1e:af:9c:fd:c9:4b:03:9b:d8:d7:
                    60:12:ab:45:bd:eb:7a:b4:bb:1a:d5:97:87:34:ed:
                    bc:a6:64:0c:34:b9:1f:c5:38:0d:01:a1:00:27:ae:
                    5e:a2:08:a2:7a:34:0b:0b:f4:1e:97:f4:d1:95:a9:
                    ef:5c:ef:1c:59:c1:0a:39:b0:a7:c1:8b:bb:e1:eb:
                    4d:34:74:87:d8:2d:a6:5e:38:fd:0d:dc:82:86:b0:
                    8d:af:ac:03:59:a5:8f:fa:97:43:a2:fd:35:b7:cd:
                    03:3a:cd:ab:2a:d5:cf:d2:87
                Exponent: 65537 (0x10001)
    Signature Algorithm: md5WithRSAEncryption
        6e:da:82:7f:2a:ce:8f:1f:6e:6e:bf:e1:e5:7a:b8:3f:ae:18:
        75:25:c4:79:38:9d:e4:22:81:f9:87:0b:72:75:d9:85:01:8c:
        f0:89:dd:e0:31:a6:ec:2d:05:d8:a4:a9:12:a3:ec:b8:61:c3:
        6b:18:94:7a:82:ed:da:d5:13:65:13:d4:b5:bc:2f:b6:87:ad:
        c8:1b:7d:fa:1e:5f:4e:82:27:69:7b:12:67:a3:43:7f:ef:e8:
        77:ec:a2:c1:41:29:67:33:cc:9c:70:d0:e5:74:5c:6d:9b:7e:
        4c:11:47:0c:58:d2:63:cb:92:a7:5a:2f:d0:2a:35:ad:fd:5e:
        2c:93
-----BEGIN CERTIFICATE-----
MIICvDCCAiUCCQCbJ9fo0boKzjANBgkqhkiG9w0BAQQFADCBlTELMAkGA1UEBhMC
REUxETAPBgNVBAgTCFNhYXJsYW5kMRAwDgYDVQQKEwdNUEktU1dTMSIwIAYDVQQL
ExlEaXN0cmlidXRlZCBTeXN0ZW1zIEdyb3VwMRowGAYDVQQDExFBbmRyZWFzIEhh
ZWJlcmxlbjEhMB8GCSqGSIb3DQEJARYSZGVtb2NhQG9jdGFyaW5lLmRlMB4XDTE1
MDQyMDIwNDczMFoXDTE2MDQxOTIwNDczMFowga4xCzAJBgNVBAYTAkRFMREwDwYD
VQQIEwhTYWFybGFuZDEQMA4GA1UEChMHTVBJLVNXUzEiMCAGA1UECxMZRGlzdHJp
YnV0ZWQgU3lzdGVtcyBHcm91cDExMC8GA1UEAxMoYjU1YzVhNjM2NjZiNTFjMDUz
ZDdhMzVlNmE1YjA0NGI5YThmNGUzYjEjMCEGCSqGSIb3DQEJARYUbm9kZTA3NThA
b2N0YXJpbmUuZGUwgZ8wDQYJKoZIhvcNAQEBBQADgY0AMIGJAoGBANnkFUK8z7DQ
gXT8B6jh1KsGUF0er5z9yUsDm9jXYBKrRb3rerS7GtWXhzTtvKZkDDS5H8U4DQGh
ACeuXqIIono0Cwv0Hpf00ZWp71zvHFnBCjmwp8GLu+HrTTR0h9gtpl44/Q3cgoaw
ja+sA1mlj/qXQ6L9NbfNAzrNqyrVz9KHAgMBAAEwDQYJKoZIhvcNAQEEBQADgYEA
btqCfyrOjx9ubr/h5Xq4P64YdSXEeTid5CKB+YcLcnXZhQGM8Ind4DGm7C0F2KSp
EqPsuGHDaxiUeoLt2tUTZRPUtbwvtoetyBt9+h5fToInaXsSZ6NDf+/od+yiwUEp
ZzPMnHDQ5XRcbZt+TBFHDFjSY8uSp1ov0Co1rf1eLJM=
-----END CERTIFICATE-----
