Certificate:
    Data:
        Version: 1 (0x0)
        Serial Number:
            9b:27:d7:e8:d1:ba:09:ee
        Signature Algorithm: md5WithRSAEncryption
        Issuer: C=DE, ST=Saarland, O=MPI-SWS, OU=Distributed Systems Group, CN=Andreas Haeberlen/emailAddress=democa@octarine.de
        Validity
            Not Before: Apr 20 20:47:20 2015 GMT
            Not After : Apr 19 20:47:20 2016 GMT
        Subject: C=DE, ST=Saarland, O=MPI-SWS, OU=Distributed Systems Group, CN=9637c37a56eaae8e9a3f314ec4d4156ab928da32/emailAddress=node0534@octarine.de
        Subject Public Key Info:
            Public Key Algorithm: rsaEncryption
            RSA Public Key: (1024 bit)
                Modulus (1024 bit):
                    00:e2:ee:c7:0e:72:26:67:49:db:3c:de:58:e4:03:
                    af:94:65:9f:e6:98:8d:3e:e9:d9:0e:93:89:82:46:
                    1d:29:c6:c5:5c:57:3b:1a:61:b8:88:2b:98:78:b3:
                    92:31:88:3d:13:e0:da:cf:73:36:db:1d:66:8d:51:
                    f5:cd:ad:b6:25:d5:a4:62:6c:9f:12:71:63:66:71:
                    1e:ee:43:71:b4:e4:ef:29:de:10:55:01:38:a9:a3:
                    6a:a4:58:64:a8:72:32:45:46:47:cb:94:66:b2:f3:
                    1c:be:68:bb:93:45:2d:55:5f:c2:e1:cf:1a:a8:d7:
                    6a:08:ef:10:9a:e3:6e:dd:1d
                Exponent: 65537 (0x10001)
    Signature Algorithm: md5WithRSAEncryption
        3e:b2:29:af:18:c5:6a:f8:16:88:28:33:ef:b5:4b:54:7e:f5:
        9d:05:99:db:e6:b6:07:cf:cd:d9:2b:eb:d0:44:ac:cb:4d:b6:
        85:b6:e5:0f:f3:f6:a9:11:fb:87:8b:02:34:41:67:a2:e4:f2:
        3c:cb:f7:f2:a3:64:55:a6:62:b6:c7:a6:22:2c:8b:48:0b:4d:
        6b:7d:d5:32:9b:f1:ee:9f:b3:9e:00:76:7c:06:75:f6:3b:67:
        3c:e4:d2:b1:25:ec:74:92:99:fb:09:f8:6d:b9:ed:1f:29:be:
        a8:2f:11:8e:14:04:0d:4f:87:05:4b:78:da:18:49:dc:78:a3:
        ab:b6
-----BEGIN CERTIFICATE-----
MIICvDCCAiUCCQCbJ9fo0boJ7jANBgkqhkiG9w0BAQQFADCBlTELMAkGA1UEBhMC
REUxETAPBgNVBAgTCFNhYXJsYW5kMRAwDgYDVQQKEwdNUEktU1dTMSIwIAYDVQQL
ExlEaXN0cmlidXRlZCBTeXN0ZW1zIEdyb3VwMRowGAYDVQQDExFBbmRyZWFzIEhh
ZWJlcmxlbjEhMB8GCSqGSIb3DQEJARYSZGVtb2NhQG9jdGFyaW5lLmRlMB4XDTE1
MDQyMDIwNDcyMFoXDTE2MDQxOTIwNDcyMFowga4xCzAJBgNVBAYTAkRFMREwDwYD
VQQIEwhTYWFybGFuZDEQMA4GA1UEChMHTVBJLVNXUzEiMCAGA1UECxMZRGlzdHJp
YnV0ZWQgU3lzdGVtcyBHcm91cDExMC8GA1UEAxMoOTYzN2MzN2E1NmVhYWU4ZTlh
M2YzMTRlYzRkNDE1NmFiOTI4ZGEzMjEjMCEGCSqGSIb3DQEJARYUbm9kZTA1MzRA
b2N0YXJpbmUuZGUwgZ8wDQYJKoZIhvcNAQEBBQADgY0AMIGJAoGBAOLuxw5yJmdJ
2zzeWOQDr5Rln+aYjT7p2Q6TiYJGHSnGxVxXOxphuIgrmHizkjGIPRPg2s9zNtsd
Zo1R9c2ttiXVpGJsnxJxY2ZxHu5DcbTk7yneEFUBOKmjaqRYZKhyMkVGR8uUZrLz
HL5ou5NFLVVfwuHPGqjXagjvEJrjbt0dAgMBAAEwDQYJKoZIhvcNAQEEBQADgYEA
PrIprxjFavgWiCgz77VLVH71nQWZ2+a2B8/N2Svr0ESsy022hbblD/P2qRH7h4sC
NEFnouTyPMv38qNkVaZitsemIiyLSAtNa33VMpvx7p+zngB2fAZ19jtnPOTSsSXs
dJKZ+wn4bbntHym+qC8RjhQEDU+HBUt42hhJ3Hijq7Y=
-----END CERTIFICATE-----
