Certificate:
    Data:
        Version: 1 (0x0)
        Serial Number:
            9b:27:d7:e8:d1:ba:0b:2d
        Signature Algorithm: md5WithRSAEncryption
        Issuer: C=DE, ST=Saarland, O=MPI-SWS, OU=Distributed Systems Group, CN=Andreas Haeberlen/emailAddress=democa@octarine.de
        Validity
            Not Before: Apr 20 20:47:34 2015 GMT
            Not After : Apr 19 20:47:34 2016 GMT
        Subject: C=DE, ST=Saarland, O=MPI-SWS, OU=Distributed Systems Group, CN=3d3fd816ce057824d2e02f46db2aa92e65d3efab/emailAddress=node0853@octarine.de
        Subject Public Key Info:
            Public Key Algorithm: rsaEncryption
            RSA Public Key: (1024 bit)
                Modulus (1024 bit):
                    00:c3:8a:d4:94:37:41:09:1a:b2:95:ba:8e:64:1e:
                    9e:24:74:97:10:0b:5a:8c:96:e3:e0:d8:15:da:57:
                    02:6a:40:7b:d1:f8:ec:0f:46:d0:66:8b:82:32:21:
                    69:38:53:ca:c9:27:ad:30:67:d6:f3:2b:99:5f:96:
                    f5:fd:70:7f:90:fa:0e:87:8d:4f:5d:02:c4:95:c1:
                    8d:26:8a:b6:fd:af:55:02:fe:ec:8a:00:98:ec:3e:
                    3d:4d:0d:29:ec:a0:98:08:34:37:00:40:cc:fa:4e:
                    61:c6:6d:c4:c1:e7:60:05:41:cf:88:99:5d:d3:4f:
                    b7:c9:3e:ec:90:d8:0d:5b:cb
                Exponent: 65537 (0x10001)
    Signature Algorithm: md5WithRSAEncryption
        86:f5:29:8d:d9:76:25:20:e8:e1:5e:69:14:dc:08:3c:98:6a:
        2f:9c:50:a0:c0:cf:b1:ec:15:59:69:93:40:84:9e:fb:6a:68:
        9b:3e:13:7c:84:88:53:00:2e:cd:cc:bd:b1:0e:9d:c6:4e:69:
        03:9a:26:4e:a2:26:79:80:eb:2c:53:2e:d2:94:8a:d9:42:95:
        f6:33:8d:4e:a4:78:81:52:64:88:98:76:cf:27:2f:1a:e1:d4:
        3c:92:9f:c5:3b:c1:40:88:a3:dd:67:a7:83:25:1d:96:7d:1f:
        b6:64:e1:ad:87:d9:19:09:d1:23:64:82:40:5a:91:36:39:dd:
        90:27
-----BEGIN CERTIFICATE-----
MIICvDCCAiUCCQCbJ9fo0boLLTANBgkqhkiG9w0BAQQFADCBlTELMAkGA1UEBhMC
REUxETAPBgNVBAgTCFNhYXJsYW5kMRAwDgYDVQQKEwdNUEktU1dTMSIwIAYDVQQL
ExlEaXN0cmlidXRlZCBTeXN0ZW1zIEdyb3VwMRowGAYDVQQDExFBbmRyZWFzIEhh
ZWJlcmxlbjEhMB8GCSqGSIb3DQEJARYSZGVtb2NhQG9jdGFyaW5lLmRlMB4XDTE1
MDQyMDIwNDczNFoXDTE2MDQxOTIwNDczNFowga4xCzAJBgNVBAYTAkRFMREwDwYD
VQQIEwhTYWFybGFuZDEQMA4GA1UEChMHTVBJLVNXUzEiMCAGA1UECxMZRGlzdHJp
YnV0ZWQgU3lzdGVtcyBHcm91cDExMC8GA1UEAxMoM2QzZmQ4MTZjZTA1NzgyNGQy
ZTAyZjQ2ZGIyYWE5MmU2NWQzZWZhYjEjMCEGCSqGSIb3DQEJARYUbm9kZTA4NTNA
b2N0YXJpbmUuZGUwgZ8wDQYJKoZIhvcNAQEBBQADgY0AMIGJAoGBAMOK1JQ3QQka
spW6jmQeniR0lxALWoyW4+DYFdpXAmpAe9H47A9G0GaLgjIhaThTysknrTBn1vMr
mV+W9f1wf5D6DoeNT10CxJXBjSaKtv2vVQL+7IoAmOw+PU0NKeygmAg0NwBAzPpO
YcZtxMHnYAVBz4iZXdNPt8k+7JDYDVvLAgMBAAEwDQYJKoZIhvcNAQEEBQADgYEA
hvUpjdl2JSDo4V5pFNwIPJhqL5xQoMDPsewVWWmTQISe+2pomz4TfISIUwAuzcy9
sQ6dxk5pA5omTqImeYDrLFMu0pSK2UKV9jONTqR4gVJkiJh2zycvGuHUPJKfxTvB
QIij3WengyUdln0ftmThrYfZGQnRI2SCQFqRNjndkCc=
-----END CERTIFICATE-----
