Certificate:
    Data:
        Version: 1 (0x0)
        Serial Number:
            9b:27:d7:e8:d1:ba:0b:0e
        Signature Algorithm: md5WithRSAEncryption
        Issuer: C=DE, ST=Saarland, O=MPI-SWS, OU=Distributed Systems Group, CN=Andreas Haeberlen/emailAddress=democa@octarine.de
        Validity
            Not Before: Apr 20 20:47:33 2015 GMT
            Not After : Apr 19 20:47:33 2016 GMT
        Subject: C=DE, ST=Saarland, O=MPI-SWS, OU=Distributed Systems Group, CN=5ff2943503af775fa3677a1925c507e56e7f2b43/emailAddress=node0822@octarine.de
        Subject Public Key Info:
            Public Key Algorithm: rsaEncryption
            RSA Public Key: (1024 bit)
                Modulus (1024 bit):
                    00:e0:ca:c4:7c:7f:30:64:34:c4:31:ad:7b:a3:b2:
                    8e:07:18:97:57:5b:84:67:52:80:94:87:73:4a:13:
                    84:6e:5c:bc:53:dd:c7:6c:3a:1c:c2:af:44:b3:5d:
                    f9:6a:e7:7d:d4:ba:61:0c:55:e3:46:99:ee:d1:ae:
                    e6:26:e2:07:08:e9:eb:30:e5:25:7d:52:56:b2:76:
                    30:e3:41:0b:bd:a5:4f:ef:08:e8:cd:5b:47:e5:f2:
                    67:e8:56:d0:5b:f0:16:30:07:44:ce:fc:33:0b:6e:
                    74:87:6d:7f:22:fb:76:6e:51:bf:ff:ed:4f:a9:7b:
                    52:f9:e5:2d:d8:27:26:d9:7d
                Exponent: 65537 (0x10001)
    Signature Algorithm: md5WithRSAEncryption
        3b:1f:e9:be:9d:d8:64:17:c4:91:a7:77:99:ae:81:ea:e0:81:
        d0:22:5e:02:46:7b:9d:b9:eb:21:f4:25:23:b3:6d:fe:61:fb:
        46:b1:0e:7c:33:31:02:50:7c:b9:5a:ee:2f:a7:ee:e5:39:f2:
        9d:4f:6c:ca:72:1c:9a:62:b2:f6:08:96:cb:70:39:6f:e6:e2:
        63:95:71:9a:8e:8f:36:df:43:8c:8f:e1:06:ce:16:f0:d2:5e:
        41:49:b2:50:a9:4a:bc:66:75:c7:89:e4:8d:42:74:3e:e4:2e:
        b2:01:df:3b:56:e5:9c:9d:c9:40:2e:d6:6b:33:1c:a4:2e:0b:
        ef:b7
-----BEGIN CERTIFICATE-----
MIICvDCCAiUCCQCbJ9fo0boLDjANBgkqhkiG9w0BAQQFADCBlTELMAkGA1UEBhMC
REUxETAPBgNVBAgTCFNhYXJsYW5kMRAwDgYDVQQKEwdNUEktU1dTMSIwIAYDVQQL
ExlEaXN0cmlidXRlZCBTeXN0ZW1zIEdyb3VwMRowGAYDVQQDExFBbmRyZWFzIEhh
ZWJlcmxlbjEhMB8GCSqGSIb3DQEJARYSZGVtb2NhQG9jdGFyaW5lLmRlMB4XDTE1
MDQyMDIwNDczM1oXDTE2MDQxOTIwNDczM1owga4xCzAJBgNVBAYTAkRFMREwDwYD
VQQIEwhTYWFybGFuZDEQMA4GA1UEChMHTVBJLVNXUzEiMCAGA1UECxMZRGlzdHJp
YnV0ZWQgU3lzdGVtcyBHcm91cDExMC8GA1UEAxMoNWZmMjk0MzUwM2FmNzc1ZmEz
Njc3YTE5MjVjNTA3ZTU2ZTdmMmI0MzEjMCEGCSqGSIb3DQEJARYUbm9kZTA4MjJA
b2N0YXJpbmUuZGUwgZ8wDQYJKoZIhvcNAQEBBQADgY0AMIGJAoGBAODKxHx/MGQ0
xDGte6OyjgcYl1dbhGdSgJSHc0oThG5cvFPdx2w6HMKvRLNd+WrnfdS6YQxV40aZ
7tGu5ibiBwjp6zDlJX1SVrJ2MONBC72lT+8I6M1bR+XyZ+hW0FvwFjAHRM78Mwtu
dIdtfyL7dm5Rv//tT6l7UvnlLdgnJtl9AgMBAAEwDQYJKoZIhvcNAQEEBQADgYEA
Ox/pvp3YZBfEkad3ma6B6uCB0CJeAkZ7nbnrIfQlI7Nt/mH7RrEOfDMxAlB8uVru
L6fu5TnynU9synIcmmKy9giWy3A5b+biY5Vxmo6PNt9DjI/hBs4W8NJeQUmyUKlK
vGZ1x4nkjUJ0PuQusgHfO1blnJ3JQC7WazMcpC4L77c=
-----END CERTIFICATE-----
