Certificate:
    Data:
        Version: 1 (0x0)
        Serial Number:
            9b:27:d7:e8:d1:ba:09:bf
        Signature Algorithm: md5WithRSAEncryption
        Issuer: C=DE, ST=Saarland, O=MPI-SWS, OU=Distributed Systems Group, CN=Andreas Haeberlen/emailAddress=democa@octarine.de
        Validity
            Not Before: Apr 20 20:47:18 2015 GMT
            Not After : Apr 19 20:47:18 2016 GMT
        Subject: C=DE, ST=Saarland, O=MPI-SWS, OU=Distributed Systems Group, CN=8ec37fe9b6a79216a91113fb7266e157f1a7181d/emailAddress=node0487@octarine.de
        Subject Public Key Info:
            Public Key Algorithm: rsaEncryption
            RSA Public Key: (1024 bit)
                Modulus (1024 bit):
                    00:c4:f9:f2:c6:ad:90:17:52:fb:80:c3:37:88:3c:
                    d3:50:8d:77:21:66:bb:c8:e1:4d:ef:3f:51:70:86:
                    6a:50:84:6c:55:d1:07:ab:9e:1a:ec:64:a5:29:d3:
                    b0:3c:2e:24:8a:21:ff:24:28:c4:ae:a2:09:9d:57:
                    e5:c5:23:49:98:9a:f0:8a:b6:78:31:da:fb:d1:18:
                    ea:d4:90:8d:9c:f8:66:e5:e0:1e:2e:b9:7d:8e:b2:
                    97:35:4f:85:60:ac:4d:0d:c2:50:ce:d4:7d:7b:9c:
                    a9:9e:d6:da:10:4c:fa:9d:5e:bb:b6:3e:f2:9d:ed:
                    eb:bb:05:b9:51:28:e2:58:ad
                Exponent: 65537 (0x10001)
    Signature Algorithm: md5WithRSAEncryption
        4e:b9:c7:b0:e5:a3:fa:21:92:57:a6:bc:02:1d:5a:23:22:53:
        db:63:73:01:d9:aa:cb:23:0f:4e:92:fe:fb:78:62:32:1f:ce:
        c7:9c:18:5e:8b:cb:d3:4b:f4:96:56:96:29:57:3c:5f:e7:09:
        f3:6d:7f:9a:86:2e:b1:74:2f:13:13:86:cd:e8:9d:f6:f6:0e:
        0b:06:18:74:78:1c:83:b3:32:a9:7c:4d:39:e5:d1:e1:ea:5a:
        9f:67:d9:6d:1f:6c:da:e1:37:08:4d:88:3e:9f:d3:7a:84:83:
        c0:2e:2a:f3:1a:03:25:56:14:6a:bc:be:56:5f:6d:bb:9d:8c:
        a5:23
-----BEGIN CERTIFICATE-----
MIICvDCCAiUCCQCbJ9fo0boJvzANBgkqhkiG9w0BAQQFADCBlTELMAkGA1UEBhMC
REUxETAPBgNVBAgTCFNhYXJsYW5kMRAwDgYDVQQKEwdNUEktU1dTMSIwIAYDVQQL
ExlEaXN0cmlidXRlZCBTeXN0ZW1zIEdyb3VwMRowGAYDVQQDExFBbmRyZWFzIEhh
ZWJlcmxlbjEhMB8GCSqGSIb3DQEJARYSZGVtb2NhQG9jdGFyaW5lLmRlMB4XDTE1
MDQyMDIwNDcxOFoXDTE2MDQxOTIwNDcxOFowga4xCzAJBgNVBAYTAkRFMREwDwYD
VQQIEwhTYWFybGFuZDEQMA4GA1UEChMHTVBJLVNXUzEiMCAGA1UECxMZRGlzdHJp
YnV0ZWQgU3lzdGVtcyBHcm91cDExMC8GA1UEAxMoOGVjMzdmZTliNmE3OTIxNmE5
MTExM2ZiNzI2NmUxNTdmMWE3MTgxZDEjMCEGCSqGSIb3DQEJARYUbm9kZTA0ODdA
b2N0YXJpbmUuZGUwgZ8wDQYJKoZIhvcNAQEBBQADgY0AMIGJAoGBAMT58satkBdS
+4DDN4g801CNdyFmu8jhTe8/UXCGalCEbFXRB6ueGuxkpSnTsDwuJIoh/yQoxK6i
CZ1X5cUjSZia8Iq2eDHa+9EY6tSQjZz4ZuXgHi65fY6ylzVPhWCsTQ3CUM7UfXuc
qZ7W2hBM+p1eu7Y+8p3t67sFuVEo4litAgMBAAEwDQYJKoZIhvcNAQEEBQADgYEA
TrnHsOWj+iGSV6a8Ah1aIyJT22NzAdmqyyMPTpL++3hiMh/Ox5wYXovL00v0llaW
KVc8X+cJ821/moYusXQvExOGzeid9vYOCwYYdHgcg7MyqXxNOeXR4epan2fZbR9s
2uE3CE2IPp/TeoSDwC4q8xoDJVYUary+Vl9tu52MpSM=
-----END CERTIFICATE-----
