Certificate:
    Data:
        Version: 1 (0x0)
        Serial Number:
            9b:27:d7:e8:d1:ba:0b:80
        Signature Algorithm: md5WithRSAEncryption
        Issuer: C=DE, ST=Saarland, O=MPI-SWS, OU=Distributed Systems Group, CN=Andreas Haeberlen/emailAddress=democa@octarine.de
        Validity
            Not Before: Apr 20 20:47:38 2015 GMT
            Not After : Apr 19 20:47:38 2016 GMT
        Subject: C=DE, ST=Saarland, O=MPI-SWS, OU=Distributed Systems Group, CN=6e8c8079e9fa23b4bdad4389fb14de24da16b8fa/emailAddress=node0936@octarine.de
        Subject Public Key Info:
            Public Key Algorithm: rsaEncryption
            RSA Public Key: (1024 bit)
                Modulus (1024 bit):
                    00:bd:df:79:88:cb:c2:76:4f:cf:65:d9:54:64:29:
                    d7:07:ef:a7:9f:a4:e7:41:5c:d8:7b:34:31:ab:bf:
                    ee:0b:79:8c:a4:20:59:d2:e5:cd:0a:2d:73:4d:76:
                    f2:42:68:be:ed:0c:a9:ec:30:04:06:78:38:6a:60:
                    ea:1a:e7:d5:81:b6:9d:bc:3a:29:fc:52:af:a2:81:
                    4d:4a:d3:f2:f2:9b:f8:1a:a8:9c:76:f0:b4:a5:e1:
                    7a:77:8c:b3:f7:ce:d8:83:16:3b:10:a6:48:4d:14:
                    38:a6:3c:0b:d2:93:84:b0:5d:1e:e9:09:99:79:58:
                    61:48:63:83:84:77:94:93:5d
                Exponent: 65537 (0x10001)
    Signature Algorithm: md5WithRSAEncryption
        64:75:f0:b2:0d:6c:40:39:df:43:40:a5:47:ac:d6:c4:30:84:
        ec:ee:65:ce:b4:47:b5:77:ed:6a:8f:e5:64:c2:e8:6f:61:af:
        e2:49:3e:a9:ec:10:81:8e:9d:77:e7:81:72:8d:37:d2:e6:30:
        7c:d1:44:8a:92:61:6a:e9:99:92:32:db:c8:d1:27:a9:ac:2f:
        fb:47:59:07:33:f6:ce:31:8d:35:b9:6e:81:36:33:2d:3d:fc:
        60:d0:d9:5d:df:7e:36:48:45:70:da:03:53:43:fa:1a:ca:de:
        5f:e1:df:71:97:12:f3:d3:03:29:10:4d:bb:1d:fa:00:03:2a:
        e4:62
-----BEGIN CERTIFICATE-----
MIICvDCCAiUCCQCbJ9fo0boLgDANBgkqhkiG9w0BAQQFADCBlTELMAkGA1UEBhMC
REUxETAPBgNVBAgTCFNhYXJsYW5kMRAwDgYDVQQKEwdNUEktU1dTMSIwIAYDVQQL
ExlEaXN0cmlidXRlZCBTeXN0ZW1zIEdyb3VwMRowGAYDVQQDExFBbmRyZWFzIEhh
ZWJlcmxlbjEhMB8GCSqGSIb3DQEJARYSZGVtb2NhQG9jdGFyaW5lLmRlMB4XDTE1
MDQyMDIwNDczOFoXDTE2MDQxOTIwNDczOFowga4xCzAJBgNVBAYTAkRFMREwDwYD
VQQIEwhTYWFybGFuZDEQMA4GA1UEChMHTVBJLVNXUzEiMCAGA1UECxMZRGlzdHJp
YnV0ZWQgU3lzdGVtcyBHcm91cDExMC8GA1UEAxMoNmU4YzgwNzllOWZhMjNiNGJk
YWQ0Mzg5ZmIxNGRlMjRkYTE2YjhmYTEjMCEGCSqGSIb3DQEJARYUbm9kZTA5MzZA
b2N0YXJpbmUuZGUwgZ8wDQYJKoZIhvcNAQEBBQADgY0AMIGJAoGBAL3feYjLwnZP
z2XZVGQp1wfvp5+k50Fc2Hs0Mau/7gt5jKQgWdLlzQotc0128kJovu0MqewwBAZ4
OGpg6hrn1YG2nbw6KfxSr6KBTUrT8vKb+BqonHbwtKXheneMs/fO2IMWOxCmSE0U
OKY8C9KThLBdHukJmXlYYUhjg4R3lJNdAgMBAAEwDQYJKoZIhvcNAQEEBQADgYEA
ZHXwsg1sQDnfQ0ClR6zWxDCE7O5lzrRHtXftao/lZMLob2Gv4kk+qewQgY6dd+eB
co030uYwfNFEipJhaumZkjLbyNEnqawv+0dZBzP2zjGNNblugTYzLT38YNDZXd9+
NkhFcNoDU0P6GsreX+HfcZcS89MDKRBNux36AAMq5GI=
-----END CERTIFICATE-----
