Certificate:
    Data:
        Version: 1 (0x0)
        Serial Number:
            9b:27:d7:e8:d1:ba:0a:7f
        Signature Algorithm: md5WithRSAEncryption
        Issuer: C=DE, ST=Saarland, O=MPI-SWS, OU=Distributed Systems Group, CN=Andreas Haeberlen/emailAddress=democa@octarine.de
        Validity
            Not Before: Apr 20 20:47:27 2015 GMT
            Not After : Apr 19 20:47:27 2016 GMT
        Subject: C=DE, ST=Saarland, O=MPI-SWS, OU=Distributed Systems Group, CN=a39d4c76c37f32a9ee787ed147fe5fb024d605cc/emailAddress=node0679@octarine.de
        Subject Public Key Info:
            Public Key Algorithm: rsaEncryption
            RSA Public Key: (1024 bit)
                Modulus (1024 bit):
                    00:d2:aa:7f:1d:8c:81:0f:e8:3e:7b:ce:23:f4:30:
                    16:ba:6f:d0:09:46:76:0a:b4:9a:3c:a3:6e:2b:a3:
                    96:51:d6:41:1c:29:6f:8e:fc:dc:04:da:98:65:be:
                    67:80:86:38:a2:95:da:e1:d1:2e:3c:2c:52:09:17:
                    53:ca:c2:58:68:f1:bb:95:5f:66:74:76:f4:51:4c:
                    4f:3f:f9:27:b6:2d:86:80:a7:10:31:44:3d:87:75:
                    c0:d7:8f:35:68:cd:9b:6c:4b:12:ea:89:06:6e:c5:
                    10:ee:da:53:be:7d:6b:e7:32:aa:ee:3c:8c:6b:20:
                    29:76:48:91:a3:5a:d1:c1:bb
                Exponent: 65537 (0x10001)
    Signature Algorithm: md5WithRSAEncryption
        39:3e:8b:6f:e6:28:56:75:cd:3a:f8:0c:63:85:07:15:1d:f3:
        61:b8:18:d9:e1:42:08:52:7b:39:c5:ac:14:1f:49:8a:a4:44:
        ca:db:b9:8a:32:3d:70:bc:ac:6b:10:2e:e8:4d:99:6c:11:b9:
        d3:9e:a6:24:c1:28:86:54:5d:2c:6b:dd:cb:8e:74:2f:34:a6:
        6b:6d:3f:e6:73:5d:d6:3a:39:52:7b:d3:48:c2:d5:05:8b:87:
        1b:20:82:6e:7a:d1:dc:40:c1:5d:c8:f7:8a:6f:46:07:1c:5e:
        6f:9e:42:50:74:a5:c8:50:a1:f6:58:af:c7:06:5e:63:83:e0:
        b5:85
-----BEGIN CERTIFICATE-----
MIICvDCCAiUCCQCbJ9fo0boKfzANBgkqhkiG9w0BAQQFADCBlTELMAkGA1UEBhMC
REUxETAPBgNVBAgTCFNhYXJsYW5kMRAwDgYDVQQKEwdNUEktU1dTMSIwIAYDVQQL
ExlEaXN0cmlidXRlZCBTeXN0ZW1zIEdyb3VwMRowGAYDVQQDExFBbmRyZWFzIEhh
ZWJlcmxlbjEhMB8GCSqGSIb3DQEJARYSZGVtb2NhQG9jdGFyaW5lLmRlMB4XDTE1
MDQyMDIwNDcyN1oXDTE2MDQxOTIwNDcyN1owga4xCzAJBgNVBAYTAkRFMREwDwYD
VQQIEwhTYWFybGFuZDEQMA4GA1UEChMHTVBJLVNXUzEiMCAGA1UECxMZRGlzdHJp
YnV0ZWQgU3lzdGVtcyBHcm91cDExMC8GA1UEAxMoYTM5ZDRjNzZjMzdmMzJhOWVl
Nzg3ZWQxNDdmZTVmYjAyNGQ2MDVjYzEjMCEGCSqGSIb3DQEJARYUbm9kZTA2NzlA
b2N0YXJpbmUuZGUwgZ8wDQYJKoZIhvcNAQEBBQADgY0AMIGJAoGBANKqfx2MgQ/o
PnvOI/QwFrpv0AlGdgq0mjyjbiujllHWQRwpb4783ATamGW+Z4CGOKKV2uHRLjws
UgkXU8rCWGjxu5VfZnR29FFMTz/5J7YthoCnEDFEPYd1wNePNWjNm2xLEuqJBm7F
EO7aU759a+cyqu48jGsgKXZIkaNa0cG7AgMBAAEwDQYJKoZIhvcNAQEEBQADgYEA
OT6Lb+YoVnXNOvgMY4UHFR3zYbgY2eFCCFJ7OcWsFB9JiqREytu5ijI9cLysaxAu
6E2ZbBG5056mJMEohlRdLGvdy450LzSma20/5nNd1jo5UnvTSMLVBYuHGyCCbnrR
3EDBXcj3im9GBxxeb55CUHSlyFCh9livxwZeY4PgtYU=
-----END CERTIFICATE-----
