Certificate:
    Data:
        Version: 1 (0x0)
        Serial Number:
            9b:27:d7:e8:d1:ba:0a:73
        Signature Algorithm: md5WithRSAEncryption
        Issuer: C=DE, ST=Saarland, O=MPI-SWS, OU=Distributed Systems Group, CN=Andreas Haeberlen/emailAddress=democa@octarine.de
        Validity
            Not Before: Apr 20 20:47:26 2015 GMT
            Not After : Apr 19 20:47:26 2016 GMT
        Subject: C=DE, ST=Saarland, O=MPI-SWS, OU=Distributed Systems Group, CN=b80e722b71fda9b58eb90b311e3b0c4c44ab6d6e/emailAddress=node0667@octarine.de
        Subject Public Key Info:
            Public Key Algorithm: rsaEncryption
            RSA Public Key: (1024 bit)
                Modulus (1024 bit):
                    00:ca:55:3f:43:c1:08:10:5e:58:ba:34:46:37:e3:
                    ef:28:bf:79:4f:7e:66:2a:a3:5c:07:fb:dd:7c:e2:
                    db:a9:18:81:56:12:de:ae:5d:27:e5:fb:f4:f8:aa:
                    09:16:33:93:64:75:7f:cb:7b:92:31:63:e9:be:70:
                    70:cb:4f:d9:0a:af:64:c0:20:f2:60:8e:58:8d:06:
                    03:b8:96:5c:dd:2b:15:0a:aa:39:28:df:66:65:8e:
                    b6:f4:eb:ab:ff:2f:97:79:0d:80:45:dc:3a:ca:8b:
                    e7:d6:42:76:24:29:b1:1b:cc:93:47:c3:6f:aa:02:
                    9c:45:6f:90:87:90:65:76:dd
                Exponent: 65537 (0x10001)
    Signature Algorithm: md5WithRSAEncryption
        c3:6b:d9:f2:40:67:de:c0:03:09:65:93:c4:3c:4d:2e:90:65:
        a2:3a:49:20:c7:03:05:dc:fa:90:cc:02:0d:64:34:aa:bd:78:
        43:b0:57:31:18:2a:67:2b:06:bc:1e:22:9e:03:0e:a0:fa:30:
        3f:44:b6:a8:71:20:1c:31:78:74:09:ae:b0:18:83:55:d8:c9:
        64:2f:a4:2a:fe:bc:16:3c:41:5c:61:8e:dc:53:c3:0b:e9:d6:
        9a:ec:ab:c3:31:71:ac:58:9e:9d:fa:b5:c6:aa:8f:46:51:98:
        6f:4d:24:08:d8:47:d2:41:79:fd:3b:f5:e8:4d:25:fd:1e:03:
        8e:ac
-----BEGIN CERTIFICATE-----
MIICvDCCAiUCCQCbJ9fo0boKczANBgkqhkiG9w0BAQQFADCBlTELMAkGA1UEBhMC
REUxETAPBgNVBAgTCFNhYXJsYW5kMRAwDgYDVQQKEwdNUEktU1dTMSIwIAYDVQQL
ExlEaXN0cmlidXRlZCBTeXN0ZW1zIEdyb3VwMRowGAYDVQQDExFBbmRyZWFzIEhh
ZWJlcmxlbjEhMB8GCSqGSIb3DQEJARYSZGVtb2NhQG9jdGFyaW5lLmRlMB4XDTE1
MDQyMDIwNDcyNloXDTE2MDQxOTIwNDcyNlowga4xCzAJBgNVBAYTAkRFMREwDwYD
VQQIEwhTYWFybGFuZDEQMA4GA1UEChMHTVBJLVNXUzEiMCAGA1UECxMZRGlzdHJp
YnV0ZWQgU3lzdGVtcyBHcm91cDExMC8GA1UEAxMoYjgwZTcyMmI3MWZkYTliNThl
YjkwYjMxMWUzYjBjNGM0NGFiNmQ2ZTEjMCEGCSqGSIb3DQEJARYUbm9kZTA2NjdA
b2N0YXJpbmUuZGUwgZ8wDQYJKoZIhvcNAQEBBQADgY0AMIGJAoGBAMpVP0PBCBBe
WLo0Rjfj7yi/eU9+ZiqjXAf73Xzi26kYgVYS3q5dJ+X79PiqCRYzk2R1f8t7kjFj
6b5wcMtP2QqvZMAg8mCOWI0GA7iWXN0rFQqqOSjfZmWOtvTrq/8vl3kNgEXcOsqL
59ZCdiQpsRvMk0fDb6oCnEVvkIeQZXbdAgMBAAEwDQYJKoZIhvcNAQEEBQADgYEA
w2vZ8kBn3sADCWWTxDxNLpBlojpJIMcDBdz6kMwCDWQ0qr14Q7BXMRgqZysGvB4i
ngMOoPowP0S2qHEgHDF4dAmusBiDVdjJZC+kKv68FjxBXGGO3FPDC+nWmuyrwzFx
rFienfq1xqqPRlGYb00kCNhH0kF5/Tv16E0l/R4Djqw=
-----END CERTIFICATE-----
