Certificate:
    Data:
        Version: 1 (0x0)
        Serial Number:
            9b:27:d7:e8:d1:ba:0a:10
        Signature Algorithm: md5WithRSAEncryption
        Issuer: C=DE, ST=Saarland, O=MPI-SWS, OU=Distributed Systems Group, CN=Andreas Haeberlen/emailAddress=democa@octarine.de
        Validity
            Not Before: Apr 20 20:47:22 2015 GMT
            Not After : Apr 19 20:47:22 2016 GMT
        Subject: C=DE, ST=Saarland, O=MPI-SWS, OU=Distributed Systems Group, CN=0aa1e5067e8972ff8cdf053db71f1d91742593b0/emailAddress=node0568@octarine.de
        Subject Public Key Info:
            Public Key Algorithm: rsaEncryption
            RSA Public Key: (1024 bit)
                Modulus (1024 bit):
                    00:d5:66:83:de:c6:5b:91:28:91:8f:66:90:7f:f0:
                    c4:6a:19:98:6c:54:08:21:4f:4c:ed:ca:87:57:e0:
                    c4:12:43:6c:8c:ec:e2:92:ce:ca:91:43:8a:af:e7:
                    12:57:49:20:25:cb:0e:b7:11:a5:2d:e4:44:7b:71:
                    56:f6:59:b0:55:29:da:0a:0a:ff:23:66:f4:d7:ca:
                    5e:1d:b6:08:d3:a4:9d:61:88:1c:44:dd:74:84:fa:
                    e7:be:2a:0a:ec:ea:c7:3a:df:22:b7:5c:93:ad:1e:
                    16:cf:54:e5:0e:32:a7:a6:99:ef:1b:c9:8d:6f:5e:
                    a8:71:2a:52:e7:7f:f4:9c:ef
                Exponent: 65537 (0x10001)
    Signature Algorithm: md5WithRSAEncryption
        bb:de:f0:14:9e:71:25:e1:d0:3b:57:f3:c9:cd:79:ea:f5:61:
        6e:78:2b:27:e1:58:c1:40:c5:76:fe:4a:8f:b5:15:f1:8a:f5:
        8e:2d:99:aa:6f:24:16:f7:59:e6:28:03:e4:68:84:51:92:97:
        3f:53:1e:a3:9a:28:9f:2e:39:d6:80:cc:43:a0:3a:bf:b1:7b:
        68:a7:0e:e4:71:c2:3b:a9:b5:a7:50:03:3a:c6:16:7a:54:9a:
        2c:5b:48:5d:e1:16:26:16:24:a5:c2:92:17:39:cb:61:d6:e7:
        39:ae:39:ee:c4:d4:51:ed:0f:f5:82:b3:38:ac:71:a0:4d:81:
        04:24
-----BEGIN CERTIFICATE-----
MIICvDCCAiUCCQCbJ9fo0boKEDANBgkqhkiG9w0BAQQFADCBlTELMAkGA1UEBhMC
REUxETAPBgNVBAgTCFNhYXJsYW5kMRAwDgYDVQQKEwdNUEktU1dTMSIwIAYDVQQL
ExlEaXN0cmlidXRlZCBTeXN0ZW1zIEdyb3VwMRowGAYDVQQDExFBbmRyZWFzIEhh
ZWJlcmxlbjEhMB8GCSqGSIb3DQEJARYSZGVtb2NhQG9jdGFyaW5lLmRlMB4XDTE1
MDQyMDIwNDcyMloXDTE2MDQxOTIwNDcyMlowga4xCzAJBgNVBAYTAkRFMREwDwYD
VQQIEwhTYWFybGFuZDEQMA4GA1UEChMHTVBJLVNXUzEiMCAGA1UECxMZRGlzdHJp
YnV0ZWQgU3lzdGVtcyBHcm91cDExMC8GA1UEAxMoMGFhMWU1MDY3ZTg5NzJmZjhj
ZGYwNTNkYjcxZjFkOTE3NDI1OTNiMDEjMCEGCSqGSIb3DQEJARYUbm9kZTA1NjhA
b2N0YXJpbmUuZGUwgZ8wDQYJKoZIhvcNAQEBBQADgY0AMIGJAoGBANVmg97GW5Eo
kY9mkH/wxGoZmGxUCCFPTO3Kh1fgxBJDbIzs4pLOypFDiq/nEldJICXLDrcRpS3k
RHtxVvZZsFUp2goK/yNm9NfKXh22CNOknWGIHETddIT6574qCuzqxzrfIrdck60e
Fs9U5Q4yp6aZ7xvJjW9eqHEqUud/9JzvAgMBAAEwDQYJKoZIhvcNAQEEBQADgYEA
u97wFJ5xJeHQO1fzyc156vVhbngrJ+FYwUDFdv5Kj7UV8Yr1ji2Zqm8kFvdZ5igD
5GiEUZKXP1Meo5oony451oDMQ6A6v7F7aKcO5HHCO6m1p1ADOsYWelSaLFtIXeEW
JhYkpcKSFznLYdbnOa457sTUUe0P9YKzOKxxoE2BBCQ=
-----END CERTIFICATE-----
