Certificate:
    Data:
        Version: 1 (0x0)
        Serial Number:
            9b:27:d7:e8:d1:ba:0b:62
        Signature Algorithm: md5WithRSAEncryption
        Issuer: C=DE, ST=Saarland, O=MPI-SWS, OU=Distributed Systems Group, CN=Andreas Haeberlen/emailAddress=democa@octarine.de
        Validity
            Not Before: Apr 20 20:47:37 2015 GMT
            Not After : Apr 19 20:47:37 2016 GMT
        Subject: C=DE, ST=Saarland, O=MPI-SWS, OU=Distributed Systems Group, CN=e92268aa0c8f806647f5142c35c71d8f7b1d4c85/emailAddress=node0906@octarine.de
        Subject Public Key Info:
            Public Key Algorithm: rsaEncryption
            RSA Public Key: (1024 bit)
                Modulus (1024 bit):
                    00:c5:21:68:f7:25:ae:0b:db:59:db:8b:8a:37:94:
                    be:55:22:fc:50:ae:6a:a5:03:65:4f:7a:0a:af:9d:
                    8d:94:33:4c:f7:50:6a:db:99:09:93:19:a9:43:82:
                    7a:a6:87:c7:93:4f:3d:af:6f:44:e9:42:b1:9b:fa:
                    b1:50:bb:2a:ec:49:1a:54:fb:9e:b2:8a:9b:98:1e:
                    65:c8:8d:05:f8:ee:88:0c:52:1d:6b:88:80:88:12:
                    c3:85:17:e5:a9:2d:6f:2c:8e:4d:c4:b4:e6:c5:de:
                    f2:51:19:75:c9:14:e9:6b:71:a5:c2:a5:c5:c5:74:
                    0e:5e:47:79:8e:b7:c7:ab:49
                Exponent: 65537 (0x10001)
    Signature Algorithm: md5WithRSAEncryption
        30:0b:6b:da:e2:f7:19:cc:e8:28:81:99:4f:1e:9b:41:2a:03:
        c8:01:40:8f:78:f6:8c:19:2c:23:35:f8:1f:de:43:d3:2b:f2:
        88:7a:d1:64:da:ad:29:1f:e6:9c:a2:34:b1:00:df:76:ef:a8:
        f3:b5:4f:a7:de:56:c2:9f:be:34:58:cb:3b:88:06:e4:da:65:
        bd:9d:b0:a6:d2:42:64:57:6d:25:60:58:fa:02:d7:08:8d:d6:
        b2:03:0e:6d:31:51:3c:12:7f:59:b8:b5:fd:c9:f3:33:05:fe:
        63:62:9b:87:aa:48:9f:de:3f:f5:a2:25:ab:a6:87:fe:a1:0e:
        f2:de
-----BEGIN CERTIFICATE-----
MIICvDCCAiUCCQCbJ9fo0boLYjANBgkqhkiG9w0BAQQFADCBlTELMAkGA1UEBhMC
REUxETAPBgNVBAgTCFNhYXJsYW5kMRAwDgYDVQQKEwdNUEktU1dTMSIwIAYDVQQL
ExlEaXN0cmlidXRlZCBTeXN0ZW1zIEdyb3VwMRowGAYDVQQDExFBbmRyZWFzIEhh
ZWJlcmxlbjEhMB8GCSqGSIb3DQEJARYSZGVtb2NhQG9jdGFyaW5lLmRlMB4XDTE1
MDQyMDIwNDczN1oXDTE2MDQxOTIwNDczN1owga4xCzAJBgNVBAYTAkRFMREwDwYD
VQQIEwhTYWFybGFuZDEQMA4GA1UEChMHTVBJLVNXUzEiMCAGA1UECxMZRGlzdHJp
YnV0ZWQgU3lzdGVtcyBHcm91cDExMC8GA1UEAxMoZTkyMjY4YWEwYzhmODA2NjQ3
ZjUxNDJjMzVjNzFkOGY3YjFkNGM4NTEjMCEGCSqGSIb3DQEJARYUbm9kZTA5MDZA
b2N0YXJpbmUuZGUwgZ8wDQYJKoZIhvcNAQEBBQADgY0AMIGJAoGBAMUhaPclrgvb
WduLijeUvlUi/FCuaqUDZU96Cq+djZQzTPdQatuZCZMZqUOCeqaHx5NPPa9vROlC
sZv6sVC7KuxJGlT7nrKKm5geZciNBfjuiAxSHWuIgIgSw4UX5aktbyyOTcS05sXe
8lEZdckU6WtxpcKlxcV0Dl5HeY63x6tJAgMBAAEwDQYJKoZIhvcNAQEEBQADgYEA
MAtr2uL3GczoKIGZTx6bQSoDyAFAj3j2jBksIzX4H95D0yvyiHrRZNqtKR/mnKI0
sQDfdu+o87VPp95Wwp++NFjLO4gG5NplvZ2wptJCZFdtJWBY+gLXCI3WsgMObTFR
PBJ/Wbi1/cnzMwX+Y2Kbh6pIn94/9aIlq6aH/qEO8t4=
-----END CERTIFICATE-----
