Certificate:
    Data:
        Version: 1 (0x0)
        Serial Number:
            9b:27:d7:e8:d1:ba:08:ec
        Signature Algorithm: md5WithRSAEncryption
        Issuer: C=DE, ST=Saarland, O=MPI-SWS, OU=Distributed Systems Group, CN=Andreas Haeberlen/emailAddress=democa@octarine.de
        Validity
            Not Before: Apr 20 20:47:09 2015 GMT
            Not After : Apr 19 20:47:09 2016 GMT
        Subject: C=DE, ST=Saarland, O=MPI-SWS, OU=Distributed Systems Group, CN=f0eb76765bc559efd8f2a0b1b5debabab9630d95/emailAddress=node0276@octarine.de
        Subject Public Key Info:
            Public Key Algorithm: rsaEncryption
            RSA Public Key: (1024 bit)
                Modulus (1024 bit):
                    00:e3:16:75:39:ec:0f:a0:ca:c4:91:8d:68:b4:6f:
                    af:22:b9:c8:f6:20:03:44:8e:42:53:29:a8:1c:74:
                    bb:0a:4e:f6:51:73:fc:77:61:9e:74:44:73:c0:e9:
                    b4:e0:74:dd:7f:fb:a3:fa:70:ef:39:dc:a2:c0:33:
                    cc:26:96:ad:51:bb:38:aa:ad:70:09:1c:a0:d4:45:
                    8f:90:9f:73:f2:27:dc:4c:6a:be:9d:2b:9a:6e:fa:
                    9f:f0:6d:27:16:0e:7d:88:d6:4a:a5:d2:9e:d6:a5:
                    30:37:8c:81:ab:ef:37:52:62:ae:9b:63:13:83:c2:
                    2f:84:29:61:52:0e:39:b8:4d
                Exponent: 65537 (0x10001)
    Signature Algorithm: md5WithRSAEncryption
        13:2b:7d:f6:6b:fc:01:41:94:f1:84:e3:ea:4f:39:7b:4f:ac:
        e9:c2:91:11:32:2e:d4:93:19:47:54:20:20:fa:57:85:f6:eb:
        56:fc:0e:61:e0:0a:a8:7e:ed:1c:73:7b:2d:71:c1:3d:3c:5e:
        b0:2d:d5:d6:75:bd:56:14:ec:93:bf:60:67:cb:33:8e:61:a3:
        20:7f:04:a6:ac:75:c6:9d:ec:23:7a:e2:5e:09:ce:b3:1d:8c:
        e3:05:71:0d:fa:9c:5d:a5:05:89:f6:52:21:17:84:2a:4b:d9:
        6c:d1:4d:d2:de:3a:f4:33:88:c2:4c:1c:dd:39:d5:f0:11:15:
        5e:69
-----BEGIN CERTIFICATE-----
MIICvDCCAiUCCQCbJ9fo0boI7DANBgkqhkiG9w0BAQQFADCBlTELMAkGA1UEBhMC
REUxETAPBgNVBAgTCFNhYXJsYW5kMRAwDgYDVQQKEwdNUEktU1dTMSIwIAYDVQQL
ExlEaXN0cmlidXRlZCBTeXN0ZW1zIEdyb3VwMRowGAYDVQQDExFBbmRyZWFzIEhh
ZWJlcmxlbjEhMB8GCSqGSIb3DQEJARYSZGVtb2NhQG9jdGFyaW5lLmRlMB4XDTE1
MDQyMDIwNDcwOVoXDTE2MDQxOTIwNDcwOVowga4xCzAJBgNVBAYTAkRFMREwDwYD
VQQIEwhTYWFybGFuZDEQMA4GA1UEChMHTVBJLVNXUzEiMCAGA1UECxMZRGlzdHJp
YnV0ZWQgU3lzdGVtcyBHcm91cDExMC8GA1UEAxMoZjBlYjc2NzY1YmM1NTllZmQ4
ZjJhMGIxYjVkZWJhYmFiOTYzMGQ5NTEjMCEGCSqGSIb3DQEJARYUbm9kZTAyNzZA
b2N0YXJpbmUuZGUwgZ8wDQYJKoZIhvcNAQEBBQADgY0AMIGJAoGBAOMWdTnsD6DK
xJGNaLRvryK5yPYgA0SOQlMpqBx0uwpO9lFz/HdhnnREc8DptOB03X/7o/pw7znc
osAzzCaWrVG7OKqtcAkcoNRFj5Cfc/In3Exqvp0rmm76n/BtJxYOfYjWSqXSntal
MDeMgavvN1JirptjE4PCL4QpYVIOObhNAgMBAAEwDQYJKoZIhvcNAQEEBQADgYEA
Eyt99mv8AUGU8YTj6k85e0+s6cKRETIu1JMZR1QgIPpXhfbrVvwOYeAKqH7tHHN7
LXHBPTxesC3V1nW9VhTsk79gZ8szjmGjIH8Epqx1xp3sI3riXgnOsx2M4wVxDfqc
XaUFifZSIReEKkvZbNFN0t469DOIwkwc3TnV8BEVXmk=
-----END CERTIFICATE-----
