Certificate:
    Data:
        Version: 1 (0x0)
        Serial Number:
            9b:27:d7:e8:d1:ba:0a:66
        Signature Algorithm: md5WithRSAEncryption
        Issuer: C=DE, ST=Saarland, O=MPI-SWS, OU=Distributed Systems Group, CN=Andreas Haeberlen/emailAddress=democa@octarine.de
        Validity
            Not Before: Apr 20 20:47:25 2015 GMT
            Not After : Apr 19 20:47:25 2016 GMT
        Subject: C=DE, ST=Saarland, O=MPI-SWS, OU=Distributed Systems Group, CN=4ae345413f3482b607de07d9f3daca30524979bb/emailAddress=node0654@octarine.de
        Subject Public Key Info:
            Public Key Algorithm: rsaEncryption
            RSA Public Key: (1024 bit)
                Modulus (1024 bit):
                    00:d7:7d:23:f9:86:f8:5b:0a:75:1d:d0:4d:55:26:
                    88:56:79:b8:de:2c:34:01:2b:cd:f6:e0:54:c8:9f:
                    d4:05:d0:54:80:cc:57:fc:3f:c7:0b:2b:a0:53:ee:
                    4c:98:00:0b:08:57:17:58:53:c6:88:12:0e:6d:60:
                    b4:c9:96:e8:d8:5d:b9:ad:60:67:86:3c:ac:a0:7b:
                    da:df:ba:a1:25:98:78:d7:f2:6e:e1:82:88:56:1f:
                    9f:01:f5:65:5a:de:e0:48:f9:f5:61:39:bf:59:7d:
                    d0:bc:91:bc:07:37:f4:30:18:76:31:b5:74:5b:fd:
                    8d:9e:af:2b:0b:9e:24:06:13
                Exponent: 65537 (0x10001)
    Signature Algorithm: md5WithRSAEncryption
        51:5b:a6:9c:d8:8a:46:b8:18:0d:9d:f8:36:ac:4b:51:c9:fd:
        09:c4:05:0e:69:2b:db:cc:9d:5c:b2:75:7b:8d:01:91:f6:da:
        4f:24:c7:17:5c:13:74:4a:eb:75:1d:60:60:91:f6:de:86:95:
        08:97:87:e2:f8:3b:31:50:99:05:b5:c0:b2:b3:82:b5:82:d4:
        88:44:77:11:cc:94:74:44:ae:53:47:e2:8a:99:53:5b:67:32:
        91:19:0d:4e:de:7f:df:ce:8e:fc:2a:56:98:a4:2a:59:3b:a7:
        30:5c:05:a1:7b:92:e4:4c:53:43:f5:30:5b:ee:54:9d:c9:99:
        4b:8a
-----BEGIN CERTIFICATE-----
MIICvDCCAiUCCQCbJ9fo0boKZjANBgkqhkiG9w0BAQQFADCBlTELMAkGA1UEBhMC
REUxETAPBgNVBAgTCFNhYXJsYW5kMRAwDgYDVQQKEwdNUEktU1dTMSIwIAYDVQQL
ExlEaXN0cmlidXRlZCBTeXN0ZW1zIEdyb3VwMRowGAYDVQQDExFBbmRyZWFzIEhh
ZWJlcmxlbjEhMB8GCSqGSIb3DQEJARYSZGVtb2NhQG9jdGFyaW5lLmRlMB4XDTE1
MDQyMDIwNDcyNVoXDTE2MDQxOTIwNDcyNVowga4xCzAJBgNVBAYTAkRFMREwDwYD
VQQIEwhTYWFybGFuZDEQMA4GA1UEChMHTVBJLVNXUzEiMCAGA1UECxMZRGlzdHJp
YnV0ZWQgU3lzdGVtcyBHcm91cDExMC8GA1UEAxMoNGFlMzQ1NDEzZjM0ODJiNjA3
ZGUwN2Q5ZjNkYWNhMzA1MjQ5NzliYjEjMCEGCSqGSIb3DQEJARYUbm9kZTA2NTRA
b2N0YXJpbmUuZGUwgZ8wDQYJKoZIhvcNAQEBBQADgY0AMIGJAoGBANd9I/mG+FsK
dR3QTVUmiFZ5uN4sNAErzfbgVMif1AXQVIDMV/w/xwsroFPuTJgACwhXF1hTxogS
Dm1gtMmW6Nhdua1gZ4Y8rKB72t+6oSWYeNfybuGCiFYfnwH1ZVre4Ej59WE5v1l9
0LyRvAc39DAYdjG1dFv9jZ6vKwueJAYTAgMBAAEwDQYJKoZIhvcNAQEEBQADgYEA
UVumnNiKRrgYDZ34NqxLUcn9CcQFDmkr28ydXLJ1e40BkfbaTyTHF1wTdErrdR1g
YJH23oaVCJeH4vg7MVCZBbXAsrOCtYLUiER3EcyUdESuU0fiiplTW2cykRkNTt5/
386O/CpWmKQqWTunMFwFoXuS5ExTQ/UwW+5UncmZS4o=
-----END CERTIFICATE-----
