Certificate:
    Data:
        Version: 1 (0x0)
        Serial Number:
            9b:27:d7:e8:d1:ba:0a:58
        Signature Algorithm: md5WithRSAEncryption
        Issuer: C=DE, ST=Saarland, O=MPI-SWS, OU=Distributed Systems Group, CN=Andreas Haeberlen/emailAddress=democa@octarine.de
        Validity
            Not Before: Apr 20 20:47:25 2015 GMT
            Not After : Apr 19 20:47:25 2016 GMT
        Subject: C=DE, ST=Saarland, O=MPI-SWS, OU=Distributed Systems Group, CN=5d113b88a314117ef6e4c428bf51516bf8d235bd/emailAddress=node0640@octarine.de
        Subject Public Key Info:
            Public Key Algorithm: rsaEncryption
            RSA Public Key: (1024 bit)
                Modulus (1024 bit):
                    00:dd:ba:36:0b:48:a0:ab:cb:40:43:5c:45:76:27:
                    3e:6f:cc:8a:4d:83:04:83:26:bb:5f:8f:9c:c9:be:
                    ea:ef:6e:4d:f7:dd:ba:76:4a:1c:59:ed:dc:3f:b7:
                    ea:96:1d:0c:7f:ed:1f:8d:5b:8f:c6:4f:77:e0:19:
                    68:11:fb:ee:d9:98:d0:e9:63:87:80:d7:45:c6:4a:
                    63:eb:aa:ea:b5:82:60:72:ec:cf:69:40:b7:c8:5c:
                    1e:12:f4:7e:71:bc:4a:03:17:ad:88:80:c0:f2:83:
                    8c:12:ba:f3:4d:a7:4e:ac:68:8c:95:96:cd:aa:9b:
                    f3:94:06:96:17:51:77:08:73
                Exponent: 65537 (0x10001)
    Signature Algorithm: md5WithRSAEncryption
        c2:8c:2c:cd:a4:5b:97:05:1b:8c:26:1c:36:43:2c:fb:9e:fd:
        2c:b3:c8:fc:83:3c:03:44:6d:4c:91:28:3f:d8:cd:b5:49:53:
        fc:5f:a7:96:26:c6:75:7a:1b:55:03:d9:26:e8:29:7e:0e:18:
        44:ac:79:d7:73:ba:04:f8:0a:ba:b7:57:59:57:13:70:ea:a5:
        a8:c9:73:52:5d:54:32:de:30:7d:ba:c1:72:1a:2a:48:5d:86:
        1c:b4:7e:30:19:29:4a:46:14:94:43:ea:14:1a:95:c5:7d:7f:
        f6:8c:c4:47:c2:ab:02:5c:0e:07:e0:66:a7:2d:fa:c1:1e:60:
        7a:4e
-----BEGIN CERTIFICATE-----
MIICvDCCAiUCCQCbJ9fo0boKWDANBgkqhkiG9w0BAQQFADCBlTELMAkGA1UEBhMC
REUxETAPBgNVBAgTCFNhYXJsYW5kMRAwDgYDVQQKEwdNUEktU1dTMSIwIAYDVQQL
ExlEaXN0cmlidXRlZCBTeXN0ZW1zIEdyb3VwMRowGAYDVQQDExFBbmRyZWFzIEhh
ZWJlcmxlbjEhMB8GCSqGSIb3DQEJARYSZGVtb2NhQG9jdGFyaW5lLmRlMB4XDTE1
MDQyMDIwNDcyNVoXDTE2MDQxOTIwNDcyNVowga4xCzAJBgNVBAYTAkRFMREwDwYD
VQQIEwhTYWFybGFuZDEQMA4GA1UEChMHTVBJLVNXUzEiMCAGA1UECxMZRGlzdHJp
YnV0ZWQgU3lzdGVtcyBHcm91cDExMC8GA1UEAxMoNWQxMTNiODhhMzE0MTE3ZWY2
ZTRjNDI4YmY1MTUxNmJmOGQyMzViZDEjMCEGCSqGSIb3DQEJARYUbm9kZTA2NDBA
b2N0YXJpbmUuZGUwgZ8wDQYJKoZIhvcNAQEBBQADgY0AMIGJAoGBAN26NgtIoKvL
QENcRXYnPm/Mik2DBIMmu1+PnMm+6u9uTffdunZKHFnt3D+36pYdDH/tH41bj8ZP
d+AZaBH77tmY0Oljh4DXRcZKY+uq6rWCYHLsz2lAt8hcHhL0fnG8SgMXrYiAwPKD
jBK6802nTqxojJWWzaqb85QGlhdRdwhzAgMBAAEwDQYJKoZIhvcNAQEEBQADgYEA
wowszaRblwUbjCYcNkMs+579LLPI/IM8A0RtTJEoP9jNtUlT/F+nlibGdXobVQPZ
Jugpfg4YRKx513O6BPgKurdXWVcTcOqlqMlzUl1UMt4wfbrBchoqSF2GHLR+MBkp
SkYUlEPqFBqVxX1/9ozER8KrAlwOB+Bmpy36wR5gek4=
-----END CERTIFICATE-----
