Certificate:
    Data:
        Version: 1 (0x0)
        Serial Number:
            9b:27:d7:e8:d1:ba:09:2f
        Signature Algorithm: md5WithRSAEncryption
        Issuer: C=DE, ST=Saarland, O=MPI-SWS, OU=Distributed Systems Group, CN=Andreas Haeberlen/emailAddress=democa@octarine.de
        Validity
            Not Before: Apr 20 20:47:11 2015 GMT
            Not After : Apr 19 20:47:11 2016 GMT
        Subject: C=DE, ST=Saarland, O=MPI-SWS, OU=Distributed Systems Group, CN=989a3914ca1f4c9ee6d01888a729c8351c046182/emailAddress=node0343@octarine.de
        Subject Public Key Info:
            Public Key Algorithm: rsaEncryption
            RSA Public Key: (1024 bit)
                Modulus (1024 bit):
                    00:ab:ac:2e:4b:73:55:14:88:2f:b9:0a:1e:38:29:
                    b3:23:d9:c0:31:56:03:21:f4:b3:de:83:29:6e:52:
                    9b:53:0f:e2:bc:ea:48:b3:b7:d7:3d:67:35:79:ca:
                    39:77:19:a5:18:ac:f4:46:b8:fd:9a:dc:b2:18:a8:
                    76:98:aa:d8:d4:8e:9f:eb:48:cd:af:ca:18:72:43:
                    1c:97:e9:4b:c9:28:0d:1a:9c:1a:49:49:3c:a0:8d:
                    a4:34:7e:42:cf:d1:10:d8:d8:9c:3d:e0:43:52:09:
                    7e:2e:98:a2:56:17:04:20:4c:2b:3d:78:57:3b:e4:
                    cb:eb:47:da:05:7c:88:56:15
                Exponent: 65537 (0x10001)
    Signature Algorithm: md5WithRSAEncryption
        3f:89:d9:8c:91:53:12:41:51:85:86:72:70:30:09:43:79:dc:
        52:11:ec:2b:f4:ca:94:0e:bd:62:15:75:d3:6a:04:73:9e:c9:
        50:f7:b6:96:63:f8:bb:90:b9:4e:23:fb:2b:8f:8f:32:de:0e:
        29:03:ee:d2:8b:04:55:d3:ef:7d:82:ef:c2:fb:78:03:29:32:
        ab:da:48:05:e1:d1:1c:39:6f:6a:fe:60:34:12:e2:56:84:8f:
        d9:e5:a2:cf:d7:f2:c9:69:6d:bc:fd:86:67:6b:b4:80:a1:96:
        fa:59:6b:d7:3d:4c:40:e7:1a:e7:8f:00:e9:af:17:c2:89:87:
        61:40
-----BEGIN CERTIFICATE-----
MIICvDCCAiUCCQCbJ9fo0boJLzANBgkqhkiG9w0BAQQFADCBlTELMAkGA1UEBhMC
REUxETAPBgNVBAgTCFNhYXJsYW5kMRAwDgYDVQQKEwdNUEktU1dTMSIwIAYDVQQL
ExlEaXN0cmlidXRlZCBTeXN0ZW1zIEdyb3VwMRowGAYDVQQDExFBbmRyZWFzIEhh
ZWJlcmxlbjEhMB8GCSqGSIb3DQEJARYSZGVtb2NhQG9jdGFyaW5lLmRlMB4XDTE1
MDQyMDIwNDcxMVoXDTE2MDQxOTIwNDcxMVowga4xCzAJBgNVBAYTAkRFMREwDwYD
VQQIEwhTYWFybGFuZDEQMA4GA1UEChMHTVBJLVNXUzEiMCAGA1UECxMZRGlzdHJp
YnV0ZWQgU3lzdGVtcyBHcm91cDExMC8GA1UEAxMoOTg5YTM5MTRjYTFmNGM5ZWU2
ZDAxODg4YTcyOWM4MzUxYzA0NjE4MjEjMCEGCSqGSIb3DQEJARYUbm9kZTAzNDNA
b2N0YXJpbmUuZGUwgZ8wDQYJKoZIhvcNAQEBBQADgY0AMIGJAoGBAKusLktzVRSI
L7kKHjgpsyPZwDFWAyH0s96DKW5Sm1MP4rzqSLO31z1nNXnKOXcZpRis9Ea4/Zrc
shiodpiq2NSOn+tIza/KGHJDHJfpS8koDRqcGklJPKCNpDR+Qs/RENjYnD3gQ1IJ
fi6YolYXBCBMKz14Vzvky+tH2gV8iFYVAgMBAAEwDQYJKoZIhvcNAQEEBQADgYEA
P4nZjJFTEkFRhYZycDAJQ3ncUhHsK/TKlA69YhV102oEc57JUPe2lmP4u5C5TiP7
K4+PMt4OKQPu0osEVdPvfYLvwvt4Aykyq9pIBeHRHDlvav5gNBLiVoSP2eWiz9fy
yWltvP2GZ2u0gKGW+llr1z1MQOca548A6a8XwomHYUA=
-----END CERTIFICATE-----
