Certificate:
    Data:
        Version: 1 (0x0)
        Serial Number:
            9b:27:d7:e8:d1:ba:0a:74
        Signature Algorithm: md5WithRSAEncryption
        Issuer: C=DE, ST=Saarland, O=MPI-SWS, OU=Distributed Systems Group, CN=Andreas Haeberlen/emailAddress=democa@octarine.de
        Validity
            Not Before: Apr 20 20:47:26 2015 GMT
            Not After : Apr 19 20:47:26 2016 GMT
        Subject: C=DE, ST=Saarland, O=MPI-SWS, OU=Distributed Systems Group, CN=f6b906e85a1654762a2366fbaa618df73a031fc7/emailAddress=node0668@octarine.de
        Subject Public Key Info:
            Public Key Algorithm: rsaEncryption
            RSA Public Key: (1024 bit)
                Modulus (1024 bit):
                    00:ea:3a:06:e7:51:90:f3:48:b7:08:0d:f5:fd:49:
                    5f:dc:58:0b:34:af:3a:62:d3:b1:18:78:21:60:1d:
                    21:2c:41:84:b6:9c:6b:f3:df:97:69:33:5e:b1:38:
                    2c:57:ee:de:3d:4d:ba:26:4c:55:0e:5a:9f:a6:40:
                    f1:17:8c:b6:0d:70:b2:91:c9:85:88:3e:9c:88:2e:
                    c5:21:df:67:ec:25:26:59:46:e3:5f:7a:4b:0c:1a:
                    53:a9:72:e9:43:fb:7a:c3:31:86:92:92:1f:4a:8f:
                    ef:63:5b:02:4f:f7:f5:23:11:80:ff:86:b9:42:ba:
                    b2:9d:70:df:b4:92:7a:8d:1f
                Exponent: 65537 (0x10001)
    Signature Algorithm: md5WithRSAEncryption
        06:1d:a5:34:65:dc:76:c7:c4:00:7e:9b:29:f4:f6:b7:6a:8c:
        4c:af:44:93:c7:b4:15:1e:ba:78:6c:40:9e:78:4c:22:70:d5:
        71:1c:16:b6:3f:59:ee:c1:63:c3:ae:47:1c:a9:cf:2f:56:3e:
        cc:5f:81:71:62:ef:ed:dd:59:fb:c2:31:53:30:e7:44:85:34:
        8e:7c:f8:7e:80:30:f3:c4:6e:2a:8f:bc:99:fd:fd:5a:9d:c9:
        10:7d:d9:67:17:22:f2:b7:a7:86:02:cf:68:63:66:c2:8f:f3:
        21:37:87:52:94:f1:24:7d:6d:3a:25:01:74:2b:fe:b3:2f:15:
        71:de
-----BEGIN CERTIFICATE-----
MIICvDCCAiUCCQCbJ9fo0boKdDANBgkqhkiG9w0BAQQFADCBlTELMAkGA1UEBhMC
REUxETAPBgNVBAgTCFNhYXJsYW5kMRAwDgYDVQQKEwdNUEktU1dTMSIwIAYDVQQL
ExlEaXN0cmlidXRlZCBTeXN0ZW1zIEdyb3VwMRowGAYDVQQDExFBbmRyZWFzIEhh
ZWJlcmxlbjEhMB8GCSqGSIb3DQEJARYSZGVtb2NhQG9jdGFyaW5lLmRlMB4XDTE1
MDQyMDIwNDcyNloXDTE2MDQxOTIwNDcyNlowga4xCzAJBgNVBAYTAkRFMREwDwYD
VQQIEwhTYWFybGFuZDEQMA4GA1UEChMHTVBJLVNXUzEiMCAGA1UECxMZRGlzdHJp
YnV0ZWQgU3lzdGVtcyBHcm91cDExMC8GA1UEAxMoZjZiOTA2ZTg1YTE2NTQ3NjJh
MjM2NmZiYWE2MThkZjczYTAzMWZjNzEjMCEGCSqGSIb3DQEJARYUbm9kZTA2NjhA
b2N0YXJpbmUuZGUwgZ8wDQYJKoZIhvcNAQEBBQADgY0AMIGJAoGBAOo6BudRkPNI
twgN9f1JX9xYCzSvOmLTsRh4IWAdISxBhLaca/Pfl2kzXrE4LFfu3j1NuiZMVQ5a
n6ZA8ReMtg1wspHJhYg+nIguxSHfZ+wlJllG4196SwwaU6ly6UP7esMxhpKSH0qP
72NbAk/39SMRgP+GuUK6sp1w37SSeo0fAgMBAAEwDQYJKoZIhvcNAQEEBQADgYEA
Bh2lNGXcdsfEAH6bKfT2t2qMTK9Ek8e0FR66eGxAnnhMInDVcRwWtj9Z7sFjw65H
HKnPL1Y+zF+BcWLv7d1Z+8IxUzDnRIU0jnz4foAw88RuKo+8mf39Wp3JEH3ZZxci
8renhgLPaGNmwo/zITeHUpTxJH1tOiUBdCv+sy8Vcd4=
-----END CERTIFICATE-----
