Certificate:
    Data:
        Version: 1 (0x0)
        Serial Number:
            9b:27:d7:e8:d1:ba:0a:79
        Signature Algorithm: md5WithRSAEncryption
        Issuer: C=DE, ST=Saarland, O=MPI-SWS, OU=Distributed Systems Group, CN=Andreas Haeberlen/emailAddress=democa@octarine.de
        Validity
            Not Before: Apr 20 20:47:26 2015 GMT
            Not After : Apr 19 20:47:26 2016 GMT
        Subject: C=DE, ST=Saarland, O=MPI-SWS, OU=Distributed Systems Group, CN=b70c7fd641fa3e46c172f03fdd061f4d64ae3748/emailAddress=node0673@octarine.de
        Subject Public Key Info:
            Public Key Algorithm: rsaEncryption
            RSA Public Key: (1024 bit)
                Modulus (1024 bit):
                    00:ca:88:24:f1:b5:eb:73:d7:d8:0f:b5:e2:e1:cb:
                    30:ec:34:e2:37:7c:02:a6:3f:59:ee:a6:fe:c1:51:
                    57:d8:f6:f3:e6:75:4c:6a:0d:59:19:66:12:45:79:
                    ef:4e:b4:73:e7:50:1d:92:e2:11:d5:f6:0a:8e:a0:
                    66:a4:45:f2:7e:93:ec:63:c3:67:ff:f4:7e:2e:9b:
                    1e:8b:ab:93:a8:0c:35:3e:1d:1c:da:99:28:a2:fc:
                    50:23:e7:bd:f8:86:50:68:5b:7d:47:e1:68:49:0c:
                    eb:b6:1e:d5:a0:d9:2d:ce:eb:81:7e:01:ce:d2:8c:
                    6e:da:fd:b6:74:08:08:8c:fb
                Exponent: 65537 (0x10001)
    Signature Algorithm: md5WithRSAEncryption
        36:c8:15:34:5d:9e:58:14:07:60:0b:f5:37:6d:ef:5a:3b:d4:
        b2:32:8e:7d:27:33:b4:92:b0:d8:22:27:7e:25:38:21:eb:ed:
        09:a1:5b:d7:17:96:d3:e9:de:aa:81:55:92:f5:d4:75:8e:86:
        f0:c9:dc:ce:b9:12:6f:4f:87:47:e4:53:ee:66:9e:2d:52:e8:
        d5:62:b9:9c:62:5a:ad:5e:fb:e9:87:dd:f9:b0:b5:9d:31:1a:
        72:e3:34:c2:30:55:ba:4c:7c:71:31:14:b0:fc:6b:ae:40:60:
        12:68:6b:a7:7a:9e:1e:06:eb:0b:c6:b7:6b:ea:36:97:68:f7:
        e1:65
-----BEGIN CERTIFICATE-----
MIICvDCCAiUCCQCbJ9fo0boKeTANBgkqhkiG9w0BAQQFADCBlTELMAkGA1UEBhMC
REUxETAPBgNVBAgTCFNhYXJsYW5kMRAwDgYDVQQKEwdNUEktU1dTMSIwIAYDVQQL
ExlEaXN0cmlidXRlZCBTeXN0ZW1zIEdyb3VwMRowGAYDVQQDExFBbmRyZWFzIEhh
ZWJlcmxlbjEhMB8GCSqGSIb3DQEJARYSZGVtb2NhQG9jdGFyaW5lLmRlMB4XDTE1
MDQyMDIwNDcyNloXDTE2MDQxOTIwNDcyNlowga4xCzAJBgNVBAYTAkRFMREwDwYD
VQQIEwhTYWFybGFuZDEQMA4GA1UEChMHTVBJLVNXUzEiMCAGA1UECxMZRGlzdHJp
YnV0ZWQgU3lzdGVtcyBHcm91cDExMC8GA1UEAxMoYjcwYzdmZDY0MWZhM2U0NmMx
NzJmMDNmZGQwNjFmNGQ2NGFlMzc0ODEjMCEGCSqGSIb3DQEJARYUbm9kZTA2NzNA
b2N0YXJpbmUuZGUwgZ8wDQYJKoZIhvcNAQEBBQADgY0AMIGJAoGBAMqIJPG163PX
2A+14uHLMOw04jd8AqY/We6m/sFRV9j28+Z1TGoNWRlmEkV57060c+dQHZLiEdX2
Co6gZqRF8n6T7GPDZ//0fi6bHourk6gMNT4dHNqZKKL8UCPnvfiGUGhbfUfhaEkM
67Ye1aDZLc7rgX4BztKMbtr9tnQICIz7AgMBAAEwDQYJKoZIhvcNAQEEBQADgYEA
NsgVNF2eWBQHYAv1N23vWjvUsjKOfScztJKw2CInfiU4IevtCaFb1xeW0+neqoFV
kvXUdY6G8MnczrkSb0+HR+RT7maeLVLo1WK5nGJarV776Yfd+bC1nTEacuM0wjBV
ukx8cTEUsPxrrkBgEmhrp3qeHgbrC8a3a+o2l2j34WU=
-----END CERTIFICATE-----
