Certificate:
    Data:
        Version: 1 (0x0)
        Serial Number:
            9b:27:d7:e8:d1:ba:09:6b
        Signature Algorithm: md5WithRSAEncryption
        Issuer: C=DE, ST=Saarland, O=MPI-SWS, OU=Distributed Systems Group, CN=Andreas Haeberlen/emailAddress=democa@octarine.de
        Validity
            Not Before: Apr 20 20:47:14 2015 GMT
            Not After : Apr 19 20:47:14 2016 GMT
        Subject: C=DE, ST=Saarland, O=MPI-SWS, OU=Distributed Systems Group, CN=317ff3df9ff8eb7a528a4f0326758eabf2af68e0/emailAddress=node0403@octarine.de
        Subject Public Key Info:
            Public Key Algorithm: rsaEncryption
            RSA Public Key: (1024 bit)
                Modulus (1024 bit):
                    00:d5:e5:4d:35:bb:72:54:f0:62:54:e6:4e:02:58:
                    73:4d:46:41:d8:09:95:44:8b:6d:8d:4e:e5:5e:2b:
                    f3:3f:dd:4b:2a:60:2d:1d:44:ac:c5:30:88:cc:26:
                    e6:e8:9c:ef:cb:05:2c:85:be:05:58:1f:e7:7f:cc:
                    3f:c6:30:5b:37:e1:ab:d9:05:7e:61:75:71:10:62:
                    c5:74:7c:c8:14:18:d1:ae:24:23:b6:bf:cb:94:e9:
                    89:ef:99:16:36:45:f0:9b:81:a5:1e:07:a8:08:b3:
                    12:b9:f5:17:4e:e1:d2:3d:04:d5:97:0a:77:b7:83:
                    74:1c:92:07:97:e1:4a:08:6b
                Exponent: 65537 (0x10001)
    Signature Algorithm: md5WithRSAEncryption
        c6:01:12:22:2e:74:0c:60:05:84:0e:d0:9d:15:ee:34:e9:c5:
        ef:1c:e1:d7:6b:91:df:88:ed:13:00:66:c3:31:c8:3f:f1:d1:
        4c:ed:b7:2f:3e:f0:2a:e6:47:f0:25:3d:a8:0b:0f:66:30:9a:
        9f:d7:76:61:e0:4d:44:22:78:43:dc:9f:2a:5c:a8:99:5e:be:
        9e:5d:de:e5:cf:94:af:6e:3e:14:f1:55:ba:6a:78:d9:d5:89:
        42:8c:29:07:fa:d8:29:26:53:73:d6:a9:07:66:95:2d:c5:37:
        3d:de:4c:9c:10:99:5f:ac:f3:ec:f3:86:05:71:c6:7b:d6:7b:
        f7:74
-----BEGIN CERTIFICATE-----
MIICvDCCAiUCCQCbJ9fo0boJazANBgkqhkiG9w0BAQQFADCBlTELMAkGA1UEBhMC
REUxETAPBgNVBAgTCFNhYXJsYW5kMRAwDgYDVQQKEwdNUEktU1dTMSIwIAYDVQQL
ExlEaXN0cmlidXRlZCBTeXN0ZW1zIEdyb3VwMRowGAYDVQQDExFBbmRyZWFzIEhh
ZWJlcmxlbjEhMB8GCSqGSIb3DQEJARYSZGVtb2NhQG9jdGFyaW5lLmRlMB4XDTE1
MDQyMDIwNDcxNFoXDTE2MDQxOTIwNDcxNFowga4xCzAJBgNVBAYTAkRFMREwDwYD
VQQIEwhTYWFybGFuZDEQMA4GA1UEChMHTVBJLVNXUzEiMCAGA1UECxMZRGlzdHJp
YnV0ZWQgU3lzdGVtcyBHcm91cDExMC8GA1UEAxMoMzE3ZmYzZGY5ZmY4ZWI3YTUy
OGE0ZjAzMjY3NThlYWJmMmFmNjhlMDEjMCEGCSqGSIb3DQEJARYUbm9kZTA0MDNA
b2N0YXJpbmUuZGUwgZ8wDQYJKoZIhvcNAQEBBQADgY0AMIGJAoGBANXlTTW7clTw
YlTmTgJYc01GQdgJlUSLbY1O5V4r8z/dSypgLR1ErMUwiMwm5uic78sFLIW+BVgf
53/MP8YwWzfhq9kFfmF1cRBixXR8yBQY0a4kI7a/y5Tpie+ZFjZF8JuBpR4HqAiz
Ern1F07h0j0E1ZcKd7eDdBySB5fhSghrAgMBAAEwDQYJKoZIhvcNAQEEBQADgYEA
xgESIi50DGAFhA7QnRXuNOnF7xzh12uR34jtEwBmwzHIP/HRTO23Lz7wKuZH8CU9
qAsPZjCan9d2YeBNRCJ4Q9yfKlyomV6+nl3e5c+Ur24+FPFVump42dWJQowpB/rY
KSZTc9apB2aVLcU3Pd5MnBCZX6zz7POGBXHGe9Z793Q=
-----END CERTIFICATE-----
