Certificate:
    Data:
        Version: 1 (0x0)
        Serial Number:
            9b:27:d7:e8:d1:ba:08:53
        Signature Algorithm: md5WithRSAEncryption
        Issuer: C=DE, ST=Saarland, O=MPI-SWS, OU=Distributed Systems Group, CN=Andreas Haeberlen/emailAddress=democa@octarine.de
        Validity
            Not Before: Apr 20 20:47:02 2015 GMT
            Not After : Apr 19 20:47:02 2016 GMT
        Subject: C=DE, ST=Saarland, O=MPI-SWS, OU=Distributed Systems Group, CN=19145d6f378c8927b423d7695d2520a39c7f9dec/emailAddress=node0123@octarine.de
        Subject Public Key Info:
            Public Key Algorithm: rsaEncryption
            RSA Public Key: (1024 bit)
                Modulus (1024 bit):
                    00:d7:0d:76:f8:d8:25:7c:95:0b:99:0c:7d:d1:41:
                    ab:30:8b:b2:32:89:b0:44:31:be:d4:24:12:0c:ce:
                    d9:5f:c6:78:07:d2:05:20:48:27:1d:e4:59:6e:de:
                    56:7d:04:b8:ac:e3:53:f1:2f:a9:2a:25:e7:4b:d1:
                    1f:91:7d:65:e4:a7:f7:76:8a:1a:5b:c9:03:b3:79:
                    d3:3a:eb:ec:b8:2a:6d:c3:56:21:be:b7:3d:16:6f:
                    1d:5d:03:53:29:4c:f0:86:2f:a3:6f:c7:1d:bf:fd:
                    6b:67:28:05:4d:89:cd:24:35:48:d0:76:f6:82:c8:
                    cd:79:c3:17:41:a7:b3:b9:15
                Exponent: 65537 (0x10001)
    Signature Algorithm: md5WithRSAEncryption
        ab:57:1e:09:81:65:c9:d6:ba:46:9d:c7:64:cb:d8:ba:1a:e2:
        5f:90:99:46:a4:6b:1b:f7:0f:4d:02:4b:3a:b2:fb:6b:c4:99:
        49:1f:f9:47:42:21:a7:5a:62:4c:86:7f:e3:9b:cd:51:af:f8:
        43:f0:29:8c:9a:09:46:e0:12:f1:7c:c6:2f:74:57:20:25:18:
        7d:16:f8:fa:78:39:bc:ec:29:8d:e9:0c:24:f6:cd:cd:9b:9c:
        31:58:1f:27:19:b6:4c:bf:b5:ef:22:03:9c:ff:ed:5d:71:07:
        d4:19:fd:4a:33:fd:57:2d:88:92:26:46:75:1d:4b:8c:8c:94:
        12:e2
-----BEGIN CERTIFICATE-----
MIICvDCCAiUCCQCbJ9fo0boIUzANBgkqhkiG9w0BAQQFADCBlTELMAkGA1UEBhMC
REUxETAPBgNVBAgTCFNhYXJsYW5kMRAwDgYDVQQKEwdNUEktU1dTMSIwIAYDVQQL
ExlEaXN0cmlidXRlZCBTeXN0ZW1zIEdyb3VwMRowGAYDVQQDExFBbmRyZWFzIEhh
ZWJlcmxlbjEhMB8GCSqGSIb3DQEJARYSZGVtb2NhQG9jdGFyaW5lLmRlMB4XDTE1
MDQyMDIwNDcwMloXDTE2MDQxOTIwNDcwMlowga4xCzAJBgNVBAYTAkRFMREwDwYD
VQQIEwhTYWFybGFuZDEQMA4GA1UEChMHTVBJLVNXUzEiMCAGA1UECxMZRGlzdHJp
YnV0ZWQgU3lzdGVtcyBHcm91cDExMC8GA1UEAxMoMTkxNDVkNmYzNzhjODkyN2I0
MjNkNzY5NWQyNTIwYTM5YzdmOWRlYzEjMCEGCSqGSIb3DQEJARYUbm9kZTAxMjNA
b2N0YXJpbmUuZGUwgZ8wDQYJKoZIhvcNAQEBBQADgY0AMIGJAoGBANcNdvjYJXyV
C5kMfdFBqzCLsjKJsEQxvtQkEgzO2V/GeAfSBSBIJx3kWW7eVn0EuKzjU/EvqSol
50vRH5F9ZeSn93aKGlvJA7N50zrr7LgqbcNWIb63PRZvHV0DUylM8IYvo2/HHb/9
a2coBU2JzSQ1SNB29oLIzXnDF0Gns7kVAgMBAAEwDQYJKoZIhvcNAQEEBQADgYEA
q1ceCYFlyda6Rp3HZMvYuhriX5CZRqRrG/cPTQJLOrL7a8SZSR/5R0Ihp1piTIZ/
45vNUa/4Q/ApjJoJRuAS8XzGL3RXICUYfRb4+ng5vOwpjekMJPbNzZucMVgfJxm2
TL+17yIDnP/tXXEH1Bn9SjP9Vy2IkiZGdR1LjIyUEuI=
-----END CERTIFICATE-----
