Certificate:
    Data:
        Version: 1 (0x0)
        Serial Number:
            9b:27:d7:e8:d1:ba:09:25
        Signature Algorithm: md5WithRSAEncryption
        Issuer: C=DE, ST=Saarland, O=MPI-SWS, OU=Distributed Systems Group, CN=Andreas Haeberlen/emailAddress=democa@octarine.de
        Validity
            Not Before: Apr 20 20:47:11 2015 GMT
            Not After : Apr 19 20:47:11 2016 GMT
        Subject: C=DE, ST=Saarland, O=MPI-SWS, OU=Distributed Systems Group, CN=cda145f10cba63edf9961acf21c4276e50fa6fb6/emailAddress=node0333@octarine.de
        Subject Public Key Info:
            Public Key Algorithm: rsaEncryption
            RSA Public Key: (1024 bit)
                Modulus (1024 bit):
                    00:dc:8c:c4:3d:08:11:1b:b2:ad:52:dd:a2:70:bc:
                    9f:26:6f:82:fc:e9:52:b9:2b:e4:19:a9:3f:87:b0:
                    5e:12:4d:bb:8f:8d:85:0c:2e:0f:65:85:de:6b:3c:
                    09:4d:9a:d5:3f:42:36:92:18:83:5f:d8:28:4c:b4:
                    b8:88:19:bb:18:ec:23:b7:67:e7:ed:aa:eb:13:2b:
                    f2:d4:3b:5e:84:ce:9d:6b:31:67:e2:93:b3:a5:b3:
                    b2:83:5c:0b:fd:19:e9:22:97:96:f7:01:e3:26:94:
                    8f:6c:d2:b7:f6:bc:39:46:b4:bc:e1:f6:58:8b:73:
                    5a:ed:ac:0d:f9:e6:c7:cb:3b
                Exponent: 65537 (0x10001)
    Signature Algorithm: md5WithRSAEncryption
        b6:9c:fc:35:cc:0f:1c:34:60:1b:84:fd:fb:0c:70:47:8c:2c:
        8d:68:aa:0f:bd:5a:bc:d9:9c:67:c6:c7:57:cc:3e:5e:8d:e1:
        35:eb:71:47:46:92:f8:6f:fc:d6:56:b0:e1:14:90:37:1d:2e:
        08:2d:4b:c2:36:db:cf:50:ef:01:6c:28:03:00:1e:08:cb:d4:
        8e:43:73:df:6f:c6:af:cb:2d:e3:4a:0b:d1:56:a6:67:f8:4b:
        4e:2e:9c:6d:9e:bc:f3:54:75:ca:3a:06:e4:a5:22:ac:e3:2c:
        e2:d8:c7:63:23:d9:bc:9f:c4:c4:2b:57:9b:1b:c4:20:68:e2:
        6f:21
-----BEGIN CERTIFICATE-----
MIICvDCCAiUCCQCbJ9fo0boJJTANBgkqhkiG9w0BAQQFADCBlTELMAkGA1UEBhMC
REUxETAPBgNVBAgTCFNhYXJsYW5kMRAwDgYDVQQKEwdNUEktU1dTMSIwIAYDVQQL
ExlEaXN0cmlidXRlZCBTeXN0ZW1zIEdyb3VwMRowGAYDVQQDExFBbmRyZWFzIEhh
ZWJlcmxlbjEhMB8GCSqGSIb3DQEJARYSZGVtb2NhQG9jdGFyaW5lLmRlMB4XDTE1
MDQyMDIwNDcxMVoXDTE2MDQxOTIwNDcxMVowga4xCzAJBgNVBAYTAkRFMREwDwYD
VQQIEwhTYWFybGFuZDEQMA4GA1UEChMHTVBJLVNXUzEiMCAGA1UECxMZRGlzdHJp
YnV0ZWQgU3lzdGVtcyBHcm91cDExMC8GA1UEAxMoY2RhMTQ1ZjEwY2JhNjNlZGY5
OTYxYWNmMjFjNDI3NmU1MGZhNmZiNjEjMCEGCSqGSIb3DQEJARYUbm9kZTAzMzNA
b2N0YXJpbmUuZGUwgZ8wDQYJKoZIhvcNAQEBBQADgY0AMIGJAoGBANyMxD0IERuy
rVLdonC8nyZvgvzpUrkr5BmpP4ewXhJNu4+NhQwuD2WF3ms8CU2a1T9CNpIYg1/Y
KEy0uIgZuxjsI7dn5+2q6xMr8tQ7XoTOnWsxZ+KTs6WzsoNcC/0Z6SKXlvcB4yaU
j2zSt/a8OUa0vOH2WItzWu2sDfnmx8s7AgMBAAEwDQYJKoZIhvcNAQEEBQADgYEA
tpz8NcwPHDRgG4T9+wxwR4wsjWiqD71avNmcZ8bHV8w+Xo3hNetxR0aS+G/81law
4RSQNx0uCC1Lwjbbz1DvAWwoAwAeCMvUjkNz32/Gr8st40oL0VamZ/hLTi6cbZ68
81R1yjoG5KUirOMs4tjHYyPZvJ/ExCtXmxvEIGjibyE=
-----END CERTIFICATE-----
