Certificate:
    Data:
        Version: 1 (0x0)
        Serial Number:
            9b:27:d7:e8:d1:ba:07:fc
        Signature Algorithm: md5WithRSAEncryption
        Issuer: C=DE, ST=Saarland, O=MPI-SWS, OU=Distributed Systems Group, CN=Andreas Haeberlen/emailAddress=democa@octarine.de
        Validity
            Not Before: Apr 20 20:46:58 2015 GMT
            Not After : Apr 19 20:46:58 2016 GMT
        Subject: C=DE, ST=Saarland, O=MPI-SWS, OU=Distributed Systems Group, CN=b5a8feb4e3d283379a5c4c6f06c90fcb46444f92/emailAddress=node0036@octarine.de
        Subject Public Key Info:
            Public Key Algorithm: rsaEncryption
            RSA Public Key: (1024 bit)
                Modulus (1024 bit):
                    00:c4:ad:dd:e2:e4:bd:7f:70:ca:82:c3:a3:b4:09:
                    d4:be:e1:3e:79:40:a5:ba:da:87:77:86:31:88:74:
                    2e:5a:b3:49:1d:6f:fa:e8:5a:67:20:ef:69:04:cf:
                    0f:f8:47:f3:66:08:45:b3:6a:3f:64:db:d8:b0:e0:
                    20:56:44:ec:31:9e:8a:87:d6:72:93:3b:66:21:15:
                    2e:6e:5d:0b:b6:34:1d:76:8f:77:7e:1a:5e:73:6d:
                    6f:83:09:bb:5e:8e:31:fa:2c:8c:47:54:27:12:38:
                    13:9f:32:20:6e:ea:db:1e:f5:0e:6a:2c:c6:f0:9c:
                    28:9a:52:2f:92:68:20:96:0f
                Exponent: 65537 (0x10001)
    Signature Algorithm: md5WithRSAEncryption
        94:6a:6c:7b:b6:c9:e1:a0:3c:6a:12:35:47:45:8f:70:e4:0f:
        6d:0d:c4:88:1f:6f:38:12:20:28:ec:ef:64:e5:4e:95:88:4f:
        72:1f:22:16:af:f8:90:f2:31:a5:8e:36:72:e7:d1:15:1c:61:
        cf:83:b7:08:47:1f:59:97:ad:47:ca:f8:14:ef:94:7b:ab:73:
        a3:17:4c:0e:8c:60:7d:de:cd:47:f5:c7:04:d5:a2:26:e2:99:
        80:60:53:8c:f9:98:21:c9:0f:35:ae:87:8c:bf:f8:d2:33:79:
        9c:f6:af:65:e7:8a:cb:58:e9:8c:c9:73:c2:fc:2a:ed:f0:57:
        4d:7c
-----BEGIN CERTIFICATE-----
MIICvDCCAiUCCQCbJ9fo0boH/DANBgkqhkiG9w0BAQQFADCBlTELMAkGA1UEBhMC
REUxETAPBgNVBAgTCFNhYXJsYW5kMRAwDgYDVQQKEwdNUEktU1dTMSIwIAYDVQQL
ExlEaXN0cmlidXRlZCBTeXN0ZW1zIEdyb3VwMRowGAYDVQQDExFBbmRyZWFzIEhh
ZWJlcmxlbjEhMB8GCSqGSIb3DQEJARYSZGVtb2NhQG9jdGFyaW5lLmRlMB4XDTE1
MDQyMDIwNDY1OFoXDTE2MDQxOTIwNDY1OFowga4xCzAJBgNVBAYTAkRFMREwDwYD
VQQIEwhTYWFybGFuZDEQMA4GA1UEChMHTVBJLVNXUzEiMCAGA1UECxMZRGlzdHJp
YnV0ZWQgU3lzdGVtcyBHcm91cDExMC8GA1UEAxMoYjVhOGZlYjRlM2QyODMzNzlh
NWM0YzZmMDZjOTBmY2I0NjQ0NGY5MjEjMCEGCSqGSIb3DQEJARYUbm9kZTAwMzZA
b2N0YXJpbmUuZGUwgZ8wDQYJKoZIhvcNAQEBBQADgY0AMIGJAoGBAMSt3eLkvX9w
yoLDo7QJ1L7hPnlApbrah3eGMYh0LlqzSR1v+uhaZyDvaQTPD/hH82YIRbNqP2Tb
2LDgIFZE7DGeiofWcpM7ZiEVLm5dC7Y0HXaPd34aXnNtb4MJu16OMfosjEdUJxI4
E58yIG7q2x71DmosxvCcKJpSL5JoIJYPAgMBAAEwDQYJKoZIhvcNAQEEBQADgYEA
lGpse7bJ4aA8ahI1R0WPcOQPbQ3EiB9vOBIgKOzvZOVOlYhPch8iFq/4kPIxpY42
cufRFRxhz4O3CEcfWZetR8r4FO+Ue6tzoxdMDoxgfd7NR/XHBNWiJuKZgGBTjPmY
IckPNa6HjL/40jN5nPavZeeKy1jpjMlzwvwq7fBXTXw=
-----END CERTIFICATE-----
