Certificate:
    Data:
        Version: 1 (0x0)
        Serial Number:
            9b:27:d7:e8:d1:ba:09:ab
        Signature Algorithm: md5WithRSAEncryption
        Issuer: C=DE, ST=Saarland, O=MPI-SWS, OU=Distributed Systems Group, CN=Andreas Haeberlen/emailAddress=democa@octarine.de
        Validity
            Not Before: Apr 20 20:47:17 2015 GMT
            Not After : Apr 19 20:47:17 2016 GMT
        Subject: C=DE, ST=Saarland, O=MPI-SWS, OU=Distributed Systems Group, CN=58a3f09e9865295f1f5a76f5657fd5d3d86d8fb2/emailAddress=node0467@octarine.de
        Subject Public Key Info:
            Public Key Algorithm: rsaEncryption
            RSA Public Key: (1024 bit)
                Modulus (1024 bit):
                    00:a5:ed:0e:3b:92:32:c0:5f:b2:25:8d:0c:8f:91:
                    22:b6:67:d2:24:96:12:0e:0c:a3:73:6f:61:29:2c:
                    60:7f:62:e4:f6:6b:17:a3:eb:02:a2:33:f9:99:78:
                    2d:35:51:2e:56:ce:75:08:a9:77:d1:94:5d:bb:6a:
                    74:e6:c5:7f:8c:dd:91:a3:eb:f2:65:f7:05:fb:91:
                    48:df:f3:20:7f:65:fc:eb:4b:f9:32:30:95:48:e0:
                    35:9e:55:5e:f4:fc:43:00:c7:63:d8:6e:e5:f7:e0:
                    55:42:13:49:52:9f:99:c2:75:55:3d:42:1c:69:4e:
                    66:b3:f9:61:76:22:c1:c5:47
                Exponent: 65537 (0x10001)
    Signature Algorithm: md5WithRSAEncryption
        46:eb:91:06:95:22:19:d8:ae:91:78:8e:4e:36:28:1a:84:0b:
        92:91:1f:ec:3c:9c:48:22:d4:73:7f:33:a1:73:54:dd:97:84:
        b7:9a:79:23:52:92:68:ac:e4:45:71:66:d2:91:ce:94:f1:5f:
        4f:22:bf:0f:2f:bc:83:b8:7e:76:03:19:e4:26:47:b0:69:d6:
        1c:67:2f:7b:50:e7:c0:8c:c1:cf:45:b3:76:72:f0:45:27:47:
        d8:aa:bc:0e:8b:71:bc:45:80:53:57:99:94:2a:18:7d:ec:d9:
        df:e8:9e:5d:cb:cb:3f:f3:02:1f:d3:92:9c:19:57:61:15:a1:
        a0:db
-----BEGIN CERTIFICATE-----
MIICvDCCAiUCCQCbJ9fo0boJqzANBgkqhkiG9w0BAQQFADCBlTELMAkGA1UEBhMC
REUxETAPBgNVBAgTCFNhYXJsYW5kMRAwDgYDVQQKEwdNUEktU1dTMSIwIAYDVQQL
ExlEaXN0cmlidXRlZCBTeXN0ZW1zIEdyb3VwMRowGAYDVQQDExFBbmRyZWFzIEhh
ZWJlcmxlbjEhMB8GCSqGSIb3DQEJARYSZGVtb2NhQG9jdGFyaW5lLmRlMB4XDTE1
MDQyMDIwNDcxN1oXDTE2MDQxOTIwNDcxN1owga4xCzAJBgNVBAYTAkRFMREwDwYD
VQQIEwhTYWFybGFuZDEQMA4GA1UEChMHTVBJLVNXUzEiMCAGA1UECxMZRGlzdHJp
YnV0ZWQgU3lzdGVtcyBHcm91cDExMC8GA1UEAxMoNThhM2YwOWU5ODY1Mjk1ZjFm
NWE3NmY1NjU3ZmQ1ZDNkODZkOGZiMjEjMCEGCSqGSIb3DQEJARYUbm9kZTA0NjdA
b2N0YXJpbmUuZGUwgZ8wDQYJKoZIhvcNAQEBBQADgY0AMIGJAoGBAKXtDjuSMsBf
siWNDI+RIrZn0iSWEg4Mo3NvYSksYH9i5PZrF6PrAqIz+Zl4LTVRLlbOdQipd9GU
XbtqdObFf4zdkaPr8mX3BfuRSN/zIH9l/OtL+TIwlUjgNZ5VXvT8QwDHY9hu5ffg
VUITSVKfmcJ1VT1CHGlOZrP5YXYiwcVHAgMBAAEwDQYJKoZIhvcNAQEEBQADgYEA
RuuRBpUiGdiukXiOTjYoGoQLkpEf7DycSCLUc38zoXNU3ZeEt5p5I1KSaKzkRXFm
0pHOlPFfTyK/Dy+8g7h+dgMZ5CZHsGnWHGcve1DnwIzBz0WzdnLwRSdH2Kq8Dotx
vEWAU1eZlCoYfezZ3+ieXcvLP/MCH9OSnBlXYRWhoNs=
-----END CERTIFICATE-----
