Certificate:
    Data:
        Version: 1 (0x0)
        Serial Number:
            9b:27:d7:e8:d1:ba:0a:69
        Signature Algorithm: md5WithRSAEncryption
        Issuer: C=DE, ST=Saarland, O=MPI-SWS, OU=Distributed Systems Group, CN=Andreas Haeberlen/emailAddress=democa@octarine.de
        Validity
            Not Before: Apr 20 20:47:26 2015 GMT
            Not After : Apr 19 20:47:26 2016 GMT
        Subject: C=DE, ST=Saarland, O=MPI-SWS, OU=Distributed Systems Group, CN=9e02b77b317e979fc3fe0c1f92d4cd75b777ff22/emailAddress=node0657@octarine.de
        Subject Public Key Info:
            Public Key Algorithm: rsaEncryption
            RSA Public Key: (1024 bit)
                Modulus (1024 bit):
                    00:cf:b8:73:6a:67:ae:b4:08:ad:f1:17:1b:ab:c6:
                    84:9b:07:14:23:1c:80:9f:7f:d9:a9:6d:e3:f4:99:
                    6e:20:cb:11:10:3b:90:1d:72:ad:87:d4:4c:a7:cb:
                    24:bc:a0:e0:95:12:75:d9:97:bb:fc:2c:0f:ab:50:
                    09:5b:38:a0:df:b5:cd:d0:d5:16:fe:96:9b:ae:82:
                    2a:c8:d5:4e:ed:13:94:aa:f0:46:e4:09:16:c0:91:
                    d0:3b:f1:8a:60:24:1c:1a:c3:99:ce:b0:48:58:23:
                    90:0c:7c:db:60:39:cd:63:11:18:12:c8:60:5b:a2:
                    b1:67:0b:ea:33:4e:6b:c8:9f
                Exponent: 65537 (0x10001)
    Signature Algorithm: md5WithRSAEncryption
        b6:75:7f:46:16:11:a9:a7:a6:91:1b:d0:e8:a2:e4:a0:be:2c:
        1e:6a:02:2d:fe:01:29:b3:63:a2:7d:77:28:e2:81:dc:ac:ee:
        f3:f6:8c:0e:37:30:20:7b:f7:23:91:b9:eb:bd:75:af:4c:ca:
        03:c9:60:55:57:9d:35:5d:43:91:cd:86:cc:98:fd:8f:75:66:
        37:53:ef:8b:30:7d:db:c7:f3:7c:69:83:bd:bf:f3:35:19:88:
        60:e0:4a:49:ab:51:46:26:41:f9:28:89:30:d0:40:c8:c9:fd:
        96:91:23:31:20:04:30:59:74:7f:a3:7e:e9:5f:7a:ee:49:98:
        e9:fc
-----BEGIN CERTIFICATE-----
MIICvDCCAiUCCQCbJ9fo0boKaTANBgkqhkiG9w0BAQQFADCBlTELMAkGA1UEBhMC
REUxETAPBgNVBAgTCFNhYXJsYW5kMRAwDgYDVQQKEwdNUEktU1dTMSIwIAYDVQQL
ExlEaXN0cmlidXRlZCBTeXN0ZW1zIEdyb3VwMRowGAYDVQQDExFBbmRyZWFzIEhh
ZWJlcmxlbjEhMB8GCSqGSIb3DQEJARYSZGVtb2NhQG9jdGFyaW5lLmRlMB4XDTE1
MDQyMDIwNDcyNloXDTE2MDQxOTIwNDcyNlowga4xCzAJBgNVBAYTAkRFMREwDwYD
VQQIEwhTYWFybGFuZDEQMA4GA1UEChMHTVBJLVNXUzEiMCAGA1UECxMZRGlzdHJp
YnV0ZWQgU3lzdGVtcyBHcm91cDExMC8GA1UEAxMoOWUwMmI3N2IzMTdlOTc5ZmMz
ZmUwYzFmOTJkNGNkNzViNzc3ZmYyMjEjMCEGCSqGSIb3DQEJARYUbm9kZTA2NTdA
b2N0YXJpbmUuZGUwgZ8wDQYJKoZIhvcNAQEBBQADgY0AMIGJAoGBAM+4c2pnrrQI
rfEXG6vGhJsHFCMcgJ9/2alt4/SZbiDLERA7kB1yrYfUTKfLJLyg4JUSddmXu/ws
D6tQCVs4oN+1zdDVFv6Wm66CKsjVTu0TlKrwRuQJFsCR0DvximAkHBrDmc6wSFgj
kAx822A5zWMRGBLIYFuisWcL6jNOa8ifAgMBAAEwDQYJKoZIhvcNAQEEBQADgYEA
tnV/RhYRqaemkRvQ6KLkoL4sHmoCLf4BKbNjon13KOKB3Kzu8/aMDjcwIHv3I5G5
6711r0zKA8lgVVedNV1Dkc2GzJj9j3VmN1PvizB928fzfGmDvb/zNRmIYOBKSatR
RiZB+SiJMNBAyMn9lpEjMSAEMFl0f6N+6V967kmY6fw=
-----END CERTIFICATE-----
