Certificate:
    Data:
        Version: 1 (0x0)
        Serial Number:
            9b:27:d7:e8:d1:ba:0a:f2
        Signature Algorithm: md5WithRSAEncryption
        Issuer: C=DE, ST=Saarland, O=MPI-SWS, OU=Distributed Systems Group, CN=Andreas Haeberlen/emailAddress=democa@octarine.de
        Validity
            Not Before: Apr 20 20:47:32 2015 GMT
            Not After : Apr 19 20:47:32 2016 GMT
        Subject: C=DE, ST=Saarland, O=MPI-SWS, OU=Distributed Systems Group, CN=742009ce41f24e0d8130cfea6a5d72df6f079c5d/emailAddress=node0794@octarine.de
        Subject Public Key Info:
            Public Key Algorithm: rsaEncryption
            RSA Public Key: (1024 bit)
                Modulus (1024 bit):
                    00:97:82:26:41:7d:3b:b3:73:ba:20:4a:38:1d:ee:
                    af:7a:9f:b7:92:37:ee:38:a3:d3:ac:6e:96:4a:a1:
                    91:58:0f:52:78:16:15:04:01:ef:0b:e0:d4:3e:1f:
                    2d:73:e7:ea:7f:4e:69:ab:74:00:7f:c6:91:f5:67:
                    2f:f9:02:89:3d:1c:14:b1:7d:60:cf:d8:86:fb:ee:
                    2d:d6:69:65:c5:e1:a0:e4:81:f1:74:e2:43:a3:05:
                    2f:48:71:73:a0:0e:b6:ad:2d:54:e5:6d:ae:e5:f0:
                    e7:4d:22:f9:8a:0b:11:d7:9e:7d:9a:78:ad:b7:92:
                    36:a8:ee:0e:9c:83:47:b1:29
                Exponent: 65537 (0x10001)
    Signature Algorithm: md5WithRSAEncryption
        70:88:2c:59:d0:06:ac:08:7b:06:2f:f7:e5:66:2f:fc:05:62:
        8a:c8:2c:83:fc:a1:14:1b:ae:68:7a:e8:fd:e0:28:8f:a8:38:
        43:20:4d:d3:3a:50:99:c7:6f:b7:77:29:73:9d:2f:fd:c5:b3:
        64:84:9a:7c:60:29:ce:e2:0f:62:29:ab:84:64:98:01:f8:ec:
        3a:31:55:e7:10:aa:c2:e4:c6:c1:35:de:e4:cd:27:80:81:c7:
        fa:ca:8f:4d:c4:8d:9f:a8:9d:f1:eb:65:6e:ef:13:78:9c:b0:
        3f:36:96:84:8a:5c:89:5e:88:64:a2:01:61:79:71:61:01:0f:
        3c:48
-----BEGIN CERTIFICATE-----
MIICvDCCAiUCCQCbJ9fo0boK8jANBgkqhkiG9w0BAQQFADCBlTELMAkGA1UEBhMC
REUxETAPBgNVBAgTCFNhYXJsYW5kMRAwDgYDVQQKEwdNUEktU1dTMSIwIAYDVQQL
ExlEaXN0cmlidXRlZCBTeXN0ZW1zIEdyb3VwMRowGAYDVQQDExFBbmRyZWFzIEhh
ZWJlcmxlbjEhMB8GCSqGSIb3DQEJARYSZGVtb2NhQG9jdGFyaW5lLmRlMB4XDTE1
MDQyMDIwNDczMloXDTE2MDQxOTIwNDczMlowga4xCzAJBgNVBAYTAkRFMREwDwYD
VQQIEwhTYWFybGFuZDEQMA4GA1UEChMHTVBJLVNXUzEiMCAGA1UECxMZRGlzdHJp
YnV0ZWQgU3lzdGVtcyBHcm91cDExMC8GA1UEAxMoNzQyMDA5Y2U0MWYyNGUwZDgx
MzBjZmVhNmE1ZDcyZGY2ZjA3OWM1ZDEjMCEGCSqGSIb3DQEJARYUbm9kZTA3OTRA
b2N0YXJpbmUuZGUwgZ8wDQYJKoZIhvcNAQEBBQADgY0AMIGJAoGBAJeCJkF9O7Nz
uiBKOB3ur3qft5I37jij06xulkqhkVgPUngWFQQB7wvg1D4fLXPn6n9Oaat0AH/G
kfVnL/kCiT0cFLF9YM/YhvvuLdZpZcXhoOSB8XTiQ6MFL0hxc6AOtq0tVOVtruXw
500i+YoLEdeefZp4rbeSNqjuDpyDR7EpAgMBAAEwDQYJKoZIhvcNAQEEBQADgYEA
cIgsWdAGrAh7Bi/35WYv/AViisgsg/yhFBuuaHro/eAoj6g4QyBN0zpQmcdvt3cp
c50v/cWzZISafGApzuIPYimrhGSYAfjsOjFV5xCqwuTGwTXe5M0ngIHH+sqPTcSN
n6id8etlbu8TeJywPzaWhIpciV6IZKIBYXlxYQEPPEg=
-----END CERTIFICATE-----
