Certificate:
    Data:
        Version: 1 (0x0)
        Serial Number:
            9b:27:d7:e8:d1:ba:08:aa
        Signature Algorithm: md5WithRSAEncryption
        Issuer: C=DE, ST=Saarland, O=MPI-SWS, OU=Distributed Systems Group, CN=Andreas Haeberlen/emailAddress=democa@octarine.de
        Validity
            Not Before: Apr 20 20:47:06 2015 GMT
            Not After : Apr 19 20:47:06 2016 GMT
        Subject: C=DE, ST=Saarland, O=MPI-SWS, OU=Distributed Systems Group, CN=99f81b93c48e77a8a4f8aed247b3538ec76e201f/emailAddress=node0210@octarine.de
        Subject Public Key Info:
            Public Key Algorithm: rsaEncryption
            RSA Public Key: (1024 bit)
                Modulus (1024 bit):
                    00:ca:22:ef:45:e6:6e:16:b8:f8:d1:86:69:48:3d:
                    03:82:a2:94:00:06:84:6b:1a:e5:3a:c7:25:62:ed:
                    1b:42:c3:84:56:62:61:d9:38:09:ee:1c:aa:24:57:
                    7f:25:37:12:ab:ac:50:f7:05:17:4a:5f:5f:fc:67:
                    f0:e0:b7:d2:5d:e1:63:ba:c9:23:7f:a0:54:a5:8b:
                    34:c9:89:e5:8a:17:52:f0:0b:42:8b:09:90:d1:79:
                    8c:0b:5a:36:89:9b:ac:cf:38:5c:c1:93:52:c5:cb:
                    64:ed:1f:e4:38:29:b3:6f:5a:48:df:e9:2c:2b:5b:
                    97:4a:26:8e:aa:a3:7f:f3:c7
                Exponent: 65537 (0x10001)
    Signature Algorithm: md5WithRSAEncryption
        a0:41:cf:0c:4d:91:09:de:d3:cc:ac:06:7e:07:bc:be:b0:6f:
        19:77:5f:86:04:4e:be:b2:5d:d0:21:55:55:45:5a:1c:7f:ed:
        c0:dd:e6:12:a9:c9:aa:b2:26:c5:0f:cd:41:ab:d4:d3:67:4a:
        1d:3e:ec:72:58:98:ef:71:e3:75:8c:9a:43:a2:3c:18:1b:29:
        87:23:dc:c4:37:ce:31:5f:b5:9c:65:25:1a:48:7e:2a:7b:b6:
        47:4b:d7:d3:de:19:24:41:db:3d:9f:1c:5f:bf:b2:79:b5:5a:
        04:d0:31:92:c5:9d:70:a2:eb:b9:d9:ee:af:57:11:21:44:15:
        47:05
-----BEGIN CERTIFICATE-----
MIICvDCCAiUCCQCbJ9fo0boIqjANBgkqhkiG9w0BAQQFADCBlTELMAkGA1UEBhMC
REUxETAPBgNVBAgTCFNhYXJsYW5kMRAwDgYDVQQKEwdNUEktU1dTMSIwIAYDVQQL
ExlEaXN0cmlidXRlZCBTeXN0ZW1zIEdyb3VwMRowGAYDVQQDExFBbmRyZWFzIEhh
ZWJlcmxlbjEhMB8GCSqGSIb3DQEJARYSZGVtb2NhQG9jdGFyaW5lLmRlMB4XDTE1
MDQyMDIwNDcwNloXDTE2MDQxOTIwNDcwNlowga4xCzAJBgNVBAYTAkRFMREwDwYD
VQQIEwhTYWFybGFuZDEQMA4GA1UEChMHTVBJLVNXUzEiMCAGA1UECxMZRGlzdHJp
YnV0ZWQgU3lzdGVtcyBHcm91cDExMC8GA1UEAxMoOTlmODFiOTNjNDhlNzdhOGE0
ZjhhZWQyNDdiMzUzOGVjNzZlMjAxZjEjMCEGCSqGSIb3DQEJARYUbm9kZTAyMTBA
b2N0YXJpbmUuZGUwgZ8wDQYJKoZIhvcNAQEBBQADgY0AMIGJAoGBAMoi70Xmbha4
+NGGaUg9A4KilAAGhGsa5TrHJWLtG0LDhFZiYdk4Ce4cqiRXfyU3EqusUPcFF0pf
X/xn8OC30l3hY7rJI3+gVKWLNMmJ5YoXUvALQosJkNF5jAtaNombrM84XMGTUsXL
ZO0f5Dgps29aSN/pLCtbl0omjqqjf/PHAgMBAAEwDQYJKoZIhvcNAQEEBQADgYEA
oEHPDE2RCd7TzKwGfge8vrBvGXdfhgROvrJd0CFVVUVaHH/twN3mEqnJqrImxQ/N
QavU02dKHT7scliY73HjdYyaQ6I8GBsphyPcxDfOMV+1nGUlGkh+Knu2R0vX094Z
JEHbPZ8cX7+yebVaBNAxksWdcKLrudnur1cRIUQVRwU=
-----END CERTIFICATE-----
