Certificate:
    Data:
        Version: 1 (0x0)
        Serial Number:
            9b:27:d7:e8:d1:ba:09:34
        Signature Algorithm: md5WithRSAEncryption
        Issuer: C=DE, ST=Saarland, O=MPI-SWS, OU=Distributed Systems Group, CN=Andreas Haeberlen/emailAddress=democa@octarine.de
        Validity
            Not Before: Apr 20 20:47:12 2015 GMT
            Not After : Apr 19 20:47:12 2016 GMT
        Subject: C=DE, ST=Saarland, O=MPI-SWS, OU=Distributed Systems Group, CN=5c04333cab5836b82048dfbe3b4ca32ff2435700/emailAddress=node0348@octarine.de
        Subject Public Key Info:
            Public Key Algorithm: rsaEncryption
            RSA Public Key: (1024 bit)
                Modulus (1024 bit):
                    00:ba:52:b7:07:c0:ea:d9:a2:bc:b5:a8:d0:39:5e:
                    3c:5b:6b:ee:d1:15:91:ae:a4:a0:3e:af:4c:d6:38:
                    4e:e8:c1:ed:12:c5:cc:0e:c0:1b:0e:10:8c:84:1c:
                    f2:69:5a:77:f2:2e:b4:bd:3f:83:00:8c:19:8d:3d:
                    49:f1:9c:04:2a:cc:08:0a:b5:cb:99:06:b3:da:6a:
                    4a:e4:97:43:01:3c:80:38:ef:f3:18:12:8d:62:25:
                    c4:fc:51:10:3c:f6:ef:91:c6:4b:c2:ec:d6:cd:a1:
                    07:46:a1:61:ad:7b:b7:6e:77:72:83:7d:5e:11:85:
                    3a:2a:99:8f:2a:0d:8e:f2:d3
                Exponent: 65537 (0x10001)
    Signature Algorithm: md5WithRSAEncryption
        a4:a6:2c:3f:8e:76:65:de:f3:4e:3d:ef:71:2c:84:41:ce:32:
        4d:a1:0f:86:16:30:39:d4:b3:d5:53:ab:7b:74:9e:b2:11:c2:
        97:93:cf:85:db:e4:c6:f8:b6:6c:e6:b5:6d:f1:2e:34:b0:d2:
        b9:9f:92:e9:1b:e6:5a:e3:22:49:4b:fe:2e:bc:3c:43:62:0e:
        cc:12:33:9a:98:57:c4:87:57:8d:5d:e6:42:59:09:ec:10:e1:
        28:aa:29:e6:a7:71:07:51:ce:33:0b:1b:5a:1c:9b:57:10:c2:
        ee:ca:7a:56:83:c0:ff:9b:a1:10:61:5d:d4:9f:43:0c:c4:cd:
        c4:f8
-----BEGIN CERTIFICATE-----
MIICvDCCAiUCCQCbJ9fo0boJNDANBgkqhkiG9w0BAQQFADCBlTELMAkGA1UEBhMC
REUxETAPBgNVBAgTCFNhYXJsYW5kMRAwDgYDVQQKEwdNUEktU1dTMSIwIAYDVQQL
ExlEaXN0cmlidXRlZCBTeXN0ZW1zIEdyb3VwMRowGAYDVQQDExFBbmRyZWFzIEhh
ZWJlcmxlbjEhMB8GCSqGSIb3DQEJARYSZGVtb2NhQG9jdGFyaW5lLmRlMB4XDTE1
MDQyMDIwNDcxMloXDTE2MDQxOTIwNDcxMlowga4xCzAJBgNVBAYTAkRFMREwDwYD
VQQIEwhTYWFybGFuZDEQMA4GA1UEChMHTVBJLVNXUzEiMCAGA1UECxMZRGlzdHJp
YnV0ZWQgU3lzdGVtcyBHcm91cDExMC8GA1UEAxMoNWMwNDMzM2NhYjU4MzZiODIw
NDhkZmJlM2I0Y2EzMmZmMjQzNTcwMDEjMCEGCSqGSIb3DQEJARYUbm9kZTAzNDhA
b2N0YXJpbmUuZGUwgZ8wDQYJKoZIhvcNAQEBBQADgY0AMIGJAoGBALpStwfA6tmi
vLWo0DlePFtr7tEVka6koD6vTNY4TujB7RLFzA7AGw4QjIQc8mlad/IutL0/gwCM
GY09SfGcBCrMCAq1y5kGs9pqSuSXQwE8gDjv8xgSjWIlxPxREDz275HGS8Ls1s2h
B0ahYa17t253coN9XhGFOiqZjyoNjvLTAgMBAAEwDQYJKoZIhvcNAQEEBQADgYEA
pKYsP452Zd7zTj3vcSyEQc4yTaEPhhYwOdSz1VOre3SeshHCl5PPhdvkxvi2bOa1
bfEuNLDSuZ+S6RvmWuMiSUv+Lrw8Q2IOzBIzmphXxIdXjV3mQlkJ7BDhKKop5qdx
B1HOMwsbWhybVxDC7sp6VoPA/5uhEGFd1J9DDMTNxPg=
-----END CERTIFICATE-----
