Certificate:
    Data:
        Version: 1 (0x0)
        Serial Number:
            9b:27:d7:e8:d1:ba:0b:1a
        Signature Algorithm: md5WithRSAEncryption
        Issuer: C=DE, ST=Saarland, O=MPI-SWS, OU=Distributed Systems Group, CN=Andreas Haeberlen/emailAddress=democa@octarine.de
        Validity
            Not Before: Apr 20 20:47:34 2015 GMT
            Not After : Apr 19 20:47:34 2016 GMT
        Subject: C=DE, ST=Saarland, O=MPI-SWS, OU=Distributed Systems Group, CN=64ea242283810fb28d93cd03797b9b6f04a29c52/emailAddress=node0834@octarine.de
        Subject Public Key Info:
            Public Key Algorithm: rsaEncryption
            RSA Public Key: (1024 bit)
                Modulus (1024 bit):
                    00:b9:e4:e0:61:b2:87:72:f8:11:d0:49:f9:cb:5d:
                    8d:50:2c:93:30:66:59:41:74:8d:72:d6:2a:be:24:
                    48:42:b8:06:9b:ea:f8:8a:63:32:c9:5a:40:30:88:
                    fb:ca:93:cf:05:5e:10:92:c4:18:8c:a6:01:c9:21:
                    ad:80:45:7d:e3:ae:41:8e:0d:e2:1c:22:ae:10:4e:
                    3b:d6:c3:02:f2:e5:0e:f3:f7:8d:4f:eb:75:49:dd:
                    3d:a6:11:21:b5:1f:18:15:a6:d1:b3:fd:5e:4b:9d:
                    e6:9b:31:6a:3e:b2:26:34:c0:90:6e:45:0e:11:c9:
                    dd:cb:11:b9:05:84:5d:a5:13
                Exponent: 65537 (0x10001)
    Signature Algorithm: md5WithRSAEncryption
        ab:28:37:74:bf:dc:74:9f:6c:58:76:ef:15:4e:44:e3:47:4f:
        a3:23:c0:47:58:61:b0:19:0a:6f:66:ee:c0:df:68:95:08:97:
        5f:95:01:76:6a:af:0b:1c:5b:88:97:87:82:71:f6:97:eb:4f:
        9f:29:e3:8f:65:4b:0f:6a:f8:8c:9e:e5:4a:47:86:ac:45:95:
        69:68:37:47:67:36:4c:48:71:9e:27:2b:66:ed:59:1a:17:31:
        dc:94:c2:c5:a2:53:ee:69:cb:ee:cc:82:de:77:c2:c6:f6:6c:
        21:38:ec:e5:e4:07:fb:34:fa:9b:28:22:9f:f8:09:d3:96:bd:
        ea:0c
-----BEGIN CERTIFICATE-----
MIICvDCCAiUCCQCbJ9fo0boLGjANBgkqhkiG9w0BAQQFADCBlTELMAkGA1UEBhMC
REUxETAPBgNVBAgTCFNhYXJsYW5kMRAwDgYDVQQKEwdNUEktU1dTMSIwIAYDVQQL
ExlEaXN0cmlidXRlZCBTeXN0ZW1zIEdyb3VwMRowGAYDVQQDExFBbmRyZWFzIEhh
ZWJlcmxlbjEhMB8GCSqGSIb3DQEJARYSZGVtb2NhQG9jdGFyaW5lLmRlMB4XDTE1
MDQyMDIwNDczNFoXDTE2MDQxOTIwNDczNFowga4xCzAJBgNVBAYTAkRFMREwDwYD
VQQIEwhTYWFybGFuZDEQMA4GA1UEChMHTVBJLVNXUzEiMCAGA1UECxMZRGlzdHJp
YnV0ZWQgU3lzdGVtcyBHcm91cDExMC8GA1UEAxMoNjRlYTI0MjI4MzgxMGZiMjhk
OTNjZDAzNzk3YjliNmYwNGEyOWM1MjEjMCEGCSqGSIb3DQEJARYUbm9kZTA4MzRA
b2N0YXJpbmUuZGUwgZ8wDQYJKoZIhvcNAQEBBQADgY0AMIGJAoGBALnk4GGyh3L4
EdBJ+ctdjVAskzBmWUF0jXLWKr4kSEK4Bpvq+IpjMslaQDCI+8qTzwVeEJLEGIym
AckhrYBFfeOuQY4N4hwirhBOO9bDAvLlDvP3jU/rdUndPaYRIbUfGBWm0bP9Xkud
5psxaj6yJjTAkG5FDhHJ3csRuQWEXaUTAgMBAAEwDQYJKoZIhvcNAQEEBQADgYEA
qyg3dL/cdJ9sWHbvFU5E40dPoyPAR1hhsBkKb2buwN9olQiXX5UBdmqvCxxbiJeH
gnH2l+tPnynjj2VLD2r4jJ7lSkeGrEWVaWg3R2c2TEhxnicrZu1ZGhcx3JTCxaJT
7mnL7syC3nfCxvZsITjs5eQH+zT6mygin/gJ05a96gw=
-----END CERTIFICATE-----
