Certificate:
    Data:
        Version: 1 (0x0)
        Serial Number:
            9b:27:d7:e8:d1:ba:08:4c
        Signature Algorithm: md5WithRSAEncryption
        Issuer: C=DE, ST=Saarland, O=MPI-SWS, OU=Distributed Systems Group, CN=Andreas Haeberlen/emailAddress=democa@octarine.de
        Validity
            Not Before: Apr 20 20:47:02 2015 GMT
            Not After : Apr 19 20:47:02 2016 GMT
        Subject: C=DE, ST=Saarland, O=MPI-SWS, OU=Distributed Systems Group, CN=fed851034dfae10c501d4ddae2229ea9c711825d/emailAddress=node0116@octarine.de
        Subject Public Key Info:
            Public Key Algorithm: rsaEncryption
            RSA Public Key: (1024 bit)
                Modulus (1024 bit):
                    00:90:97:ed:c7:2b:2c:8f:3d:6f:b1:24:34:de:73:
                    1c:2f:ce:01:22:fa:8d:59:42:ff:e9:a1:4a:06:de:
                    64:6c:b0:38:eb:44:cc:d4:d5:33:51:8a:54:e2:27:
                    e6:03:ba:af:72:11:ad:a5:4f:58:fe:72:1c:d8:05:
                    63:e1:cc:68:59:e9:79:94:b3:53:51:ef:cd:8b:0a:
                    21:56:61:e2:16:df:12:8f:c2:ec:8d:14:62:30:66:
                    f9:98:d4:55:2d:f1:a9:ac:e4:50:ce:20:10:03:60:
                    2f:f9:89:0a:70:48:76:bb:6a:f2:d1:ee:90:0a:b6:
                    f4:e9:d1:90:d4:21:37:13:6b
                Exponent: 65537 (0x10001)
    Signature Algorithm: md5WithRSAEncryption
        41:89:09:f8:c2:a3:ee:22:15:1c:38:63:c4:70:21:4b:1e:79:
        67:7f:a0:52:d9:fc:87:f1:40:77:23:26:c5:3e:c1:c0:f2:26:
        e8:a7:07:70:ad:75:2b:2c:a5:41:c3:e6:47:c9:04:ce:6d:98:
        6d:68:fb:60:f4:c9:d7:b9:9c:40:57:41:2a:2b:e3:d9:c6:51:
        16:f5:39:43:70:54:65:8b:56:74:89:77:bc:94:1d:67:33:24:
        29:b8:7e:56:e9:50:b9:db:88:8c:00:b4:a4:83:ad:41:e9:6b:
        b8:15:d3:01:6b:ea:72:fc:2d:d6:9a:98:4c:fc:0a:6d:c4:b8:
        7e:1f
-----BEGIN CERTIFICATE-----
MIICvDCCAiUCCQCbJ9fo0boITDANBgkqhkiG9w0BAQQFADCBlTELMAkGA1UEBhMC
REUxETAPBgNVBAgTCFNhYXJsYW5kMRAwDgYDVQQKEwdNUEktU1dTMSIwIAYDVQQL
ExlEaXN0cmlidXRlZCBTeXN0ZW1zIEdyb3VwMRowGAYDVQQDExFBbmRyZWFzIEhh
ZWJlcmxlbjEhMB8GCSqGSIb3DQEJARYSZGVtb2NhQG9jdGFyaW5lLmRlMB4XDTE1
MDQyMDIwNDcwMloXDTE2MDQxOTIwNDcwMlowga4xCzAJBgNVBAYTAkRFMREwDwYD
VQQIEwhTYWFybGFuZDEQMA4GA1UEChMHTVBJLVNXUzEiMCAGA1UECxMZRGlzdHJp
YnV0ZWQgU3lzdGVtcyBHcm91cDExMC8GA1UEAxMoZmVkODUxMDM0ZGZhZTEwYzUw
MWQ0ZGRhZTIyMjllYTljNzExODI1ZDEjMCEGCSqGSIb3DQEJARYUbm9kZTAxMTZA
b2N0YXJpbmUuZGUwgZ8wDQYJKoZIhvcNAQEBBQADgY0AMIGJAoGBAJCX7ccrLI89
b7EkNN5zHC/OASL6jVlC/+mhSgbeZGywOOtEzNTVM1GKVOIn5gO6r3IRraVPWP5y
HNgFY+HMaFnpeZSzU1HvzYsKIVZh4hbfEo/C7I0UYjBm+ZjUVS3xqazkUM4gEANg
L/mJCnBIdrtq8tHukAq29OnRkNQhNxNrAgMBAAEwDQYJKoZIhvcNAQEEBQADgYEA
QYkJ+MKj7iIVHDhjxHAhSx55Z3+gUtn8h/FAdyMmxT7BwPIm6KcHcK11KyylQcPm
R8kEzm2YbWj7YPTJ17mcQFdBKivj2cZRFvU5Q3BUZYtWdIl3vJQdZzMkKbh+VulQ
uduIjAC0pIOtQelruBXTAWvqcvwt1pqYTPwKbcS4fh8=
-----END CERTIFICATE-----
