Certificate:
    Data:
        Version: 1 (0x0)
        Serial Number:
            9b:27:d7:e8:d1:ba:0a:b4
        Signature Algorithm: md5WithRSAEncryption
        Issuer: C=DE, ST=Saarland, O=MPI-SWS, OU=Distributed Systems Group, CN=Andreas Haeberlen/emailAddress=democa@octarine.de
        Validity
            Not Before: Apr 20 20:47:29 2015 GMT
            Not After : Apr 19 20:47:29 2016 GMT
        Subject: C=DE, ST=Saarland, O=MPI-SWS, OU=Distributed Systems Group, CN=a9169ee0d1982bc49a82d5711c3c369e0a5a83a5/emailAddress=node0732@octarine.de
        Subject Public Key Info:
            Public Key Algorithm: rsaEncryption
            RSA Public Key: (1024 bit)
                Modulus (1024 bit):
                    00:c5:e4:b2:21:f4:28:d8:d8:27:be:74:49:e2:dc:
                    fe:c0:0d:56:06:82:d8:61:28:70:a8:38:66:88:12:
                    56:b7:8a:81:92:ec:54:7e:c1:ca:df:7a:ff:ad:b6:
                    b8:61:07:6b:bd:9a:d6:04:ab:30:8b:dd:2f:01:6e:
                    77:d4:4f:3b:a1:87:67:5d:08:3d:c2:e7:a5:4b:7d:
                    aa:4f:c8:8e:0f:32:bb:ef:70:f1:65:9f:94:a1:4a:
                    47:e7:a6:19:f7:80:a0:a5:44:bc:ad:e4:64:6d:6f:
                    12:4e:2c:03:4c:cd:4e:8a:f6:ad:1e:49:6a:07:c6:
                    77:a1:c9:2f:73:4e:86:83:bd
                Exponent: 65537 (0x10001)
    Signature Algorithm: md5WithRSAEncryption
        78:70:79:04:fc:f2:7b:0f:0b:b9:38:96:4c:f4:01:98:aa:6b:
        fa:8d:ee:c8:56:1f:b7:a6:25:55:33:e0:d9:b1:d0:f2:c4:5a:
        cf:3d:bc:52:a0:83:57:88:7d:15:6a:87:ae:72:26:be:f3:a6:
        af:d9:95:f2:3b:90:c9:5d:40:2c:d5:ff:fa:88:a5:df:c4:1e:
        d8:be:ac:5d:5e:ea:e7:91:a0:b9:85:ba:e1:7e:c4:34:58:e0:
        e9:59:be:9e:47:be:ca:84:c2:0c:ab:11:57:8c:e0:cc:2d:18:
        60:f3:61:26:86:62:5b:03:bf:e9:88:a8:e3:f3:7b:e1:15:29:
        ba:25
-----BEGIN CERTIFICATE-----
MIICvDCCAiUCCQCbJ9fo0boKtDANBgkqhkiG9w0BAQQFADCBlTELMAkGA1UEBhMC
REUxETAPBgNVBAgTCFNhYXJsYW5kMRAwDgYDVQQKEwdNUEktU1dTMSIwIAYDVQQL
ExlEaXN0cmlidXRlZCBTeXN0ZW1zIEdyb3VwMRowGAYDVQQDExFBbmRyZWFzIEhh
ZWJlcmxlbjEhMB8GCSqGSIb3DQEJARYSZGVtb2NhQG9jdGFyaW5lLmRlMB4XDTE1
MDQyMDIwNDcyOVoXDTE2MDQxOTIwNDcyOVowga4xCzAJBgNVBAYTAkRFMREwDwYD
VQQIEwhTYWFybGFuZDEQMA4GA1UEChMHTVBJLVNXUzEiMCAGA1UECxMZRGlzdHJp
YnV0ZWQgU3lzdGVtcyBHcm91cDExMC8GA1UEAxMoYTkxNjllZTBkMTk4MmJjNDlh
ODJkNTcxMWMzYzM2OWUwYTVhODNhNTEjMCEGCSqGSIb3DQEJARYUbm9kZTA3MzJA
b2N0YXJpbmUuZGUwgZ8wDQYJKoZIhvcNAQEBBQADgY0AMIGJAoGBAMXksiH0KNjY
J750SeLc/sANVgaC2GEocKg4ZogSVreKgZLsVH7Byt96/622uGEHa72a1gSrMIvd
LwFud9RPO6GHZ10IPcLnpUt9qk/Ijg8yu+9w8WWflKFKR+emGfeAoKVEvK3kZG1v
Ek4sA0zNTor2rR5JagfGd6HJL3NOhoO9AgMBAAEwDQYJKoZIhvcNAQEEBQADgYEA
eHB5BPzyew8LuTiWTPQBmKpr+o3uyFYft6YlVTPg2bHQ8sRazz28UqCDV4h9FWqH
rnImvvOmr9mV8juQyV1ALNX/+oil38Qe2L6sXV7q55GguYW64X7ENFjg6Vm+nke+
yoTCDKsRV4zgzC0YYPNhJoZiWwO/6Yio4/N74RUpuiU=
-----END CERTIFICATE-----
