Certificate:
    Data:
        Version: 1 (0x0)
        Serial Number:
            9b:27:d7:e8:d1:ba:0b:0d
        Signature Algorithm: md5WithRSAEncryption
        Issuer: C=DE, ST=Saarland, O=MPI-SWS, OU=Distributed Systems Group, CN=Andreas Haeberlen/emailAddress=democa@octarine.de
        Validity
            Not Before: Apr 20 20:47:33 2015 GMT
            Not After : Apr 19 20:47:33 2016 GMT
        Subject: C=DE, ST=Saarland, O=MPI-SWS, OU=Distributed Systems Group, CN=de2a0c684a46d951ccf5e4c683e6c44927423ab8/emailAddress=node0821@octarine.de
        Subject Public Key Info:
            Public Key Algorithm: rsaEncryption
            RSA Public Key: (1024 bit)
                Modulus (1024 bit):
                    00:cf:b6:65:f6:f4:33:a4:82:6b:2a:17:cd:22:5e:
                    d4:6d:eb:58:eb:82:2b:db:cc:49:30:f7:9d:ee:e8:
                    2b:9f:47:6c:22:9b:ca:7a:08:9f:17:bb:41:87:fc:
                    c2:32:b6:63:71:64:7b:80:30:e2:86:b6:bd:7b:09:
                    1c:0d:0e:67:21:6c:dc:99:50:6b:8c:1c:22:6b:e0:
                    21:04:37:57:11:ff:05:8a:7b:7b:c2:7f:fc:ad:9d:
                    fe:5e:aa:2d:c8:fe:36:c8:3f:c1:2f:a7:be:29:70:
                    19:ff:e7:27:e9:bc:57:46:f9:53:92:3d:35:b4:32:
                    3b:60:4e:e6:a3:a1:80:16:7f
                Exponent: 65537 (0x10001)
    Signature Algorithm: md5WithRSAEncryption
        72:f7:42:83:0a:de:ee:79:e5:08:1e:77:42:9d:63:36:e7:c8:
        ea:c1:c6:62:81:b6:87:d7:60:ef:15:20:75:24:e9:ac:ee:44:
        01:36:49:3e:f0:cb:91:af:89:8b:4f:b4:74:ff:ee:0d:53:3f:
        c7:28:4d:39:92:4b:b4:81:0b:91:f0:2c:ae:0f:d7:db:97:ac:
        5f:71:26:e1:7b:b6:fc:83:b1:72:8e:b3:00:90:92:bd:57:b7:
        02:94:fe:08:3f:5d:78:d6:4a:86:76:44:b3:9a:a5:85:5d:28:
        26:e9:4e:cb:6d:94:d2:a2:b3:c6:0e:2a:5c:a2:74:cc:03:44:
        bc:c7
-----BEGIN CERTIFICATE-----
MIICvDCCAiUCCQCbJ9fo0boLDTANBgkqhkiG9w0BAQQFADCBlTELMAkGA1UEBhMC
REUxETAPBgNVBAgTCFNhYXJsYW5kMRAwDgYDVQQKEwdNUEktU1dTMSIwIAYDVQQL
ExlEaXN0cmlidXRlZCBTeXN0ZW1zIEdyb3VwMRowGAYDVQQDExFBbmRyZWFzIEhh
ZWJlcmxlbjEhMB8GCSqGSIb3DQEJARYSZGVtb2NhQG9jdGFyaW5lLmRlMB4XDTE1
MDQyMDIwNDczM1oXDTE2MDQxOTIwNDczM1owga4xCzAJBgNVBAYTAkRFMREwDwYD
VQQIEwhTYWFybGFuZDEQMA4GA1UEChMHTVBJLVNXUzEiMCAGA1UECxMZRGlzdHJp
YnV0ZWQgU3lzdGVtcyBHcm91cDExMC8GA1UEAxMoZGUyYTBjNjg0YTQ2ZDk1MWNj
ZjVlNGM2ODNlNmM0NDkyNzQyM2FiODEjMCEGCSqGSIb3DQEJARYUbm9kZTA4MjFA
b2N0YXJpbmUuZGUwgZ8wDQYJKoZIhvcNAQEBBQADgY0AMIGJAoGBAM+2Zfb0M6SC
ayoXzSJe1G3rWOuCK9vMSTD3ne7oK59HbCKbynoInxe7QYf8wjK2Y3Fke4Aw4oa2
vXsJHA0OZyFs3JlQa4wcImvgIQQ3VxH/BYp7e8J//K2d/l6qLcj+Nsg/wS+nvilw
Gf/nJ+m8V0b5U5I9NbQyO2BO5qOhgBZ/AgMBAAEwDQYJKoZIhvcNAQEEBQADgYEA
cvdCgwre7nnlCB53Qp1jNufI6sHGYoG2h9dg7xUgdSTprO5EATZJPvDLka+Ji0+0
dP/uDVM/xyhNOZJLtIELkfAsrg/X25esX3Em4Xu2/IOxco6zAJCSvVe3ApT+CD9d
eNZKhnZEs5qlhV0oJulOy22U0qKzxg4qXKJ0zANEvMc=
-----END CERTIFICATE-----
