Certificate:
    Data:
        Version: 1 (0x0)
        Serial Number:
            9b:27:d7:e8:d1:ba:0b:40
        Signature Algorithm: md5WithRSAEncryption
        Issuer: C=DE, ST=Saarland, O=MPI-SWS, OU=Distributed Systems Group, CN=Andreas Haeberlen/emailAddress=democa@octarine.de
        Validity
            Not Before: Apr 20 20:47:35 2015 GMT
            Not After : Apr 19 20:47:35 2016 GMT
        Subject: C=DE, ST=Saarland, O=MPI-SWS, OU=Distributed Systems Group, CN=f929bcf0a6b5461f654df14e5eef4454e8d94cae/emailAddress=node0872@octarine.de
        Subject Public Key Info:
            Public Key Algorithm: rsaEncryption
            RSA Public Key: (1024 bit)
                Modulus (1024 bit):
                    00:bb:b6:4e:06:86:89:f8:1e:6d:95:46:9f:66:c4:
                    a6:e1:5d:83:e1:a4:c9:9d:90:b2:4a:9b:89:b4:1d:
                    bf:81:ba:5a:fe:6e:8c:41:f5:45:56:9e:5b:63:8e:
                    d3:e4:d4:a5:70:5a:9c:10:42:6e:ae:df:9d:68:71:
                    67:93:9a:e7:c5:ea:df:a1:fe:b3:64:2a:db:37:97:
                    5f:69:06:3f:69:c7:20:9e:30:ca:a8:09:88:23:cb:
                    31:f2:83:1f:dc:e0:b7:38:2c:5c:7f:55:0e:a2:66:
                    89:5b:fc:b5:76:09:83:ea:d2:dc:1b:92:8b:d8:8a:
                    2c:4d:3d:fb:2c:a3:dd:90:0d
                Exponent: 65537 (0x10001)
    Signature Algorithm: md5WithRSAEncryption
        ad:16:54:e0:60:3e:43:c9:d1:6b:24:8a:a0:0e:2d:97:5a:7b:
        10:c6:d1:21:57:98:01:06:db:3d:03:d6:d4:4c:84:47:b2:9b:
        50:b7:de:92:b3:96:dc:71:8b:b0:da:12:62:e4:3a:4e:5a:ad:
        4e:5e:f1:b5:40:ab:5c:c4:5c:ec:53:a7:c5:44:a4:79:12:56:
        d0:49:1e:93:f2:b5:2f:4e:34:05:e1:37:a4:74:43:10:9b:dc:
        52:ba:68:0b:aa:dd:90:6a:56:df:47:27:4c:fc:98:fe:e0:f0:
        c1:8e:50:9f:b1:72:1b:ff:94:06:72:33:06:2a:b9:36:78:f1:
        29:49
-----BEGIN CERTIFICATE-----
MIICvDCCAiUCCQCbJ9fo0boLQDANBgkqhkiG9w0BAQQFADCBlTELMAkGA1UEBhMC
REUxETAPBgNVBAgTCFNhYXJsYW5kMRAwDgYDVQQKEwdNUEktU1dTMSIwIAYDVQQL
ExlEaXN0cmlidXRlZCBTeXN0ZW1zIEdyb3VwMRowGAYDVQQDExFBbmRyZWFzIEhh
ZWJlcmxlbjEhMB8GCSqGSIb3DQEJARYSZGVtb2NhQG9jdGFyaW5lLmRlMB4XDTE1
MDQyMDIwNDczNVoXDTE2MDQxOTIwNDczNVowga4xCzAJBgNVBAYTAkRFMREwDwYD
VQQIEwhTYWFybGFuZDEQMA4GA1UEChMHTVBJLVNXUzEiMCAGA1UECxMZRGlzdHJp
YnV0ZWQgU3lzdGVtcyBHcm91cDExMC8GA1UEAxMoZjkyOWJjZjBhNmI1NDYxZjY1
NGRmMTRlNWVlZjQ0NTRlOGQ5NGNhZTEjMCEGCSqGSIb3DQEJARYUbm9kZTA4NzJA
b2N0YXJpbmUuZGUwgZ8wDQYJKoZIhvcNAQEBBQADgY0AMIGJAoGBALu2TgaGifge
bZVGn2bEpuFdg+GkyZ2QskqbibQdv4G6Wv5ujEH1RVaeW2OO0+TUpXBanBBCbq7f
nWhxZ5Oa58Xq36H+s2Qq2zeXX2kGP2nHIJ4wyqgJiCPLMfKDH9zgtzgsXH9VDqJm
iVv8tXYJg+rS3BuSi9iKLE09+yyj3ZANAgMBAAEwDQYJKoZIhvcNAQEEBQADgYEA
rRZU4GA+Q8nRaySKoA4tl1p7EMbRIVeYAQbbPQPW1EyER7KbULfekrOW3HGLsNoS
YuQ6TlqtTl7xtUCrXMRc7FOnxUSkeRJW0Ekek/K1L040BeE3pHRDEJvcUrpoC6rd
kGpW30cnTPyY/uDwwY5Qn7FyG/+UBnIzBiq5NnjxKUk=
-----END CERTIFICATE-----
