Certificate:
    Data:
        Version: 1 (0x0)
        Serial Number:
            9b:27:d7:e8:d1:ba:08:6b
        Signature Algorithm: md5WithRSAEncryption
        Issuer: C=DE, ST=Saarland, O=MPI-SWS, OU=Distributed Systems Group, CN=Andreas Haeberlen/emailAddress=democa@octarine.de
        Validity
            Not Before: Apr 20 20:47:03 2015 GMT
            Not After : Apr 19 20:47:03 2016 GMT
        Subject: C=DE, ST=Saarland, O=MPI-SWS, OU=Distributed Systems Group, CN=9768e9ddcad31a2b3b24644607fc08baf12eb0b8/emailAddress=node0147@octarine.de
        Subject Public Key Info:
            Public Key Algorithm: rsaEncryption
            RSA Public Key: (1024 bit)
                Modulus (1024 bit):
                    00:b2:89:ac:08:ae:df:c3:0f:84:f9:d3:93:81:a6:
                    79:f1:67:e6:d9:05:60:3f:39:33:d3:0a:fd:b6:06:
                    43:c0:a2:d1:3e:9d:35:08:40:6f:0f:8e:38:9d:eb:
                    a8:68:49:07:e3:a7:f8:61:f3:1f:a6:75:21:d8:2c:
                    32:5a:c7:88:a0:96:06:5f:fe:f7:47:9b:75:37:ba:
                    c5:31:ca:ee:5c:b9:a4:e4:06:a7:04:b7:78:4a:18:
                    71:95:4a:c6:78:9a:d3:c3:52:11:31:c0:1c:86:54:
                    4c:56:54:9c:44:7f:4b:df:2b:fc:94:10:93:c8:97:
                    48:72:93:f5:5c:18:23:9f:0f
                Exponent: 65537 (0x10001)
    Signature Algorithm: md5WithRSAEncryption
        a3:4a:97:59:bf:97:89:38:8f:27:e0:a4:e3:85:d0:d9:a9:54:
        e3:39:25:7b:ca:bf:3b:5c:39:e2:9c:92:94:f7:d8:fa:d5:2e:
        49:e1:43:f8:b6:1f:52:68:e0:11:f4:eb:14:a9:95:f1:26:9d:
        65:4f:74:9a:f6:6e:d8:cd:a0:64:15:a5:04:c1:08:c9:3a:da:
        63:a8:a2:b0:d4:3a:b2:aa:35:63:b1:4f:4d:69:f5:a4:a9:73:
        17:28:09:e7:27:79:34:b0:70:a3:cb:ae:06:f7:10:ff:16:69:
        1d:3e:de:f2:41:41:c5:e0:38:9f:52:ac:30:38:4b:21:a3:7b:
        d3:7c
-----BEGIN CERTIFICATE-----
MIICvDCCAiUCCQCbJ9fo0boIazANBgkqhkiG9w0BAQQFADCBlTELMAkGA1UEBhMC
REUxETAPBgNVBAgTCFNhYXJsYW5kMRAwDgYDVQQKEwdNUEktU1dTMSIwIAYDVQQL
ExlEaXN0cmlidXRlZCBTeXN0ZW1zIEdyb3VwMRowGAYDVQQDExFBbmRyZWFzIEhh
ZWJlcmxlbjEhMB8GCSqGSIb3DQEJARYSZGVtb2NhQG9jdGFyaW5lLmRlMB4XDTE1
MDQyMDIwNDcwM1oXDTE2MDQxOTIwNDcwM1owga4xCzAJBgNVBAYTAkRFMREwDwYD
VQQIEwhTYWFybGFuZDEQMA4GA1UEChMHTVBJLVNXUzEiMCAGA1UECxMZRGlzdHJp
YnV0ZWQgU3lzdGVtcyBHcm91cDExMC8GA1UEAxMoOTc2OGU5ZGRjYWQzMWEyYjNi
MjQ2NDQ2MDdmYzA4YmFmMTJlYjBiODEjMCEGCSqGSIb3DQEJARYUbm9kZTAxNDdA
b2N0YXJpbmUuZGUwgZ8wDQYJKoZIhvcNAQEBBQADgY0AMIGJAoGBALKJrAiu38MP
hPnTk4GmefFn5tkFYD85M9MK/bYGQ8Ci0T6dNQhAbw+OOJ3rqGhJB+On+GHzH6Z1
IdgsMlrHiKCWBl/+90ebdTe6xTHK7ly5pOQGpwS3eEoYcZVKxnia08NSETHAHIZU
TFZUnER/S98r/JQQk8iXSHKT9VwYI58PAgMBAAEwDQYJKoZIhvcNAQEEBQADgYEA
o0qXWb+XiTiPJ+Ck44XQ2alU4zkle8q/O1w54pySlPfY+tUuSeFD+LYfUmjgEfTr
FKmV8SadZU90mvZu2M2gZBWlBMEIyTraY6iisNQ6sqo1Y7FPTWn1pKlzFygJ5yd5
NLBwo8uuBvcQ/xZpHT7e8kFBxeA4n1KsMDhLIaN703w=
-----END CERTIFICATE-----
