Certificate:
    Data:
        Version: 1 (0x0)
        Serial Number:
            9b:27:d7:e8:d1:ba:08:7c
        Signature Algorithm: md5WithRSAEncryption
        Issuer: C=DE, ST=Saarland, O=MPI-SWS, OU=Distributed Systems Group, CN=Andreas Haeberlen/emailAddress=democa@octarine.de
        Validity
            Not Before: Apr 20 20:47:04 2015 GMT
            Not After : Apr 19 20:47:04 2016 GMT
        Subject: C=DE, ST=Saarland, O=MPI-SWS, OU=Distributed Systems Group, CN=9a095412f0013fc57575173c37b7df27a21f7227/emailAddress=node0164@octarine.de
        Subject Public Key Info:
            Public Key Algorithm: rsaEncryption
            RSA Public Key: (1024 bit)
                Modulus (1024 bit):
                    00:e3:9f:50:06:54:58:9b:77:01:cd:c0:e0:99:c3:
                    2e:0a:43:61:37:09:fb:38:9e:0f:d4:11:cd:3f:a8:
                    a2:36:42:e1:88:49:fa:3e:c0:24:24:96:15:d8:b8:
                    5f:ed:e8:4b:50:b9:cc:ba:80:b0:6f:09:ab:f7:62:
                    3f:0f:ff:92:ea:9d:d0:5d:d6:15:57:83:89:9c:37:
                    02:36:c3:32:4a:ea:4a:ac:5a:ef:ab:22:ea:f4:4d:
                    f2:cb:87:f7:42:f0:00:ef:2b:a7:8a:69:dd:76:58:
                    ca:6d:88:a9:b0:03:25:5c:ee:ea:34:02:f9:35:a0:
                    37:5e:cb:28:83:1c:ff:88:41
                Exponent: 65537 (0x10001)
    Signature Algorithm: md5WithRSAEncryption
        46:26:bc:08:f7:72:e7:b3:04:e9:9a:f6:11:53:f1:b1:ec:c3:
        91:74:2d:f0:43:d2:01:12:f0:d6:8d:54:35:b0:5b:09:ec:23:
        77:0e:a9:b6:88:c4:e3:d6:8b:f5:2b:7d:76:95:4b:7f:b6:f9:
        ea:32:9c:44:4e:ab:24:fd:fd:10:19:88:52:f1:4a:76:fc:d4:
        16:d2:c6:af:ee:95:58:1e:5e:ff:9b:08:b6:69:3e:43:24:57:
        6a:29:6b:8b:4a:93:2a:ad:a3:ca:27:8f:a7:90:4a:f2:52:92:
        f9:c5:51:b9:a5:a2:93:8a:82:f6:23:47:53:ad:29:35:14:75:
        6e:0c
-----BEGIN CERTIFICATE-----
MIICvDCCAiUCCQCbJ9fo0boIfDANBgkqhkiG9w0BAQQFADCBlTELMAkGA1UEBhMC
REUxETAPBgNVBAgTCFNhYXJsYW5kMRAwDgYDVQQKEwdNUEktU1dTMSIwIAYDVQQL
ExlEaXN0cmlidXRlZCBTeXN0ZW1zIEdyb3VwMRowGAYDVQQDExFBbmRyZWFzIEhh
ZWJlcmxlbjEhMB8GCSqGSIb3DQEJARYSZGVtb2NhQG9jdGFyaW5lLmRlMB4XDTE1
MDQyMDIwNDcwNFoXDTE2MDQxOTIwNDcwNFowga4xCzAJBgNVBAYTAkRFMREwDwYD
VQQIEwhTYWFybGFuZDEQMA4GA1UEChMHTVBJLVNXUzEiMCAGA1UECxMZRGlzdHJp
YnV0ZWQgU3lzdGVtcyBHcm91cDExMC8GA1UEAxMoOWEwOTU0MTJmMDAxM2ZjNTc1
NzUxNzNjMzdiN2RmMjdhMjFmNzIyNzEjMCEGCSqGSIb3DQEJARYUbm9kZTAxNjRA
b2N0YXJpbmUuZGUwgZ8wDQYJKoZIhvcNAQEBBQADgY0AMIGJAoGBAOOfUAZUWJt3
Ac3A4JnDLgpDYTcJ+zieD9QRzT+oojZC4YhJ+j7AJCSWFdi4X+3oS1C5zLqAsG8J
q/diPw//kuqd0F3WFVeDiZw3AjbDMkrqSqxa76si6vRN8suH90LwAO8rp4pp3XZY
ym2IqbADJVzu6jQC+TWgN17LKIMc/4hBAgMBAAEwDQYJKoZIhvcNAQEEBQADgYEA
Ria8CPdy57ME6Zr2EVPxsezDkXQt8EPSARLw1o1UNbBbCewjdw6ptojE49aL9St9
dpVLf7b56jKcRE6rJP39EBmIUvFKdvzUFtLGr+6VWB5e/5sItmk+QyRXailri0qT
Kq2jyiePp5BK8lKS+cVRuaWik4qC9iNHU60pNRR1bgw=
-----END CERTIFICATE-----
