Certificate:
    Data:
        Version: 1 (0x0)
        Serial Number:
            9b:27:d7:e8:d1:ba:08:6a
        Signature Algorithm: md5WithRSAEncryption
        Issuer: C=DE, ST=Saarland, O=MPI-SWS, OU=Distributed Systems Group, CN=Andreas Haeberlen/emailAddress=democa@octarine.de
        Validity
            Not Before: Apr 20 20:47:03 2015 GMT
            Not After : Apr 19 20:47:03 2016 GMT
        Subject: C=DE, ST=Saarland, O=MPI-SWS, OU=Distributed Systems Group, CN=f4a29e5f30e7e735e2cf67df98861b100c29b88e/emailAddress=node0146@octarine.de
        Subject Public Key Info:
            Public Key Algorithm: rsaEncryption
            RSA Public Key: (1024 bit)
                Modulus (1024 bit):
                    00:dd:84:8f:ca:ba:db:9b:63:94:d5:86:df:97:7e:
                    ce:6a:44:2e:cc:e2:a4:05:3e:7d:b3:84:a1:ec:e9:
                    7b:44:95:c0:b8:35:ec:20:70:de:5e:de:18:46:36:
                    c2:23:bc:cc:0b:e4:18:2a:fa:78:c7:25:4c:aa:b4:
                    01:1b:02:bb:d9:b1:a3:6d:f6:48:12:df:36:86:ac:
                    56:ff:99:b9:be:2b:1f:88:11:71:bf:f3:9e:2c:cb:
                    6d:d2:0b:8e:7e:36:27:bc:1d:14:ec:6d:e3:44:91:
                    a6:e4:dd:fd:2c:85:5b:16:a7:b8:a0:12:3d:a2:bc:
                    ed:11:10:db:80:a2:36:64:5f
                Exponent: 65537 (0x10001)
    Signature Algorithm: md5WithRSAEncryption
        0d:c3:e3:0a:ad:c6:a4:3a:d4:27:64:e6:2d:4c:77:83:2a:29:
        ba:9b:c1:24:7f:d3:d6:a0:49:fa:f5:55:56:b7:91:6c:f9:76:
        87:d3:7f:03:58:65:e4:04:e3:ec:1b:79:7a:b9:f6:8a:ce:d6:
        7f:d7:16:0b:c1:65:cb:81:cc:06:3d:2b:2d:37:a6:60:e9:3c:
        9d:bb:e4:65:ef:f6:bf:9b:b2:76:8c:7d:91:eb:9e:08:4b:8d:
        02:f4:43:af:25:58:19:8b:0f:79:74:58:cf:b9:12:eb:8b:ad:
        b6:dc:c4:3c:ea:f3:75:ba:92:e7:ab:8a:5e:ad:47:d9:3d:2d:
        bc:63
-----BEGIN CERTIFICATE-----
MIICvDCCAiUCCQCbJ9fo0boIajANBgkqhkiG9w0BAQQFADCBlTELMAkGA1UEBhMC
REUxETAPBgNVBAgTCFNhYXJsYW5kMRAwDgYDVQQKEwdNUEktU1dTMSIwIAYDVQQL
ExlEaXN0cmlidXRlZCBTeXN0ZW1zIEdyb3VwMRowGAYDVQQDExFBbmRyZWFzIEhh
ZWJlcmxlbjEhMB8GCSqGSIb3DQEJARYSZGVtb2NhQG9jdGFyaW5lLmRlMB4XDTE1
MDQyMDIwNDcwM1oXDTE2MDQxOTIwNDcwM1owga4xCzAJBgNVBAYTAkRFMREwDwYD
VQQIEwhTYWFybGFuZDEQMA4GA1UEChMHTVBJLVNXUzEiMCAGA1UECxMZRGlzdHJp
YnV0ZWQgU3lzdGVtcyBHcm91cDExMC8GA1UEAxMoZjRhMjllNWYzMGU3ZTczNWUy
Y2Y2N2RmOTg4NjFiMTAwYzI5Yjg4ZTEjMCEGCSqGSIb3DQEJARYUbm9kZTAxNDZA
b2N0YXJpbmUuZGUwgZ8wDQYJKoZIhvcNAQEBBQADgY0AMIGJAoGBAN2Ej8q625tj
lNWG35d+zmpELszipAU+fbOEoezpe0SVwLg17CBw3l7eGEY2wiO8zAvkGCr6eMcl
TKq0ARsCu9mxo232SBLfNoasVv+Zub4rH4gRcb/znizLbdILjn42J7wdFOxt40SR
puTd/SyFWxanuKASPaK87REQ24CiNmRfAgMBAAEwDQYJKoZIhvcNAQEEBQADgYEA
DcPjCq3GpDrUJ2TmLUx3gyopupvBJH/T1qBJ+vVVVreRbPl2h9N/A1hl5ATj7Bt5
ern2is7Wf9cWC8Fly4HMBj0rLTemYOk8nbvkZe/2v5uydox9keueCEuNAvRDryVY
GYsPeXRYz7kS64utttzEPOrzdbqS56uKXq1H2T0tvGM=
-----END CERTIFICATE-----
