Certificate:
    Data:
        Version: 1 (0x0)
        Serial Number:
            9b:27:d7:e8:d1:ba:08:fb
        Signature Algorithm: md5WithRSAEncryption
        Issuer: C=DE, ST=Saarland, O=MPI-SWS, OU=Distributed Systems Group, CN=Andreas Haeberlen/emailAddress=democa@octarine.de
        Validity
            Not Before: Apr 20 20:47:09 2015 GMT
            Not After : Apr 19 20:47:09 2016 GMT
        Subject: C=DE, ST=Saarland, O=MPI-SWS, OU=Distributed Systems Group, CN=f372ddd75cfb2c7956f103d94a8eae3a1adf8b6d/emailAddress=node0291@octarine.de
        Subject Public Key Info:
            Public Key Algorithm: rsaEncryption
            RSA Public Key: (1024 bit)
                Modulus (1024 bit):
                    00:ac:3e:44:2b:32:11:d5:9f:e3:88:2f:0c:b1:03:
                    88:db:55:f0:30:58:7a:cb:bd:e4:69:62:01:33:3d:
                    8a:a6:74:c4:5f:5a:bc:91:a8:48:d7:3e:68:65:4e:
                    12:84:d8:89:22:2c:ff:32:f8:9b:38:d7:b6:88:1a:
                    13:a9:c5:0f:59:13:2e:d8:1a:f2:f5:cc:d2:72:70:
                    d1:4c:60:87:55:e1:e4:17:66:c5:2a:4c:e3:33:c4:
                    ac:dc:e7:be:2f:de:36:ef:24:64:e0:28:42:9f:8e:
                    8a:49:74:5f:31:fa:9b:c5:53:3d:f2:e1:1b:6f:b8:
                    3b:6a:10:10:0e:f2:16:8c:fb
                Exponent: 65537 (0x10001)
    Signature Algorithm: md5WithRSAEncryption
        2d:0a:2e:5c:22:67:f6:f1:c3:6d:c3:b2:0a:6a:84:bd:ab:8b:
        64:3a:91:ae:7f:f2:b6:49:aa:ff:df:e5:6d:1d:74:ca:dc:cc:
        45:7e:26:43:6c:2f:35:99:f0:b4:bf:ef:96:59:08:9b:af:f7:
        00:b0:62:c1:fa:14:d3:1d:41:fc:65:30:50:8a:90:4c:7b:d7:
        e0:de:17:28:1f:68:eb:0b:a5:70:78:a4:e3:19:5a:9a:16:53:
        78:86:24:71:24:0d:9a:dc:2c:90:9e:15:02:05:c2:ab:20:be:
        03:4b:20:d3:42:3e:34:ec:81:16:31:bf:11:53:a8:a8:c0:59:
        18:b6
-----BEGIN CERTIFICATE-----
MIICvDCCAiUCCQCbJ9fo0boI+zANBgkqhkiG9w0BAQQFADCBlTELMAkGA1UEBhMC
REUxETAPBgNVBAgTCFNhYXJsYW5kMRAwDgYDVQQKEwdNUEktU1dTMSIwIAYDVQQL
ExlEaXN0cmlidXRlZCBTeXN0ZW1zIEdyb3VwMRowGAYDVQQDExFBbmRyZWFzIEhh
ZWJlcmxlbjEhMB8GCSqGSIb3DQEJARYSZGVtb2NhQG9jdGFyaW5lLmRlMB4XDTE1
MDQyMDIwNDcwOVoXDTE2MDQxOTIwNDcwOVowga4xCzAJBgNVBAYTAkRFMREwDwYD
VQQIEwhTYWFybGFuZDEQMA4GA1UEChMHTVBJLVNXUzEiMCAGA1UECxMZRGlzdHJp
YnV0ZWQgU3lzdGVtcyBHcm91cDExMC8GA1UEAxMoZjM3MmRkZDc1Y2ZiMmM3OTU2
ZjEwM2Q5NGE4ZWFlM2ExYWRmOGI2ZDEjMCEGCSqGSIb3DQEJARYUbm9kZTAyOTFA
b2N0YXJpbmUuZGUwgZ8wDQYJKoZIhvcNAQEBBQADgY0AMIGJAoGBAKw+RCsyEdWf
44gvDLEDiNtV8DBYesu95GliATM9iqZ0xF9avJGoSNc+aGVOEoTYiSIs/zL4mzjX
togaE6nFD1kTLtga8vXM0nJw0Uxgh1Xh5BdmxSpM4zPErNznvi/eNu8kZOAoQp+O
ikl0XzH6m8VTPfLhG2+4O2oQEA7yFoz7AgMBAAEwDQYJKoZIhvcNAQEEBQADgYEA
LQouXCJn9vHDbcOyCmqEvauLZDqRrn/ytkmq/9/lbR10ytzMRX4mQ2wvNZnwtL/v
llkIm6/3ALBiwfoU0x1B/GUwUIqQTHvX4N4XKB9o6wulcHik4xlamhZTeIYkcSQN
mtwskJ4VAgXCqyC+A0sg00I+NOyBFjG/EVOoqMBZGLY=
-----END CERTIFICATE-----
