Certificate:
    Data:
        Version: 1 (0x0)
        Serial Number:
            9b:27:d7:e8:d1:ba:0b:09
        Signature Algorithm: md5WithRSAEncryption
        Issuer: C=DE, ST=Saarland, O=MPI-SWS, OU=Distributed Systems Group, CN=Andreas Haeberlen/emailAddress=democa@octarine.de
        Validity
            Not Before: Apr 20 20:47:33 2015 GMT
            Not After : Apr 19 20:47:33 2016 GMT
        Subject: C=DE, ST=Saarland, O=MPI-SWS, OU=Distributed Systems Group, CN=d0c3f391aa797824b8a30f27dd04e6cc6906c976/emailAddress=node0817@octarine.de
        Subject Public Key Info:
            Public Key Algorithm: rsaEncryption
            RSA Public Key: (1024 bit)
                Modulus (1024 bit):
                    00:c6:cb:eb:f9:a7:1e:f6:9c:d0:40:53:b3:02:1b:
                    6e:d7:28:c7:49:8a:86:1f:01:a6:53:18:59:1d:53:
                    e3:da:d9:05:28:74:7f:3e:07:28:81:e1:12:19:85:
                    40:91:fa:99:06:11:de:62:49:6e:a9:09:f8:ea:22:
                    6b:70:b7:ff:a1:ff:99:16:62:5d:71:57:7f:0c:bb:
                    2e:d5:6b:9d:f2:c8:2b:2d:7e:98:29:ef:cb:b8:fe:
                    c0:fe:6e:cd:9d:c0:0d:c1:ac:bf:31:5b:9a:37:96:
                    81:2a:bd:92:3a:e6:91:bb:b8:da:9f:bd:ab:ee:1e:
                    eb:ac:38:30:0a:bc:07:38:07
                Exponent: 65537 (0x10001)
    Signature Algorithm: md5WithRSAEncryption
        7c:11:38:81:12:c6:40:cd:4a:67:46:2f:03:db:0c:de:c1:fb:
        7e:33:8d:75:55:25:ef:c4:c5:41:2c:d5:e3:7b:6c:51:2f:3b:
        73:cb:7d:f4:f8:d5:85:4d:3e:ad:8a:75:79:04:a6:35:f6:0a:
        42:31:80:60:99:67:f3:06:f2:f0:ff:99:da:e4:83:5c:4e:e9:
        69:cd:35:25:76:d4:7f:3e:9c:15:4d:0d:7f:2c:e2:dc:c5:32:
        6c:84:23:17:44:d6:86:63:b9:b0:d5:75:46:ae:18:b7:e7:05:
        b0:3d:14:65:9d:77:03:6f:5d:09:50:ad:b5:0f:d5:c0:56:68:
        fa:d2
-----BEGIN CERTIFICATE-----
MIICvDCCAiUCCQCbJ9fo0boLCTANBgkqhkiG9w0BAQQFADCBlTELMAkGA1UEBhMC
REUxETAPBgNVBAgTCFNhYXJsYW5kMRAwDgYDVQQKEwdNUEktU1dTMSIwIAYDVQQL
ExlEaXN0cmlidXRlZCBTeXN0ZW1zIEdyb3VwMRowGAYDVQQDExFBbmRyZWFzIEhh
ZWJlcmxlbjEhMB8GCSqGSIb3DQEJARYSZGVtb2NhQG9jdGFyaW5lLmRlMB4XDTE1
MDQyMDIwNDczM1oXDTE2MDQxOTIwNDczM1owga4xCzAJBgNVBAYTAkRFMREwDwYD
VQQIEwhTYWFybGFuZDEQMA4GA1UEChMHTVBJLVNXUzEiMCAGA1UECxMZRGlzdHJp
YnV0ZWQgU3lzdGVtcyBHcm91cDExMC8GA1UEAxMoZDBjM2YzOTFhYTc5NzgyNGI4
YTMwZjI3ZGQwNGU2Y2M2OTA2Yzk3NjEjMCEGCSqGSIb3DQEJARYUbm9kZTA4MTdA
b2N0YXJpbmUuZGUwgZ8wDQYJKoZIhvcNAQEBBQADgY0AMIGJAoGBAMbL6/mnHvac
0EBTswIbbtcox0mKhh8BplMYWR1T49rZBSh0fz4HKIHhEhmFQJH6mQYR3mJJbqkJ
+Ooia3C3/6H/mRZiXXFXfwy7LtVrnfLIKy1+mCnvy7j+wP5uzZ3ADcGsvzFbmjeW
gSq9kjrmkbu42p+9q+4e66w4MAq8BzgHAgMBAAEwDQYJKoZIhvcNAQEEBQADgYEA
fBE4gRLGQM1KZ0YvA9sM3sH7fjONdVUl78TFQSzV43tsUS87c8t99PjVhU0+rYp1
eQSmNfYKQjGAYJln8wby8P+Z2uSDXE7pac01JXbUfz6cFU0Nfyzi3MUybIQjF0TW
hmO5sNV1Rq4Yt+cFsD0UZZ13A29dCVCttQ/VwFZo+tI=
-----END CERTIFICATE-----
