Certificate:
    Data:
        Version: 1 (0x0)
        Serial Number:
            9b:27:d7:e8:d1:ba:09:af
        Signature Algorithm: md5WithRSAEncryption
        Issuer: C=DE, ST=Saarland, O=MPI-SWS, OU=Distributed Systems Group, CN=Andreas Haeberlen/emailAddress=democa@octarine.de
        Validity
            Not Before: Apr 20 20:47:17 2015 GMT
            Not After : Apr 19 20:47:17 2016 GMT
        Subject: C=DE, ST=Saarland, O=MPI-SWS, OU=Distributed Systems Group, CN=20ce070dc9d6b358a20e12336e584a86a54ac489/emailAddress=node0471@octarine.de
        Subject Public Key Info:
            Public Key Algorithm: rsaEncryption
            RSA Public Key: (1024 bit)
                Modulus (1024 bit):
                    00:e2:a8:f2:0d:7a:7d:83:55:13:d3:7a:1d:30:05:
                    51:66:8b:07:16:e9:3f:0a:a5:22:7c:5f:37:74:74:
                    33:b4:2b:95:dd:87:ab:f1:bb:ef:60:79:07:d1:4b:
                    32:63:82:d2:70:a9:be:96:de:f2:f2:e7:d2:1f:ea:
                    60:0f:fd:6c:f3:5c:b1:21:b5:b0:c2:4f:f9:81:e6:
                    9a:1d:67:04:8e:5d:06:35:6f:f7:7f:fa:dd:67:ce:
                    47:b4:34:38:a4:37:b2:86:27:3e:16:8a:72:d5:a6:
                    93:f2:98:83:33:e4:10:16:ab:df:09:90:93:c4:47:
                    da:31:c1:8c:75:ee:eb:35:e9
                Exponent: 65537 (0x10001)
    Signature Algorithm: md5WithRSAEncryption
        b9:08:05:4e:2e:bb:c6:35:12:3e:e5:82:c1:1f:fd:30:c9:e2:
        fb:bb:cb:0b:74:b8:3b:7c:2a:c3:1f:21:59:21:74:b7:e9:d9:
        53:c2:e3:c8:64:a0:a6:ca:b5:d8:f4:7c:8c:e6:22:7f:cd:b4:
        71:97:b4:bb:08:51:4d:c4:65:49:4c:28:2e:62:27:67:74:b2:
        c0:4c:a5:a7:f0:b0:1b:be:29:34:c5:c2:f3:05:f8:47:3b:59:
        ac:05:22:2d:b7:0f:e4:3a:a7:9d:ea:28:ec:7c:f5:48:85:f4:
        f6:09:9a:81:b2:f4:55:03:c5:e8:5f:ca:e7:7c:32:14:06:06:
        25:6f
-----BEGIN CERTIFICATE-----
MIICvDCCAiUCCQCbJ9fo0boJrzANBgkqhkiG9w0BAQQFADCBlTELMAkGA1UEBhMC
REUxETAPBgNVBAgTCFNhYXJsYW5kMRAwDgYDVQQKEwdNUEktU1dTMSIwIAYDVQQL
ExlEaXN0cmlidXRlZCBTeXN0ZW1zIEdyb3VwMRowGAYDVQQDExFBbmRyZWFzIEhh
ZWJlcmxlbjEhMB8GCSqGSIb3DQEJARYSZGVtb2NhQG9jdGFyaW5lLmRlMB4XDTE1
MDQyMDIwNDcxN1oXDTE2MDQxOTIwNDcxN1owga4xCzAJBgNVBAYTAkRFMREwDwYD
VQQIEwhTYWFybGFuZDEQMA4GA1UEChMHTVBJLVNXUzEiMCAGA1UECxMZRGlzdHJp
YnV0ZWQgU3lzdGVtcyBHcm91cDExMC8GA1UEAxMoMjBjZTA3MGRjOWQ2YjM1OGEy
MGUxMjMzNmU1ODRhODZhNTRhYzQ4OTEjMCEGCSqGSIb3DQEJARYUbm9kZTA0NzFA
b2N0YXJpbmUuZGUwgZ8wDQYJKoZIhvcNAQEBBQADgY0AMIGJAoGBAOKo8g16fYNV
E9N6HTAFUWaLBxbpPwqlInxfN3R0M7Qrld2Hq/G772B5B9FLMmOC0nCpvpbe8vLn
0h/qYA/9bPNcsSG1sMJP+YHmmh1nBI5dBjVv93/63WfOR7Q0OKQ3soYnPhaKctWm
k/KYgzPkEBar3wmQk8RH2jHBjHXu6zXpAgMBAAEwDQYJKoZIhvcNAQEEBQADgYEA
uQgFTi67xjUSPuWCwR/9MMni+7vLC3S4O3wqwx8hWSF0t+nZU8LjyGSgpsq12PR8
jOYif820cZe0uwhRTcRlSUwoLmInZ3SywEylp/CwG74pNMXC8wX4RztZrAUiLbcP
5Dqnneoo7Hz1SIX09gmagbL0VQPF6F/K53wyFAYGJW8=
-----END CERTIFICATE-----
