Certificate:
    Data:
        Version: 1 (0x0)
        Serial Number:
            9b:27:d7:e8:d1:ba:0b:19
        Signature Algorithm: md5WithRSAEncryption
        Issuer: C=DE, ST=Saarland, O=MPI-SWS, OU=Distributed Systems Group, CN=Andreas Haeberlen/emailAddress=democa@octarine.de
        Validity
            Not Before: Apr 20 20:47:34 2015 GMT
            Not After : Apr 19 20:47:34 2016 GMT
        Subject: C=DE, ST=Saarland, O=MPI-SWS, OU=Distributed Systems Group, CN=176cda7076034e57f4058c7a2827bf3c69843f4a/emailAddress=node0833@octarine.de
        Subject Public Key Info:
            Public Key Algorithm: rsaEncryption
            RSA Public Key: (1024 bit)
                Modulus (1024 bit):
                    00:b7:24:6e:71:43:7f:a8:6b:da:72:82:90:1b:94:
                    62:fc:f7:b1:39:f8:a4:69:31:21:75:2f:f1:13:5c:
                    65:fc:38:64:58:72:08:ff:a4:10:7a:8b:33:21:ea:
                    0f:86:cc:8f:08:87:68:ab:2d:ec:1a:1c:73:48:dc:
                    16:89:fa:9c:06:e9:40:4b:70:47:45:23:9f:26:29:
                    46:e2:f9:a1:73:f5:13:1e:f7:ed:97:5e:fd:75:a2:
                    f3:7b:25:35:07:55:7d:b8:e2:de:22:16:32:10:8b:
                    73:88:d1:93:02:30:8a:3d:fc:08:21:a7:58:ba:b4:
                    b3:e9:c5:33:c0:25:d3:a1:c1
                Exponent: 65537 (0x10001)
    Signature Algorithm: md5WithRSAEncryption
        7a:89:69:f9:45:37:d5:6e:7a:86:d4:b1:1d:7f:b5:c1:ee:4d:
        8d:9c:11:16:5f:43:cb:cc:c5:cd:c6:3f:cf:4e:f6:2b:31:57:
        e8:f7:c2:8f:fe:e8:44:47:6d:73:b5:20:35:2b:27:cf:5c:1e:
        76:d9:d2:f5:14:50:0c:5c:45:54:11:e2:03:ce:7e:81:36:c7:
        74:03:5d:2e:22:83:4d:3f:9e:be:9c:03:99:7f:a7:c5:27:0b:
        66:01:d4:19:de:d2:44:ed:e9:12:a9:d0:8f:16:00:46:99:a6:
        92:ec:1a:f9:e7:7a:8d:43:26:bb:05:02:4a:22:95:d5:3e:4b:
        f9:ce
-----BEGIN CERTIFICATE-----
MIICvDCCAiUCCQCbJ9fo0boLGTANBgkqhkiG9w0BAQQFADCBlTELMAkGA1UEBhMC
REUxETAPBgNVBAgTCFNhYXJsYW5kMRAwDgYDVQQKEwdNUEktU1dTMSIwIAYDVQQL
ExlEaXN0cmlidXRlZCBTeXN0ZW1zIEdyb3VwMRowGAYDVQQDExFBbmRyZWFzIEhh
ZWJlcmxlbjEhMB8GCSqGSIb3DQEJARYSZGVtb2NhQG9jdGFyaW5lLmRlMB4XDTE1
MDQyMDIwNDczNFoXDTE2MDQxOTIwNDczNFowga4xCzAJBgNVBAYTAkRFMREwDwYD
VQQIEwhTYWFybGFuZDEQMA4GA1UEChMHTVBJLVNXUzEiMCAGA1UECxMZRGlzdHJp
YnV0ZWQgU3lzdGVtcyBHcm91cDExMC8GA1UEAxMoMTc2Y2RhNzA3NjAzNGU1N2Y0
MDU4YzdhMjgyN2JmM2M2OTg0M2Y0YTEjMCEGCSqGSIb3DQEJARYUbm9kZTA4MzNA
b2N0YXJpbmUuZGUwgZ8wDQYJKoZIhvcNAQEBBQADgY0AMIGJAoGBALckbnFDf6hr
2nKCkBuUYvz3sTn4pGkxIXUv8RNcZfw4ZFhyCP+kEHqLMyHqD4bMjwiHaKst7Boc
c0jcFon6nAbpQEtwR0UjnyYpRuL5oXP1Ex737Zde/XWi83slNQdVfbji3iIWMhCL
c4jRkwIwij38CCGnWLq0s+nFM8Al06HBAgMBAAEwDQYJKoZIhvcNAQEEBQADgYEA
eolp+UU31W56htSxHX+1we5NjZwRFl9Dy8zFzcY/z072KzFX6PfCj/7oREdtc7Ug
NSsnz1wedtnS9RRQDFxFVBHiA85+gTbHdANdLiKDTT+evpwDmX+nxScLZgHUGd7S
RO3pEqnQjxYARpmmkuwa+ed6jUMmuwUCSiKV1T5L+c4=
-----END CERTIFICATE-----
