Certificate:
    Data:
        Version: 1 (0x0)
        Serial Number:
            9b:27:d7:e8:d1:ba:08:59
        Signature Algorithm: md5WithRSAEncryption
        Issuer: C=DE, ST=Saarland, O=MPI-SWS, OU=Distributed Systems Group, CN=Andreas Haeberlen/emailAddress=democa@octarine.de
        Validity
            Not Before: Apr 20 20:47:02 2015 GMT
            Not After : Apr 19 20:47:02 2016 GMT
        Subject: C=DE, ST=Saarland, O=MPI-SWS, OU=Distributed Systems Group, CN=aa2fa224333a86bfb2c510355d91f3d9d0972cc6/emailAddress=node0129@octarine.de
        Subject Public Key Info:
            Public Key Algorithm: rsaEncryption
            RSA Public Key: (1024 bit)
                Modulus (1024 bit):
                    00:ee:3d:5e:ba:4c:22:0a:12:00:5a:1e:41:dd:e7:
                    44:87:07:b4:1b:d2:11:55:ed:4d:12:57:3e:b6:57:
                    dd:c5:bc:e5:16:64:94:dc:3d:3e:b9:ee:89:f7:7d:
                    4e:76:ec:05:67:37:8e:ee:2b:d2:80:ad:aa:84:50:
                    56:75:0a:ae:c5:12:49:8c:55:44:72:7c:9f:69:53:
                    39:8f:64:b2:93:1c:35:65:4a:6b:b3:5f:31:b3:70:
                    30:ae:39:82:32:67:64:0f:3c:b5:1d:c4:49:97:e0:
                    05:c8:27:0d:05:06:de:a8:98:bd:78:34:d6:f8:3e:
                    37:57:fd:88:1a:34:4d:15:87
                Exponent: 65537 (0x10001)
    Signature Algorithm: md5WithRSAEncryption
        af:83:bf:e2:67:43:57:48:b7:95:7b:ff:0a:7a:29:34:f0:7b:
        50:af:cb:38:81:f5:39:de:90:b5:20:7e:f9:d8:8f:44:c9:86:
        f9:60:f6:95:51:c3:72:5f:a1:6c:a1:e7:17:d0:6f:e9:39:6f:
        f8:fb:97:74:22:57:ac:8f:6e:9c:9c:d3:56:6c:9a:0a:2d:c1:
        d3:b2:fb:69:53:e0:86:16:a8:3d:cf:ad:0b:a0:96:a3:80:95:
        fc:35:7d:fa:14:43:76:72:15:2d:b0:52:52:d6:7e:f9:84:5f:
        61:5f:6e:15:16:a6:68:8a:a2:8b:41:80:58:e0:82:6b:8f:56:
        8f:6a
-----BEGIN CERTIFICATE-----
MIICvDCCAiUCCQCbJ9fo0boIWTANBgkqhkiG9w0BAQQFADCBlTELMAkGA1UEBhMC
REUxETAPBgNVBAgTCFNhYXJsYW5kMRAwDgYDVQQKEwdNUEktU1dTMSIwIAYDVQQL
ExlEaXN0cmlidXRlZCBTeXN0ZW1zIEdyb3VwMRowGAYDVQQDExFBbmRyZWFzIEhh
ZWJlcmxlbjEhMB8GCSqGSIb3DQEJARYSZGVtb2NhQG9jdGFyaW5lLmRlMB4XDTE1
MDQyMDIwNDcwMloXDTE2MDQxOTIwNDcwMlowga4xCzAJBgNVBAYTAkRFMREwDwYD
VQQIEwhTYWFybGFuZDEQMA4GA1UEChMHTVBJLVNXUzEiMCAGA1UECxMZRGlzdHJp
YnV0ZWQgU3lzdGVtcyBHcm91cDExMC8GA1UEAxMoYWEyZmEyMjQzMzNhODZiZmIy
YzUxMDM1NWQ5MWYzZDlkMDk3MmNjNjEjMCEGCSqGSIb3DQEJARYUbm9kZTAxMjlA
b2N0YXJpbmUuZGUwgZ8wDQYJKoZIhvcNAQEBBQADgY0AMIGJAoGBAO49XrpMIgoS
AFoeQd3nRIcHtBvSEVXtTRJXPrZX3cW85RZklNw9Prnuifd9TnbsBWc3ju4r0oCt
qoRQVnUKrsUSSYxVRHJ8n2lTOY9kspMcNWVKa7NfMbNwMK45gjJnZA88tR3ESZfg
BcgnDQUG3qiYvXg01vg+N1f9iBo0TRWHAgMBAAEwDQYJKoZIhvcNAQEEBQADgYEA
r4O/4mdDV0i3lXv/CnopNPB7UK/LOIH1Od6QtSB++diPRMmG+WD2lVHDcl+hbKHn
F9Bv6Tlv+PuXdCJXrI9unJzTVmyaCi3B07L7aVPghhaoPc+tC6CWo4CV/DV9+hRD
dnIVLbBSUtZ++YRfYV9uFRamaIqii0GAWOCCa49Wj2o=
-----END CERTIFICATE-----
