Certificate:
    Data:
        Version: 1 (0x0)
        Serial Number:
            9b:27:d7:e8:d1:ba:09:d5
        Signature Algorithm: md5WithRSAEncryption
        Issuer: C=DE, ST=Saarland, O=MPI-SWS, OU=Distributed Systems Group, CN=Andreas Haeberlen/emailAddress=democa@octarine.de
        Validity
            Not Before: Apr 20 20:47:19 2015 GMT
            Not After : Apr 19 20:47:19 2016 GMT
        Subject: C=DE, ST=Saarland, O=MPI-SWS, OU=Distributed Systems Group, CN=35bfcd97e0b3533458d0e8c1f18bc1ef79e467b4/emailAddress=node0509@octarine.de
        Subject Public Key Info:
            Public Key Algorithm: rsaEncryption
            RSA Public Key: (1024 bit)
                Modulus (1024 bit):
                    00:e5:69:7e:da:ef:e3:5a:0e:0e:66:5b:01:d8:22:
                    00:5e:55:aa:e9:84:1f:aa:6c:b0:9b:ae:8c:c2:a5:
                    01:60:4a:c9:4a:4a:84:68:f6:b7:d3:6a:56:71:ad:
                    7d:3d:30:71:19:de:d7:82:47:49:3c:e4:75:b5:2b:
                    b1:db:29:58:3b:64:86:25:53:1d:b6:c2:b2:3b:a2:
                    77:ef:29:21:f2:58:c8:c1:d6:ce:ef:85:96:54:fa:
                    07:30:59:27:ab:6d:59:8e:50:33:b6:a6:17:33:bc:
                    2d:1c:07:b3:73:dc:de:73:21:d1:50:1b:64:e6:bf:
                    aa:ed:4a:34:d2:8a:a8:ba:37
                Exponent: 65537 (0x10001)
    Signature Algorithm: md5WithRSAEncryption
        8c:cb:4e:72:05:81:c2:a1:74:d9:77:b6:29:c8:f0:38:2f:ab:
        56:95:5a:69:40:5a:f7:54:2d:3c:45:ae:70:7b:e5:58:be:0e:
        28:4d:32:36:75:10:3d:a8:25:46:ad:e1:a9:44:b6:0d:91:df:
        4e:d7:4c:12:fb:27:4c:e1:71:3f:03:ed:5a:19:46:6e:2b:dd:
        94:04:07:68:44:07:63:81:88:9d:da:d2:9e:fd:a5:41:1c:b4:
        b5:c5:aa:0e:96:88:4c:fc:e2:57:b3:d0:fe:44:2c:ca:4d:e2:
        c9:27:e4:f5:91:4d:6a:88:a1:05:99:73:5a:d0:93:64:44:e5:
        cf:a9
-----BEGIN CERTIFICATE-----
MIICvDCCAiUCCQCbJ9fo0boJ1TANBgkqhkiG9w0BAQQFADCBlTELMAkGA1UEBhMC
REUxETAPBgNVBAgTCFNhYXJsYW5kMRAwDgYDVQQKEwdNUEktU1dTMSIwIAYDVQQL
ExlEaXN0cmlidXRlZCBTeXN0ZW1zIEdyb3VwMRowGAYDVQQDExFBbmRyZWFzIEhh
ZWJlcmxlbjEhMB8GCSqGSIb3DQEJARYSZGVtb2NhQG9jdGFyaW5lLmRlMB4XDTE1
MDQyMDIwNDcxOVoXDTE2MDQxOTIwNDcxOVowga4xCzAJBgNVBAYTAkRFMREwDwYD
VQQIEwhTYWFybGFuZDEQMA4GA1UEChMHTVBJLVNXUzEiMCAGA1UECxMZRGlzdHJp
YnV0ZWQgU3lzdGVtcyBHcm91cDExMC8GA1UEAxMoMzViZmNkOTdlMGIzNTMzNDU4
ZDBlOGMxZjE4YmMxZWY3OWU0NjdiNDEjMCEGCSqGSIb3DQEJARYUbm9kZTA1MDlA
b2N0YXJpbmUuZGUwgZ8wDQYJKoZIhvcNAQEBBQADgY0AMIGJAoGBAOVpftrv41oO
DmZbAdgiAF5VqumEH6pssJuujMKlAWBKyUpKhGj2t9NqVnGtfT0wcRne14JHSTzk
dbUrsdspWDtkhiVTHbbCsjuid+8pIfJYyMHWzu+FllT6BzBZJ6ttWY5QM7amFzO8
LRwHs3Pc3nMh0VAbZOa/qu1KNNKKqLo3AgMBAAEwDQYJKoZIhvcNAQEEBQADgYEA
jMtOcgWBwqF02Xe2KcjwOC+rVpVaaUBa91QtPEWucHvlWL4OKE0yNnUQPaglRq3h
qUS2DZHfTtdMEvsnTOFxPwPtWhlGbivdlAQHaEQHY4GIndrSnv2lQRy0tcWqDpaI
TPziV7PQ/kQsyk3iySfk9ZFNaoihBZlzWtCTZETlz6k=
-----END CERTIFICATE-----
