Certificate:
    Data:
        Version: 1 (0x0)
        Serial Number:
            9b:27:d7:e8:d1:ba:08:64
        Signature Algorithm: md5WithRSAEncryption
        Issuer: C=DE, ST=Saarland, O=MPI-SWS, OU=Distributed Systems Group, CN=Andreas Haeberlen/emailAddress=democa@octarine.de
        Validity
            Not Before: Apr 20 20:47:03 2015 GMT
            Not After : Apr 19 20:47:03 2016 GMT
        Subject: C=DE, ST=Saarland, O=MPI-SWS, OU=Distributed Systems Group, CN=8dc0f9de32f32e35073aa639b0a3799066160e43/emailAddress=node0140@octarine.de
        Subject Public Key Info:
            Public Key Algorithm: rsaEncryption
            RSA Public Key: (1024 bit)
                Modulus (1024 bit):
                    00:ce:31:04:f2:6c:ab:0f:bd:d6:91:62:14:f4:a6:
                    47:ed:c8:d6:10:67:89:c7:12:94:64:84:be:21:a3:
                    ac:fb:e2:19:b5:05:a6:83:62:91:39:80:7b:e0:d0:
                    4d:35:53:6a:50:59:64:8c:a6:5c:80:b5:f4:37:ce:
                    10:55:d8:bc:26:f2:e5:ec:05:f0:2e:f8:a1:75:93:
                    e8:0b:e3:f6:1a:34:0b:f0:a1:53:ff:5d:4d:8b:d9:
                    3d:df:6a:82:6c:bd:83:00:cd:9d:78:80:ba:b2:85:
                    92:29:14:ee:9f:74:6f:a8:81:d5:a0:90:44:18:cc:
                    d4:4a:eb:8e:ff:d2:70:e9:3b
                Exponent: 65537 (0x10001)
    Signature Algorithm: md5WithRSAEncryption
        c4:41:b4:91:c7:ef:1d:98:83:90:39:f4:f4:0c:00:8c:95:6e:
        49:2c:50:f4:c0:ef:7f:1f:19:59:f4:67:57:12:fc:94:ce:6a:
        69:e0:c1:b7:e4:ad:e3:01:a7:78:81:67:83:2c:db:e2:7c:9f:
        ca:dd:95:99:d6:45:7a:18:0b:80:4d:dc:9e:35:4d:72:ea:12:
        c0:eb:69:57:d2:6c:cd:f2:96:6b:65:05:83:32:b0:6f:c2:a2:
        c4:3a:86:53:8e:8e:66:99:a0:65:72:cb:1c:a3:9b:84:1b:97:
        37:26:a2:8d:97:17:22:bd:60:8c:61:1b:ad:bf:a0:64:74:a7:
        48:a3
-----BEGIN CERTIFICATE-----
MIICvDCCAiUCCQCbJ9fo0boIZDANBgkqhkiG9w0BAQQFADCBlTELMAkGA1UEBhMC
REUxETAPBgNVBAgTCFNhYXJsYW5kMRAwDgYDVQQKEwdNUEktU1dTMSIwIAYDVQQL
ExlEaXN0cmlidXRlZCBTeXN0ZW1zIEdyb3VwMRowGAYDVQQDExFBbmRyZWFzIEhh
ZWJlcmxlbjEhMB8GCSqGSIb3DQEJARYSZGVtb2NhQG9jdGFyaW5lLmRlMB4XDTE1
MDQyMDIwNDcwM1oXDTE2MDQxOTIwNDcwM1owga4xCzAJBgNVBAYTAkRFMREwDwYD
VQQIEwhTYWFybGFuZDEQMA4GA1UEChMHTVBJLVNXUzEiMCAGA1UECxMZRGlzdHJp
YnV0ZWQgU3lzdGVtcyBHcm91cDExMC8GA1UEAxMoOGRjMGY5ZGUzMmYzMmUzNTA3
M2FhNjM5YjBhMzc5OTA2NjE2MGU0MzEjMCEGCSqGSIb3DQEJARYUbm9kZTAxNDBA
b2N0YXJpbmUuZGUwgZ8wDQYJKoZIhvcNAQEBBQADgY0AMIGJAoGBAM4xBPJsqw+9
1pFiFPSmR+3I1hBniccSlGSEviGjrPviGbUFpoNikTmAe+DQTTVTalBZZIymXIC1
9DfOEFXYvCby5ewF8C74oXWT6Avj9ho0C/ChU/9dTYvZPd9qgmy9gwDNnXiAurKF
kikU7p90b6iB1aCQRBjM1Errjv/ScOk7AgMBAAEwDQYJKoZIhvcNAQEEBQADgYEA
xEG0kcfvHZiDkDn09AwAjJVuSSxQ9MDvfx8ZWfRnVxL8lM5qaeDBt+St4wGneIFn
gyzb4nyfyt2VmdZFehgLgE3cnjVNcuoSwOtpV9JszfKWa2UFgzKwb8KixDqGU46O
ZpmgZXLLHKObhBuXNyaijZcXIr1gjGEbrb+gZHSnSKM=
-----END CERTIFICATE-----
