Certificate:
    Data:
        Version: 1 (0x0)
        Serial Number:
            9b:27:d7:e8:d1:ba:08:e0
        Signature Algorithm: md5WithRSAEncryption
        Issuer: C=DE, ST=Saarland, O=MPI-SWS, OU=Distributed Systems Group, CN=Andreas Haeberlen/emailAddress=democa@octarine.de
        Validity
            Not Before: Apr 20 20:47:08 2015 GMT
            Not After : Apr 19 20:47:08 2016 GMT
        Subject: C=DE, ST=Saarland, O=MPI-SWS, OU=Distributed Systems Group, CN=b388fdd6a67e3c6fe9827e6d49b28a34dbdc9a33/emailAddress=node0264@octarine.de
        Subject Public Key Info:
            Public Key Algorithm: rsaEncryption
            RSA Public Key: (1024 bit)
                Modulus (1024 bit):
                    00:b7:c0:50:30:ff:fb:1e:60:8d:cd:04:ec:67:31:
                    8f:9a:b7:66:a8:a4:60:e7:d2:91:38:a7:69:7f:5c:
                    e1:98:b1:00:8a:7e:ae:cb:fc:39:e1:da:01:a4:14:
                    7e:40:f0:bf:4e:03:5e:8d:4e:21:2c:d9:d3:29:29:
                    fb:b8:aa:11:c0:cc:02:02:4d:d9:9b:f2:0d:42:39:
                    57:72:8c:77:70:e4:ae:24:8c:18:85:71:e0:fb:14:
                    70:4a:a7:43:7a:1a:ca:c3:7d:7a:63:b3:6f:48:79:
                    d4:22:93:b7:41:c7:63:90:e9:d8:ae:ce:88:5e:02:
                    02:ea:bc:0e:8c:22:e6:e3:37
                Exponent: 65537 (0x10001)
    Signature Algorithm: md5WithRSAEncryption
        43:7f:33:3d:b9:99:3b:c3:55:fe:1f:f7:8d:40:8e:f5:4a:e0:
        61:2f:80:60:cb:7f:0a:7e:97:d2:c1:f8:62:eb:f0:18:c0:c0:
        5a:6f:47:4a:78:e6:79:10:61:fd:b2:1a:b8:36:67:01:9c:d6:
        67:fc:1e:b7:b9:47:bf:b2:f2:b9:5e:6d:76:af:40:8e:5c:19:
        8e:97:35:03:21:ef:79:13:bc:7c:e8:76:01:a0:45:de:ed:44:
        b6:f3:ba:83:ff:6f:07:b3:94:f9:2c:50:de:94:a0:ee:26:2a:
        23:26:03:80:56:74:b8:d5:ba:a8:ec:4b:50:f9:5b:57:56:3e:
        fd:21
-----BEGIN CERTIFICATE-----
MIICvDCCAiUCCQCbJ9fo0boI4DANBgkqhkiG9w0BAQQFADCBlTELMAkGA1UEBhMC
REUxETAPBgNVBAgTCFNhYXJsYW5kMRAwDgYDVQQKEwdNUEktU1dTMSIwIAYDVQQL
ExlEaXN0cmlidXRlZCBTeXN0ZW1zIEdyb3VwMRowGAYDVQQDExFBbmRyZWFzIEhh
ZWJlcmxlbjEhMB8GCSqGSIb3DQEJARYSZGVtb2NhQG9jdGFyaW5lLmRlMB4XDTE1
MDQyMDIwNDcwOFoXDTE2MDQxOTIwNDcwOFowga4xCzAJBgNVBAYTAkRFMREwDwYD
VQQIEwhTYWFybGFuZDEQMA4GA1UEChMHTVBJLVNXUzEiMCAGA1UECxMZRGlzdHJp
YnV0ZWQgU3lzdGVtcyBHcm91cDExMC8GA1UEAxMoYjM4OGZkZDZhNjdlM2M2ZmU5
ODI3ZTZkNDliMjhhMzRkYmRjOWEzMzEjMCEGCSqGSIb3DQEJARYUbm9kZTAyNjRA
b2N0YXJpbmUuZGUwgZ8wDQYJKoZIhvcNAQEBBQADgY0AMIGJAoGBALfAUDD/+x5g
jc0E7Gcxj5q3ZqikYOfSkTinaX9c4ZixAIp+rsv8OeHaAaQUfkDwv04DXo1OISzZ
0ykp+7iqEcDMAgJN2ZvyDUI5V3KMd3DkriSMGIVx4PsUcEqnQ3oaysN9emOzb0h5
1CKTt0HHY5Dp2K7OiF4CAuq8Dowi5uM3AgMBAAEwDQYJKoZIhvcNAQEEBQADgYEA
Q38zPbmZO8NV/h/3jUCO9UrgYS+AYMt/Cn6X0sH4YuvwGMDAWm9HSnjmeRBh/bIa
uDZnAZzWZ/wet7lHv7LyuV5tdq9AjlwZjpc1AyHveRO8fOh2AaBF3u1EtvO6g/9v
B7OU+SxQ3pSg7iYqIyYDgFZ0uNW6qOxLUPlbV1Y+/SE=
-----END CERTIFICATE-----
