Certificate:
    Data:
        Version: 1 (0x0)
        Serial Number:
            9b:27:d7:e8:d1:ba:0b:a1
        Signature Algorithm: md5WithRSAEncryption
        Issuer: C=DE, ST=Saarland, O=MPI-SWS, OU=Distributed Systems Group, CN=Andreas Haeberlen/emailAddress=democa@octarine.de
        Validity
            Not Before: Apr 20 20:47:40 2015 GMT
            Not After : Apr 19 20:47:40 2016 GMT
        Subject: C=DE, ST=Saarland, O=MPI-SWS, OU=Distributed Systems Group, CN=64b1b925264200905a57394ef98f52ab65d1ef70/emailAddress=node0969@octarine.de
        Subject Public Key Info:
            Public Key Algorithm: rsaEncryption
            RSA Public Key: (1024 bit)
                Modulus (1024 bit):
                    00:d6:11:1c:7a:6a:df:19:f9:b6:38:09:77:d7:60:
                    b9:09:55:d5:e9:fb:05:92:55:47:84:f6:9a:75:17:
                    ab:f4:5c:42:da:fb:6e:e6:84:ad:4d:bc:a7:18:ec:
                    0f:65:0e:be:84:40:04:6f:53:54:83:ef:50:43:c4:
                    79:bb:40:4b:7d:76:01:d9:7e:c6:27:a8:c2:d7:e9:
                    ce:54:51:dc:cc:72:c3:fe:ed:59:d4:2d:77:c3:8a:
                    ec:b9:89:9e:11:4b:37:42:d3:e9:95:66:f1:3f:2b:
                    26:cf:ca:7d:d9:29:f5:0c:68:e1:9d:eb:72:7f:07:
                    b0:c3:1c:6c:2d:c3:ce:00:99
                Exponent: 65537 (0x10001)
    Signature Algorithm: md5WithRSAEncryption
        1d:38:21:56:6d:8b:40:6a:f3:61:09:ad:9a:af:d3:ef:44:34:
        14:11:38:d2:b0:9a:96:7b:9e:4c:3d:cf:e8:98:10:e4:61:e0:
        e7:c8:79:7d:70:0b:cd:53:e8:eb:80:66:3e:41:91:7c:40:1e:
        bb:28:90:21:9e:55:84:c5:22:14:71:2b:c5:99:7a:42:c1:34:
        cd:67:f6:a5:d7:8c:f5:9c:f5:1e:c7:79:fd:23:f0:63:31:af:
        e1:20:f7:43:9e:5a:7a:d9:15:f8:c5:7b:fd:e5:1e:ac:ff:d6:
        36:06:d3:8c:29:e1:7a:0b:fc:2e:f3:11:c4:20:5a:dd:e8:ef:
        48:10
-----BEGIN CERTIFICATE-----
MIICvDCCAiUCCQCbJ9fo0boLoTANBgkqhkiG9w0BAQQFADCBlTELMAkGA1UEBhMC
REUxETAPBgNVBAgTCFNhYXJsYW5kMRAwDgYDVQQKEwdNUEktU1dTMSIwIAYDVQQL
ExlEaXN0cmlidXRlZCBTeXN0ZW1zIEdyb3VwMRowGAYDVQQDExFBbmRyZWFzIEhh
ZWJlcmxlbjEhMB8GCSqGSIb3DQEJARYSZGVtb2NhQG9jdGFyaW5lLmRlMB4XDTE1
MDQyMDIwNDc0MFoXDTE2MDQxOTIwNDc0MFowga4xCzAJBgNVBAYTAkRFMREwDwYD
VQQIEwhTYWFybGFuZDEQMA4GA1UEChMHTVBJLVNXUzEiMCAGA1UECxMZRGlzdHJp
YnV0ZWQgU3lzdGVtcyBHcm91cDExMC8GA1UEAxMoNjRiMWI5MjUyNjQyMDA5MDVh
NTczOTRlZjk4ZjUyYWI2NWQxZWY3MDEjMCEGCSqGSIb3DQEJARYUbm9kZTA5NjlA
b2N0YXJpbmUuZGUwgZ8wDQYJKoZIhvcNAQEBBQADgY0AMIGJAoGBANYRHHpq3xn5
tjgJd9dguQlV1en7BZJVR4T2mnUXq/RcQtr7buaErU28pxjsD2UOvoRABG9TVIPv
UEPEebtAS312Adl+xieowtfpzlRR3Mxyw/7tWdQtd8OK7LmJnhFLN0LT6ZVm8T8r
Js/Kfdkp9Qxo4Z3rcn8HsMMcbC3DzgCZAgMBAAEwDQYJKoZIhvcNAQEEBQADgYEA
HTghVm2LQGrzYQmtmq/T70Q0FBE40rCalnueTD3P6JgQ5GHg58h5fXALzVPo64Bm
PkGRfEAeuyiQIZ5VhMUiFHErxZl6QsE0zWf2pdeM9Zz1Hsd5/SPwYzGv4SD3Q55a
etkV+MV7/eUerP/WNgbTjCnhegv8LvMRxCBa3ejvSBA=
-----END CERTIFICATE-----
