Certificate:
    Data:
        Version: 1 (0x0)
        Serial Number:
            9b:27:d7:e8:d1:ba:09:fa
        Signature Algorithm: md5WithRSAEncryption
        Issuer: C=DE, ST=Saarland, O=MPI-SWS, OU=Distributed Systems Group, CN=Andreas Haeberlen/emailAddress=democa@octarine.de
        Validity
            Not Before: Apr 20 20:47:21 2015 GMT
            Not After : Apr 19 20:47:21 2016 GMT
        Subject: C=DE, ST=Saarland, O=MPI-SWS, OU=Distributed Systems Group, CN=c71119f0a78cf54c724dc84fb725a606d28ec7f7/emailAddress=node0546@octarine.de
        Subject Public Key Info:
            Public Key Algorithm: rsaEncryption
            RSA Public Key: (1024 bit)
                Modulus (1024 bit):
                    00:a8:b4:0c:e0:6e:1a:00:de:64:41:5d:71:38:91:
                    33:52:11:22:74:a2:52:33:dd:8e:10:d4:be:fa:da:
                    01:4e:87:6b:87:5a:2f:49:58:c9:85:7a:5f:6f:76:
                    51:77:26:29:0c:6e:9e:ad:33:46:5e:af:19:a8:d1:
                    a2:09:3d:10:1e:f8:ab:c3:88:e0:4b:93:54:ef:49:
                    dd:d2:53:15:a1:2c:5b:6d:83:a5:2b:c4:b4:fe:14:
                    ae:83:54:49:f4:5b:c4:73:8f:e6:49:c6:97:fe:98:
                    7c:9a:48:4a:aa:85:90:7a:52:50:cc:82:70:49:dc:
                    5d:5e:0a:bb:7f:22:fd:28:87
                Exponent: 65537 (0x10001)
    Signature Algorithm: md5WithRSAEncryption
        04:fe:0e:09:54:82:af:86:b5:d9:f6:18:9e:71:65:62:66:85:
        68:a2:3a:fb:57:4e:3a:ce:08:ae:29:f0:83:ae:eb:ed:db:6a:
        e4:77:d3:89:80:e1:89:64:ad:65:c4:01:98:44:57:87:b4:4f:
        b8:77:50:de:27:64:03:a5:61:2c:94:70:39:68:e6:05:d0:24:
        93:6a:05:28:36:c9:e8:cb:17:62:6d:b7:25:d0:f8:27:fc:93:
        07:d6:86:4f:cc:a6:e7:69:e9:6c:a6:e8:57:07:1b:c3:b6:d7:
        0b:8f:5c:fc:b3:ec:cd:43:7c:d5:2a:09:1a:78:64:98:1d:06:
        4c:25
-----BEGIN CERTIFICATE-----
MIICvDCCAiUCCQCbJ9fo0boJ+jANBgkqhkiG9w0BAQQFADCBlTELMAkGA1UEBhMC
REUxETAPBgNVBAgTCFNhYXJsYW5kMRAwDgYDVQQKEwdNUEktU1dTMSIwIAYDVQQL
ExlEaXN0cmlidXRlZCBTeXN0ZW1zIEdyb3VwMRowGAYDVQQDExFBbmRyZWFzIEhh
ZWJlcmxlbjEhMB8GCSqGSIb3DQEJARYSZGVtb2NhQG9jdGFyaW5lLmRlMB4XDTE1
MDQyMDIwNDcyMVoXDTE2MDQxOTIwNDcyMVowga4xCzAJBgNVBAYTAkRFMREwDwYD
VQQIEwhTYWFybGFuZDEQMA4GA1UEChMHTVBJLVNXUzEiMCAGA1UECxMZRGlzdHJp
YnV0ZWQgU3lzdGVtcyBHcm91cDExMC8GA1UEAxMoYzcxMTE5ZjBhNzhjZjU0Yzcy
NGRjODRmYjcyNWE2MDZkMjhlYzdmNzEjMCEGCSqGSIb3DQEJARYUbm9kZTA1NDZA
b2N0YXJpbmUuZGUwgZ8wDQYJKoZIhvcNAQEBBQADgY0AMIGJAoGBAKi0DOBuGgDe
ZEFdcTiRM1IRInSiUjPdjhDUvvraAU6Ha4daL0lYyYV6X292UXcmKQxunq0zRl6v
GajRogk9EB74q8OI4EuTVO9J3dJTFaEsW22DpSvEtP4UroNUSfRbxHOP5knGl/6Y
fJpISqqFkHpSUMyCcEncXV4Ku38i/SiHAgMBAAEwDQYJKoZIhvcNAQEEBQADgYEA
BP4OCVSCr4a12fYYnnFlYmaFaKI6+1dOOs4Irinwg67r7dtq5HfTiYDhiWStZcQB
mERXh7RPuHdQ3idkA6VhLJRwOWjmBdAkk2oFKDbJ6MsXYm23JdD4J/yTB9aGT8ym
52npbKboVwcbw7bXC49c/LPszUN81SoJGnhkmB0GTCU=
-----END CERTIFICATE-----
