Certificate:
    Data:
        Version: 1 (0x0)
        Serial Number:
            9b:27:d7:e8:d1:ba:08:36
        Signature Algorithm: md5WithRSAEncryption
        Issuer: C=DE, ST=Saarland, O=MPI-SWS, OU=Distributed Systems Group, CN=Andreas Haeberlen/emailAddress=democa@octarine.de
        Validity
            Not Before: Apr 20 20:47:01 2015 GMT
            Not After : Apr 19 20:47:01 2016 GMT
        Subject: C=DE, ST=Saarland, O=MPI-SWS, OU=Distributed Systems Group, CN=218552de508bb52623e7e07efb668e5bfe140e35/emailAddress=node0094@octarine.de
        Subject Public Key Info:
            Public Key Algorithm: rsaEncryption
            RSA Public Key: (1024 bit)
                Modulus (1024 bit):
                    00:b3:a9:03:eb:62:d2:a7:d5:6d:50:24:5c:a4:14:
                    5c:aa:ee:ab:d7:4d:0a:54:39:ac:ab:2c:b5:e6:3f:
                    c9:46:9b:1c:cf:8a:ed:90:2e:f1:cf:fa:d8:e3:cf:
                    24:7f:12:b2:9a:cd:43:81:f5:6e:f0:bf:38:b9:89:
                    36:44:cd:8f:30:e5:04:e9:d2:a7:31:b7:48:ca:cd:
                    e8:49:be:e5:ae:b2:55:fd:3a:b6:25:f1:f4:d6:b6:
                    ae:12:76:4d:87:1d:51:94:2a:8a:07:5d:d1:5f:de:
                    2d:ef:82:d6:45:6c:e2:60:a1:93:57:d1:59:ba:e1:
                    cb:a9:37:99:c2:b7:74:d1:7b
                Exponent: 65537 (0x10001)
    Signature Algorithm: md5WithRSAEncryption
        65:5d:e3:a5:db:63:47:05:3e:b1:79:6a:79:48:26:9e:dc:ad:
        8f:6e:c4:3d:44:09:f8:2d:52:a3:74:72:11:71:56:b2:40:6b:
        d7:10:88:aa:2f:d5:35:51:f5:42:a6:d1:c1:7c:6c:1a:fd:0f:
        60:e6:9c:64:7c:2f:cd:da:6a:43:99:70:3c:22:36:87:38:e2:
        38:45:0e:14:c9:b5:b1:8e:31:ca:21:1f:0f:3b:62:56:bd:13:
        70:f1:98:94:05:83:db:25:5a:4a:63:6e:7f:7d:51:66:b9:77:
        33:5e:99:16:79:3c:0f:45:4d:b3:f1:04:70:f6:db:4a:f4:ec:
        30:5b
-----BEGIN CERTIFICATE-----
MIICvDCCAiUCCQCbJ9fo0boINjANBgkqhkiG9w0BAQQFADCBlTELMAkGA1UEBhMC
REUxETAPBgNVBAgTCFNhYXJsYW5kMRAwDgYDVQQKEwdNUEktU1dTMSIwIAYDVQQL
ExlEaXN0cmlidXRlZCBTeXN0ZW1zIEdyb3VwMRowGAYDVQQDExFBbmRyZWFzIEhh
ZWJlcmxlbjEhMB8GCSqGSIb3DQEJARYSZGVtb2NhQG9jdGFyaW5lLmRlMB4XDTE1
MDQyMDIwNDcwMVoXDTE2MDQxOTIwNDcwMVowga4xCzAJBgNVBAYTAkRFMREwDwYD
VQQIEwhTYWFybGFuZDEQMA4GA1UEChMHTVBJLVNXUzEiMCAGA1UECxMZRGlzdHJp
YnV0ZWQgU3lzdGVtcyBHcm91cDExMC8GA1UEAxMoMjE4NTUyZGU1MDhiYjUyNjIz
ZTdlMDdlZmI2NjhlNWJmZTE0MGUzNTEjMCEGCSqGSIb3DQEJARYUbm9kZTAwOTRA
b2N0YXJpbmUuZGUwgZ8wDQYJKoZIhvcNAQEBBQADgY0AMIGJAoGBALOpA+ti0qfV
bVAkXKQUXKruq9dNClQ5rKssteY/yUabHM+K7ZAu8c/62OPPJH8SsprNQ4H1bvC/
OLmJNkTNjzDlBOnSpzG3SMrN6Em+5a6yVf06tiXx9Na2rhJ2TYcdUZQqigdd0V/e
Le+C1kVs4mChk1fRWbrhy6k3mcK3dNF7AgMBAAEwDQYJKoZIhvcNAQEEBQADgYEA
ZV3jpdtjRwU+sXlqeUgmntytj27EPUQJ+C1So3RyEXFWskBr1xCIqi/VNVH1QqbR
wXxsGv0PYOacZHwvzdpqQ5lwPCI2hzjiOEUOFMm1sY4xyiEfDztiVr0TcPGYlAWD
2yVaSmNuf31RZrl3M16ZFnk8D0VNs/EEcPbbSvTsMFs=
-----END CERTIFICATE-----
