Certificate:
    Data:
        Version: 1 (0x0)
        Serial Number:
            9b:27:d7:e8:d1:ba:0a:65
        Signature Algorithm: md5WithRSAEncryption
        Issuer: C=DE, ST=Saarland, O=MPI-SWS, OU=Distributed Systems Group, CN=Andreas Haeberlen/emailAddress=democa@octarine.de
        Validity
            Not Before: Apr 20 20:47:25 2015 GMT
            Not After : Apr 19 20:47:25 2016 GMT
        Subject: C=DE, ST=Saarland, O=MPI-SWS, OU=Distributed Systems Group, CN=1ed6b329fcc4ea61cea219e7deb6e9af8763a8d9/emailAddress=node0653@octarine.de
        Subject Public Key Info:
            Public Key Algorithm: rsaEncryption
            RSA Public Key: (1024 bit)
                Modulus (1024 bit):
                    00:d0:c8:1f:59:27:79:ed:fb:d3:a9:47:34:a1:d5:
                    c8:df:48:be:90:71:9c:fe:ab:a1:e7:ab:c8:27:bf:
                    86:f9:37:dc:d3:ba:e9:85:03:d3:13:fe:ec:24:28:
                    e1:39:78:9b:58:1b:89:33:a6:37:5f:bb:d8:88:a4:
                    57:5e:d9:50:60:6f:a4:42:35:79:76:b0:93:a5:72:
                    34:4e:6e:08:e4:fa:7a:15:0b:08:11:2e:b4:64:11:
                    1a:b8:7e:ed:dd:f7:6c:f4:22:a5:7a:4a:b3:60:b8:
                    af:37:3d:07:dd:3d:55:4d:af:56:85:bd:6d:73:26:
                    67:8e:18:70:24:3d:29:1e:4b
                Exponent: 65537 (0x10001)
    Signature Algorithm: md5WithRSAEncryption
        60:9b:30:73:3a:17:17:34:83:ae:77:19:2c:68:99:a1:d4:6e:
        58:61:54:44:a8:0d:26:25:82:58:1f:ea:67:ee:18:50:11:30:
        a0:86:2c:41:1a:17:e0:68:69:0d:17:61:9f:5e:93:64:65:a1:
        d6:c8:d6:77:ba:84:9f:60:ea:a9:0f:b7:d0:ad:7d:2e:67:a6:
        c0:f2:e8:cf:6e:18:66:7c:ee:50:60:e4:5d:27:67:8c:a0:64:
        c2:e1:d5:a9:b7:bb:3a:6f:99:65:95:30:66:69:30:f8:8e:57:
        37:ec:79:e1:0d:57:72:5b:3b:b4:b0:e9:57:a6:d3:ab:4f:50:
        3d:aa
-----BEGIN CERTIFICATE-----
MIICvDCCAiUCCQCbJ9fo0boKZTANBgkqhkiG9w0BAQQFADCBlTELMAkGA1UEBhMC
REUxETAPBgNVBAgTCFNhYXJsYW5kMRAwDgYDVQQKEwdNUEktU1dTMSIwIAYDVQQL
ExlEaXN0cmlidXRlZCBTeXN0ZW1zIEdyb3VwMRowGAYDVQQDExFBbmRyZWFzIEhh
ZWJlcmxlbjEhMB8GCSqGSIb3DQEJARYSZGVtb2NhQG9jdGFyaW5lLmRlMB4XDTE1
MDQyMDIwNDcyNVoXDTE2MDQxOTIwNDcyNVowga4xCzAJBgNVBAYTAkRFMREwDwYD
VQQIEwhTYWFybGFuZDEQMA4GA1UEChMHTVBJLVNXUzEiMCAGA1UECxMZRGlzdHJp
YnV0ZWQgU3lzdGVtcyBHcm91cDExMC8GA1UEAxMoMWVkNmIzMjlmY2M0ZWE2MWNl
YTIxOWU3ZGViNmU5YWY4NzYzYThkOTEjMCEGCSqGSIb3DQEJARYUbm9kZTA2NTNA
b2N0YXJpbmUuZGUwgZ8wDQYJKoZIhvcNAQEBBQADgY0AMIGJAoGBANDIH1knee37
06lHNKHVyN9IvpBxnP6roeeryCe/hvk33NO66YUD0xP+7CQo4Tl4m1gbiTOmN1+7
2IikV17ZUGBvpEI1eXawk6VyNE5uCOT6ehULCBEutGQRGrh+7d33bPQipXpKs2C4
rzc9B909VU2vVoW9bXMmZ44YcCQ9KR5LAgMBAAEwDQYJKoZIhvcNAQEEBQADgYEA
YJswczoXFzSDrncZLGiZodRuWGFURKgNJiWCWB/qZ+4YUBEwoIYsQRoX4GhpDRdh
n16TZGWh1sjWd7qEn2DqqQ+30K19LmemwPLoz24YZnzuUGDkXSdnjKBkwuHVqbe7
Om+ZZZUwZmkw+I5XN+x54Q1Xcls7tLDpV6bTq09QPao=
-----END CERTIFICATE-----
