Certificate:
    Data:
        Version: 1 (0x0)
        Serial Number:
            9b:27:d7:e8:d1:ba:08:e9
        Signature Algorithm: md5WithRSAEncryption
        Issuer: C=DE, ST=Saarland, O=MPI-SWS, OU=Distributed Systems Group, CN=Andreas Haeberlen/emailAddress=democa@octarine.de
        Validity
            Not Before: Apr 20 20:47:08 2015 GMT
            Not After : Apr 19 20:47:08 2016 GMT
        Subject: C=DE, ST=Saarland, O=MPI-SWS, OU=Distributed Systems Group, CN=b3924acb6eaa12d8e4a6ca27bd155841cd3070be/emailAddress=node0273@octarine.de
        Subject Public Key Info:
            Public Key Algorithm: rsaEncryption
            RSA Public Key: (1024 bit)
                Modulus (1024 bit):
                    00:ee:49:fd:63:42:51:4b:84:9d:03:54:35:38:5a:
                    94:51:1d:31:fe:46:ed:b4:15:fc:2c:d7:b2:30:f3:
                    ea:ed:ec:3f:dd:0a:db:38:6d:12:65:07:e4:cc:35:
                    59:2c:0e:c4:c0:20:dd:db:4c:29:06:41:99:c3:9a:
                    e0:a8:3d:6b:09:22:cf:06:48:7e:18:44:45:12:8a:
                    f8:47:d4:d4:25:45:cd:01:fd:38:d8:58:0e:d3:da:
                    f7:88:f6:3b:b7:de:96:5a:d6:5c:61:93:d6:a9:a0:
                    60:05:e9:a9:e9:be:b1:27:3e:e5:19:ac:90:0a:f8:
                    c4:d1:f9:cd:81:f0:c9:2f:2b
                Exponent: 65537 (0x10001)
    Signature Algorithm: md5WithRSAEncryption
        66:cd:b9:f0:28:a6:92:2c:cd:9e:32:ee:75:0f:13:47:ba:4f:
        d4:b3:66:09:6d:f9:57:bd:9b:77:85:25:5f:52:71:b0:a2:27:
        06:06:bc:2f:28:9f:60:9c:5f:cd:72:a2:86:c1:be:55:64:c4:
        6c:5a:b8:df:12:f4:a5:c0:99:e6:03:4e:70:1f:32:24:18:34:
        ca:8d:63:2b:71:f3:5a:4a:78:64:e4:46:d6:3c:91:bc:d1:5e:
        7d:d9:fd:1b:ef:95:c8:a4:83:f8:ff:6e:2a:70:a0:ea:31:f0:
        3f:c4:f8:06:13:e5:ee:f6:89:67:1e:01:3a:4e:e1:ff:cb:d9:
        3e:d7
-----BEGIN CERTIFICATE-----
MIICvDCCAiUCCQCbJ9fo0boI6TANBgkqhkiG9w0BAQQFADCBlTELMAkGA1UEBhMC
REUxETAPBgNVBAgTCFNhYXJsYW5kMRAwDgYDVQQKEwdNUEktU1dTMSIwIAYDVQQL
ExlEaXN0cmlidXRlZCBTeXN0ZW1zIEdyb3VwMRowGAYDVQQDExFBbmRyZWFzIEhh
ZWJlcmxlbjEhMB8GCSqGSIb3DQEJARYSZGVtb2NhQG9jdGFyaW5lLmRlMB4XDTE1
MDQyMDIwNDcwOFoXDTE2MDQxOTIwNDcwOFowga4xCzAJBgNVBAYTAkRFMREwDwYD
VQQIEwhTYWFybGFuZDEQMA4GA1UEChMHTVBJLVNXUzEiMCAGA1UECxMZRGlzdHJp
YnV0ZWQgU3lzdGVtcyBHcm91cDExMC8GA1UEAxMoYjM5MjRhY2I2ZWFhMTJkOGU0
YTZjYTI3YmQxNTU4NDFjZDMwNzBiZTEjMCEGCSqGSIb3DQEJARYUbm9kZTAyNzNA
b2N0YXJpbmUuZGUwgZ8wDQYJKoZIhvcNAQEBBQADgY0AMIGJAoGBAO5J/WNCUUuE
nQNUNThalFEdMf5G7bQV/CzXsjDz6u3sP90K2zhtEmUH5Mw1WSwOxMAg3dtMKQZB
mcOa4Kg9awkizwZIfhhERRKK+EfU1CVFzQH9ONhYDtPa94j2O7fellrWXGGT1qmg
YAXpqem+sSc+5RmskAr4xNH5zYHwyS8rAgMBAAEwDQYJKoZIhvcNAQEEBQADgYEA
Zs258CimkizNnjLudQ8TR7pP1LNmCW35V72bd4UlX1JxsKInBga8LyifYJxfzXKi
hsG+VWTEbFq43xL0pcCZ5gNOcB8yJBg0yo1jK3HzWkp4ZORG1jyRvNFefdn9G++V
yKSD+P9uKnCg6jHwP8T4BhPl7vaJZx4BOk7h/8vZPtc=
-----END CERTIFICATE-----
