Certificate:
    Data:
        Version: 1 (0x0)
        Serial Number:
            9b:27:d7:e8:d1:ba:08:db
        Signature Algorithm: md5WithRSAEncryption
        Issuer: C=DE, ST=Saarland, O=MPI-SWS, OU=Distributed Systems Group, CN=Andreas Haeberlen/emailAddress=democa@octarine.de
        Validity
            Not Before: Apr 20 20:47:08 2015 GMT
            Not After : Apr 19 20:47:08 2016 GMT
        Subject: C=DE, ST=Saarland, O=MPI-SWS, OU=Distributed Systems Group, CN=9a6eb9e6efa80c124282f334d324cac5424fc26a/emailAddress=node0259@octarine.de
        Subject Public Key Info:
            Public Key Algorithm: rsaEncryption
            RSA Public Key: (1024 bit)
                Modulus (1024 bit):
                    00:ba:61:13:b4:69:12:89:27:1f:c4:c0:09:af:ba:
                    9f:64:a9:33:ed:d7:a5:c4:86:9f:96:4d:2c:35:f6:
                    31:9d:6c:38:fd:63:ec:b3:07:f0:8f:d5:f7:ab:72:
                    fb:27:81:e9:ba:62:81:d6:39:ee:21:e5:e9:fe:24:
                    be:fa:df:96:d4:a7:32:8e:43:a0:01:d2:b5:63:dd:
                    51:44:1f:dd:16:87:43:68:f0:f8:97:1b:f2:0b:5f:
                    83:40:a7:de:b0:12:b6:80:8f:79:c8:20:49:eb:e9:
                    1b:1e:ca:f8:e6:59:74:f7:95:dd:2c:60:61:30:cf:
                    e1:5f:2b:74:78:cc:b8:87:83
                Exponent: 65537 (0x10001)
    Signature Algorithm: md5WithRSAEncryption
        9c:89:de:98:7e:15:5d:00:61:51:d0:64:f5:8f:3d:ad:43:34:
        5b:81:bc:df:24:4a:39:bb:57:bf:33:0d:0e:24:92:c8:8e:86:
        c0:ab:03:12:a2:83:ec:13:7e:f1:7b:56:f7:c8:69:c7:c8:5a:
        82:dc:65:fa:21:88:62:f5:d8:dd:5d:ea:e3:e2:c5:95:30:6a:
        e0:52:9a:3a:47:78:76:c4:8a:7a:08:90:e7:45:c8:11:f9:19:
        5d:8a:2a:95:36:1f:c9:5a:a0:13:dd:5e:14:6b:97:76:80:50:
        83:ab:01:79:af:5d:53:0d:e2:1a:7a:08:f8:5a:8b:b9:f9:c1:
        dc:ba
-----BEGIN CERTIFICATE-----
MIICvDCCAiUCCQCbJ9fo0boI2zANBgkqhkiG9w0BAQQFADCBlTELMAkGA1UEBhMC
REUxETAPBgNVBAgTCFNhYXJsYW5kMRAwDgYDVQQKEwdNUEktU1dTMSIwIAYDVQQL
ExlEaXN0cmlidXRlZCBTeXN0ZW1zIEdyb3VwMRowGAYDVQQDExFBbmRyZWFzIEhh
ZWJlcmxlbjEhMB8GCSqGSIb3DQEJARYSZGVtb2NhQG9jdGFyaW5lLmRlMB4XDTE1
MDQyMDIwNDcwOFoXDTE2MDQxOTIwNDcwOFowga4xCzAJBgNVBAYTAkRFMREwDwYD
VQQIEwhTYWFybGFuZDEQMA4GA1UEChMHTVBJLVNXUzEiMCAGA1UECxMZRGlzdHJp
YnV0ZWQgU3lzdGVtcyBHcm91cDExMC8GA1UEAxMoOWE2ZWI5ZTZlZmE4MGMxMjQy
ODJmMzM0ZDMyNGNhYzU0MjRmYzI2YTEjMCEGCSqGSIb3DQEJARYUbm9kZTAyNTlA
b2N0YXJpbmUuZGUwgZ8wDQYJKoZIhvcNAQEBBQADgY0AMIGJAoGBALphE7RpEokn
H8TACa+6n2SpM+3XpcSGn5ZNLDX2MZ1sOP1j7LMH8I/V96ty+yeB6bpigdY57iHl
6f4kvvrfltSnMo5DoAHStWPdUUQf3RaHQ2jw+Jcb8gtfg0Cn3rAStoCPecggSevp
Gx7K+OZZdPeV3SxgYTDP4V8rdHjMuIeDAgMBAAEwDQYJKoZIhvcNAQEEBQADgYEA
nInemH4VXQBhUdBk9Y89rUM0W4G83yRKObtXvzMNDiSSyI6GwKsDEqKD7BN+8XtW
98hpx8hagtxl+iGIYvXY3V3q4+LFlTBq4FKaOkd4dsSKegiQ50XIEfkZXYoqlTYf
yVqgE91eFGuXdoBQg6sBea9dUw3iGnoI+FqLufnB3Lo=
-----END CERTIFICATE-----
