Certificate:
    Data:
        Version: 1 (0x0)
        Serial Number:
            9b:27:d7:e8:d1:ba:0b:9e
        Signature Algorithm: md5WithRSAEncryption
        Issuer: C=DE, ST=Saarland, O=MPI-SWS, OU=Distributed Systems Group, CN=Andreas Haeberlen/emailAddress=democa@octarine.de
        Validity
            Not Before: Apr 20 20:47:40 2015 GMT
            Not After : Apr 19 20:47:40 2016 GMT
        Subject: C=DE, ST=Saarland, O=MPI-SWS, OU=Distributed Systems Group, CN=76633adf452d34e88c8060e82573a3e1945ce2c2/emailAddress=node0966@octarine.de
        Subject Public Key Info:
            Public Key Algorithm: rsaEncryption
            RSA Public Key: (1024 bit)
                Modulus (1024 bit):
                    00:b6:7b:df:a4:9b:01:14:07:ad:7b:2d:38:1d:da:
                    97:01:72:52:bb:ea:41:1d:91:81:6d:d4:91:d2:7a:
                    4a:ee:ac:95:a3:6b:40:76:95:7c:c2:5e:ab:62:2b:
                    68:5f:0c:b2:91:da:05:fe:6c:ed:00:ab:b7:f2:58:
                    7e:76:da:c2:22:ab:c5:09:09:2a:a6:c9:88:2e:e2:
                    b1:ef:f3:05:58:54:97:4f:6d:7f:2b:0d:11:a2:0a:
                    d5:0e:60:f1:e8:57:bd:5e:d2:36:ea:4a:ba:5b:c5:
                    db:db:1b:13:75:5d:63:2d:0b:7b:f2:66:89:63:35:
                    83:c7:2a:70:c1:b4:10:04:e1
                Exponent: 65537 (0x10001)
    Signature Algorithm: md5WithRSAEncryption
        33:18:3e:ca:0a:e1:08:9e:a7:0c:21:0d:95:68:b4:2d:14:3e:
        bd:ef:e7:5b:ae:a3:3d:b9:80:66:d0:4f:3b:bb:eb:a6:74:60:
        89:28:c7:5c:ed:df:b0:34:f2:14:ef:ad:d9:12:5a:54:09:43:
        5b:de:6d:23:9d:61:0d:7c:74:24:91:e3:a7:68:d6:63:8b:74:
        fc:2f:37:00:a2:7e:21:1d:bc:4b:f3:f4:bb:0d:bb:dc:4f:02:
        07:6c:4d:44:cb:b9:13:32:37:d6:47:04:16:d4:7b:f9:12:2d:
        47:be:f1:36:58:7a:74:42:f2:5e:04:55:55:f9:65:1d:25:c7:
        55:db
-----BEGIN CERTIFICATE-----
MIICvDCCAiUCCQCbJ9fo0boLnjANBgkqhkiG9w0BAQQFADCBlTELMAkGA1UEBhMC
REUxETAPBgNVBAgTCFNhYXJsYW5kMRAwDgYDVQQKEwdNUEktU1dTMSIwIAYDVQQL
ExlEaXN0cmlidXRlZCBTeXN0ZW1zIEdyb3VwMRowGAYDVQQDExFBbmRyZWFzIEhh
ZWJlcmxlbjEhMB8GCSqGSIb3DQEJARYSZGVtb2NhQG9jdGFyaW5lLmRlMB4XDTE1
MDQyMDIwNDc0MFoXDTE2MDQxOTIwNDc0MFowga4xCzAJBgNVBAYTAkRFMREwDwYD
VQQIEwhTYWFybGFuZDEQMA4GA1UEChMHTVBJLVNXUzEiMCAGA1UECxMZRGlzdHJp
YnV0ZWQgU3lzdGVtcyBHcm91cDExMC8GA1UEAxMoNzY2MzNhZGY0NTJkMzRlODhj
ODA2MGU4MjU3M2EzZTE5NDVjZTJjMjEjMCEGCSqGSIb3DQEJARYUbm9kZTA5NjZA
b2N0YXJpbmUuZGUwgZ8wDQYJKoZIhvcNAQEBBQADgY0AMIGJAoGBALZ736SbARQH
rXstOB3alwFyUrvqQR2RgW3UkdJ6Su6slaNrQHaVfMJeq2IraF8MspHaBf5s7QCr
t/JYfnbawiKrxQkJKqbJiC7ise/zBVhUl09tfysNEaIK1Q5g8ehXvV7SNupKulvF
29sbE3VdYy0Le/JmiWM1g8cqcMG0EAThAgMBAAEwDQYJKoZIhvcNAQEEBQADgYEA
Mxg+ygrhCJ6nDCENlWi0LRQ+ve/nW66jPbmAZtBPO7vrpnRgiSjHXO3fsDTyFO+t
2RJaVAlDW95tI51hDXx0JJHjp2jWY4t0/C83AKJ+IR28S/P0uw273E8CB2xNRMu5
EzI31kcEFtR7+RItR77xNlh6dELyXgRVVfllHSXHVds=
-----END CERTIFICATE-----
