Certificate:
    Data:
        Version: 1 (0x0)
        Serial Number:
            9b:27:d7:e8:d1:ba:0b:17
        Signature Algorithm: md5WithRSAEncryption
        Issuer: C=DE, ST=Saarland, O=MPI-SWS, OU=Distributed Systems Group, CN=Andreas Haeberlen/emailAddress=democa@octarine.de
        Validity
            Not Before: Apr 20 20:47:34 2015 GMT
            Not After : Apr 19 20:47:34 2016 GMT
        Subject: C=DE, ST=Saarland, O=MPI-SWS, OU=Distributed Systems Group, CN=f4668007d7863852d8c61caa0d84d0ed453d5452/emailAddress=node0831@octarine.de
        Subject Public Key Info:
            Public Key Algorithm: rsaEncryption
            RSA Public Key: (1024 bit)
                Modulus (1024 bit):
                    00:cd:a4:f0:66:c3:7d:da:04:0a:8b:90:de:90:23:
                    e5:4e:f8:ed:65:67:10:36:aa:69:a7:d7:ce:14:a4:
                    75:83:8a:6d:73:ab:73:db:d5:45:2d:b5:b6:54:65:
                    85:96:a6:67:a2:f6:ae:4a:90:88:e4:6a:b3:80:a0:
                    5d:9f:81:c3:cf:a0:4b:d5:6f:46:77:40:52:86:c0:
                    2a:fa:3b:ac:f1:42:fb:3a:1c:ab:2c:e7:df:cb:df:
                    2e:f2:b0:65:cd:8c:f9:47:4b:44:a6:8d:aa:63:0a:
                    b4:0d:d8:8d:84:da:c1:95:9c:5e:8f:2b:8e:90:3e:
                    28:c3:24:73:4c:df:c1:63:cf
                Exponent: 65537 (0x10001)
    Signature Algorithm: md5WithRSAEncryption
        2d:54:0e:49:7c:9e:ea:ab:90:5b:60:4e:28:42:b0:08:7c:0c:
        d8:41:3b:fc:5b:2b:17:12:18:06:45:40:08:0c:ad:5a:e0:f3:
        56:df:3a:03:b0:33:b5:4f:a1:67:b9:63:7b:72:64:a9:d4:9d:
        1b:7b:c6:b8:71:8e:e7:83:60:4d:6c:45:88:5a:e3:88:c9:e4:
        ab:24:2c:41:4a:a6:d5:49:f9:fd:d8:2f:b9:c5:eb:68:db:b0:
        1a:e4:23:bd:1b:31:b0:95:0d:a3:8b:64:4b:88:eb:17:2b:1b:
        8c:41:7d:0f:5c:4e:c7:f3:9d:9b:ab:16:5f:f7:46:19:91:98:
        87:61
-----BEGIN CERTIFICATE-----
MIICvDCCAiUCCQCbJ9fo0boLFzANBgkqhkiG9w0BAQQFADCBlTELMAkGA1UEBhMC
REUxETAPBgNVBAgTCFNhYXJsYW5kMRAwDgYDVQQKEwdNUEktU1dTMSIwIAYDVQQL
ExlEaXN0cmlidXRlZCBTeXN0ZW1zIEdyb3VwMRowGAYDVQQDExFBbmRyZWFzIEhh
ZWJlcmxlbjEhMB8GCSqGSIb3DQEJARYSZGVtb2NhQG9jdGFyaW5lLmRlMB4XDTE1
MDQyMDIwNDczNFoXDTE2MDQxOTIwNDczNFowga4xCzAJBgNVBAYTAkRFMREwDwYD
VQQIEwhTYWFybGFuZDEQMA4GA1UEChMHTVBJLVNXUzEiMCAGA1UECxMZRGlzdHJp
YnV0ZWQgU3lzdGVtcyBHcm91cDExMC8GA1UEAxMoZjQ2NjgwMDdkNzg2Mzg1MmQ4
YzYxY2FhMGQ4NGQwZWQ0NTNkNTQ1MjEjMCEGCSqGSIb3DQEJARYUbm9kZTA4MzFA
b2N0YXJpbmUuZGUwgZ8wDQYJKoZIhvcNAQEBBQADgY0AMIGJAoGBAM2k8GbDfdoE
CouQ3pAj5U747WVnEDaqaafXzhSkdYOKbXOrc9vVRS21tlRlhZamZ6L2rkqQiORq
s4CgXZ+Bw8+gS9VvRndAUobAKvo7rPFC+zocqyzn38vfLvKwZc2M+UdLRKaNqmMK
tA3YjYTawZWcXo8rjpA+KMMkc0zfwWPPAgMBAAEwDQYJKoZIhvcNAQEEBQADgYEA
LVQOSXye6quQW2BOKEKwCHwM2EE7/FsrFxIYBkVACAytWuDzVt86A7AztU+hZ7lj
e3JkqdSdG3vGuHGO54NgTWxFiFrjiMnkqyQsQUqm1Un5/dgvucXraNuwGuQjvRsx
sJUNo4tkS4jrFysbjEF9D1xOx/Odm6sWX/dGGZGYh2E=
-----END CERTIFICATE-----
