Certificate:
    Data:
        Version: 1 (0x0)
        Serial Number:
            9b:27:d7:e8:d1:ba:0b:0b
        Signature Algorithm: md5WithRSAEncryption
        Issuer: C=DE, ST=Saarland, O=MPI-SWS, OU=Distributed Systems Group, CN=Andreas Haeberlen/emailAddress=democa@octarine.de
        Validity
            Not Before: Apr 20 20:47:33 2015 GMT
            Not After : Apr 19 20:47:33 2016 GMT
        Subject: C=DE, ST=Saarland, O=MPI-SWS, OU=Distributed Systems Group, CN=7232c7a3d7980bb3d42958a5e6e829eac1c896b6/emailAddress=node0819@octarine.de
        Subject Public Key Info:
            Public Key Algorithm: rsaEncryption
            RSA Public Key: (1024 bit)
                Modulus (1024 bit):
                    00:bb:2a:88:97:69:d3:d9:70:d9:08:92:8b:fc:84:
                    9d:ff:bf:1e:54:25:5b:c1:a9:c1:92:36:da:11:d4:
                    95:ae:91:00:e3:46:ab:fb:c5:26:3b:aa:17:1b:72:
                    eb:a5:d3:f6:08:c5:9c:d0:64:27:e1:b6:74:5e:29:
                    dc:fb:1c:78:62:5a:47:6d:4c:bc:e8:72:40:e3:3e:
                    2a:fa:be:76:35:69:6c:c6:6f:fc:07:dd:1c:47:e2:
                    e7:02:e3:b2:3e:a2:90:e4:00:d9:47:e6:9a:a6:95:
                    15:c1:ff:93:57:6b:09:65:56:e2:f6:ad:43:18:bd:
                    cc:91:d2:61:6e:2a:3e:44:c1
                Exponent: 65537 (0x10001)
    Signature Algorithm: md5WithRSAEncryption
        7e:78:a2:0d:ee:5f:74:17:4a:95:29:b4:23:27:ca:4b:6b:de:
        12:9a:48:f8:7d:c4:cb:06:aa:b2:54:87:08:4a:23:89:ce:dc:
        69:b8:c9:da:4b:d9:f8:07:06:76:d0:b1:b3:49:e8:36:a9:fc:
        bb:4a:9e:9a:23:d2:44:4f:7d:92:c2:3f:30:95:3c:26:5b:95:
        94:81:9f:95:e3:20:8a:1d:b2:ed:ad:15:15:dd:e9:f0:ea:7b:
        b3:e4:67:f1:1d:a5:0d:ba:64:d0:5e:7d:b2:57:1a:d6:e4:a8:
        30:b6:36:4f:42:54:c3:98:2c:0b:01:84:62:3a:56:5b:60:d4:
        c4:ba
-----BEGIN CERTIFICATE-----
MIICvDCCAiUCCQCbJ9fo0boLCzANBgkqhkiG9w0BAQQFADCBlTELMAkGA1UEBhMC
REUxETAPBgNVBAgTCFNhYXJsYW5kMRAwDgYDVQQKEwdNUEktU1dTMSIwIAYDVQQL
ExlEaXN0cmlidXRlZCBTeXN0ZW1zIEdyb3VwMRowGAYDVQQDExFBbmRyZWFzIEhh
ZWJlcmxlbjEhMB8GCSqGSIb3DQEJARYSZGVtb2NhQG9jdGFyaW5lLmRlMB4XDTE1
MDQyMDIwNDczM1oXDTE2MDQxOTIwNDczM1owga4xCzAJBgNVBAYTAkRFMREwDwYD
VQQIEwhTYWFybGFuZDEQMA4GA1UEChMHTVBJLVNXUzEiMCAGA1UECxMZRGlzdHJp
YnV0ZWQgU3lzdGVtcyBHcm91cDExMC8GA1UEAxMoNzIzMmM3YTNkNzk4MGJiM2Q0
Mjk1OGE1ZTZlODI5ZWFjMWM4OTZiNjEjMCEGCSqGSIb3DQEJARYUbm9kZTA4MTlA
b2N0YXJpbmUuZGUwgZ8wDQYJKoZIhvcNAQEBBQADgY0AMIGJAoGBALsqiJdp09lw
2QiSi/yEnf+/HlQlW8GpwZI22hHUla6RAONGq/vFJjuqFxty66XT9gjFnNBkJ+G2
dF4p3PsceGJaR21MvOhyQOM+Kvq+djVpbMZv/AfdHEfi5wLjsj6ikOQA2UfmmqaV
FcH/k1drCWVW4vatQxi9zJHSYW4qPkTBAgMBAAEwDQYJKoZIhvcNAQEEBQADgYEA
fniiDe5fdBdKlSm0IyfKS2veEppI+H3EywaqslSHCEojic7cabjJ2kvZ+AcGdtCx
s0noNqn8u0qemiPSRE99ksI/MJU8JluVlIGfleMgih2y7a0VFd3p8Op7s+Rn8R2l
Dbpk0F59slca1uSoMLY2T0JUw5gsCwGEYjpWW2DUxLo=
-----END CERTIFICATE-----
