Certificate:
    Data:
        Version: 1 (0x0)
        Serial Number:
            9b:27:d7:e8:d1:ba:0b:32
        Signature Algorithm: md5WithRSAEncryption
        Issuer: C=DE, ST=Saarland, O=MPI-SWS, OU=Distributed Systems Group, CN=Andreas Haeberlen/emailAddress=democa@octarine.de
        Validity
            Not Before: Apr 20 20:47:35 2015 GMT
            Not After : Apr 19 20:47:35 2016 GMT
        Subject: C=DE, ST=Saarland, O=MPI-SWS, OU=Distributed Systems Group, CN=d59563d6bd73303160a09c0cd4b869a3f39566c2/emailAddress=node0858@octarine.de
        Subject Public Key Info:
            Public Key Algorithm: rsaEncryption
            RSA Public Key: (1024 bit)
                Modulus (1024 bit):
                    00:ea:9e:bb:9a:b9:f8:1c:7e:5d:79:ee:f1:d0:ed:
                    b8:f0:a4:01:80:0d:d6:84:59:6b:eb:bd:df:eb:24:
                    92:e2:74:8c:b5:be:45:85:7f:5e:f3:be:f2:3d:76:
                    05:4d:18:7f:76:4f:7f:b7:7c:e3:63:9f:ed:78:59:
                    d3:1d:49:06:7a:6c:1b:a7:3a:b6:3a:64:30:0f:21:
                    e1:eb:f2:b8:72:b1:8a:93:5f:ad:0d:13:b0:dd:1b:
                    04:7c:7e:fe:4d:e7:08:15:1c:b1:e4:a8:6e:77:a2:
                    f6:a0:b3:d2:12:eb:d8:76:ac:91:e4:8b:85:40:ae:
                    ca:a2:69:0d:65:b1:9f:de:ff
                Exponent: 65537 (0x10001)
    Signature Algorithm: md5WithRSAEncryption
        c0:68:e2:50:14:cd:f0:ee:e2:da:3a:1d:19:4b:60:b3:be:45:
        f4:22:dd:60:dc:27:9a:90:82:3c:60:30:e4:57:b0:c7:55:46:
        2d:01:c6:18:62:c1:2a:aa:9e:06:f4:c8:54:9f:8f:3a:c2:ab:
        40:a2:f5:02:9b:0a:32:3c:16:18:7f:01:8a:1a:ad:aa:86:01:
        59:28:56:cf:9a:77:f7:57:cd:aa:00:8f:00:f8:22:2d:44:8d:
        ba:76:67:d8:b5:2a:c9:c7:20:b6:20:cc:32:4f:d0:d8:9e:34:
        25:09:81:6d:e5:69:c6:f4:04:70:aa:4f:da:08:2b:7a:87:8d:
        b6:02
-----BEGIN CERTIFICATE-----
MIICvDCCAiUCCQCbJ9fo0boLMjANBgkqhkiG9w0BAQQFADCBlTELMAkGA1UEBhMC
REUxETAPBgNVBAgTCFNhYXJsYW5kMRAwDgYDVQQKEwdNUEktU1dTMSIwIAYDVQQL
ExlEaXN0cmlidXRlZCBTeXN0ZW1zIEdyb3VwMRowGAYDVQQDExFBbmRyZWFzIEhh
ZWJlcmxlbjEhMB8GCSqGSIb3DQEJARYSZGVtb2NhQG9jdGFyaW5lLmRlMB4XDTE1
MDQyMDIwNDczNVoXDTE2MDQxOTIwNDczNVowga4xCzAJBgNVBAYTAkRFMREwDwYD
VQQIEwhTYWFybGFuZDEQMA4GA1UEChMHTVBJLVNXUzEiMCAGA1UECxMZRGlzdHJp
YnV0ZWQgU3lzdGVtcyBHcm91cDExMC8GA1UEAxMoZDU5NTYzZDZiZDczMzAzMTYw
YTA5YzBjZDRiODY5YTNmMzk1NjZjMjEjMCEGCSqGSIb3DQEJARYUbm9kZTA4NThA
b2N0YXJpbmUuZGUwgZ8wDQYJKoZIhvcNAQEBBQADgY0AMIGJAoGBAOqeu5q5+Bx+
XXnu8dDtuPCkAYAN1oRZa+u93+skkuJ0jLW+RYV/XvO+8j12BU0Yf3ZPf7d842Of
7XhZ0x1JBnpsG6c6tjpkMA8h4evyuHKxipNfrQ0TsN0bBHx+/k3nCBUcseSobnei
9qCz0hLr2HaskeSLhUCuyqJpDWWxn97/AgMBAAEwDQYJKoZIhvcNAQEEBQADgYEA
wGjiUBTN8O7i2jodGUtgs75F9CLdYNwnmpCCPGAw5Fewx1VGLQHGGGLBKqqeBvTI
VJ+POsKrQKL1ApsKMjwWGH8BihqtqoYBWShWz5p391fNqgCPAPgiLUSNunZn2LUq
yccgtiDMMk/Q2J40JQmBbeVpxvQEcKpP2ggreoeNtgI=
-----END CERTIFICATE-----
