Certificate:
    Data:
        Version: 1 (0x0)
        Serial Number:
            9b:27:d7:e8:d1:ba:09:d7
        Signature Algorithm: md5WithRSAEncryption
        Issuer: C=DE, ST=Saarland, O=MPI-SWS, OU=Distributed Systems Group, CN=Andreas Haeberlen/emailAddress=democa@octarine.de
        Validity
            Not Before: Apr 20 20:47:19 2015 GMT
            Not After : Apr 19 20:47:19 2016 GMT
        Subject: C=DE, ST=Saarland, O=MPI-SWS, OU=Distributed Systems Group, CN=42ebf22cf55d5e3f5c0414bc1f0a546a75668927/emailAddress=node0511@octarine.de
        Subject Public Key Info:
            Public Key Algorithm: rsaEncryption
            RSA Public Key: (1024 bit)
                Modulus (1024 bit):
                    00:e5:e3:8e:82:e3:f7:21:63:00:fc:dd:0d:0d:f5:
                    0a:a3:aa:e0:f5:54:ea:72:bb:c6:20:70:ce:5c:0d:
                    41:0a:0f:ed:bf:aa:44:db:85:7a:a9:00:9a:b3:8f:
                    6d:2d:5d:38:3a:10:47:00:19:57:eb:c4:9f:a4:5d:
                    09:f3:62:66:e8:73:52:3f:b4:39:30:a9:03:c9:55:
                    02:62:56:bd:6f:bb:96:29:6a:3e:3e:16:00:34:37:
                    64:4c:02:09:d5:88:db:e2:1e:1c:73:e6:09:d0:06:
                    a4:75:51:d4:34:63:09:f4:92:42:76:6e:85:5c:d8:
                    d6:f2:93:a6:0f:07:4f:9a:d9
                Exponent: 65537 (0x10001)
    Signature Algorithm: md5WithRSAEncryption
        6e:03:4c:c3:3b:bd:74:f1:b5:db:b3:d0:53:e8:ee:96:69:f1:
        25:5c:12:57:4d:6d:e1:cf:c2:a9:55:1b:de:23:c5:02:62:c7:
        e7:4a:7e:cd:72:f1:b2:59:93:cc:48:97:23:9d:eb:2c:db:75:
        90:51:a1:01:47:55:c0:55:5c:ae:f3:a7:5c:8c:b3:7e:04:6e:
        77:cd:b3:7b:e8:88:49:65:9e:46:ab:74:81:8e:11:d5:66:9a:
        b3:05:6d:af:72:a4:14:02:af:4f:d4:18:c8:a0:60:50:58:2d:
        a3:f0:8b:46:61:c3:fb:70:82:1d:a3:dc:53:52:76:b2:d8:1c:
        f4:bf
-----BEGIN CERTIFICATE-----
MIICvDCCAiUCCQCbJ9fo0boJ1zANBgkqhkiG9w0BAQQFADCBlTELMAkGA1UEBhMC
REUxETAPBgNVBAgTCFNhYXJsYW5kMRAwDgYDVQQKEwdNUEktU1dTMSIwIAYDVQQL
ExlEaXN0cmlidXRlZCBTeXN0ZW1zIEdyb3VwMRowGAYDVQQDExFBbmRyZWFzIEhh
ZWJlcmxlbjEhMB8GCSqGSIb3DQEJARYSZGVtb2NhQG9jdGFyaW5lLmRlMB4XDTE1
MDQyMDIwNDcxOVoXDTE2MDQxOTIwNDcxOVowga4xCzAJBgNVBAYTAkRFMREwDwYD
VQQIEwhTYWFybGFuZDEQMA4GA1UEChMHTVBJLVNXUzEiMCAGA1UECxMZRGlzdHJp
YnV0ZWQgU3lzdGVtcyBHcm91cDExMC8GA1UEAxMoNDJlYmYyMmNmNTVkNWUzZjVj
MDQxNGJjMWYwYTU0NmE3NTY2ODkyNzEjMCEGCSqGSIb3DQEJARYUbm9kZTA1MTFA
b2N0YXJpbmUuZGUwgZ8wDQYJKoZIhvcNAQEBBQADgY0AMIGJAoGBAOXjjoLj9yFj
APzdDQ31CqOq4PVU6nK7xiBwzlwNQQoP7b+qRNuFeqkAmrOPbS1dODoQRwAZV+vE
n6RdCfNiZuhzUj+0OTCpA8lVAmJWvW+7lilqPj4WADQ3ZEwCCdWI2+IeHHPmCdAG
pHVR1DRjCfSSQnZuhVzY1vKTpg8HT5rZAgMBAAEwDQYJKoZIhvcNAQEEBQADgYEA
bgNMwzu9dPG127PQU+julmnxJVwSV01t4c/CqVUb3iPFAmLH50p+zXLxslmTzEiX
I53rLNt1kFGhAUdVwFVcrvOnXIyzfgRud82ze+iISWWeRqt0gY4R1WaaswVtr3Kk
FAKvT9QYyKBgUFgto/CLRmHD+3CCHaPcU1J2stgc9L8=
-----END CERTIFICATE-----
