Certificate:
    Data:
        Version: 1 (0x0)
        Serial Number:
            9b:27:d7:e8:d1:ba:0b:a3
        Signature Algorithm: md5WithRSAEncryption
        Issuer: C=DE, ST=Saarland, O=MPI-SWS, OU=Distributed Systems Group, CN=Andreas Haeberlen/emailAddress=democa@octarine.de
        Validity
            Not Before: Apr 20 20:47:40 2015 GMT
            Not After : Apr 19 20:47:40 2016 GMT
        Subject: C=DE, ST=Saarland, O=MPI-SWS, OU=Distributed Systems Group, CN=685c7e2e06c455e9cac2efff63b9da44391a7397/emailAddress=node0971@octarine.de
        Subject Public Key Info:
            Public Key Algorithm: rsaEncryption
            RSA Public Key: (1024 bit)
                Modulus (1024 bit):
                    00:96:76:d0:1e:3f:ba:21:3a:d6:80:63:52:97:c0:
                    02:08:ca:1b:8c:69:5a:99:5a:98:4b:8e:df:c8:20:
                    71:72:7a:9d:9b:03:8a:74:e2:ec:0b:aa:2d:fc:cd:
                    20:b2:e8:bc:56:ef:b0:c3:f8:17:79:1c:f9:d7:09:
                    91:7b:7d:26:50:f7:0b:6a:52:ca:b8:5c:de:aa:a1:
                    41:8b:99:48:0f:d2:38:47:49:dc:f7:ac:d1:b2:d3:
                    ff:91:3f:71:88:b8:f5:34:7f:bc:9c:4f:61:42:fe:
                    51:59:c7:f6:eb:d1:c9:f3:b5:67:37:d0:bc:a7:a5:
                    4d:58:28:f8:6e:85:87:39:e7
                Exponent: 65537 (0x10001)
    Signature Algorithm: md5WithRSAEncryption
        2a:17:24:0d:a1:61:e5:90:29:9c:0e:ef:c4:e5:0a:12:c0:94:
        a3:f5:a7:2e:16:3b:9b:99:b0:62:a5:92:5e:93:29:4e:22:8a:
        66:4f:e1:4a:82:df:7d:49:c3:69:fb:0b:49:f6:03:f6:93:72:
        13:1a:73:82:64:05:37:4e:e0:5b:61:a2:7a:2a:42:cd:ce:06:
        91:15:45:99:50:df:70:9f:0d:d4:60:29:19:64:5f:65:57:d3:
        72:83:23:66:a1:ce:12:5a:df:7f:f5:b3:d9:bc:3f:52:fc:e3:
        06:ea:b1:c7:3c:52:cc:4a:86:8c:f1:09:0b:62:bf:21:a4:1f:
        37:ca
-----BEGIN CERTIFICATE-----
MIICvDCCAiUCCQCbJ9fo0boLozANBgkqhkiG9w0BAQQFADCBlTELMAkGA1UEBhMC
REUxETAPBgNVBAgTCFNhYXJsYW5kMRAwDgYDVQQKEwdNUEktU1dTMSIwIAYDVQQL
ExlEaXN0cmlidXRlZCBTeXN0ZW1zIEdyb3VwMRowGAYDVQQDExFBbmRyZWFzIEhh
ZWJlcmxlbjEhMB8GCSqGSIb3DQEJARYSZGVtb2NhQG9jdGFyaW5lLmRlMB4XDTE1
MDQyMDIwNDc0MFoXDTE2MDQxOTIwNDc0MFowga4xCzAJBgNVBAYTAkRFMREwDwYD
VQQIEwhTYWFybGFuZDEQMA4GA1UEChMHTVBJLVNXUzEiMCAGA1UECxMZRGlzdHJp
YnV0ZWQgU3lzdGVtcyBHcm91cDExMC8GA1UEAxMoNjg1YzdlMmUwNmM0NTVlOWNh
YzJlZmZmNjNiOWRhNDQzOTFhNzM5NzEjMCEGCSqGSIb3DQEJARYUbm9kZTA5NzFA
b2N0YXJpbmUuZGUwgZ8wDQYJKoZIhvcNAQEBBQADgY0AMIGJAoGBAJZ20B4/uiE6
1oBjUpfAAgjKG4xpWplamEuO38ggcXJ6nZsDinTi7AuqLfzNILLovFbvsMP4F3kc
+dcJkXt9JlD3C2pSyrhc3qqhQYuZSA/SOEdJ3Pes0bLT/5E/cYi49TR/vJxPYUL+
UVnH9uvRyfO1ZzfQvKelTVgo+G6FhznnAgMBAAEwDQYJKoZIhvcNAQEEBQADgYEA
KhckDaFh5ZApnA7vxOUKEsCUo/WnLhY7m5mwYqWSXpMpTiKKZk/hSoLffUnDafsL
SfYD9pNyExpzgmQFN07gW2GieipCzc4GkRVFmVDfcJ8N1GApGWRfZVfTcoMjZqHO
Elrff/Wz2bw/UvzjBuqxxzxSzEqGjPEJC2K/IaQfN8o=
-----END CERTIFICATE-----
