Certificate:
    Data:
        Version: 1 (0x0)
        Serial Number:
            9b:27:d7:e8:d1:ba:09:8f
        Signature Algorithm: md5WithRSAEncryption
        Issuer: C=DE, ST=Saarland, O=MPI-SWS, OU=Distributed Systems Group, CN=Andreas Haeberlen/emailAddress=democa@octarine.de
        Validity
            Not Before: Apr 20 20:47:16 2015 GMT
            Not After : Apr 19 20:47:16 2016 GMT
        Subject: C=DE, ST=Saarland, O=MPI-SWS, OU=Distributed Systems Group, CN=868a88a49b5d50edebe729d366e2d4c5b503ea87/emailAddress=node0439@octarine.de
        Subject Public Key Info:
            Public Key Algorithm: rsaEncryption
            RSA Public Key: (1024 bit)
                Modulus (1024 bit):
                    00:99:da:c6:4e:1c:95:58:d9:d1:78:a6:af:3f:ee:
                    e3:ac:6b:25:9b:2e:f7:c9:46:2d:f5:51:83:a4:b5:
                    96:99:de:cb:29:61:e7:3b:96:38:27:c7:0a:7a:31:
                    c4:2a:f2:0f:57:4f:a7:10:90:d6:2a:e1:06:20:57:
                    07:6c:a1:55:0b:d4:51:14:31:7f:c0:a7:1b:98:8e:
                    19:07:e9:b9:dc:87:0a:b6:b2:3b:08:ce:fc:d7:79:
                    f0:81:70:5b:9f:1e:1f:b5:a7:c4:0b:3f:11:f3:31:
                    29:a9:f4:a8:4b:88:e3:14:04:11:f9:f3:52:4e:61:
                    09:35:42:bc:d5:dc:62:c7:b9
                Exponent: 65537 (0x10001)
    Signature Algorithm: md5WithRSAEncryption
        53:4d:c4:0d:9b:09:68:45:71:50:ae:bc:a3:e9:cb:5a:42:42:
        cf:e5:5e:33:27:10:f0:1a:50:36:70:3b:7c:3f:9d:9e:95:fa:
        51:f7:bb:7c:51:d1:27:9f:2f:66:93:69:60:93:2a:73:da:da:
        70:80:a4:7f:49:99:56:b4:b6:32:77:de:17:72:55:0e:41:e1:
        ed:9d:8a:0f:7a:47:13:98:01:2d:56:b8:b1:fa:ca:6a:8a:31:
        79:6f:4e:75:0c:4e:2b:dc:91:b8:94:f1:aa:ab:c3:2d:05:b1:
        bf:b6:a7:8a:4b:cb:fa:47:df:6c:63:30:89:82:fc:a4:3c:b5:
        7c:a3
-----BEGIN CERTIFICATE-----
MIICvDCCAiUCCQCbJ9fo0boJjzANBgkqhkiG9w0BAQQFADCBlTELMAkGA1UEBhMC
REUxETAPBgNVBAgTCFNhYXJsYW5kMRAwDgYDVQQKEwdNUEktU1dTMSIwIAYDVQQL
ExlEaXN0cmlidXRlZCBTeXN0ZW1zIEdyb3VwMRowGAYDVQQDExFBbmRyZWFzIEhh
ZWJlcmxlbjEhMB8GCSqGSIb3DQEJARYSZGVtb2NhQG9jdGFyaW5lLmRlMB4XDTE1
MDQyMDIwNDcxNloXDTE2MDQxOTIwNDcxNlowga4xCzAJBgNVBAYTAkRFMREwDwYD
VQQIEwhTYWFybGFuZDEQMA4GA1UEChMHTVBJLVNXUzEiMCAGA1UECxMZRGlzdHJp
YnV0ZWQgU3lzdGVtcyBHcm91cDExMC8GA1UEAxMoODY4YTg4YTQ5YjVkNTBlZGVi
ZTcyOWQzNjZlMmQ0YzViNTAzZWE4NzEjMCEGCSqGSIb3DQEJARYUbm9kZTA0MzlA
b2N0YXJpbmUuZGUwgZ8wDQYJKoZIhvcNAQEBBQADgY0AMIGJAoGBAJnaxk4clVjZ
0Ximrz/u46xrJZsu98lGLfVRg6S1lpneyylh5zuWOCfHCnoxxCryD1dPpxCQ1irh
BiBXB2yhVQvUURQxf8CnG5iOGQfpudyHCrayOwjO/Nd58IFwW58eH7WnxAs/EfMx
Kan0qEuI4xQEEfnzUk5hCTVCvNXcYse5AgMBAAEwDQYJKoZIhvcNAQEEBQADgYEA
U03EDZsJaEVxUK68o+nLWkJCz+VeMycQ8BpQNnA7fD+dnpX6Ufe7fFHRJ58vZpNp
YJMqc9racICkf0mZVrS2MnfeF3JVDkHh7Z2KD3pHE5gBLVa4sfrKaooxeW9OdQxO
K9yRuJTxqqvDLQWxv7anikvL+kffbGMwiYL8pDy1fKM=
-----END CERTIFICATE-----
