Certificate:
    Data:
        Version: 1 (0x0)
        Serial Number:
            9b:27:d7:e8:d1:ba:08:f6
        Signature Algorithm: md5WithRSAEncryption
        Issuer: C=DE, ST=Saarland, O=MPI-SWS, OU=Distributed Systems Group, CN=Andreas Haeberlen/emailAddress=democa@octarine.de
        Validity
            Not Before: Apr 20 20:47:09 2015 GMT
            Not After : Apr 19 20:47:09 2016 GMT
        Subject: C=DE, ST=Saarland, O=MPI-SWS, OU=Distributed Systems Group, CN=223ab57e3cfee4ae5c0c2f09922044f67213781a/emailAddress=node0286@octarine.de
        Subject Public Key Info:
            Public Key Algorithm: rsaEncryption
            RSA Public Key: (1024 bit)
                Modulus (1024 bit):
                    00:e4:20:13:52:5d:71:51:13:54:3b:75:47:50:44:
                    26:77:a6:c2:0c:94:08:ae:8e:00:33:25:fb:58:9e:
                    8b:fc:cd:15:0e:3d:b7:3f:cf:51:73:49:dc:e2:0c:
                    31:be:d4:96:6f:9b:17:c7:f4:a5:15:26:98:5d:01:
                    35:d4:a7:63:04:18:b4:ac:5e:18:fa:88:ee:57:62:
                    74:f4:1d:8c:85:8c:26:e3:3c:d6:27:8e:c2:27:dc:
                    3d:70:9e:32:36:1a:f2:5e:75:82:2b:66:94:cf:26:
                    b4:4f:b5:66:26:9f:fe:8d:4d:ce:37:fc:e9:8a:2a:
                    40:22:f7:08:ea:48:55:b6:bb
                Exponent: 65537 (0x10001)
    Signature Algorithm: md5WithRSAEncryption
        37:18:30:9c:67:18:10:2c:d2:1a:95:cf:3e:d1:7d:17:1f:f4:
        fe:c0:33:8d:2b:ab:d4:8e:dc:71:27:a5:3c:7f:d4:5f:90:33:
        30:13:8d:11:36:92:cd:de:41:d5:e8:b1:e1:a0:61:11:2b:80:
        c2:8b:da:ac:ed:76:d7:bc:a0:0c:32:34:f7:f4:e3:26:8b:56:
        b9:ab:68:cf:e3:92:5f:d7:83:51:af:fd:73:49:13:f0:52:aa:
        39:36:69:b8:0d:7d:fa:1b:81:ce:d7:bb:a4:cd:42:c1:80:43:
        72:44:ec:82:fe:85:b5:fc:ae:cb:33:ae:e0:d4:5d:a4:cd:9e:
        3e:48
-----BEGIN CERTIFICATE-----
MIICvDCCAiUCCQCbJ9fo0boI9jANBgkqhkiG9w0BAQQFADCBlTELMAkGA1UEBhMC
REUxETAPBgNVBAgTCFNhYXJsYW5kMRAwDgYDVQQKEwdNUEktU1dTMSIwIAYDVQQL
ExlEaXN0cmlidXRlZCBTeXN0ZW1zIEdyb3VwMRowGAYDVQQDExFBbmRyZWFzIEhh
ZWJlcmxlbjEhMB8GCSqGSIb3DQEJARYSZGVtb2NhQG9jdGFyaW5lLmRlMB4XDTE1
MDQyMDIwNDcwOVoXDTE2MDQxOTIwNDcwOVowga4xCzAJBgNVBAYTAkRFMREwDwYD
VQQIEwhTYWFybGFuZDEQMA4GA1UEChMHTVBJLVNXUzEiMCAGA1UECxMZRGlzdHJp
YnV0ZWQgU3lzdGVtcyBHcm91cDExMC8GA1UEAxMoMjIzYWI1N2UzY2ZlZTRhZTVj
MGMyZjA5OTIyMDQ0ZjY3MjEzNzgxYTEjMCEGCSqGSIb3DQEJARYUbm9kZTAyODZA
b2N0YXJpbmUuZGUwgZ8wDQYJKoZIhvcNAQEBBQADgY0AMIGJAoGBAOQgE1JdcVET
VDt1R1BEJnemwgyUCK6OADMl+1iei/zNFQ49tz/PUXNJ3OIMMb7Ulm+bF8f0pRUm
mF0BNdSnYwQYtKxeGPqI7ldidPQdjIWMJuM81ieOwifcPXCeMjYa8l51gitmlM8m
tE+1Ziaf/o1Nzjf86YoqQCL3COpIVba7AgMBAAEwDQYJKoZIhvcNAQEEBQADgYEA
NxgwnGcYECzSGpXPPtF9Fx/0/sAzjSur1I7ccSelPH/UX5AzMBONETaSzd5B1eix
4aBhESuAwovarO1217ygDDI09/TjJotWuatoz+OSX9eDUa/9c0kT8FKqOTZpuA19
+huBzte7pM1CwYBDckTsgv6FtfyuyzOu4NRdpM2ePkg=
-----END CERTIFICATE-----
