Certificate:
    Data:
        Version: 1 (0x0)
        Serial Number:
            9b:27:d7:e8:d1:ba:09:dd
        Signature Algorithm: md5WithRSAEncryption
        Issuer: C=DE, ST=Saarland, O=MPI-SWS, OU=Distributed Systems Group, CN=Andreas Haeberlen/emailAddress=democa@octarine.de
        Validity
            Not Before: Apr 20 20:47:19 2015 GMT
            Not After : Apr 19 20:47:19 2016 GMT
        Subject: C=DE, ST=Saarland, O=MPI-SWS, OU=Distributed Systems Group, CN=2b6ffd640f00310890c10bbf6cb70e12972859d5/emailAddress=node0517@octarine.de
        Subject Public Key Info:
            Public Key Algorithm: rsaEncryption
            RSA Public Key: (1024 bit)
                Modulus (1024 bit):
                    00:c5:68:20:e1:89:aa:9a:f8:95:e9:a3:45:17:9b:
                    2f:1e:68:67:a1:a9:d0:09:5a:2b:77:5c:40:ae:36:
                    81:d6:c3:6a:41:2b:fb:a7:5e:2b:bf:ac:82:ce:8c:
                    f7:80:b2:66:f9:94:7e:b5:af:4c:63:d6:a2:04:7d:
                    de:27:59:76:bc:f5:09:e5:2c:4c:c1:b9:e7:63:74:
                    3e:d9:cb:21:4d:79:b5:3b:68:ab:05:97:01:a8:bf:
                    dc:0e:88:7a:5b:ba:a4:f5:d1:67:bf:77:3f:2b:43:
                    eb:63:63:ff:08:79:d6:01:fe:07:1b:7c:0b:cb:72:
                    e9:00:57:e5:3a:a9:59:a3:0f
                Exponent: 65537 (0x10001)
    Signature Algorithm: md5WithRSAEncryption
        09:44:09:c4:70:53:a8:22:99:dc:06:d4:6a:92:9e:d9:40:fd:
        2c:6e:9c:6c:79:2a:b3:96:2d:39:8f:34:42:76:84:a2:8e:f2:
        89:ad:4c:df:88:9d:3f:51:92:66:25:1a:85:f1:f4:c7:05:5b:
        ac:58:e4:c4:fb:7d:33:e4:6c:6c:35:db:44:60:14:98:a1:b8:
        8a:95:c9:3d:67:a7:06:1a:71:5a:17:46:34:0a:47:97:0e:89:
        4e:e0:cd:f3:3a:41:6c:47:e7:3c:14:1b:45:0c:0e:9b:99:87:
        80:f0:3c:0f:d6:91:07:47:d5:5d:64:51:83:8f:b9:a6:c1:5e:
        78:ad
-----BEGIN CERTIFICATE-----
MIICvDCCAiUCCQCbJ9fo0boJ3TANBgkqhkiG9w0BAQQFADCBlTELMAkGA1UEBhMC
REUxETAPBgNVBAgTCFNhYXJsYW5kMRAwDgYDVQQKEwdNUEktU1dTMSIwIAYDVQQL
ExlEaXN0cmlidXRlZCBTeXN0ZW1zIEdyb3VwMRowGAYDVQQDExFBbmRyZWFzIEhh
ZWJlcmxlbjEhMB8GCSqGSIb3DQEJARYSZGVtb2NhQG9jdGFyaW5lLmRlMB4XDTE1
MDQyMDIwNDcxOVoXDTE2MDQxOTIwNDcxOVowga4xCzAJBgNVBAYTAkRFMREwDwYD
VQQIEwhTYWFybGFuZDEQMA4GA1UEChMHTVBJLVNXUzEiMCAGA1UECxMZRGlzdHJp
YnV0ZWQgU3lzdGVtcyBHcm91cDExMC8GA1UEAxMoMmI2ZmZkNjQwZjAwMzEwODkw
YzEwYmJmNmNiNzBlMTI5NzI4NTlkNTEjMCEGCSqGSIb3DQEJARYUbm9kZTA1MTdA
b2N0YXJpbmUuZGUwgZ8wDQYJKoZIhvcNAQEBBQADgY0AMIGJAoGBAMVoIOGJqpr4
lemjRRebLx5oZ6Gp0AlaK3dcQK42gdbDakEr+6deK7+sgs6M94CyZvmUfrWvTGPW
ogR93idZdrz1CeUsTMG552N0PtnLIU15tTtoqwWXAai/3A6Ielu6pPXRZ793PytD
62Nj/wh51gH+Bxt8C8ty6QBX5TqpWaMPAgMBAAEwDQYJKoZIhvcNAQEEBQADgYEA
CUQJxHBTqCKZ3AbUapKe2UD9LG6cbHkqs5YtOY80QnaEoo7yia1M34idP1GSZiUa
hfH0xwVbrFjkxPt9M+RsbDXbRGAUmKG4ipXJPWenBhpxWhdGNApHlw6JTuDN8zpB
bEfnPBQbRQwOm5mHgPA8D9aRB0fVXWRRg4+5psFeeK0=
-----END CERTIFICATE-----
