Certificate:
    Data:
        Version: 1 (0x0)
        Serial Number:
            9b:27:d7:e8:d1:ba:08:28
        Signature Algorithm: md5WithRSAEncryption
        Issuer: C=DE, ST=Saarland, O=MPI-SWS, OU=Distributed Systems Group, CN=Andreas Haeberlen/emailAddress=democa@octarine.de
        Validity
            Not Before: Apr 20 20:47:00 2015 GMT
            Not After : Apr 19 20:47:00 2016 GMT
        Subject: C=DE, ST=Saarland, O=MPI-SWS, OU=Distributed Systems Group, CN=8b37e092de19ed2c46d3bae296f6440df44e5d02/emailAddress=node0080@octarine.de
        Subject Public Key Info:
            Public Key Algorithm: rsaEncryption
            RSA Public Key: (1024 bit)
                Modulus (1024 bit):
                    00:a4:9b:3e:db:b8:6a:3b:11:47:98:56:35:c5:ba:
                    1c:90:20:f1:0a:b7:46:b5:d0:b2:c7:a4:59:ac:94:
                    5c:68:72:a8:21:62:40:a2:dc:01:df:f9:7c:07:2a:
                    b9:38:50:af:09:0e:7a:ef:86:bd:68:c8:77:f0:71:
                    8e:e2:e2:d1:d3:fc:5d:53:44:18:38:47:6e:33:96:
                    d4:01:65:6b:2a:f8:17:5b:5e:d0:1f:08:cb:ad:b1:
                    bf:c7:2a:d5:49:74:64:30:fd:b5:2e:9d:fd:c4:39:
                    87:90:1c:45:65:af:12:b0:79:fc:68:52:e7:92:0d:
                    f5:3b:6c:0e:52:6e:e1:ed:63
                Exponent: 65537 (0x10001)
    Signature Algorithm: md5WithRSAEncryption
        3b:dc:73:48:c1:f9:0b:8f:e4:cf:79:48:50:9e:b0:a5:2f:c8:
        c1:ec:2e:bd:cc:87:4b:e3:31:63:56:b6:66:02:47:99:f9:2f:
        3d:0c:7e:25:f9:1a:1d:6f:72:bc:a8:e3:15:cc:05:99:9c:ad:
        c9:8d:5a:b2:59:15:86:0c:1d:67:7a:75:ef:21:55:66:8d:1b:
        e7:55:c6:9d:d7:00:f4:31:8b:d7:8c:f1:df:41:c6:ae:53:6f:
        e4:1c:cf:97:73:7d:02:3c:6c:b2:aa:04:4c:d5:5e:61:da:7b:
        0d:2c:34:cf:9f:83:3b:fb:0c:02:63:8a:0e:88:27:e0:2f:20:
        b9:3c
-----BEGIN CERTIFICATE-----
MIICvDCCAiUCCQCbJ9fo0boIKDANBgkqhkiG9w0BAQQFADCBlTELMAkGA1UEBhMC
REUxETAPBgNVBAgTCFNhYXJsYW5kMRAwDgYDVQQKEwdNUEktU1dTMSIwIAYDVQQL
ExlEaXN0cmlidXRlZCBTeXN0ZW1zIEdyb3VwMRowGAYDVQQDExFBbmRyZWFzIEhh
ZWJlcmxlbjEhMB8GCSqGSIb3DQEJARYSZGVtb2NhQG9jdGFyaW5lLmRlMB4XDTE1
MDQyMDIwNDcwMFoXDTE2MDQxOTIwNDcwMFowga4xCzAJBgNVBAYTAkRFMREwDwYD
VQQIEwhTYWFybGFuZDEQMA4GA1UEChMHTVBJLVNXUzEiMCAGA1UECxMZRGlzdHJp
YnV0ZWQgU3lzdGVtcyBHcm91cDExMC8GA1UEAxMoOGIzN2UwOTJkZTE5ZWQyYzQ2
ZDNiYWUyOTZmNjQ0MGRmNDRlNWQwMjEjMCEGCSqGSIb3DQEJARYUbm9kZTAwODBA
b2N0YXJpbmUuZGUwgZ8wDQYJKoZIhvcNAQEBBQADgY0AMIGJAoGBAKSbPtu4ajsR
R5hWNcW6HJAg8Qq3RrXQssekWayUXGhyqCFiQKLcAd/5fAcquThQrwkOeu+GvWjI
d/BxjuLi0dP8XVNEGDhHbjOW1AFlayr4F1te0B8Iy62xv8cq1Ul0ZDD9tS6d/cQ5
h5AcRWWvErB5/GhS55IN9TtsDlJu4e1jAgMBAAEwDQYJKoZIhvcNAQEEBQADgYEA
O9xzSMH5C4/kz3lIUJ6wpS/IwewuvcyHS+MxY1a2ZgJHmfkvPQx+JfkaHW9yvKjj
FcwFmZytyY1aslkVhgwdZ3p17yFVZo0b51XGndcA9DGL14zx30HGrlNv5BzPl3N9
AjxssqoETNVeYdp7DSw0z5+DO/sMAmOKDogn4C8guTw=
-----END CERTIFICATE-----
