Certificate:
    Data:
        Version: 1 (0x0)
        Serial Number:
            9b:27:d7:e8:d1:ba:07:ff
        Signature Algorithm: md5WithRSAEncryption
        Issuer: C=DE, ST=Saarland, O=MPI-SWS, OU=Distributed Systems Group, CN=Andreas Haeberlen/emailAddress=democa@octarine.de
        Validity
            Not Before: Apr 20 20:46:58 2015 GMT
            Not After : Apr 19 20:46:58 2016 GMT
        Subject: C=DE, ST=Saarland, O=MPI-SWS, OU=Distributed Systems Group, CN=211f0bfe34a037c01159358495c95a87ca7c66b9/emailAddress=node0039@octarine.de
        Subject Public Key Info:
            Public Key Algorithm: rsaEncryption
            RSA Public Key: (1024 bit)
                Modulus (1024 bit):
                    00:95:42:a3:31:59:65:d2:cd:2e:6d:51:0c:d7:82:
                    67:a9:73:a0:e1:51:71:45:80:d2:a2:73:e0:c9:65:
                    01:fc:e4:2a:d1:a2:47:84:1a:56:ca:a7:ff:c3:16:
                    ad:3e:0d:05:f8:5f:7f:7e:65:02:0f:f3:2c:f1:41:
                    b3:cc:97:ae:6c:ba:5a:45:49:b7:8d:88:0e:2a:31:
                    9d:40:ea:e3:ce:fc:66:b0:1e:69:05:6e:e2:1c:14:
                    9a:7f:96:dd:d1:8e:1f:45:2a:99:11:97:41:5f:f8:
                    eb:86:7e:2f:c5:99:46:9e:d8:35:b0:13:d5:19:e4:
                    bb:c4:26:47:68:67:35:54:01
                Exponent: 65537 (0x10001)
    Signature Algorithm: md5WithRSAEncryption
        79:4c:74:35:75:87:f8:18:bb:2b:ed:fb:1c:02:bb:7c:e8:c9:
        4c:2d:49:9a:d5:40:fa:cc:32:3a:19:b0:23:ff:3b:d1:db:29:
        b7:47:8f:96:2c:96:6a:db:36:9a:35:bc:16:19:96:f8:cf:9e:
        08:de:36:76:af:b9:fa:7d:e8:55:00:f2:60:9a:60:ac:37:21:
        8d:d0:c4:4a:5f:61:74:25:f9:25:d0:28:ec:2e:f6:57:dc:da:
        1a:ca:c3:c4:6c:1a:05:bc:8f:24:54:2b:33:dc:44:94:1a:e5:
        90:3e:78:dc:f9:5f:b6:c6:04:8b:52:c7:29:28:b1:2f:58:df:
        55:5a
-----BEGIN CERTIFICATE-----
MIICvDCCAiUCCQCbJ9fo0boH/zANBgkqhkiG9w0BAQQFADCBlTELMAkGA1UEBhMC
REUxETAPBgNVBAgTCFNhYXJsYW5kMRAwDgYDVQQKEwdNUEktU1dTMSIwIAYDVQQL
ExlEaXN0cmlidXRlZCBTeXN0ZW1zIEdyb3VwMRowGAYDVQQDExFBbmRyZWFzIEhh
ZWJlcmxlbjEhMB8GCSqGSIb3DQEJARYSZGVtb2NhQG9jdGFyaW5lLmRlMB4XDTE1
MDQyMDIwNDY1OFoXDTE2MDQxOTIwNDY1OFowga4xCzAJBgNVBAYTAkRFMREwDwYD
VQQIEwhTYWFybGFuZDEQMA4GA1UEChMHTVBJLVNXUzEiMCAGA1UECxMZRGlzdHJp
YnV0ZWQgU3lzdGVtcyBHcm91cDExMC8GA1UEAxMoMjExZjBiZmUzNGEwMzdjMDEx
NTkzNTg0OTVjOTVhODdjYTdjNjZiOTEjMCEGCSqGSIb3DQEJARYUbm9kZTAwMzlA
b2N0YXJpbmUuZGUwgZ8wDQYJKoZIhvcNAQEBBQADgY0AMIGJAoGBAJVCozFZZdLN
Lm1RDNeCZ6lzoOFRcUWA0qJz4MllAfzkKtGiR4QaVsqn/8MWrT4NBfhff35lAg/z
LPFBs8yXrmy6WkVJt42IDioxnUDq4878ZrAeaQVu4hwUmn+W3dGOH0UqmRGXQV/4
64Z+L8WZRp7YNbAT1Rnku8QmR2hnNVQBAgMBAAEwDQYJKoZIhvcNAQEEBQADgYEA
eUx0NXWH+Bi7K+37HAK7fOjJTC1JmtVA+swyOhmwI/870dspt0ePliyWats2mjW8
FhmW+M+eCN42dq+5+n3oVQDyYJpgrDchjdDESl9hdCX5JdAo7C72V9zaGsrDxGwa
BbyPJFQrM9xElBrlkD543PlftsYEi1LHKSixL1jfVVo=
-----END CERTIFICATE-----
