Certificate:
    Data:
        Version: 1 (0x0)
        Serial Number:
            9b:27:d7:e8:d1:ba:08:10
        Signature Algorithm: md5WithRSAEncryption
        Issuer: C=DE, ST=Saarland, O=MPI-SWS, OU=Distributed Systems Group, CN=Andreas Haeberlen/emailAddress=democa@octarine.de
        Validity
            Not Before: Apr 20 20:46:59 2015 GMT
            Not After : Apr 19 20:46:59 2016 GMT
        Subject: C=DE, ST=Saarland, O=MPI-SWS, OU=Distributed Systems Group, CN=2daef772992920cdfe106625434bc05fdfdd74f0/emailAddress=node0056@octarine.de
        Subject Public Key Info:
            Public Key Algorithm: rsaEncryption
            RSA Public Key: (1024 bit)
                Modulus (1024 bit):
                    00:c4:eb:ba:82:77:d2:a5:76:89:78:fa:df:e6:6b:
                    2e:eb:11:d9:9f:33:93:4f:01:e7:16:3f:22:3f:df:
                    ff:9a:46:b8:57:cf:cb:ef:18:86:e1:14:1f:8d:d8:
                    35:a6:d2:fd:85:a9:a4:3f:52:b7:2c:09:b1:e7:64:
                    a2:de:53:b9:24:94:43:2a:84:6c:95:35:8a:6a:fa:
                    cf:1c:b0:ae:ed:62:e5:ed:0e:29:01:42:74:bb:63:
                    ef:cf:60:c7:55:04:73:e9:54:86:3c:ee:ae:14:6c:
                    1f:ca:a0:d7:7f:6b:7d:3a:90:c0:84:16:ea:7a:a4:
                    80:3d:89:b6:3f:e7:55:5d:b5
                Exponent: 65537 (0x10001)
    Signature Algorithm: md5WithRSAEncryption
        09:a6:a2:b4:6e:66:16:6c:d1:84:ca:a9:c4:74:21:16:54:73:
        f3:87:57:6c:48:71:53:af:62:51:97:e4:99:e1:3f:43:00:d1:
        33:81:ac:75:55:7d:e9:9e:c5:79:af:85:75:ef:6f:68:9b:19:
        23:23:99:f2:41:0b:0f:40:37:d0:b9:12:3e:2e:f9:83:91:7f:
        46:4b:4d:fa:1f:3e:29:30:d9:c8:f0:2c:82:fa:74:5d:f6:61:
        a0:da:a6:51:15:48:9e:ef:66:54:82:77:0c:bf:1b:42:2b:31:
        98:f0:cb:86:b8:b8:f5:b4:5c:84:b9:56:94:94:ba:de:28:79:
        84:2b
-----BEGIN CERTIFICATE-----
MIICvDCCAiUCCQCbJ9fo0boIEDANBgkqhkiG9w0BAQQFADCBlTELMAkGA1UEBhMC
REUxETAPBgNVBAgTCFNhYXJsYW5kMRAwDgYDVQQKEwdNUEktU1dTMSIwIAYDVQQL
ExlEaXN0cmlidXRlZCBTeXN0ZW1zIEdyb3VwMRowGAYDVQQDExFBbmRyZWFzIEhh
ZWJlcmxlbjEhMB8GCSqGSIb3DQEJARYSZGVtb2NhQG9jdGFyaW5lLmRlMB4XDTE1
MDQyMDIwNDY1OVoXDTE2MDQxOTIwNDY1OVowga4xCzAJBgNVBAYTAkRFMREwDwYD
VQQIEwhTYWFybGFuZDEQMA4GA1UEChMHTVBJLVNXUzEiMCAGA1UECxMZRGlzdHJp
YnV0ZWQgU3lzdGVtcyBHcm91cDExMC8GA1UEAxMoMmRhZWY3NzI5OTI5MjBjZGZl
MTA2NjI1NDM0YmMwNWZkZmRkNzRmMDEjMCEGCSqGSIb3DQEJARYUbm9kZTAwNTZA
b2N0YXJpbmUuZGUwgZ8wDQYJKoZIhvcNAQEBBQADgY0AMIGJAoGBAMTruoJ30qV2
iXj63+ZrLusR2Z8zk08B5xY/Ij/f/5pGuFfPy+8YhuEUH43YNabS/YWppD9StywJ
sedkot5TuSSUQyqEbJU1imr6zxywru1i5e0OKQFCdLtj789gx1UEc+lUhjzurhRs
H8qg139rfTqQwIQW6nqkgD2Jtj/nVV21AgMBAAEwDQYJKoZIhvcNAQEEBQADgYEA
CaaitG5mFmzRhMqpxHQhFlRz84dXbEhxU69iUZfkmeE/QwDRM4GsdVV96Z7Fea+F
de9vaJsZIyOZ8kELD0A30LkSPi75g5F/RktN+h8+KTDZyPAsgvp0XfZhoNqmURVI
nu9mVIJ3DL8bQisxmPDLhri49bRchLlWlJS63ih5hCs=
-----END CERTIFICATE-----
