Certificate:
    Data:
        Version: 1 (0x0)
        Serial Number:
            9b:27:d7:e8:d1:ba:09:8c
        Signature Algorithm: md5WithRSAEncryption
        Issuer: C=DE, ST=Saarland, O=MPI-SWS, OU=Distributed Systems Group, CN=Andreas Haeberlen/emailAddress=democa@octarine.de
        Validity
            Not Before: Apr 20 20:47:16 2015 GMT
            Not After : Apr 19 20:47:16 2016 GMT
        Subject: C=DE, ST=Saarland, O=MPI-SWS, OU=Distributed Systems Group, CN=70ddd9f32e6df362248e93334e3940dc1b9f4837/emailAddress=node0436@octarine.de
        Subject Public Key Info:
            Public Key Algorithm: rsaEncryption
            RSA Public Key: (1024 bit)
                Modulus (1024 bit):
                    00:db:b0:8c:71:da:03:61:c9:1d:d0:b0:84:bc:d2:
                    60:d8:a8:52:5c:48:e9:a0:c4:a7:f4:f8:73:ee:94:
                    ba:e3:21:b9:e2:09:9f:df:88:45:97:c5:1e:11:cd:
                    af:cb:d2:cb:76:c3:1e:5b:7e:d2:ed:de:3a:11:f8:
                    1d:b8:13:a8:67:21:f2:cb:81:9d:15:9a:e4:a4:ca:
                    a5:25:31:b0:79:d6:e4:67:72:6c:92:6b:b3:7a:12:
                    5d:72:ef:02:c8:7d:7f:72:a4:37:42:c7:5c:e5:97:
                    6f:a2:1f:81:4a:a5:7a:e9:cc:d9:80:17:72:ff:d6:
                    51:c8:34:a8:c5:6d:71:de:85
                Exponent: 65537 (0x10001)
    Signature Algorithm: md5WithRSAEncryption
        61:60:37:b3:20:8b:95:df:70:97:2d:eb:84:be:cc:32:37:e2:
        a3:da:96:6e:2a:90:21:8c:08:19:29:de:58:03:b6:c7:88:1c:
        94:0d:38:b5:21:45:06:40:12:89:8a:71:d4:76:7a:3f:14:56:
        cf:25:bb:15:61:2f:5f:35:00:a4:40:cd:7f:db:5f:d5:67:0e:
        37:99:b9:75:40:70:de:20:54:15:ef:76:9a:54:b9:02:fe:d0:
        6d:55:7d:5e:4a:a5:a9:d2:fa:cf:e1:f9:2d:09:d1:90:1f:03:
        d6:cf:74:3c:ab:6e:c5:93:e5:56:6e:e4:5f:14:f5:e9:e3:8a:
        f7:4e
-----BEGIN CERTIFICATE-----
MIICvDCCAiUCCQCbJ9fo0boJjDANBgkqhkiG9w0BAQQFADCBlTELMAkGA1UEBhMC
REUxETAPBgNVBAgTCFNhYXJsYW5kMRAwDgYDVQQKEwdNUEktU1dTMSIwIAYDVQQL
ExlEaXN0cmlidXRlZCBTeXN0ZW1zIEdyb3VwMRowGAYDVQQDExFBbmRyZWFzIEhh
ZWJlcmxlbjEhMB8GCSqGSIb3DQEJARYSZGVtb2NhQG9jdGFyaW5lLmRlMB4XDTE1
MDQyMDIwNDcxNloXDTE2MDQxOTIwNDcxNlowga4xCzAJBgNVBAYTAkRFMREwDwYD
VQQIEwhTYWFybGFuZDEQMA4GA1UEChMHTVBJLVNXUzEiMCAGA1UECxMZRGlzdHJp
YnV0ZWQgU3lzdGVtcyBHcm91cDExMC8GA1UEAxMoNzBkZGQ5ZjMyZTZkZjM2MjI0
OGU5MzMzNGUzOTQwZGMxYjlmNDgzNzEjMCEGCSqGSIb3DQEJARYUbm9kZTA0MzZA
b2N0YXJpbmUuZGUwgZ8wDQYJKoZIhvcNAQEBBQADgY0AMIGJAoGBANuwjHHaA2HJ
HdCwhLzSYNioUlxI6aDEp/T4c+6UuuMhueIJn9+IRZfFHhHNr8vSy3bDHlt+0u3e
OhH4HbgTqGch8suBnRWa5KTKpSUxsHnW5GdybJJrs3oSXXLvAsh9f3KkN0LHXOWX
b6IfgUqleunM2YAXcv/WUcg0qMVtcd6FAgMBAAEwDQYJKoZIhvcNAQEEBQADgYEA
YWA3syCLld9wly3rhL7MMjfio9qWbiqQIYwIGSneWAO2x4gclA04tSFFBkASiYpx
1HZ6PxRWzyW7FWEvXzUApEDNf9tf1WcON5m5dUBw3iBUFe92mlS5Av7QbVV9Xkql
qdL6z+H5LQnRkB8D1s90PKtuxZPlVm7kXxT16eOK904=
-----END CERTIFICATE-----
