Certificate:
    Data:
        Version: 1 (0x0)
        Serial Number:
            9b:27:d7:e8:d1:ba:07:e4
        Signature Algorithm: md5WithRSAEncryption
        Issuer: C=DE, ST=Saarland, O=MPI-SWS, OU=Distributed Systems Group, CN=Andreas Haeberlen/emailAddress=democa@octarine.de
        Validity
            Not Before: Apr 20 20:46:57 2015 GMT
            Not After : Apr 19 20:46:57 2016 GMT
        Subject: C=DE, ST=Saarland, O=MPI-SWS, OU=Distributed Systems Group, CN=7de52d8422f116ecb4850d0f3c72f126f0c1e460/emailAddress=node0012@octarine.de
        Subject Public Key Info:
            Public Key Algorithm: rsaEncryption
            RSA Public Key: (1024 bit)
                Modulus (1024 bit):
                    00:c7:35:39:86:62:38:58:bf:74:bd:65:54:4b:05:
                    b4:dd:c8:3a:cf:a7:b3:e4:ec:6a:74:04:42:34:70:
                    2b:f0:88:d3:d4:eb:74:a0:74:58:bc:1f:c5:62:93:
                    2d:ce:91:68:1f:30:b8:9d:e4:c0:bf:54:44:f8:ff:
                    66:fb:cc:a3:13:42:bb:08:31:d1:21:87:ed:53:d6:
                    11:52:b9:9c:10:27:15:ac:3e:fe:19:60:a7:93:b1:
                    62:73:fa:6d:97:11:6b:48:42:c5:ad:31:3c:54:24:
                    a2:4f:6b:04:21:a2:e3:f8:6b:8e:7b:10:58:4c:ac:
                    0b:82:05:6f:dd:6a:fb:0c:c7
                Exponent: 65537 (0x10001)
    Signature Algorithm: md5WithRSAEncryption
        04:08:5e:96:c1:4c:af:ce:6e:9a:c4:14:b3:01:9d:b9:6e:90:
        0d:0f:9d:9c:3c:de:89:73:c1:fe:30:b3:74:1c:c9:d5:09:0a:
        26:b1:6a:6a:66:dc:3a:34:30:81:04:26:94:80:b5:3a:88:8d:
        b9:c5:e7:e4:93:da:89:82:42:fc:b9:76:24:03:12:5b:b3:f1:
        b7:91:c7:62:57:43:8a:4e:d5:43:74:d1:40:82:ac:46:9d:8a:
        78:12:eb:c6:72:b6:74:39:7f:2e:64:75:34:86:91:98:1d:5f:
        be:77:1f:ca:b8:0e:98:a9:f6:f8:a2:09:98:3a:32:5c:6f:36:
        56:ce
-----BEGIN CERTIFICATE-----
MIICvDCCAiUCCQCbJ9fo0boH5DANBgkqhkiG9w0BAQQFADCBlTELMAkGA1UEBhMC
REUxETAPBgNVBAgTCFNhYXJsYW5kMRAwDgYDVQQKEwdNUEktU1dTMSIwIAYDVQQL
ExlEaXN0cmlidXRlZCBTeXN0ZW1zIEdyb3VwMRowGAYDVQQDExFBbmRyZWFzIEhh
ZWJlcmxlbjEhMB8GCSqGSIb3DQEJARYSZGVtb2NhQG9jdGFyaW5lLmRlMB4XDTE1
MDQyMDIwNDY1N1oXDTE2MDQxOTIwNDY1N1owga4xCzAJBgNVBAYTAkRFMREwDwYD
VQQIEwhTYWFybGFuZDEQMA4GA1UEChMHTVBJLVNXUzEiMCAGA1UECxMZRGlzdHJp
YnV0ZWQgU3lzdGVtcyBHcm91cDExMC8GA1UEAxMoN2RlNTJkODQyMmYxMTZlY2I0
ODUwZDBmM2M3MmYxMjZmMGMxZTQ2MDEjMCEGCSqGSIb3DQEJARYUbm9kZTAwMTJA
b2N0YXJpbmUuZGUwgZ8wDQYJKoZIhvcNAQEBBQADgY0AMIGJAoGBAMc1OYZiOFi/
dL1lVEsFtN3IOs+ns+TsanQEQjRwK/CI09TrdKB0WLwfxWKTLc6RaB8wuJ3kwL9U
RPj/ZvvMoxNCuwgx0SGH7VPWEVK5nBAnFaw+/hlgp5OxYnP6bZcRa0hCxa0xPFQk
ok9rBCGi4/hrjnsQWEysC4IFb91q+wzHAgMBAAEwDQYJKoZIhvcNAQEEBQADgYEA
BAhelsFMr85umsQUswGduW6QDQ+dnDzeiXPB/jCzdBzJ1QkKJrFqambcOjQwgQQm
lIC1OoiNucXn5JPaiYJC/Ll2JAMSW7Pxt5HHYldDik7VQ3TRQIKsRp2KeBLrxnK2
dDl/LmR1NIaRmB1fvncfyrgOmKn2+KIJmDoyXG82Vs4=
-----END CERTIFICATE-----
