Certificate:
    Data:
        Version: 1 (0x0)
        Serial Number:
            9b:27:d7:e8:d1:ba:0b:29
        Signature Algorithm: md5WithRSAEncryption
        Issuer: C=DE, ST=Saarland, O=MPI-SWS, OU=Distributed Systems Group, CN=Andreas Haeberlen/emailAddress=democa@octarine.de
        Validity
            Not Before: Apr 20 20:47:34 2015 GMT
            Not After : Apr 19 20:47:34 2016 GMT
        Subject: C=DE, ST=Saarland, O=MPI-SWS, OU=Distributed Systems Group, CN=3bbe3a56e396ecd706ede61191a984cbf8922f91/emailAddress=node0849@octarine.de
        Subject Public Key Info:
            Public Key Algorithm: rsaEncryption
            RSA Public Key: (1024 bit)
                Modulus (1024 bit):
                    00:bf:ef:37:06:be:b8:ca:5c:ab:cc:31:cc:8c:e3:
                    40:f7:ea:59:34:81:a6:ce:a7:03:03:43:bc:a8:7a:
                    7f:e3:ee:25:a3:f7:8c:52:ef:89:ff:ba:11:01:81:
                    2e:00:9d:86:f2:ee:87:c6:7f:77:ce:2e:fd:e8:4d:
                    1b:f3:1b:70:4d:03:f3:77:ae:c6:79:1e:72:f2:bf:
                    d1:d7:d5:e5:3d:f4:3e:14:81:36:8e:8e:24:24:f7:
                    b0:9b:72:e7:a1:65:20:37:a4:09:2f:66:ae:ad:47:
                    a4:32:c8:cc:08:35:c7:0d:56:8b:24:a0:95:0b:20:
                    c7:2f:5c:4d:90:12:59:4b:07
                Exponent: 65537 (0x10001)
    Signature Algorithm: md5WithRSAEncryption
        73:f4:52:13:9c:5f:b9:ad:0d:56:07:2d:44:8c:45:bf:02:67:
        ba:70:e0:7b:6d:83:52:42:b2:5e:6b:2c:36:39:1b:cd:34:68:
        90:6b:50:47:68:8a:fd:fc:c8:3e:99:15:6c:a2:c6:fc:65:30:
        aa:02:b6:48:4c:c1:b9:ca:1f:8a:f8:ec:de:f4:7d:e9:ee:20:
        14:a1:92:08:ba:9e:68:28:1b:2b:eb:eb:02:d4:40:a0:73:52:
        6b:fe:83:a4:a7:cb:06:fb:2f:33:60:12:d3:33:58:7d:58:b9:
        76:15:79:a3:bb:88:bc:1d:df:e3:4f:dd:6e:69:e5:56:78:2f:
        1b:86
-----BEGIN CERTIFICATE-----
MIICvDCCAiUCCQCbJ9fo0boLKTANBgkqhkiG9w0BAQQFADCBlTELMAkGA1UEBhMC
REUxETAPBgNVBAgTCFNhYXJsYW5kMRAwDgYDVQQKEwdNUEktU1dTMSIwIAYDVQQL
ExlEaXN0cmlidXRlZCBTeXN0ZW1zIEdyb3VwMRowGAYDVQQDExFBbmRyZWFzIEhh
ZWJlcmxlbjEhMB8GCSqGSIb3DQEJARYSZGVtb2NhQG9jdGFyaW5lLmRlMB4XDTE1
MDQyMDIwNDczNFoXDTE2MDQxOTIwNDczNFowga4xCzAJBgNVBAYTAkRFMREwDwYD
VQQIEwhTYWFybGFuZDEQMA4GA1UEChMHTVBJLVNXUzEiMCAGA1UECxMZRGlzdHJp
YnV0ZWQgU3lzdGVtcyBHcm91cDExMC8GA1UEAxMoM2JiZTNhNTZlMzk2ZWNkNzA2
ZWRlNjExOTFhOTg0Y2JmODkyMmY5MTEjMCEGCSqGSIb3DQEJARYUbm9kZTA4NDlA
b2N0YXJpbmUuZGUwgZ8wDQYJKoZIhvcNAQEBBQADgY0AMIGJAoGBAL/vNwa+uMpc
q8wxzIzjQPfqWTSBps6nAwNDvKh6f+PuJaP3jFLvif+6EQGBLgCdhvLuh8Z/d84u
/ehNG/MbcE0D83euxnkecvK/0dfV5T30PhSBNo6OJCT3sJty56FlIDekCS9mrq1H
pDLIzAg1xw1WiySglQsgxy9cTZASWUsHAgMBAAEwDQYJKoZIhvcNAQEEBQADgYEA
c/RSE5xfua0NVgctRIxFvwJnunDge22DUkKyXmssNjkbzTRokGtQR2iK/fzIPpkV
bKLG/GUwqgK2SEzBucofivjs3vR96e4gFKGSCLqeaCgbK+vrAtRAoHNSa/6DpKfL
BvsvM2AS0zNYfVi5dhV5o7uIvB3f40/dbmnlVngvG4Y=
-----END CERTIFICATE-----
