Certificate:
    Data:
        Version: 1 (0x0)
        Serial Number:
            9b:27:d7:e8:d1:ba:09:70
        Signature Algorithm: md5WithRSAEncryption
        Issuer: C=DE, ST=Saarland, O=MPI-SWS, OU=Distributed Systems Group, CN=Andreas Haeberlen/emailAddress=democa@octarine.de
        Validity
            Not Before: Apr 20 20:47:14 2015 GMT
            Not After : Apr 19 20:47:14 2016 GMT
        Subject: C=DE, ST=Saarland, O=MPI-SWS, OU=Distributed Systems Group, CN=96d9bf83903da46061c5237e8483148aa5465caf/emailAddress=node0408@octarine.de
        Subject Public Key Info:
            Public Key Algorithm: rsaEncryption
            RSA Public Key: (1024 bit)
                Modulus (1024 bit):
                    00:cb:ee:7c:e5:b0:9f:84:8a:91:3f:a9:a2:8e:57:
                    14:cb:2f:f8:e7:b2:e6:28:d6:95:ef:7c:de:53:c2:
                    42:9a:b7:e6:01:7e:b3:d0:92:e8:1a:a9:a4:8b:f3:
                    50:e5:a8:df:79:78:bf:a3:7f:4c:f9:69:34:e3:b8:
                    c6:66:02:98:3a:30:0b:90:92:0b:64:1c:6f:96:bd:
                    10:e8:4a:01:51:1f:e4:24:66:9c:a0:19:87:e9:dc:
                    8a:37:de:1f:2b:b2:36:54:9a:e3:dc:07:7d:ac:64:
                    90:6c:71:f8:2b:d0:08:35:63:79:27:ca:ca:60:42:
                    b0:91:c7:30:8b:07:95:93:3d
                Exponent: 65537 (0x10001)
    Signature Algorithm: md5WithRSAEncryption
        2e:66:07:38:d7:ac:4e:97:41:c8:8a:29:43:d5:23:35:49:ba:
        84:74:aa:39:db:b3:1b:83:f1:b7:14:c8:4c:09:04:40:69:fc:
        16:3c:f2:1e:d4:65:1b:d3:fb:0b:8d:e3:ab:90:a7:e9:de:f5:
        94:93:3e:ed:73:4c:a7:0b:27:53:5b:c6:f7:08:b4:76:6a:8f:
        30:c9:4d:d6:f0:b2:72:49:71:fc:5f:3f:bc:19:3b:a7:f6:60:
        19:05:47:bf:cf:13:19:9e:fe:3c:c7:c9:ab:65:6f:05:0b:92:
        5f:3f:83:4e:0d:a8:fd:cc:0b:53:dd:5b:05:87:71:de:c6:64:
        c9:42
-----BEGIN CERTIFICATE-----
MIICvDCCAiUCCQCbJ9fo0boJcDANBgkqhkiG9w0BAQQFADCBlTELMAkGA1UEBhMC
REUxETAPBgNVBAgTCFNhYXJsYW5kMRAwDgYDVQQKEwdNUEktU1dTMSIwIAYDVQQL
ExlEaXN0cmlidXRlZCBTeXN0ZW1zIEdyb3VwMRowGAYDVQQDExFBbmRyZWFzIEhh
ZWJlcmxlbjEhMB8GCSqGSIb3DQEJARYSZGVtb2NhQG9jdGFyaW5lLmRlMB4XDTE1
MDQyMDIwNDcxNFoXDTE2MDQxOTIwNDcxNFowga4xCzAJBgNVBAYTAkRFMREwDwYD
VQQIEwhTYWFybGFuZDEQMA4GA1UEChMHTVBJLVNXUzEiMCAGA1UECxMZRGlzdHJp
YnV0ZWQgU3lzdGVtcyBHcm91cDExMC8GA1UEAxMoOTZkOWJmODM5MDNkYTQ2MDYx
YzUyMzdlODQ4MzE0OGFhNTQ2NWNhZjEjMCEGCSqGSIb3DQEJARYUbm9kZTA0MDhA
b2N0YXJpbmUuZGUwgZ8wDQYJKoZIhvcNAQEBBQADgY0AMIGJAoGBAMvufOWwn4SK
kT+poo5XFMsv+Oey5ijWle983lPCQpq35gF+s9CS6BqppIvzUOWo33l4v6N/TPlp
NOO4xmYCmDowC5CSC2Qcb5a9EOhKAVEf5CRmnKAZh+ncijfeHyuyNlSa49wHfaxk
kGxx+CvQCDVjeSfKymBCsJHHMIsHlZM9AgMBAAEwDQYJKoZIhvcNAQEEBQADgYEA
LmYHONesTpdByIopQ9UjNUm6hHSqOduzG4PxtxTITAkEQGn8FjzyHtRlG9P7C43j
q5Cn6d71lJM+7XNMpwsnU1vG9wi0dmqPMMlN1vCycklx/F8/vBk7p/ZgGQVHv88T
GZ7+PMfJq2VvBQuSXz+DTg2o/cwLU91bBYdx3sZkyUI=
-----END CERTIFICATE-----
