Certificate:
    Data:
        Version: 1 (0x0)
        Serial Number:
            9b:27:d7:e8:d1:ba:0b:7d
        Signature Algorithm: md5WithRSAEncryption
        Issuer: C=DE, ST=Saarland, O=MPI-SWS, OU=Distributed Systems Group, CN=Andreas Haeberlen/emailAddress=democa@octarine.de
        Validity
            Not Before: Apr 20 20:47:38 2015 GMT
            Not After : Apr 19 20:47:38 2016 GMT
        Subject: C=DE, ST=Saarland, O=MPI-SWS, OU=Distributed Systems Group, CN=0504e2cfcde1a6a3704443c58c7aa40ba0f83c8f/emailAddress=node0933@octarine.de
        Subject Public Key Info:
            Public Key Algorithm: rsaEncryption
            RSA Public Key: (1024 bit)
                Modulus (1024 bit):
                    00:9c:d2:75:2d:ba:18:34:84:fa:c9:e9:f5:30:14:
                    8a:9b:86:4a:ba:db:9c:b5:68:3b:62:fc:5c:98:e8:
                    33:32:42:b6:bb:9a:f7:57:3a:55:f5:64:3c:e6:24:
                    46:64:59:f4:bd:b6:d2:36:de:82:4f:b1:ed:c9:6f:
                    76:1d:bc:0a:6c:a4:ba:82:1c:8d:0c:b0:01:0c:81:
                    e9:7e:a1:02:82:6a:ef:9a:06:2c:eb:39:57:ca:5f:
                    c6:09:76:88:90:98:95:47:9b:79:cc:ed:82:29:d9:
                    62:5c:c4:bc:e4:e9:d9:86:b5:0f:36:9f:3e:bb:10:
                    58:13:aa:b2:ee:71:67:b9:9b
                Exponent: 65537 (0x10001)
    Signature Algorithm: md5WithRSAEncryption
        ba:1d:70:c6:62:61:f5:79:73:11:cd:10:8b:21:38:8e:be:b8:
        f5:1b:14:cc:64:66:03:6c:c3:0e:2e:67:bb:90:25:9b:6f:2d:
        fd:2e:1c:37:ca:7a:9f:0e:a4:ff:ce:f2:00:b2:9d:03:94:1f:
        5f:66:a0:b9:44:99:d7:23:a5:b6:5a:68:eb:ee:6c:52:c4:38:
        48:09:2b:fd:f7:74:71:dc:74:46:3e:86:44:5f:aa:23:5f:0f:
        12:33:8d:69:c6:d2:e9:83:75:c9:0a:fd:78:43:9c:4b:bf:dd:
        66:5d:ab:bc:e2:a9:c0:dc:c1:37:2e:67:fd:72:c6:2d:f7:c8:
        65:b3
-----BEGIN CERTIFICATE-----
MIICvDCCAiUCCQCbJ9fo0boLfTANBgkqhkiG9w0BAQQFADCBlTELMAkGA1UEBhMC
REUxETAPBgNVBAgTCFNhYXJsYW5kMRAwDgYDVQQKEwdNUEktU1dTMSIwIAYDVQQL
ExlEaXN0cmlidXRlZCBTeXN0ZW1zIEdyb3VwMRowGAYDVQQDExFBbmRyZWFzIEhh
ZWJlcmxlbjEhMB8GCSqGSIb3DQEJARYSZGVtb2NhQG9jdGFyaW5lLmRlMB4XDTE1
MDQyMDIwNDczOFoXDTE2MDQxOTIwNDczOFowga4xCzAJBgNVBAYTAkRFMREwDwYD
VQQIEwhTYWFybGFuZDEQMA4GA1UEChMHTVBJLVNXUzEiMCAGA1UECxMZRGlzdHJp
YnV0ZWQgU3lzdGVtcyBHcm91cDExMC8GA1UEAxMoMDUwNGUyY2ZjZGUxYTZhMzcw
NDQ0M2M1OGM3YWE0MGJhMGY4M2M4ZjEjMCEGCSqGSIb3DQEJARYUbm9kZTA5MzNA
b2N0YXJpbmUuZGUwgZ8wDQYJKoZIhvcNAQEBBQADgY0AMIGJAoGBAJzSdS26GDSE
+snp9TAUipuGSrrbnLVoO2L8XJjoMzJCtrua91c6VfVkPOYkRmRZ9L220jbegk+x
7clvdh28CmykuoIcjQywAQyB6X6hAoJq75oGLOs5V8pfxgl2iJCYlUebecztginZ
YlzEvOTp2Ya1DzafPrsQWBOqsu5xZ7mbAgMBAAEwDQYJKoZIhvcNAQEEBQADgYEA
uh1wxmJh9XlzEc0QiyE4jr649RsUzGRmA2zDDi5nu5Alm28t/S4cN8p6nw6k/87y
ALKdA5QfX2aguUSZ1yOltlpo6+5sUsQ4SAkr/fd0cdx0Rj6GRF+qI18PEjONacbS
6YN1yQr9eEOcS7/dZl2rvOKpwNzBNy5n/XLGLffIZbM=
-----END CERTIFICATE-----
