Certificate:
    Data:
        Version: 1 (0x0)
        Serial Number:
            9b:27:d7:e8:d1:ba:09:be
        Signature Algorithm: md5WithRSAEncryption
        Issuer: C=DE, ST=Saarland, O=MPI-SWS, OU=Distributed Systems Group, CN=Andreas Haeberlen/emailAddress=democa@octarine.de
        Validity
            Not Before: Apr 20 20:47:18 2015 GMT
            Not After : Apr 19 20:47:18 2016 GMT
        Subject: C=DE, ST=Saarland, O=MPI-SWS, OU=Distributed Systems Group, CN=72240a800c3da93b1b80b38ac77b781ea43aecbf/emailAddress=node0486@octarine.de
        Subject Public Key Info:
            Public Key Algorithm: rsaEncryption
            RSA Public Key: (1024 bit)
                Modulus (1024 bit):
                    00:d3:a7:6f:51:0c:d7:7f:ab:6e:b9:01:3e:20:7a:
                    00:3a:df:8d:0e:01:70:7b:8a:23:39:f9:b4:48:da:
                    de:f5:de:db:79:8a:4c:58:8a:0d:c3:3d:16:bb:39:
                    3a:2a:d3:22:97:d3:44:0c:44:57:bc:2d:3c:27:5f:
                    67:37:03:4b:78:d3:b7:f9:63:4c:ea:e4:5e:3c:f3:
                    e8:8f:c2:20:15:8f:8d:8a:14:d7:85:5a:d1:77:59:
                    37:b7:b8:5c:ef:04:74:b3:6c:13:01:2d:a5:d7:ae:
                    49:a1:b3:11:6a:4e:a5:40:ef:b9:28:55:fe:38:c9:
                    6c:fe:f6:a5:f7:63:9f:ea:91
                Exponent: 65537 (0x10001)
    Signature Algorithm: md5WithRSAEncryption
        75:aa:38:ba:e4:59:0b:cf:04:27:d8:98:01:a5:dc:62:72:39:
        dc:76:d7:a6:6c:68:3d:d0:b9:8f:76:77:61:6d:52:e7:0a:f0:
        93:b2:e5:69:6a:13:08:9c:7c:6c:7b:d7:11:d8:33:ad:36:64:
        e9:27:45:1f:b6:a9:29:73:fb:59:a3:f4:c2:17:a4:c9:4d:34:
        cd:13:28:2a:3c:18:a1:a0:b3:fe:40:5e:a9:28:61:51:24:8e:
        8f:a8:49:b1:09:09:2a:54:ae:f5:02:98:b1:1f:a5:8c:90:4d:
        69:dc:1a:38:c3:bb:2f:e8:f8:f6:68:f1:cc:29:cc:25:f3:87:
        76:42
-----BEGIN CERTIFICATE-----
MIICvDCCAiUCCQCbJ9fo0boJvjANBgkqhkiG9w0BAQQFADCBlTELMAkGA1UEBhMC
REUxETAPBgNVBAgTCFNhYXJsYW5kMRAwDgYDVQQKEwdNUEktU1dTMSIwIAYDVQQL
ExlEaXN0cmlidXRlZCBTeXN0ZW1zIEdyb3VwMRowGAYDVQQDExFBbmRyZWFzIEhh
ZWJlcmxlbjEhMB8GCSqGSIb3DQEJARYSZGVtb2NhQG9jdGFyaW5lLmRlMB4XDTE1
MDQyMDIwNDcxOFoXDTE2MDQxOTIwNDcxOFowga4xCzAJBgNVBAYTAkRFMREwDwYD
VQQIEwhTYWFybGFuZDEQMA4GA1UEChMHTVBJLVNXUzEiMCAGA1UECxMZRGlzdHJp
YnV0ZWQgU3lzdGVtcyBHcm91cDExMC8GA1UEAxMoNzIyNDBhODAwYzNkYTkzYjFi
ODBiMzhhYzc3Yjc4MWVhNDNhZWNiZjEjMCEGCSqGSIb3DQEJARYUbm9kZTA0ODZA
b2N0YXJpbmUuZGUwgZ8wDQYJKoZIhvcNAQEBBQADgY0AMIGJAoGBANOnb1EM13+r
brkBPiB6ADrfjQ4BcHuKIzn5tEja3vXe23mKTFiKDcM9Frs5OirTIpfTRAxEV7wt
PCdfZzcDS3jTt/ljTOrkXjzz6I/CIBWPjYoU14Va0XdZN7e4XO8EdLNsEwEtpdeu
SaGzEWpOpUDvuShV/jjJbP72pfdjn+qRAgMBAAEwDQYJKoZIhvcNAQEEBQADgYEA
dao4uuRZC88EJ9iYAaXcYnI53HbXpmxoPdC5j3Z3YW1S5wrwk7LlaWoTCJx8bHvX
EdgzrTZk6SdFH7apKXP7WaP0whekyU00zRMoKjwYoaCz/kBeqShhUSSOj6hJsQkJ
KlSu9QKYsR+ljJBNadwaOMO7L+j49mjxzCnMJfOHdkI=
-----END CERTIFICATE-----
