Certificate:
    Data:
        Version: 1 (0x0)
        Serial Number:
            9b:27:d7:e8:d1:ba:0b:3f
        Signature Algorithm: md5WithRSAEncryption
        Issuer: C=DE, ST=Saarland, O=MPI-SWS, OU=Distributed Systems Group, CN=Andreas Haeberlen/emailAddress=democa@octarine.de
        Validity
            Not Before: Apr 20 20:47:35 2015 GMT
            Not After : Apr 19 20:47:35 2016 GMT
        Subject: C=DE, ST=Saarland, O=MPI-SWS, OU=Distributed Systems Group, CN=157205b6c93c91a64d7abeabb04469d7f4af9566/emailAddress=node0871@octarine.de
        Subject Public Key Info:
            Public Key Algorithm: rsaEncryption
            RSA Public Key: (1024 bit)
                Modulus (1024 bit):
                    00:ca:43:54:68:1e:bc:79:66:0a:c8:cf:48:36:5d:
                    72:62:f6:e4:6d:59:40:84:64:69:86:4f:83:09:35:
                    fc:68:e5:a2:82:41:8f:de:e3:ea:42:22:51:3c:63:
                    1f:6a:6c:e3:d9:28:d2:65:e4:91:ac:3b:f4:f6:dd:
                    23:02:2c:87:57:da:6b:b4:4a:92:b9:4c:39:68:a9:
                    ab:97:7c:d1:25:0b:3f:7d:a2:f9:45:24:d6:e9:cc:
                    cb:24:da:67:74:33:a1:42:1d:c0:1c:0f:79:8e:26:
                    02:86:61:6d:37:f2:84:e1:41:ee:1f:6a:5a:02:2f:
                    a4:2f:d5:10:43:06:d7:86:7f
                Exponent: 65537 (0x10001)
    Signature Algorithm: md5WithRSAEncryption
        30:56:09:b3:93:78:f4:07:65:dc:99:9f:e2:7b:b3:5c:74:36:
        bc:3b:9c:49:94:7f:95:7c:2c:7d:01:0c:16:fb:c8:c8:8e:4c:
        06:c4:c2:f7:a1:fc:da:79:08:36:f2:0d:02:1f:a5:40:92:d3:
        08:52:8e:8c:52:83:70:df:91:19:35:2d:67:f4:0f:da:fb:63:
        6b:6c:d9:94:a0:6d:99:97:ba:00:68:84:e4:87:f0:64:ea:6f:
        57:48:65:68:f1:6e:7e:86:69:f4:ff:90:18:22:aa:d5:21:c8:
        d0:37:a4:96:e2:5d:68:4e:86:fa:3c:ef:a3:d8:1b:79:a8:a4:
        26:c6
-----BEGIN CERTIFICATE-----
MIICvDCCAiUCCQCbJ9fo0boLPzANBgkqhkiG9w0BAQQFADCBlTELMAkGA1UEBhMC
REUxETAPBgNVBAgTCFNhYXJsYW5kMRAwDgYDVQQKEwdNUEktU1dTMSIwIAYDVQQL
ExlEaXN0cmlidXRlZCBTeXN0ZW1zIEdyb3VwMRowGAYDVQQDExFBbmRyZWFzIEhh
ZWJlcmxlbjEhMB8GCSqGSIb3DQEJARYSZGVtb2NhQG9jdGFyaW5lLmRlMB4XDTE1
MDQyMDIwNDczNVoXDTE2MDQxOTIwNDczNVowga4xCzAJBgNVBAYTAkRFMREwDwYD
VQQIEwhTYWFybGFuZDEQMA4GA1UEChMHTVBJLVNXUzEiMCAGA1UECxMZRGlzdHJp
YnV0ZWQgU3lzdGVtcyBHcm91cDExMC8GA1UEAxMoMTU3MjA1YjZjOTNjOTFhNjRk
N2FiZWFiYjA0NDY5ZDdmNGFmOTU2NjEjMCEGCSqGSIb3DQEJARYUbm9kZTA4NzFA
b2N0YXJpbmUuZGUwgZ8wDQYJKoZIhvcNAQEBBQADgY0AMIGJAoGBAMpDVGgevHlm
CsjPSDZdcmL25G1ZQIRkaYZPgwk1/GjlooJBj97j6kIiUTxjH2ps49ko0mXkkaw7
9PbdIwIsh1faa7RKkrlMOWipq5d80SULP32i+UUk1unMyyTaZ3QzoUIdwBwPeY4m
AoZhbTfyhOFB7h9qWgIvpC/VEEMG14Z/AgMBAAEwDQYJKoZIhvcNAQEEBQADgYEA
MFYJs5N49Adl3Jmf4nuzXHQ2vDucSZR/lXwsfQEMFvvIyI5MBsTC96H82nkINvIN
Ah+lQJLTCFKOjFKDcN+RGTUtZ/QP2vtja2zZlKBtmZe6AGiE5IfwZOpvV0hlaPFu
foZp9P+QGCKq1SHI0DekluJdaE6G+jzvo9gbeaikJsY=
-----END CERTIFICATE-----
