Certificate:
    Data:
        Version: 1 (0x0)
        Serial Number:
            9b:27:d7:e8:d1:ba:08:8b
        Signature Algorithm: md5WithRSAEncryption
        Issuer: C=DE, ST=Saarland, O=MPI-SWS, OU=Distributed Systems Group, CN=Andreas Haeberlen/emailAddress=democa@octarine.de
        Validity
            Not Before: Apr 20 20:47:04 2015 GMT
            Not After : Apr 19 20:47:04 2016 GMT
        Subject: C=DE, ST=Saarland, O=MPI-SWS, OU=Distributed Systems Group, CN=c9dfafa943da72003a61424edaa80edd7bd1a7af/emailAddress=node0179@octarine.de
        Subject Public Key Info:
            Public Key Algorithm: rsaEncryption
            RSA Public Key: (1024 bit)
                Modulus (1024 bit):
                    00:b9:92:7f:80:1d:f8:ab:e2:4f:eb:48:85:83:75:
                    59:d6:fa:06:ce:eb:0d:36:8c:b9:2e:54:89:f2:1a:
                    09:b4:90:91:7b:89:dc:5f:89:cb:ba:2e:57:8e:f2:
                    66:0f:67:ee:5d:d0:95:e5:50:6e:d2:a6:d9:21:29:
                    43:d1:52:6d:64:9f:9b:77:e5:f2:17:89:4f:ff:ff:
                    fc:16:f0:7b:45:b5:23:8a:fd:9d:0e:b5:87:50:c5:
                    3d:76:51:0e:b6:8a:e3:2c:1a:31:b2:84:46:2a:0d:
                    4c:89:54:f0:0f:09:b1:61:bb:b7:e4:f2:8e:46:fd:
                    d8:03:c4:2d:77:4e:d2:c8:5b
                Exponent: 65537 (0x10001)
    Signature Algorithm: md5WithRSAEncryption
        7d:17:10:92:c5:4c:be:7b:d0:bf:12:02:2e:01:77:ae:81:c6:
        ad:89:d3:dd:d7:85:d2:a2:dc:45:46:94:25:ad:49:db:17:a6:
        26:46:80:db:24:af:66:67:ec:11:00:2f:6b:b7:64:25:27:9b:
        e8:ec:74:4e:87:6b:6d:4d:88:1c:71:5a:79:cd:f5:49:12:02:
        56:52:bf:4c:e0:8d:ed:8a:6d:c4:92:e9:06:66:7b:a5:43:1d:
        33:f0:27:f6:b2:e6:f1:92:57:3a:0d:88:a4:bf:25:0b:10:b3:
        61:ae:a4:75:5b:71:84:03:db:59:d4:7f:bd:b3:df:05:28:97:
        e2:70
-----BEGIN CERTIFICATE-----
MIICvDCCAiUCCQCbJ9fo0boIizANBgkqhkiG9w0BAQQFADCBlTELMAkGA1UEBhMC
REUxETAPBgNVBAgTCFNhYXJsYW5kMRAwDgYDVQQKEwdNUEktU1dTMSIwIAYDVQQL
ExlEaXN0cmlidXRlZCBTeXN0ZW1zIEdyb3VwMRowGAYDVQQDExFBbmRyZWFzIEhh
ZWJlcmxlbjEhMB8GCSqGSIb3DQEJARYSZGVtb2NhQG9jdGFyaW5lLmRlMB4XDTE1
MDQyMDIwNDcwNFoXDTE2MDQxOTIwNDcwNFowga4xCzAJBgNVBAYTAkRFMREwDwYD
VQQIEwhTYWFybGFuZDEQMA4GA1UEChMHTVBJLVNXUzEiMCAGA1UECxMZRGlzdHJp
YnV0ZWQgU3lzdGVtcyBHcm91cDExMC8GA1UEAxMoYzlkZmFmYTk0M2RhNzIwMDNh
NjE0MjRlZGFhODBlZGQ3YmQxYTdhZjEjMCEGCSqGSIb3DQEJARYUbm9kZTAxNzlA
b2N0YXJpbmUuZGUwgZ8wDQYJKoZIhvcNAQEBBQADgY0AMIGJAoGBALmSf4Ad+Kvi
T+tIhYN1Wdb6Bs7rDTaMuS5UifIaCbSQkXuJ3F+Jy7ouV47yZg9n7l3QleVQbtKm
2SEpQ9FSbWSfm3fl8heJT////Bbwe0W1I4r9nQ61h1DFPXZRDraK4ywaMbKERioN
TIlU8A8JsWG7t+Tyjkb92APELXdO0shbAgMBAAEwDQYJKoZIhvcNAQEEBQADgYEA
fRcQksVMvnvQvxICLgF3roHGrYnT3deF0qLcRUaUJa1J2xemJkaA2ySvZmfsEQAv
a7dkJSeb6Ox0TodrbU2IHHFaec31SRICVlK/TOCN7YptxJLpBmZ7pUMdM/An9rLm
8ZJXOg2IpL8lCxCzYa6kdVtxhAPbWdR/vbPfBSiX4nA=
-----END CERTIFICATE-----
