Certificate:
    Data:
        Version: 1 (0x0)
        Serial Number:
            9b:27:d7:e8:d1:ba:09:19
        Signature Algorithm: md5WithRSAEncryption
        Issuer: C=DE, ST=Saarland, O=MPI-SWS, OU=Distributed Systems Group, CN=Andreas Haeberlen/emailAddress=democa@octarine.de
        Validity
            Not Before: Apr 20 20:47:10 2015 GMT
            Not After : Apr 19 20:47:10 2016 GMT
        Subject: C=DE, ST=Saarland, O=MPI-SWS, OU=Distributed Systems Group, CN=bb72f5856f724cbc956e1003e70626bd12f1887f/emailAddress=node0321@octarine.de
        Subject Public Key Info:
            Public Key Algorithm: rsaEncryption
            RSA Public Key: (1024 bit)
                Modulus (1024 bit):
                    00:c4:d9:85:88:80:d2:95:22:21:1c:6f:70:32:7c:
                    d7:13:e6:11:ce:3d:d2:72:9f:4c:16:b3:fc:f0:23:
                    37:2f:be:cb:64:94:01:ab:a3:31:db:eb:64:c8:75:
                    9d:89:ab:db:5c:ed:28:e7:38:50:18:f7:fb:c5:e4:
                    07:27:da:c0:3d:dd:4b:ba:6e:c6:39:64:cb:c5:25:
                    83:8d:c4:16:b5:4e:26:37:70:b6:d1:70:b5:44:30:
                    84:21:59:c0:23:8e:b2:70:d7:28:a3:d0:d6:7d:9b:
                    33:f3:6b:56:be:db:99:1d:9a:f1:ba:9b:20:6d:89:
                    15:8a:95:b0:cc:d1:a4:62:17
                Exponent: 65537 (0x10001)
    Signature Algorithm: md5WithRSAEncryption
        1a:8f:30:fb:c9:1f:61:2e:45:6f:00:67:bd:7e:7b:de:a7:17:
        50:0d:8e:1f:5d:9e:dc:fc:26:8f:ed:83:aa:19:c3:06:72:7a:
        5a:f1:97:a5:da:e3:66:2c:4c:98:f6:2a:ef:3f:1c:cd:b2:76:
        1b:98:30:7f:e3:6a:2c:ba:16:a5:c3:31:4e:a2:5e:eb:a1:a4:
        78:55:92:ee:fd:17:97:aa:21:fb:62:ac:a8:ac:f8:c7:f6:4f:
        b0:ff:8d:50:ca:59:e2:c5:f3:dc:3c:c7:91:58:3a:f3:1c:be:
        06:e6:24:e6:74:be:fd:29:44:c3:b7:d6:21:14:a5:74:19:26:
        95:68
-----BEGIN CERTIFICATE-----
MIICvDCCAiUCCQCbJ9fo0boJGTANBgkqhkiG9w0BAQQFADCBlTELMAkGA1UEBhMC
REUxETAPBgNVBAgTCFNhYXJsYW5kMRAwDgYDVQQKEwdNUEktU1dTMSIwIAYDVQQL
ExlEaXN0cmlidXRlZCBTeXN0ZW1zIEdyb3VwMRowGAYDVQQDExFBbmRyZWFzIEhh
ZWJlcmxlbjEhMB8GCSqGSIb3DQEJARYSZGVtb2NhQG9jdGFyaW5lLmRlMB4XDTE1
MDQyMDIwNDcxMFoXDTE2MDQxOTIwNDcxMFowga4xCzAJBgNVBAYTAkRFMREwDwYD
VQQIEwhTYWFybGFuZDEQMA4GA1UEChMHTVBJLVNXUzEiMCAGA1UECxMZRGlzdHJp
YnV0ZWQgU3lzdGVtcyBHcm91cDExMC8GA1UEAxMoYmI3MmY1ODU2ZjcyNGNiYzk1
NmUxMDAzZTcwNjI2YmQxMmYxODg3ZjEjMCEGCSqGSIb3DQEJARYUbm9kZTAzMjFA
b2N0YXJpbmUuZGUwgZ8wDQYJKoZIhvcNAQEBBQADgY0AMIGJAoGBAMTZhYiA0pUi
IRxvcDJ81xPmEc490nKfTBaz/PAjNy++y2SUAaujMdvrZMh1nYmr21ztKOc4UBj3
+8XkByfawD3dS7puxjlky8Ulg43EFrVOJjdwttFwtUQwhCFZwCOOsnDXKKPQ1n2b
M/NrVr7bmR2a8bqbIG2JFYqVsMzRpGIXAgMBAAEwDQYJKoZIhvcNAQEEBQADgYEA
Go8w+8kfYS5FbwBnvX573qcXUA2OH12e3Pwmj+2DqhnDBnJ6WvGXpdrjZixMmPYq
7z8czbJ2G5gwf+NqLLoWpcMxTqJe66GkeFWS7v0Xl6oh+2KsqKz4x/ZPsP+NUMpZ
4sXz3DzHkVg68xy+BuYk5nS+/SlEw7fWIRSldBkmlWg=
-----END CERTIFICATE-----
