Certificate:
    Data:
        Version: 1 (0x0)
        Serial Number:
            9b:27:d7:e8:d1:ba:0a:a0
        Signature Algorithm: md5WithRSAEncryption
        Issuer: C=DE, ST=Saarland, O=MPI-SWS, OU=Distributed Systems Group, CN=Andreas Haeberlen/emailAddress=democa@octarine.de
        Validity
            Not Before: Apr 20 20:47:28 2015 GMT
            Not After : Apr 19 20:47:28 2016 GMT
        Subject: C=DE, ST=Saarland, O=MPI-SWS, OU=Distributed Systems Group, CN=f8397fabff10d07468420e6195abefad8d7fd1ac/emailAddress=node0712@octarine.de
        Subject Public Key Info:
            Public Key Algorithm: rsaEncryption
            RSA Public Key: (1024 bit)
                Modulus (1024 bit):
                    00:cc:b1:a2:45:8e:df:9c:9f:97:6a:5d:9c:35:ae:
                    88:7f:e9:21:d5:e8:e8:a9:fe:d7:5e:d2:b2:2d:24:
                    d3:51:0b:ee:1e:78:07:34:95:6d:11:da:08:92:3b:
                    67:3f:59:39:a2:d6:1c:39:de:4b:ed:34:ca:fa:39:
                    8b:d0:ba:5f:71:33:df:91:db:0b:a4:80:42:07:72:
                    f5:94:b8:fb:19:42:27:64:69:08:50:25:df:db:f7:
                    1e:86:39:3a:8e:5f:8e:d3:92:49:09:1f:00:64:77:
                    c1:e2:a2:91:cb:31:b7:7e:15:4f:be:02:d3:d3:cd:
                    78:96:15:a4:ff:1a:a1:fa:b5
                Exponent: 65537 (0x10001)
    Signature Algorithm: md5WithRSAEncryption
        a0:6b:69:4a:ad:f7:8a:f5:18:eb:7d:90:69:6b:75:8f:d2:5a:
        60:ce:e8:45:e4:08:ef:e9:3b:ae:ae:62:c3:ad:5f:73:e2:95:
        91:f5:b3:69:3b:32:ec:95:b9:53:e9:66:e4:51:a6:4e:dd:92:
        2f:26:ca:ab:40:97:1b:e8:d2:bf:ca:f2:0e:17:15:30:a5:8d:
        1c:d7:eb:ee:f9:5a:18:ee:de:3d:79:a7:d8:ee:50:7f:9f:17:
        5c:05:c8:e2:f4:b5:62:cc:63:a0:c9:d4:ac:2e:b1:5d:fc:4c:
        fc:15:e8:f5:9d:fb:0b:37:91:9b:66:5a:99:8c:c5:2f:d3:fc:
        db:33
-----BEGIN CERTIFICATE-----
MIICvDCCAiUCCQCbJ9fo0boKoDANBgkqhkiG9w0BAQQFADCBlTELMAkGA1UEBhMC
REUxETAPBgNVBAgTCFNhYXJsYW5kMRAwDgYDVQQKEwdNUEktU1dTMSIwIAYDVQQL
ExlEaXN0cmlidXRlZCBTeXN0ZW1zIEdyb3VwMRowGAYDVQQDExFBbmRyZWFzIEhh
ZWJlcmxlbjEhMB8GCSqGSIb3DQEJARYSZGVtb2NhQG9jdGFyaW5lLmRlMB4XDTE1
MDQyMDIwNDcyOFoXDTE2MDQxOTIwNDcyOFowga4xCzAJBgNVBAYTAkRFMREwDwYD
VQQIEwhTYWFybGFuZDEQMA4GA1UEChMHTVBJLVNXUzEiMCAGA1UECxMZRGlzdHJp
YnV0ZWQgU3lzdGVtcyBHcm91cDExMC8GA1UEAxMoZjgzOTdmYWJmZjEwZDA3NDY4
NDIwZTYxOTVhYmVmYWQ4ZDdmZDFhYzEjMCEGCSqGSIb3DQEJARYUbm9kZTA3MTJA
b2N0YXJpbmUuZGUwgZ8wDQYJKoZIhvcNAQEBBQADgY0AMIGJAoGBAMyxokWO35yf
l2pdnDWuiH/pIdXo6Kn+117Ssi0k01EL7h54BzSVbRHaCJI7Zz9ZOaLWHDneS+00
yvo5i9C6X3Ez35HbC6SAQgdy9ZS4+xlCJ2RpCFAl39v3HoY5Oo5fjtOSSQkfAGR3
weKikcsxt34VT74C09PNeJYVpP8aofq1AgMBAAEwDQYJKoZIhvcNAQEEBQADgYEA
oGtpSq33ivUY632QaWt1j9JaYM7oReQI7+k7rq5iw61fc+KVkfWzaTsy7JW5U+lm
5FGmTt2SLybKq0CXG+jSv8ryDhcVMKWNHNfr7vlaGO7ePXmn2O5Qf58XXAXI4vS1
YsxjoMnUrC6xXfxM/BXo9Z37CzeRm2ZamYzFL9P82zM=
-----END CERTIFICATE-----
