Certificate:
    Data:
        Version: 1 (0x0)
        Serial Number:
            9b:27:d7:e8:d1:ba:07:ec
        Signature Algorithm: md5WithRSAEncryption
        Issuer: C=DE, ST=Saarland, O=MPI-SWS, OU=Distributed Systems Group, CN=Andreas Haeberlen/emailAddress=democa@octarine.de
        Validity
            Not Before: Apr 20 20:46:58 2015 GMT
            Not After : Apr 19 20:46:58 2016 GMT
        Subject: C=DE, ST=Saarland, O=MPI-SWS, OU=Distributed Systems Group, CN=2757a67eea8e11de2ab71cc2ac8a42f695d4b52a/emailAddress=node0020@octarine.de
        Subject Public Key Info:
            Public Key Algorithm: rsaEncryption
            RSA Public Key: (1024 bit)
                Modulus (1024 bit):
                    00:d7:14:5b:c4:57:cc:71:aa:d4:3e:0b:ef:e7:24:
                    eb:60:17:10:54:6c:5e:d7:67:dc:c2:94:18:63:93:
                    b6:48:d5:7a:09:ed:46:c8:b4:59:67:cb:81:00:16:
                    1b:68:15:eb:ac:44:0d:7e:a6:6f:ae:50:1c:c7:59:
                    69:48:e6:f4:c1:38:4d:f2:3a:50:a6:ac:99:b5:39:
                    e7:71:7a:00:d6:9c:80:05:db:8f:9b:11:90:4c:cc:
                    09:f2:bf:18:ee:a5:2e:a0:60:ef:9d:b4:b2:25:ea:
                    23:3b:7e:66:03:49:d8:6b:bf:c8:9a:54:4c:7b:03:
                    55:59:1a:04:8d:e4:e3:b5:e5
                Exponent: 65537 (0x10001)
    Signature Algorithm: md5WithRSAEncryption
        69:89:9d:4b:da:b0:57:1c:cc:cd:6f:44:97:a6:75:20:d9:d2:
        d5:ad:40:50:76:c2:90:27:90:ec:0a:b6:e2:ff:51:e8:eb:25:
        40:fb:28:bc:70:2c:61:e8:bb:21:e7:bc:0c:0a:b1:6a:f3:3a:
        f7:10:2b:cf:26:b8:a0:f7:f5:4d:1b:81:f8:f8:cf:e2:22:81:
        78:96:57:ab:62:cc:5b:93:dd:fc:de:f1:66:5f:6e:d2:32:75:
        de:d0:31:84:f8:31:44:c9:fc:20:54:de:da:24:1c:fb:d4:5b:
        76:e3:fb:2c:a0:7a:60:8a:16:f5:e6:cc:ef:99:e7:77:81:dd:
        f8:4e
-----BEGIN CERTIFICATE-----
MIICvDCCAiUCCQCbJ9fo0boH7DANBgkqhkiG9w0BAQQFADCBlTELMAkGA1UEBhMC
REUxETAPBgNVBAgTCFNhYXJsYW5kMRAwDgYDVQQKEwdNUEktU1dTMSIwIAYDVQQL
ExlEaXN0cmlidXRlZCBTeXN0ZW1zIEdyb3VwMRowGAYDVQQDExFBbmRyZWFzIEhh
ZWJlcmxlbjEhMB8GCSqGSIb3DQEJARYSZGVtb2NhQG9jdGFyaW5lLmRlMB4XDTE1
MDQyMDIwNDY1OFoXDTE2MDQxOTIwNDY1OFowga4xCzAJBgNVBAYTAkRFMREwDwYD
VQQIEwhTYWFybGFuZDEQMA4GA1UEChMHTVBJLVNXUzEiMCAGA1UECxMZRGlzdHJp
YnV0ZWQgU3lzdGVtcyBHcm91cDExMC8GA1UEAxMoMjc1N2E2N2VlYThlMTFkZTJh
YjcxY2MyYWM4YTQyZjY5NWQ0YjUyYTEjMCEGCSqGSIb3DQEJARYUbm9kZTAwMjBA
b2N0YXJpbmUuZGUwgZ8wDQYJKoZIhvcNAQEBBQADgY0AMIGJAoGBANcUW8RXzHGq
1D4L7+ck62AXEFRsXtdn3MKUGGOTtkjVegntRsi0WWfLgQAWG2gV66xEDX6mb65Q
HMdZaUjm9ME4TfI6UKasmbU553F6ANacgAXbj5sRkEzMCfK/GO6lLqBg7520siXq
Izt+ZgNJ2Gu/yJpUTHsDVVkaBI3k47XlAgMBAAEwDQYJKoZIhvcNAQEEBQADgYEA
aYmdS9qwVxzMzW9El6Z1INnS1a1AUHbCkCeQ7Aq24v9R6OslQPsovHAsYei7Iee8
DAqxavM69xArzya4oPf1TRuB+PjP4iKBeJZXq2LMW5Pd/N7xZl9u0jJ13tAxhPgx
RMn8IFTe2iQc+9RbduP7LKB6YIoW9ebM75nnd4Hd+E4=
-----END CERTIFICATE-----
