Certificate:
    Data:
        Version: 1 (0x0)
        Serial Number:
            9b:27:d7:e8:d1:ba:07:e0
        Signature Algorithm: md5WithRSAEncryption
        Issuer: C=DE, ST=Saarland, O=MPI-SWS, OU=Distributed Systems Group, CN=Andreas Haeberlen/emailAddress=democa@octarine.de
        Validity
            Not Before: Apr 20 20:46:57 2015 GMT
            Not After : Apr 19 20:46:57 2016 GMT
        Subject: C=DE, ST=Saarland, O=MPI-SWS, OU=Distributed Systems Group, CN=ba198c788693df3c13fd1cb03783f99b4a4d7b5f/emailAddress=node0008@octarine.de
        Subject Public Key Info:
            Public Key Algorithm: rsaEncryption
            RSA Public Key: (1024 bit)
                Modulus (1024 bit):
                    00:d1:01:cb:33:ee:dd:7e:76:a1:f9:d8:77:b9:f0:
                    56:99:fe:32:11:eb:91:66:7a:a8:ab:5b:de:7e:8e:
                    71:f5:54:54:82:4e:9c:72:41:b6:7e:82:28:17:f0:
                    d1:ce:f2:c0:d9:d3:8e:a7:08:55:33:3b:39:1f:12:
                    88:e4:e2:97:0e:21:73:f1:a4:8b:c3:82:6e:e2:fa:
                    7f:33:9d:10:a2:cd:87:04:b3:a4:83:cc:08:69:87:
                    27:a8:ba:4c:18:d6:ec:59:90:2d:0d:95:a9:9b:bb:
                    ff:21:71:4f:bc:83:e0:5e:8c:4b:07:b6:88:f4:90:
                    89:6e:39:f2:a7:f8:1b:e6:fd
                Exponent: 65537 (0x10001)
    Signature Algorithm: md5WithRSAEncryption
        5f:fa:c4:34:11:bc:81:1a:af:af:10:6d:9d:8e:e6:4e:73:c6:
        13:b3:7c:35:52:5a:82:3b:91:33:1d:db:34:68:ec:44:3a:c2:
        4a:a5:be:95:03:12:7c:bf:24:26:2c:49:4a:46:0e:52:bf:8a:
        6b:38:ae:b7:a3:e2:b6:11:64:98:08:f8:bd:d0:74:ed:f4:4f:
        fe:fe:38:8a:d9:36:7b:3b:f5:9b:70:2c:f4:10:c6:c7:1e:b6:
        bd:10:0d:c1:a7:c0:f3:c6:86:92:9a:88:10:93:5b:74:c7:08:
        37:d2:06:8d:aa:ed:67:19:86:c2:bf:7c:ef:b3:1c:88:c4:3d:
        51:8d
-----BEGIN CERTIFICATE-----
MIICvDCCAiUCCQCbJ9fo0boH4DANBgkqhkiG9w0BAQQFADCBlTELMAkGA1UEBhMC
REUxETAPBgNVBAgTCFNhYXJsYW5kMRAwDgYDVQQKEwdNUEktU1dTMSIwIAYDVQQL
ExlEaXN0cmlidXRlZCBTeXN0ZW1zIEdyb3VwMRowGAYDVQQDExFBbmRyZWFzIEhh
ZWJlcmxlbjEhMB8GCSqGSIb3DQEJARYSZGVtb2NhQG9jdGFyaW5lLmRlMB4XDTE1
MDQyMDIwNDY1N1oXDTE2MDQxOTIwNDY1N1owga4xCzAJBgNVBAYTAkRFMREwDwYD
VQQIEwhTYWFybGFuZDEQMA4GA1UEChMHTVBJLVNXUzEiMCAGA1UECxMZRGlzdHJp
YnV0ZWQgU3lzdGVtcyBHcm91cDExMC8GA1UEAxMoYmExOThjNzg4NjkzZGYzYzEz
ZmQxY2IwMzc4M2Y5OWI0YTRkN2I1ZjEjMCEGCSqGSIb3DQEJARYUbm9kZTAwMDhA
b2N0YXJpbmUuZGUwgZ8wDQYJKoZIhvcNAQEBBQADgY0AMIGJAoGBANEByzPu3X52
ofnYd7nwVpn+MhHrkWZ6qKtb3n6OcfVUVIJOnHJBtn6CKBfw0c7ywNnTjqcIVTM7
OR8SiOTilw4hc/Gki8OCbuL6fzOdEKLNhwSzpIPMCGmHJ6i6TBjW7FmQLQ2VqZu7
/yFxT7yD4F6MSwe2iPSQiW458qf4G+b9AgMBAAEwDQYJKoZIhvcNAQEEBQADgYEA
X/rENBG8gRqvrxBtnY7mTnPGE7N8NVJagjuRMx3bNGjsRDrCSqW+lQMSfL8kJixJ
SkYOUr+Kaziut6PithFkmAj4vdB07fRP/v44itk2ezv1m3As9BDGxx62vRANwafA
88aGkpqIEJNbdMcIN9IGjartZxmGwr9877MciMQ9UY0=
-----END CERTIFICATE-----
