Certificate:
    Data:
        Version: 1 (0x0)
        Serial Number:
            9b:27:d7:e8:d1:ba:0b:93
        Signature Algorithm: md5WithRSAEncryption
        Issuer: C=DE, ST=Saarland, O=MPI-SWS, OU=Distributed Systems Group, CN=Andreas Haeberlen/emailAddress=democa@octarine.de
        Validity
            Not Before: Apr 20 20:47:39 2015 GMT
            Not After : Apr 19 20:47:39 2016 GMT
        Subject: C=DE, ST=Saarland, O=MPI-SWS, OU=Distributed Systems Group, CN=678588ad841ba5ec924a55e0f50929781fea8881/emailAddress=node0955@octarine.de
        Subject Public Key Info:
            Public Key Algorithm: rsaEncryption
            RSA Public Key: (1024 bit)
                Modulus (1024 bit):
                    00:98:13:4d:d5:78:42:85:14:72:c9:c4:8b:e8:cd:
                    ed:51:5e:53:58:db:7f:a4:51:f3:ae:79:89:22:59:
                    e8:16:e1:ed:cd:e5:87:e8:f9:71:7f:5d:a5:4d:43:
                    b4:09:7c:99:80:f8:aa:48:68:a2:cc:c0:c2:98:61:
                    f6:13:03:5a:71:f8:a3:8f:89:f3:8d:31:46:d0:cc:
                    da:e2:8f:38:25:78:8e:30:b3:56:58:f9:40:da:d7:
                    72:ca:8c:22:be:18:4c:88:4c:26:08:38:5b:d5:8c:
                    37:47:61:a2:0e:92:e9:98:64:c6:95:da:63:ee:bf:
                    67:97:b4:4b:01:db:e2:e0:29
                Exponent: 65537 (0x10001)
    Signature Algorithm: md5WithRSAEncryption
        32:cb:22:80:c9:3a:23:05:a3:67:ac:94:e6:c8:18:78:5b:df:
        1a:c5:9e:ae:73:60:58:2c:da:4a:fc:8c:e8:5a:12:1c:87:4e:
        d7:7a:0b:e3:03:fc:88:ec:a4:98:56:34:fe:a6:89:2f:6a:37:
        6a:03:29:34:b9:cc:17:a2:e1:c1:8b:00:a6:a2:4f:fb:cc:31:
        ea:e8:2f:b7:6a:2c:b7:50:a6:8e:1e:71:b0:9d:1b:a4:63:dc:
        67:49:f3:4b:c7:c1:83:d6:3c:7d:47:85:2a:5c:58:0a:f3:bf:
        4b:13:5b:91:f0:18:8f:1b:3a:f5:45:a0:30:03:dc:54:3c:88:
        e6:12
-----BEGIN CERTIFICATE-----
MIICvDCCAiUCCQCbJ9fo0boLkzANBgkqhkiG9w0BAQQFADCBlTELMAkGA1UEBhMC
REUxETAPBgNVBAgTCFNhYXJsYW5kMRAwDgYDVQQKEwdNUEktU1dTMSIwIAYDVQQL
ExlEaXN0cmlidXRlZCBTeXN0ZW1zIEdyb3VwMRowGAYDVQQDExFBbmRyZWFzIEhh
ZWJlcmxlbjEhMB8GCSqGSIb3DQEJARYSZGVtb2NhQG9jdGFyaW5lLmRlMB4XDTE1
MDQyMDIwNDczOVoXDTE2MDQxOTIwNDczOVowga4xCzAJBgNVBAYTAkRFMREwDwYD
VQQIEwhTYWFybGFuZDEQMA4GA1UEChMHTVBJLVNXUzEiMCAGA1UECxMZRGlzdHJp
YnV0ZWQgU3lzdGVtcyBHcm91cDExMC8GA1UEAxMoNjc4NTg4YWQ4NDFiYTVlYzky
NGE1NWUwZjUwOTI5NzgxZmVhODg4MTEjMCEGCSqGSIb3DQEJARYUbm9kZTA5NTVA
b2N0YXJpbmUuZGUwgZ8wDQYJKoZIhvcNAQEBBQADgY0AMIGJAoGBAJgTTdV4QoUU
csnEi+jN7VFeU1jbf6RR8655iSJZ6Bbh7c3lh+j5cX9dpU1DtAl8mYD4qkhooszA
wphh9hMDWnH4o4+J840xRtDM2uKPOCV4jjCzVlj5QNrXcsqMIr4YTIhMJgg4W9WM
N0dhog6S6ZhkxpXaY+6/Z5e0SwHb4uApAgMBAAEwDQYJKoZIhvcNAQEEBQADgYEA
MssigMk6IwWjZ6yU5sgYeFvfGsWernNgWCzaSvyM6FoSHIdO13oL4wP8iOykmFY0
/qaJL2o3agMpNLnMF6LhwYsApqJP+8wx6ugvt2ost1Cmjh5xsJ0bpGPcZ0nzS8fB
g9Y8fUeFKlxYCvO/SxNbkfAYjxs69UWgMAPcVDyI5hI=
-----END CERTIFICATE-----
