Certificate:
    Data:
        Version: 1 (0x0)
        Serial Number:
            9b:27:d7:e8:d1:ba:0a:53
        Signature Algorithm: md5WithRSAEncryption
        Issuer: C=DE, ST=Saarland, O=MPI-SWS, OU=Distributed Systems Group, CN=Andreas Haeberlen/emailAddress=democa@octarine.de
        Validity
            Not Before: Apr 20 20:47:25 2015 GMT
            Not After : Apr 19 20:47:25 2016 GMT
        Subject: C=DE, ST=Saarland, O=MPI-SWS, OU=Distributed Systems Group, CN=5c15f261c13abdb0196ed0905680fa4476979086/emailAddress=node0635@octarine.de
        Subject Public Key Info:
            Public Key Algorithm: rsaEncryption
            RSA Public Key: (1024 bit)
                Modulus (1024 bit):
                    00:cc:8e:8c:17:2f:09:55:cc:a6:22:90:32:8c:c2:
                    c0:73:fe:5b:4b:2c:0c:71:9a:e4:da:af:03:c4:e2:
                    6b:46:38:b3:d2:c0:94:f5:34:25:3b:3a:29:c0:ca:
                    d0:87:60:6a:5f:64:05:43:56:0a:07:19:3a:d2:46:
                    e1:28:02:50:06:b9:fe:15:ba:b8:77:14:6f:8e:7b:
                    81:76:d5:ee:82:5e:c7:c7:b2:59:27:45:e0:61:b7:
                    53:69:47:89:fa:bb:b6:c2:ef:2e:b4:6e:26:d7:3b:
                    e0:ab:4c:ec:5f:67:65:fc:f9:37:c1:25:18:86:21:
                    d4:a7:ba:24:07:11:3e:e7:a1
                Exponent: 65537 (0x10001)
    Signature Algorithm: md5WithRSAEncryption
        99:02:f3:58:f1:90:9e:5f:e4:6d:89:14:de:a0:3b:53:b9:3f:
        f1:0d:a5:82:ef:48:ec:95:1e:18:57:2d:34:13:56:0b:cb:03:
        af:e1:10:f9:03:64:fd:e7:46:0a:b0:94:ec:f3:c5:ac:10:27:
        06:40:de:0a:11:16:2a:fb:06:51:7a:51:62:15:69:16:1c:6a:
        91:22:e4:fa:42:fe:7d:26:de:af:96:0b:97:9f:bc:36:4e:03:
        dd:2c:62:1f:39:06:b0:89:3a:1d:2e:bb:3a:1a:88:b9:f5:0f:
        a4:a2:95:58:d8:6e:5f:72:90:30:67:75:bf:c8:69:c6:39:fe:
        77:8b
-----BEGIN CERTIFICATE-----
MIICvDCCAiUCCQCbJ9fo0boKUzANBgkqhkiG9w0BAQQFADCBlTELMAkGA1UEBhMC
REUxETAPBgNVBAgTCFNhYXJsYW5kMRAwDgYDVQQKEwdNUEktU1dTMSIwIAYDVQQL
ExlEaXN0cmlidXRlZCBTeXN0ZW1zIEdyb3VwMRowGAYDVQQDExFBbmRyZWFzIEhh
ZWJlcmxlbjEhMB8GCSqGSIb3DQEJARYSZGVtb2NhQG9jdGFyaW5lLmRlMB4XDTE1
MDQyMDIwNDcyNVoXDTE2MDQxOTIwNDcyNVowga4xCzAJBgNVBAYTAkRFMREwDwYD
VQQIEwhTYWFybGFuZDEQMA4GA1UEChMHTVBJLVNXUzEiMCAGA1UECxMZRGlzdHJp
YnV0ZWQgU3lzdGVtcyBHcm91cDExMC8GA1UEAxMoNWMxNWYyNjFjMTNhYmRiMDE5
NmVkMDkwNTY4MGZhNDQ3Njk3OTA4NjEjMCEGCSqGSIb3DQEJARYUbm9kZTA2MzVA
b2N0YXJpbmUuZGUwgZ8wDQYJKoZIhvcNAQEBBQADgY0AMIGJAoGBAMyOjBcvCVXM
piKQMozCwHP+W0ssDHGa5NqvA8Tia0Y4s9LAlPU0JTs6KcDK0Idgal9kBUNWCgcZ
OtJG4SgCUAa5/hW6uHcUb457gXbV7oJex8eyWSdF4GG3U2lHifq7tsLvLrRuJtc7
4KtM7F9nZfz5N8ElGIYh1Ke6JAcRPuehAgMBAAEwDQYJKoZIhvcNAQEEBQADgYEA
mQLzWPGQnl/kbYkU3qA7U7k/8Q2lgu9I7JUeGFctNBNWC8sDr+EQ+QNk/edGCrCU
7PPFrBAnBkDeChEWKvsGUXpRYhVpFhxqkSLk+kL+fSber5YLl5+8Nk4D3SxiHzkG
sIk6HS67OhqIufUPpKKVWNhuX3KQMGd1v8hpxjn+d4s=
-----END CERTIFICATE-----
