Certificate:
    Data:
        Version: 1 (0x0)
        Serial Number:
            9b:27:d7:e8:d1:ba:09:4d
        Signature Algorithm: md5WithRSAEncryption
        Issuer: C=DE, ST=Saarland, O=MPI-SWS, OU=Distributed Systems Group, CN=Andreas Haeberlen/emailAddress=democa@octarine.de
        Validity
            Not Before: Apr 20 20:47:13 2015 GMT
            Not After : Apr 19 20:47:13 2016 GMT
        Subject: C=DE, ST=Saarland, O=MPI-SWS, OU=Distributed Systems Group, CN=ae62e7f21e23293669b1c955df3fabf4a679e6bf/emailAddress=node0373@octarine.de
        Subject Public Key Info:
            Public Key Algorithm: rsaEncryption
            RSA Public Key: (1024 bit)
                Modulus (1024 bit):
                    00:ea:7c:d2:5c:0d:b3:20:91:2d:e2:bb:9f:91:6b:
                    0f:55:a2:bf:40:59:95:7c:a2:62:30:42:d4:10:83:
                    45:cb:26:e6:d8:16:6e:85:24:43:32:b0:1b:88:b3:
                    d1:4c:6a:b7:f9:e5:27:25:ae:35:1a:16:a7:a7:25:
                    77:ad:cb:03:b0:f6:af:a7:e6:64:e9:e1:6f:da:c3:
                    a2:b3:96:87:15:f7:15:a2:f0:85:b4:9c:75:a4:88:
                    96:fd:89:03:a4:36:a6:2c:e6:3f:c3:6e:6e:ca:69:
                    d5:73:4c:42:67:da:c3:56:e2:05:fa:29:46:07:c3:
                    9a:5b:ae:19:2b:6d:8a:7f:7d
                Exponent: 65537 (0x10001)
    Signature Algorithm: md5WithRSAEncryption
        c0:78:98:61:17:7c:b4:02:fd:5b:f8:99:74:6a:a7:ce:e3:80:
        9c:75:d2:88:25:32:95:b2:e4:2d:aa:da:50:7b:b6:91:a9:58:
        38:99:b3:e4:db:cc:5a:8c:e1:32:3d:9f:8b:33:a5:5b:d9:e9:
        47:3d:e5:ae:9e:73:f9:63:08:d2:3f:2e:e8:33:ac:1f:2a:8d:
        f4:32:f5:d9:19:62:33:68:ec:f8:80:a6:72:26:01:ca:62:2c:
        ea:db:2d:6b:c2:64:bc:a8:5c:df:51:b7:68:59:68:27:f8:5b:
        b0:72:f1:cf:a4:64:e0:b8:b8:9d:33:74:27:bd:18:61:58:b1:
        17:da
-----BEGIN CERTIFICATE-----
MIICvDCCAiUCCQCbJ9fo0boJTTANBgkqhkiG9w0BAQQFADCBlTELMAkGA1UEBhMC
REUxETAPBgNVBAgTCFNhYXJsYW5kMRAwDgYDVQQKEwdNUEktU1dTMSIwIAYDVQQL
ExlEaXN0cmlidXRlZCBTeXN0ZW1zIEdyb3VwMRowGAYDVQQDExFBbmRyZWFzIEhh
ZWJlcmxlbjEhMB8GCSqGSIb3DQEJARYSZGVtb2NhQG9jdGFyaW5lLmRlMB4XDTE1
MDQyMDIwNDcxM1oXDTE2MDQxOTIwNDcxM1owga4xCzAJBgNVBAYTAkRFMREwDwYD
VQQIEwhTYWFybGFuZDEQMA4GA1UEChMHTVBJLVNXUzEiMCAGA1UECxMZRGlzdHJp
YnV0ZWQgU3lzdGVtcyBHcm91cDExMC8GA1UEAxMoYWU2MmU3ZjIxZTIzMjkzNjY5
YjFjOTU1ZGYzZmFiZjRhNjc5ZTZiZjEjMCEGCSqGSIb3DQEJARYUbm9kZTAzNzNA
b2N0YXJpbmUuZGUwgZ8wDQYJKoZIhvcNAQEBBQADgY0AMIGJAoGBAOp80lwNsyCR
LeK7n5FrD1Wiv0BZlXyiYjBC1BCDRcsm5tgWboUkQzKwG4iz0Uxqt/nlJyWuNRoW
p6cld63LA7D2r6fmZOnhb9rDorOWhxX3FaLwhbScdaSIlv2JA6Q2pizmP8Nubspp
1XNMQmfaw1biBfopRgfDmluuGSttin99AgMBAAEwDQYJKoZIhvcNAQEEBQADgYEA
wHiYYRd8tAL9W/iZdGqnzuOAnHXSiCUylbLkLaraUHu2kalYOJmz5NvMWozhMj2f
izOlW9npRz3lrp5z+WMI0j8u6DOsHyqN9DL12RliM2js+ICmciYBymIs6tsta8Jk
vKhc31G3aFloJ/hbsHLxz6Rk4Li4nTN0J70YYVixF9o=
-----END CERTIFICATE-----
