Certificate:
    Data:
        Version: 1 (0x0)
        Serial Number:
            9b:27:d7:e8:d1:ba:0a:83
        Signature Algorithm: md5WithRSAEncryption
        Issuer: C=DE, ST=Saarland, O=MPI-SWS, OU=Distributed Systems Group, CN=Andreas Haeberlen/emailAddress=democa@octarine.de
        Validity
            Not Before: Apr 20 20:47:27 2015 GMT
            Not After : Apr 19 20:47:27 2016 GMT
        Subject: C=DE, ST=Saarland, O=MPI-SWS, OU=Distributed Systems Group, CN=60c4dad12f48c8e5c18e02710c4bbd52e16bb4dd/emailAddress=node0683@octarine.de
        Subject Public Key Info:
            Public Key Algorithm: rsaEncryption
            RSA Public Key: (1024 bit)
                Modulus (1024 bit):
                    00:92:fe:c9:68:b6:46:3b:4e:72:07:e2:2e:2b:db:
                    06:60:25:92:cb:42:1b:39:7b:d4:8c:b4:49:7a:69:
                    15:5b:98:f3:f6:c5:cc:b2:9a:fc:42:df:82:d8:6b:
                    0c:4a:2a:80:db:4f:93:34:b9:b1:db:d4:0b:bc:60:
                    8c:e5:7e:d6:51:d4:fe:3d:3f:07:51:3a:c4:5a:78:
                    5b:00:16:1d:12:27:bd:26:05:40:2b:1e:81:9b:90:
                    14:dd:45:7d:f6:30:95:b2:ce:4a:6a:e8:e6:8c:1e:
                    bf:86:10:32:bc:53:4b:f2:66:2e:a7:69:b2:dd:80:
                    c4:0b:8e:c9:16:58:06:c0:95
                Exponent: 65537 (0x10001)
    Signature Algorithm: md5WithRSAEncryption
        55:01:64:eb:5c:ff:be:7b:9a:2c:22:a4:ea:aa:c7:94:1c:a4:
        8e:56:e2:ee:54:5a:2a:2f:4e:39:9c:88:73:e5:41:a7:8b:c6:
        a6:07:d7:12:9e:0e:c5:17:b2:e9:2c:a2:d0:67:6f:75:fd:9f:
        3a:e9:4a:fb:ea:e5:a4:4f:b0:d6:69:a6:07:8e:e6:3b:e5:8c:
        db:72:56:cc:8a:c7:15:27:e0:c3:7a:98:82:87:ed:de:97:45:
        35:e6:b1:4d:c8:65:07:06:51:fb:47:21:0d:4d:92:fd:1e:1e:
        48:b3:ea:9d:d4:ab:73:5a:6f:20:89:89:f5:c0:43:cb:f8:fa:
        43:79
-----BEGIN CERTIFICATE-----
MIICvDCCAiUCCQCbJ9fo0boKgzANBgkqhkiG9w0BAQQFADCBlTELMAkGA1UEBhMC
REUxETAPBgNVBAgTCFNhYXJsYW5kMRAwDgYDVQQKEwdNUEktU1dTMSIwIAYDVQQL
ExlEaXN0cmlidXRlZCBTeXN0ZW1zIEdyb3VwMRowGAYDVQQDExFBbmRyZWFzIEhh
ZWJlcmxlbjEhMB8GCSqGSIb3DQEJARYSZGVtb2NhQG9jdGFyaW5lLmRlMB4XDTE1
MDQyMDIwNDcyN1oXDTE2MDQxOTIwNDcyN1owga4xCzAJBgNVBAYTAkRFMREwDwYD
VQQIEwhTYWFybGFuZDEQMA4GA1UEChMHTVBJLVNXUzEiMCAGA1UECxMZRGlzdHJp
YnV0ZWQgU3lzdGVtcyBHcm91cDExMC8GA1UEAxMoNjBjNGRhZDEyZjQ4YzhlNWMx
OGUwMjcxMGM0YmJkNTJlMTZiYjRkZDEjMCEGCSqGSIb3DQEJARYUbm9kZTA2ODNA
b2N0YXJpbmUuZGUwgZ8wDQYJKoZIhvcNAQEBBQADgY0AMIGJAoGBAJL+yWi2RjtO
cgfiLivbBmAlkstCGzl71Iy0SXppFVuY8/bFzLKa/ELfgthrDEoqgNtPkzS5sdvU
C7xgjOV+1lHU/j0/B1E6xFp4WwAWHRInvSYFQCsegZuQFN1FffYwlbLOSmro5owe
v4YQMrxTS/JmLqdpst2AxAuOyRZYBsCVAgMBAAEwDQYJKoZIhvcNAQEEBQADgYEA
VQFk61z/vnuaLCKk6qrHlBykjlbi7lRaKi9OOZyIc+VBp4vGpgfXEp4OxRey6Syi
0Gdvdf2fOulK++rlpE+w1mmmB47mO+WM23JWzIrHFSfgw3qYgoft3pdFNeaxTchl
BwZR+0chDU2S/R4eSLPqndSrc1pvIImJ9cBDy/j6Q3k=
-----END CERTIFICATE-----
