Certificate:
    Data:
        Version: 1 (0x0)
        Serial Number:
            9b:27:d7:e8:d1:ba:09:c6
        Signature Algorithm: md5WithRSAEncryption
        Issuer: C=DE, ST=Saarland, O=MPI-SWS, OU=Distributed Systems Group, CN=Andreas Haeberlen/emailAddress=democa@octarine.de
        Validity
            Not Before: Apr 20 20:47:18 2015 GMT
            Not After : Apr 19 20:47:18 2016 GMT
        Subject: C=DE, ST=Saarland, O=MPI-SWS, OU=Distributed Systems Group, CN=e8a1f0783f68769b1ddc95df1bcf0a8f220238a6/emailAddress=node0494@octarine.de
        Subject Public Key Info:
            Public Key Algorithm: rsaEncryption
            RSA Public Key: (1024 bit)
                Modulus (1024 bit):
                    00:ba:26:e9:35:ef:24:e1:a8:41:da:e4:1f:c1:68:
                    47:08:88:51:aa:44:52:ae:98:e2:e2:f2:ba:2c:6e:
                    db:bc:a8:74:fe:86:e5:a2:1a:b2:65:bd:9a:c5:6b:
                    68:55:df:05:ab:0f:8f:b3:62:21:78:e5:c4:29:ca:
                    b7:95:26:4c:df:49:62:20:f2:79:f6:ae:56:c5:a1:
                    2c:cd:7e:d5:ac:29:74:39:ce:b1:ed:2e:2d:59:33:
                    17:89:9a:14:f0:d1:dd:b1:42:a9:54:0b:1b:a5:51:
                    16:51:0f:2b:97:e4:73:73:d8:25:d3:6f:da:df:77:
                    b5:ae:87:6f:76:b3:91:cb:0d
                Exponent: 65537 (0x10001)
    Signature Algorithm: md5WithRSAEncryption
        58:65:43:32:b8:22:42:01:cd:43:88:16:7d:88:6a:d2:c2:17:
        a9:7a:25:72:78:24:7a:9c:32:99:54:75:05:08:ee:44:30:f2:
        e4:4e:82:ad:8c:20:18:e2:3e:88:f7:02:6d:b4:e4:e3:2d:13:
        78:2d:a0:dd:37:19:4c:1f:e8:3c:04:55:53:6c:6d:1f:6c:bd:
        c3:54:e4:45:05:98:da:14:41:f3:ef:ce:de:05:b0:2d:97:e8:
        d4:07:4b:42:f8:bc:2a:d0:48:ea:09:08:93:55:2e:7e:8b:41:
        62:7a:94:00:c9:ad:49:e0:03:0f:74:d9:5a:b3:71:2a:80:a1:
        73:a3
-----BEGIN CERTIFICATE-----
MIICvDCCAiUCCQCbJ9fo0boJxjANBgkqhkiG9w0BAQQFADCBlTELMAkGA1UEBhMC
REUxETAPBgNVBAgTCFNhYXJsYW5kMRAwDgYDVQQKEwdNUEktU1dTMSIwIAYDVQQL
ExlEaXN0cmlidXRlZCBTeXN0ZW1zIEdyb3VwMRowGAYDVQQDExFBbmRyZWFzIEhh
ZWJlcmxlbjEhMB8GCSqGSIb3DQEJARYSZGVtb2NhQG9jdGFyaW5lLmRlMB4XDTE1
MDQyMDIwNDcxOFoXDTE2MDQxOTIwNDcxOFowga4xCzAJBgNVBAYTAkRFMREwDwYD
VQQIEwhTYWFybGFuZDEQMA4GA1UEChMHTVBJLVNXUzEiMCAGA1UECxMZRGlzdHJp
YnV0ZWQgU3lzdGVtcyBHcm91cDExMC8GA1UEAxMoZThhMWYwNzgzZjY4NzY5YjFk
ZGM5NWRmMWJjZjBhOGYyMjAyMzhhNjEjMCEGCSqGSIb3DQEJARYUbm9kZTA0OTRA
b2N0YXJpbmUuZGUwgZ8wDQYJKoZIhvcNAQEBBQADgY0AMIGJAoGBALom6TXvJOGo
QdrkH8FoRwiIUapEUq6Y4uLyuixu27yodP6G5aIasmW9msVraFXfBasPj7NiIXjl
xCnKt5UmTN9JYiDyefauVsWhLM1+1awpdDnOse0uLVkzF4maFPDR3bFCqVQLG6VR
FlEPK5fkc3PYJdNv2t93ta6Hb3azkcsNAgMBAAEwDQYJKoZIhvcNAQEEBQADgYEA
WGVDMrgiQgHNQ4gWfYhq0sIXqXolcngkepwymVR1BQjuRDDy5E6CrYwgGOI+iPcC
bbTk4y0TeC2g3TcZTB/oPARVU2xtH2y9w1TkRQWY2hRB8+/O3gWwLZfo1AdLQvi8
KtBI6gkIk1UufotBYnqUAMmtSeADD3TZWrNxKoChc6M=
-----END CERTIFICATE-----
