Certificate:
    Data:
        Version: 1 (0x0)
        Serial Number:
            9b:27:d7:e8:d1:ba:0a:01
        Signature Algorithm: md5WithRSAEncryption
        Issuer: C=DE, ST=Saarland, O=MPI-SWS, OU=Distributed Systems Group, CN=Andreas Haeberlen/emailAddress=democa@octarine.de
        Validity
            Not Before: Apr 20 20:47:21 2015 GMT
            Not After : Apr 19 20:47:21 2016 GMT
        Subject: C=DE, ST=Saarland, O=MPI-SWS, OU=Distributed Systems Group, CN=9121b7504291a04edc1ba0bef935564e7602d532/emailAddress=node0553@octarine.de
        Subject Public Key Info:
            Public Key Algorithm: rsaEncryption
            RSA Public Key: (1024 bit)
                Modulus (1024 bit):
                    00:cf:d2:57:c5:cf:4b:79:36:d3:b9:33:81:84:75:
                    69:63:29:0a:f9:39:5a:57:41:d9:b6:de:06:89:cd:
                    70:29:3f:bf:16:25:cd:eb:85:34:de:66:3a:a8:32:
                    76:98:3b:cb:db:8f:aa:90:27:47:8d:6e:a7:3d:85:
                    9a:58:7e:f7:d0:03:9c:95:f2:6c:df:8a:23:f0:d1:
                    ad:73:10:35:a9:b0:31:47:17:dc:9d:e3:3a:c5:3b:
                    ee:35:9e:49:22:31:0e:e9:70:1f:1e:bb:b1:55:d1:
                    e8:1b:bf:02:20:48:b4:17:fa:b0:33:72:a3:df:0c:
                    78:08:d6:79:04:92:54:d1:1b
                Exponent: 65537 (0x10001)
    Signature Algorithm: md5WithRSAEncryption
        60:6b:49:67:0a:40:b4:0a:d8:76:91:5a:02:75:1d:bb:d2:68:
        21:c1:2c:da:23:63:1a:8c:50:b9:e8:76:91:fc:3b:74:43:61:
        28:00:a0:77:59:e0:d2:ca:13:af:06:8c:e9:46:47:66:00:f6:
        24:e0:52:f1:c9:2a:ec:6e:f9:fe:7f:cf:77:ba:77:f4:0f:e1:
        9b:e8:a9:6a:98:fa:7a:fa:93:50:ae:93:b6:fb:06:39:74:a1:
        a2:79:d5:8a:ae:ca:26:fa:8a:3d:0f:34:12:be:3f:f7:78:36:
        3f:2b:6a:26:51:f3:0f:a4:02:2b:81:80:cd:75:a1:53:60:d0:
        a2:04
-----BEGIN CERTIFICATE-----
MIICvDCCAiUCCQCbJ9fo0boKATANBgkqhkiG9w0BAQQFADCBlTELMAkGA1UEBhMC
REUxETAPBgNVBAgTCFNhYXJsYW5kMRAwDgYDVQQKEwdNUEktU1dTMSIwIAYDVQQL
ExlEaXN0cmlidXRlZCBTeXN0ZW1zIEdyb3VwMRowGAYDVQQDExFBbmRyZWFzIEhh
ZWJlcmxlbjEhMB8GCSqGSIb3DQEJARYSZGVtb2NhQG9jdGFyaW5lLmRlMB4XDTE1
MDQyMDIwNDcyMVoXDTE2MDQxOTIwNDcyMVowga4xCzAJBgNVBAYTAkRFMREwDwYD
VQQIEwhTYWFybGFuZDEQMA4GA1UEChMHTVBJLVNXUzEiMCAGA1UECxMZRGlzdHJp
YnV0ZWQgU3lzdGVtcyBHcm91cDExMC8GA1UEAxMoOTEyMWI3NTA0MjkxYTA0ZWRj
MWJhMGJlZjkzNTU2NGU3NjAyZDUzMjEjMCEGCSqGSIb3DQEJARYUbm9kZTA1NTNA
b2N0YXJpbmUuZGUwgZ8wDQYJKoZIhvcNAQEBBQADgY0AMIGJAoGBAM/SV8XPS3k2
07kzgYR1aWMpCvk5WldB2bbeBonNcCk/vxYlzeuFNN5mOqgydpg7y9uPqpAnR41u
pz2Fmlh+99ADnJXybN+KI/DRrXMQNamwMUcX3J3jOsU77jWeSSIxDulwHx67sVXR
6Bu/AiBItBf6sDNyo98MeAjWeQSSVNEbAgMBAAEwDQYJKoZIhvcNAQEEBQADgYEA
YGtJZwpAtArYdpFaAnUdu9JoIcEs2iNjGoxQueh2kfw7dENhKACgd1ng0soTrwaM
6UZHZgD2JOBS8ckq7G75/n/Pd7p39A/hm+ipapj6evqTUK6TtvsGOXShonnViq7K
JvqKPQ80Er4/93g2PytqJlHzD6QCK4GAzXWhU2DQogQ=
-----END CERTIFICATE-----
