Certificate:
    Data:
        Version: 1 (0x0)
        Serial Number:
            9b:27:d7:e8:d1:ba:0b:98
        Signature Algorithm: md5WithRSAEncryption
        Issuer: C=DE, ST=Saarland, O=MPI-SWS, OU=Distributed Systems Group, CN=Andreas Haeberlen/emailAddress=democa@octarine.de
        Validity
            Not Before: Apr 20 20:47:39 2015 GMT
            Not After : Apr 19 20:47:39 2016 GMT
        Subject: C=DE, ST=Saarland, O=MPI-SWS, OU=Distributed Systems Group, CN=67b35970eaa60557473b6d4c28fd5e5c510ab7b9/emailAddress=node0960@octarine.de
        Subject Public Key Info:
            Public Key Algorithm: rsaEncryption
            RSA Public Key: (1024 bit)
                Modulus (1024 bit):
                    00:b1:30:bd:56:a3:e7:df:d3:45:b4:eb:62:b2:bf:
                    11:97:dc:68:15:5d:13:48:a8:d4:cf:b8:96:10:b9:
                    c2:dc:e8:4f:ec:b7:88:c3:60:a4:08:de:d2:62:c2:
                    5d:c4:27:4c:5d:ac:f1:c8:ce:10:47:01:1f:e6:b1:
                    00:1d:16:69:69:ab:ba:56:44:12:3f:ec:f7:b8:d3:
                    53:37:94:b7:08:37:ef:86:81:42:23:9d:41:fa:42:
                    27:f3:ee:ef:c1:c6:1c:60:e0:b0:bc:5f:88:09:9f:
                    10:b3:2c:2e:9f:5d:9d:91:4f:77:b2:6a:f8:6b:bb:
                    56:9d:71:89:b4:ed:7f:c9:c3
                Exponent: 65537 (0x10001)
    Signature Algorithm: md5WithRSAEncryption
        16:c7:43:36:ab:47:fd:f4:9c:52:32:35:61:58:71:b0:2d:74:
        39:2f:aa:96:1d:ca:31:1b:8d:09:f5:1b:03:f3:23:e2:87:5a:
        7d:39:df:c5:3a:30:75:81:5c:39:37:aa:40:ab:0a:4b:d5:e9:
        74:b1:c1:57:d0:86:12:5e:2a:ec:33:d4:c7:6d:9d:f2:3b:e1:
        cb:08:2e:98:31:b0:ae:b2:7a:82:e3:bb:6f:3d:f2:d6:62:34:
        6e:b2:8d:28:bc:f3:2a:a9:44:59:0c:1e:20:5b:1b:ef:ec:8a:
        72:b4:4e:56:d5:ee:3d:0a:cb:23:3e:21:a7:5e:77:f4:ba:ae:
        26:2d
-----BEGIN CERTIFICATE-----
MIICvDCCAiUCCQCbJ9fo0boLmDANBgkqhkiG9w0BAQQFADCBlTELMAkGA1UEBhMC
REUxETAPBgNVBAgTCFNhYXJsYW5kMRAwDgYDVQQKEwdNUEktU1dTMSIwIAYDVQQL
ExlEaXN0cmlidXRlZCBTeXN0ZW1zIEdyb3VwMRowGAYDVQQDExFBbmRyZWFzIEhh
ZWJlcmxlbjEhMB8GCSqGSIb3DQEJARYSZGVtb2NhQG9jdGFyaW5lLmRlMB4XDTE1
MDQyMDIwNDczOVoXDTE2MDQxOTIwNDczOVowga4xCzAJBgNVBAYTAkRFMREwDwYD
VQQIEwhTYWFybGFuZDEQMA4GA1UEChMHTVBJLVNXUzEiMCAGA1UECxMZRGlzdHJp
YnV0ZWQgU3lzdGVtcyBHcm91cDExMC8GA1UEAxMoNjdiMzU5NzBlYWE2MDU1NzQ3
M2I2ZDRjMjhmZDVlNWM1MTBhYjdiOTEjMCEGCSqGSIb3DQEJARYUbm9kZTA5NjBA
b2N0YXJpbmUuZGUwgZ8wDQYJKoZIhvcNAQEBBQADgY0AMIGJAoGBALEwvVaj59/T
RbTrYrK/EZfcaBVdE0io1M+4lhC5wtzoT+y3iMNgpAje0mLCXcQnTF2s8cjOEEcB
H+axAB0WaWmrulZEEj/s97jTUzeUtwg374aBQiOdQfpCJ/Pu78HGHGDgsLxfiAmf
ELMsLp9dnZFPd7Jq+Gu7Vp1xibTtf8nDAgMBAAEwDQYJKoZIhvcNAQEEBQADgYEA
FsdDNqtH/fScUjI1YVhxsC10OS+qlh3KMRuNCfUbA/Mj4odafTnfxTowdYFcOTeq
QKsKS9XpdLHBV9CGEl4q7DPUx22d8jvhywgumDGwrrJ6guO7bz3y1mI0brKNKLzz
KqlEWQweIFsb7+yKcrROVtXuPQrLIz4hp1539LquJi0=
-----END CERTIFICATE-----
