Certificate:
    Data:
        Version: 1 (0x0)
        Serial Number:
            9b:27:d7:e8:d1:ba:08:d2
        Signature Algorithm: md5WithRSAEncryption
        Issuer: C=DE, ST=Saarland, O=MPI-SWS, OU=Distributed Systems Group, CN=Andreas Haeberlen/emailAddress=democa@octarine.de
        Validity
            Not Before: Apr 20 20:47:07 2015 GMT
            Not After : Apr 19 20:47:07 2016 GMT
        Subject: C=DE, ST=Saarland, O=MPI-SWS, OU=Distributed Systems Group, CN=8c16a1ab584e3a407b7c2d890d96d91563c057ba/emailAddress=node0250@octarine.de
        Subject Public Key Info:
            Public Key Algorithm: rsaEncryption
            RSA Public Key: (1024 bit)
                Modulus (1024 bit):
                    00:bc:e4:e5:e6:35:26:fc:73:8a:ee:a6:cd:d0:6b:
                    e1:1b:11:e5:ff:82:a5:58:90:a7:25:95:ab:cc:c7:
                    1c:f1:b9:34:86:7b:fd:dd:ca:2a:b6:ec:11:1e:a7:
                    10:6c:16:27:3a:6a:c8:a2:db:ff:e9:b1:40:f8:f8:
                    e9:a9:5c:9e:2e:6a:bc:16:ad:15:d2:2b:70:6c:2f:
                    86:7e:95:9c:6a:33:7b:3c:e9:9e:37:15:9e:da:47:
                    83:e1:45:7e:f8:34:05:da:9e:35:2b:7d:b8:8d:3d:
                    77:4a:68:f9:76:94:dc:46:81:36:20:37:5c:b7:63:
                    b3:27:4f:59:bf:57:f6:1e:db
                Exponent: 65537 (0x10001)
    Signature Algorithm: md5WithRSAEncryption
        24:30:6f:93:a6:7a:2e:71:a7:cf:40:80:01:8e:1e:2e:77:35:
        e3:61:9e:ac:13:d0:37:05:9f:39:e7:bd:cf:d1:63:b2:c8:00:
        4b:9a:eb:1b:18:53:9a:22:a0:6a:87:08:67:3c:a4:f1:12:0b:
        fd:ce:b7:e4:33:76:d2:74:54:c0:a1:a8:2c:d6:6b:ae:f7:03:
        76:06:ae:bf:c4:cc:77:c6:84:c1:84:13:dc:e0:71:77:36:03:
        40:5f:5f:32:8d:47:35:44:d8:75:7c:17:ba:ae:aa:6f:51:d4:
        02:a2:dd:2e:52:7d:bf:9a:d3:27:b7:7f:74:14:1e:2f:d3:93:
        84:52
-----BEGIN CERTIFICATE-----
MIICvDCCAiUCCQCbJ9fo0boI0jANBgkqhkiG9w0BAQQFADCBlTELMAkGA1UEBhMC
REUxETAPBgNVBAgTCFNhYXJsYW5kMRAwDgYDVQQKEwdNUEktU1dTMSIwIAYDVQQL
ExlEaXN0cmlidXRlZCBTeXN0ZW1zIEdyb3VwMRowGAYDVQQDExFBbmRyZWFzIEhh
ZWJlcmxlbjEhMB8GCSqGSIb3DQEJARYSZGVtb2NhQG9jdGFyaW5lLmRlMB4XDTE1
MDQyMDIwNDcwN1oXDTE2MDQxOTIwNDcwN1owga4xCzAJBgNVBAYTAkRFMREwDwYD
VQQIEwhTYWFybGFuZDEQMA4GA1UEChMHTVBJLVNXUzEiMCAGA1UECxMZRGlzdHJp
YnV0ZWQgU3lzdGVtcyBHcm91cDExMC8GA1UEAxMoOGMxNmExYWI1ODRlM2E0MDdi
N2MyZDg5MGQ5NmQ5MTU2M2MwNTdiYTEjMCEGCSqGSIb3DQEJARYUbm9kZTAyNTBA
b2N0YXJpbmUuZGUwgZ8wDQYJKoZIhvcNAQEBBQADgY0AMIGJAoGBALzk5eY1Jvxz
iu6mzdBr4RsR5f+CpViQpyWVq8zHHPG5NIZ7/d3KKrbsER6nEGwWJzpqyKLb/+mx
QPj46alcni5qvBatFdIrcGwvhn6VnGozezzpnjcVntpHg+FFfvg0BdqeNSt9uI09
d0po+XaU3EaBNiA3XLdjsydPWb9X9h7bAgMBAAEwDQYJKoZIhvcNAQEEBQADgYEA
JDBvk6Z6LnGnz0CAAY4eLnc142GerBPQNwWfOee9z9FjssgAS5rrGxhTmiKgaocI
Zzyk8RIL/c635DN20nRUwKGoLNZrrvcDdgauv8TMd8aEwYQT3OBxdzYDQF9fMo1H
NUTYdXwXuq6qb1HUAqLdLlJ9v5rTJ7d/dBQeL9OThFI=
-----END CERTIFICATE-----
