Certificate:
    Data:
        Version: 1 (0x0)
        Serial Number:
            9b:27:d7:e8:d1:ba:09:e7
        Signature Algorithm: md5WithRSAEncryption
        Issuer: C=DE, ST=Saarland, O=MPI-SWS, OU=Distributed Systems Group, CN=Andreas Haeberlen/emailAddress=democa@octarine.de
        Validity
            Not Before: Apr 20 20:47:20 2015 GMT
            Not After : Apr 19 20:47:20 2016 GMT
        Subject: C=DE, ST=Saarland, O=MPI-SWS, OU=Distributed Systems Group, CN=c3700757fb85849e76cbd6a934d96092303478b6/emailAddress=node0527@octarine.de
        Subject Public Key Info:
            Public Key Algorithm: rsaEncryption
            RSA Public Key: (1024 bit)
                Modulus (1024 bit):
                    00:d5:af:f6:74:3e:c2:ba:e5:88:b5:e3:1f:7b:66:
                    b7:1f:87:f6:75:23:1d:8e:15:f3:77:fc:30:37:e8:
                    47:d4:0a:d5:10:fe:38:dc:6e:a0:06:39:39:7a:9c:
                    64:7e:df:d7:3b:41:d9:34:72:34:5c:b1:5c:36:41:
                    74:38:30:4f:3f:e0:25:9e:0e:d1:bf:bc:72:22:b7:
                    29:55:63:6c:f1:1e:91:aa:fe:aa:52:e4:1b:00:b3:
                    21:0d:c6:56:ce:0a:7f:b2:4a:43:27:9f:6b:57:0e:
                    4e:f2:8b:e1:80:8f:bb:c5:16:c6:32:02:4c:2c:77:
                    be:32:a7:89:8c:65:ce:72:a1
                Exponent: 65537 (0x10001)
    Signature Algorithm: md5WithRSAEncryption
        78:37:67:04:c2:4b:e0:c2:fd:25:82:15:58:2c:34:ae:be:d0:
        14:d3:e5:47:e3:79:13:f0:83:d3:5c:4a:a1:9d:4c:0e:df:10:
        9c:2c:80:d8:d9:96:ea:b7:48:9b:49:8c:a4:c1:11:1e:f1:bf:
        99:89:38:78:61:57:92:7e:18:8a:9d:c3:22:6c:2d:7d:7e:99:
        1c:62:b8:8b:2e:86:4e:f4:e5:cc:d6:fa:a3:1b:84:a3:6a:a3:
        d7:ef:b1:bf:8f:85:fd:11:dd:7f:07:54:ff:6b:84:0e:7e:15:
        fc:1b:c9:98:90:9c:a4:24:75:a1:b0:bb:be:06:44:de:4c:70:
        cd:da
-----BEGIN CERTIFICATE-----
MIICvDCCAiUCCQCbJ9fo0boJ5zANBgkqhkiG9w0BAQQFADCBlTELMAkGA1UEBhMC
REUxETAPBgNVBAgTCFNhYXJsYW5kMRAwDgYDVQQKEwdNUEktU1dTMSIwIAYDVQQL
ExlEaXN0cmlidXRlZCBTeXN0ZW1zIEdyb3VwMRowGAYDVQQDExFBbmRyZWFzIEhh
ZWJlcmxlbjEhMB8GCSqGSIb3DQEJARYSZGVtb2NhQG9jdGFyaW5lLmRlMB4XDTE1
MDQyMDIwNDcyMFoXDTE2MDQxOTIwNDcyMFowga4xCzAJBgNVBAYTAkRFMREwDwYD
VQQIEwhTYWFybGFuZDEQMA4GA1UEChMHTVBJLVNXUzEiMCAGA1UECxMZRGlzdHJp
YnV0ZWQgU3lzdGVtcyBHcm91cDExMC8GA1UEAxMoYzM3MDA3NTdmYjg1ODQ5ZTc2
Y2JkNmE5MzRkOTYwOTIzMDM0NzhiNjEjMCEGCSqGSIb3DQEJARYUbm9kZTA1MjdA
b2N0YXJpbmUuZGUwgZ8wDQYJKoZIhvcNAQEBBQADgY0AMIGJAoGBANWv9nQ+wrrl
iLXjH3tmtx+H9nUjHY4V83f8MDfoR9QK1RD+ONxuoAY5OXqcZH7f1ztB2TRyNFyx
XDZBdDgwTz/gJZ4O0b+8ciK3KVVjbPEekar+qlLkGwCzIQ3GVs4Kf7JKQyefa1cO
TvKL4YCPu8UWxjICTCx3vjKniYxlznKhAgMBAAEwDQYJKoZIhvcNAQEEBQADgYEA
eDdnBMJL4ML9JYIVWCw0rr7QFNPlR+N5E/CD01xKoZ1MDt8QnCyA2NmW6rdIm0mM
pMERHvG/mYk4eGFXkn4Yip3DImwtfX6ZHGK4iy6GTvTlzNb6oxuEo2qj1++xv4+F
/RHdfwdU/2uEDn4V/BvJmJCcpCR1obC7vgZE3kxwzdo=
-----END CERTIFICATE-----
