Certificate:
    Data:
        Version: 1 (0x0)
        Serial Number:
            9b:27:d7:e8:d1:ba:08:47
        Signature Algorithm: md5WithRSAEncryption
        Issuer: C=DE, ST=Saarland, O=MPI-SWS, OU=Distributed Systems Group, CN=Andreas Haeberlen/emailAddress=democa@octarine.de
        Validity
            Not Before: Apr 20 20:47:01 2015 GMT
            Not After : Apr 19 20:47:01 2016 GMT
        Subject: C=DE, ST=Saarland, O=MPI-SWS, OU=Distributed Systems Group, CN=f7ff75bc19e71802fd11fcbc06f25284a831eedf/emailAddress=node0111@octarine.de
        Subject Public Key Info:
            Public Key Algorithm: rsaEncryption
            RSA Public Key: (1024 bit)
                Modulus (1024 bit):
                    00:9e:28:ec:fa:eb:8a:b0:e2:ac:bd:19:2b:b1:02:
                    92:5f:c0:08:ad:6d:38:95:fb:54:a5:fd:76:2d:f9:
                    19:64:69:68:4b:5b:7c:f7:9e:14:a0:8a:1e:0f:bb:
                    ff:63:68:cd:b0:6a:18:b7:6d:38:4f:3f:25:d4:7d:
                    69:d9:64:39:17:e8:c3:5a:49:5a:0f:c7:b1:2d:c1:
                    b0:6d:bb:f3:00:12:77:02:c5:0a:e9:9a:d0:bf:55:
                    4d:39:2b:2e:dc:a5:a6:e2:77:89:e7:7c:17:99:be:
                    76:52:e1:da:50:a1:1e:61:9b:60:fa:f0:ce:62:89:
                    9e:73:08:2d:05:40:10:8c:03
                Exponent: 65537 (0x10001)
    Signature Algorithm: md5WithRSAEncryption
        86:c5:f6:32:53:b0:68:bf:9e:bc:c1:9a:33:0e:29:89:14:c6:
        2c:ad:f6:44:55:9d:ec:3c:d9:33:29:b1:f4:57:28:28:11:b2:
        3a:72:d6:30:d7:a4:a6:7d:86:83:14:a8:54:05:91:40:de:0d:
        ac:3d:4b:25:37:b3:bf:5d:c1:73:8a:b3:06:55:6e:5f:dc:85:
        d6:80:d9:b8:38:fe:94:16:d3:4d:15:ac:7a:10:35:ed:6b:0d:
        c5:ce:61:27:2c:2b:a4:00:be:4b:25:4a:93:3d:5b:f9:f8:40:
        9c:70:23:92:7d:b0:d3:60:74:fa:63:a0:2c:fe:13:35:88:1e:
        3d:dc
-----BEGIN CERTIFICATE-----
MIICvDCCAiUCCQCbJ9fo0boIRzANBgkqhkiG9w0BAQQFADCBlTELMAkGA1UEBhMC
REUxETAPBgNVBAgTCFNhYXJsYW5kMRAwDgYDVQQKEwdNUEktU1dTMSIwIAYDVQQL
ExlEaXN0cmlidXRlZCBTeXN0ZW1zIEdyb3VwMRowGAYDVQQDExFBbmRyZWFzIEhh
ZWJlcmxlbjEhMB8GCSqGSIb3DQEJARYSZGVtb2NhQG9jdGFyaW5lLmRlMB4XDTE1
MDQyMDIwNDcwMVoXDTE2MDQxOTIwNDcwMVowga4xCzAJBgNVBAYTAkRFMREwDwYD
VQQIEwhTYWFybGFuZDEQMA4GA1UEChMHTVBJLVNXUzEiMCAGA1UECxMZRGlzdHJp
YnV0ZWQgU3lzdGVtcyBHcm91cDExMC8GA1UEAxMoZjdmZjc1YmMxOWU3MTgwMmZk
MTFmY2JjMDZmMjUyODRhODMxZWVkZjEjMCEGCSqGSIb3DQEJARYUbm9kZTAxMTFA
b2N0YXJpbmUuZGUwgZ8wDQYJKoZIhvcNAQEBBQADgY0AMIGJAoGBAJ4o7PrrirDi
rL0ZK7ECkl/ACK1tOJX7VKX9di35GWRpaEtbfPeeFKCKHg+7/2NozbBqGLdtOE8/
JdR9adlkORfow1pJWg/HsS3BsG278wASdwLFCuma0L9VTTkrLtylpuJ3ied8F5m+
dlLh2lChHmGbYPrwzmKJnnMILQVAEIwDAgMBAAEwDQYJKoZIhvcNAQEEBQADgYEA
hsX2MlOwaL+evMGaMw4piRTGLK32RFWd7DzZMymx9FcoKBGyOnLWMNekpn2GgxSo
VAWRQN4NrD1LJTezv13Bc4qzBlVuX9yF1oDZuDj+lBbTTRWsehA17WsNxc5hJywr
pAC+SyVKkz1b+fhAnHAjkn2w02B0+mOgLP4TNYgePdw=
-----END CERTIFICATE-----
