Certificate:
    Data:
        Version: 1 (0x0)
        Serial Number:
            9b:27:d7:e8:d1:ba:09:b2
        Signature Algorithm: md5WithRSAEncryption
        Issuer: C=DE, ST=Saarland, O=MPI-SWS, OU=Distributed Systems Group, CN=Andreas Haeberlen/emailAddress=democa@octarine.de
        Validity
            Not Before: Apr 20 20:47:17 2015 GMT
            Not After : Apr 19 20:47:17 2016 GMT
        Subject: C=DE, ST=Saarland, O=MPI-SWS, OU=Distributed Systems Group, CN=bcf6174a11c7560213d06e7a0c60ad16a1dc8179/emailAddress=node0474@octarine.de
        Subject Public Key Info:
            Public Key Algorithm: rsaEncryption
            RSA Public Key: (1024 bit)
                Modulus (1024 bit):
                    00:a8:90:33:7c:85:bb:a8:c1:20:9e:3a:d9:3d:f4:
                    69:aa:a3:8e:f3:2d:06:14:11:a0:e6:2d:5d:a0:c6:
                    06:6e:66:2b:47:c6:df:63:8b:76:95:dc:7d:a9:d1:
                    a5:5f:d6:e9:3d:d5:0a:c1:56:35:59:82:c8:ba:af:
                    09:f5:17:5c:e2:23:27:84:72:a7:b9:5e:a9:6f:61:
                    e7:e4:78:37:67:ba:d7:17:77:5b:39:0c:9b:b0:a3:
                    84:8f:87:54:07:1a:39:88:27:81:b1:f2:32:83:31:
                    b8:0e:ef:44:02:81:78:b7:7d:e1:ec:ab:b5:11:65:
                    4a:21:06:ef:e7:b2:67:29:b7
                Exponent: 65537 (0x10001)
    Signature Algorithm: md5WithRSAEncryption
        45:8b:a7:87:b3:83:5d:52:d5:67:50:26:5e:d3:37:86:98:3a:
        58:dc:91:0b:f6:0b:9a:5d:21:0e:83:01:14:88:43:be:60:e2:
        b8:26:bf:8a:5e:63:47:fb:7c:8e:91:bc:fd:2f:fe:63:49:04:
        0e:c4:36:3f:e1:fb:d6:49:ed:65:ca:3f:b2:a4:98:c8:18:32:
        53:a4:22:ff:70:31:f0:1f:f1:27:47:77:a0:57:7b:8d:ca:63:
        69:df:d6:71:d0:0c:4d:d1:e4:4f:a9:c0:e2:e6:5c:0e:a7:11:
        5c:59:b8:0e:7c:c9:81:b6:f5:8d:03:c8:75:d1:92:5b:5a:ac:
        fc:70
-----BEGIN CERTIFICATE-----
MIICvDCCAiUCCQCbJ9fo0boJsjANBgkqhkiG9w0BAQQFADCBlTELMAkGA1UEBhMC
REUxETAPBgNVBAgTCFNhYXJsYW5kMRAwDgYDVQQKEwdNUEktU1dTMSIwIAYDVQQL
ExlEaXN0cmlidXRlZCBTeXN0ZW1zIEdyb3VwMRowGAYDVQQDExFBbmRyZWFzIEhh
ZWJlcmxlbjEhMB8GCSqGSIb3DQEJARYSZGVtb2NhQG9jdGFyaW5lLmRlMB4XDTE1
MDQyMDIwNDcxN1oXDTE2MDQxOTIwNDcxN1owga4xCzAJBgNVBAYTAkRFMREwDwYD
VQQIEwhTYWFybGFuZDEQMA4GA1UEChMHTVBJLVNXUzEiMCAGA1UECxMZRGlzdHJp
YnV0ZWQgU3lzdGVtcyBHcm91cDExMC8GA1UEAxMoYmNmNjE3NGExMWM3NTYwMjEz
ZDA2ZTdhMGM2MGFkMTZhMWRjODE3OTEjMCEGCSqGSIb3DQEJARYUbm9kZTA0NzRA
b2N0YXJpbmUuZGUwgZ8wDQYJKoZIhvcNAQEBBQADgY0AMIGJAoGBAKiQM3yFu6jB
IJ462T30aaqjjvMtBhQRoOYtXaDGBm5mK0fG32OLdpXcfanRpV/W6T3VCsFWNVmC
yLqvCfUXXOIjJ4Ryp7leqW9h5+R4N2e61xd3WzkMm7CjhI+HVAcaOYgngbHyMoMx
uA7vRAKBeLd94eyrtRFlSiEG7+eyZym3AgMBAAEwDQYJKoZIhvcNAQEEBQADgYEA
RYunh7ODXVLVZ1AmXtM3hpg6WNyRC/YLml0hDoMBFIhDvmDiuCa/il5jR/t8jpG8
/S/+Y0kEDsQ2P+H71kntZco/sqSYyBgyU6Qi/3Ax8B/xJ0d3oFd7jcpjad/WcdAM
TdHkT6nA4uZcDqcRXFm4DnzJgbb1jQPIddGSW1qs/HA=
-----END CERTIFICATE-----
