Certificate:
    Data:
        Version: 1 (0x0)
        Serial Number:
            9b:27:d7:e8:d1:ba:09:f9
        Signature Algorithm: md5WithRSAEncryption
        Issuer: C=DE, ST=Saarland, O=MPI-SWS, OU=Distributed Systems Group, CN=Andreas Haeberlen/emailAddress=democa@octarine.de
        Validity
            Not Before: Apr 20 20:47:21 2015 GMT
            Not After : Apr 19 20:47:21 2016 GMT
        Subject: C=DE, ST=Saarland, O=MPI-SWS, OU=Distributed Systems Group, CN=19db080f08365a8ee07817d8c1d869473223a33b/emailAddress=node0545@octarine.de
        Subject Public Key Info:
            Public Key Algorithm: rsaEncryption
            RSA Public Key: (1024 bit)
                Modulus (1024 bit):
                    00:9b:bf:3c:92:a4:c1:db:1d:72:34:60:f7:1b:92:
                    df:95:61:51:fb:86:b5:cd:05:58:9f:4f:c0:5a:85:
                    e2:54:9e:9f:2c:d8:02:7e:63:05:6b:6a:27:72:a7:
                    c8:ac:a4:9a:0d:df:fa:31:25:ee:08:ed:e5:26:96:
                    83:01:85:de:f8:cb:08:7c:7f:fe:d9:1f:be:ce:dc:
                    e0:16:ea:b8:6f:72:7c:d3:4b:db:fd:47:f5:9c:b2:
                    db:b9:e7:43:a5:c7:a4:6d:2a:d2:95:c1:61:b8:6b:
                    0d:50:d7:36:32:c3:49:07:c1:45:79:4a:58:19:59:
                    2c:d7:39:d2:9c:95:42:f9:bd
                Exponent: 65537 (0x10001)
    Signature Algorithm: md5WithRSAEncryption
        c0:0b:16:32:f4:d1:c6:90:da:9b:8f:d9:35:44:39:ce:e2:27:
        e8:83:ad:e9:e0:72:7e:6d:7b:ce:51:3e:5c:65:89:86:7d:4b:
        53:31:c3:58:94:cd:1f:01:7c:6b:28:b4:b7:eb:0a:6b:17:8f:
        ad:02:2f:67:7a:a5:fd:7f:ef:11:01:cc:11:08:23:6f:02:2a:
        cb:36:38:a7:f5:58:b7:22:3c:5f:9a:e1:1b:94:0e:c3:70:e2:
        a3:8b:13:60:15:85:ed:95:e8:e1:75:48:34:9a:06:90:cb:ac:
        de:0a:09:a3:9e:2e:a2:bf:71:9c:10:26:78:0b:ae:20:22:dd:
        b8:13
-----BEGIN CERTIFICATE-----
MIICvDCCAiUCCQCbJ9fo0boJ+TANBgkqhkiG9w0BAQQFADCBlTELMAkGA1UEBhMC
REUxETAPBgNVBAgTCFNhYXJsYW5kMRAwDgYDVQQKEwdNUEktU1dTMSIwIAYDVQQL
ExlEaXN0cmlidXRlZCBTeXN0ZW1zIEdyb3VwMRowGAYDVQQDExFBbmRyZWFzIEhh
ZWJlcmxlbjEhMB8GCSqGSIb3DQEJARYSZGVtb2NhQG9jdGFyaW5lLmRlMB4XDTE1
MDQyMDIwNDcyMVoXDTE2MDQxOTIwNDcyMVowga4xCzAJBgNVBAYTAkRFMREwDwYD
VQQIEwhTYWFybGFuZDEQMA4GA1UEChMHTVBJLVNXUzEiMCAGA1UECxMZRGlzdHJp
YnV0ZWQgU3lzdGVtcyBHcm91cDExMC8GA1UEAxMoMTlkYjA4MGYwODM2NWE4ZWUw
NzgxN2Q4YzFkODY5NDczMjIzYTMzYjEjMCEGCSqGSIb3DQEJARYUbm9kZTA1NDVA
b2N0YXJpbmUuZGUwgZ8wDQYJKoZIhvcNAQEBBQADgY0AMIGJAoGBAJu/PJKkwdsd
cjRg9xuS35VhUfuGtc0FWJ9PwFqF4lSenyzYAn5jBWtqJ3KnyKykmg3f+jEl7gjt
5SaWgwGF3vjLCHx//tkfvs7c4BbquG9yfNNL2/1H9Zyy27nnQ6XHpG0q0pXBYbhr
DVDXNjLDSQfBRXlKWBlZLNc50pyVQvm9AgMBAAEwDQYJKoZIhvcNAQEEBQADgYEA
wAsWMvTRxpDam4/ZNUQ5zuIn6IOt6eByfm17zlE+XGWJhn1LUzHDWJTNHwF8ayi0
t+sKaxePrQIvZ3ql/X/vEQHMEQgjbwIqyzY4p/VYtyI8X5rhG5QOw3Dio4sTYBWF
7ZXo4XVINJoGkMus3goJo54uor9xnBAmeAuuICLduBM=
-----END CERTIFICATE-----
