Certificate:
    Data:
        Version: 1 (0x0)
        Serial Number:
            9b:27:d7:e8:d1:ba:08:78
        Signature Algorithm: md5WithRSAEncryption
        Issuer: C=DE, ST=Saarland, O=MPI-SWS, OU=Distributed Systems Group, CN=Andreas Haeberlen/emailAddress=democa@octarine.de
        Validity
            Not Before: Apr 20 20:47:04 2015 GMT
            Not After : Apr 19 20:47:04 2016 GMT
        Subject: C=DE, ST=Saarland, O=MPI-SWS, OU=Distributed Systems Group, CN=5103afe9d4e2feaca6cd09fdbbe9a9cfac35c2e9/emailAddress=node0160@octarine.de
        Subject Public Key Info:
            Public Key Algorithm: rsaEncryption
            RSA Public Key: (1024 bit)
                Modulus (1024 bit):
                    00:ee:d1:06:0a:31:61:f9:18:66:b9:5c:69:8a:8b:
                    19:d3:19:9c:ca:09:73:d2:d5:26:6c:45:93:77:f1:
                    81:2c:23:7f:75:b4:3d:d4:2b:83:ea:80:97:f3:ec:
                    d4:8c:03:42:1a:ae:a6:e2:a6:13:e9:ff:c9:e8:83:
                    93:20:80:c2:38:ba:7f:cb:8b:14:40:54:6d:24:ab:
                    d1:12:eb:c7:ef:2f:c2:3e:cc:c8:a9:70:5d:30:13:
                    62:31:bf:0b:b8:50:67:51:f4:8b:23:9e:f1:72:9b:
                    b5:62:62:f5:ff:e6:99:a1:b1:04:fd:84:23:6a:82:
                    3a:77:d3:85:38:28:22:4e:47
                Exponent: 65537 (0x10001)
    Signature Algorithm: md5WithRSAEncryption
        92:1c:94:f5:19:82:91:38:4a:ce:4d:93:94:eb:a9:3f:e8:16:
        6e:12:48:5b:74:ba:a4:3a:51:a3:14:f8:87:a5:d2:62:9f:7c:
        32:a6:99:0f:75:aa:f7:f3:6f:a3:19:e6:35:09:4c:5b:08:c4:
        9a:75:92:eb:17:45:86:37:cf:2c:3f:3c:aa:ee:f7:91:af:19:
        89:f1:bf:0f:5f:96:23:4b:4f:72:a4:a2:60:a2:2c:0f:b7:34:
        21:ed:32:7c:ec:74:ef:b3:25:ba:25:a8:69:5e:54:d1:42:2c:
        3e:99:30:db:02:da:27:c2:d7:9f:65:d9:ff:d0:b2:3b:c3:f2:
        dc:47
-----BEGIN CERTIFICATE-----
MIICvDCCAiUCCQCbJ9fo0boIeDANBgkqhkiG9w0BAQQFADCBlTELMAkGA1UEBhMC
REUxETAPBgNVBAgTCFNhYXJsYW5kMRAwDgYDVQQKEwdNUEktU1dTMSIwIAYDVQQL
ExlEaXN0cmlidXRlZCBTeXN0ZW1zIEdyb3VwMRowGAYDVQQDExFBbmRyZWFzIEhh
ZWJlcmxlbjEhMB8GCSqGSIb3DQEJARYSZGVtb2NhQG9jdGFyaW5lLmRlMB4XDTE1
MDQyMDIwNDcwNFoXDTE2MDQxOTIwNDcwNFowga4xCzAJBgNVBAYTAkRFMREwDwYD
VQQIEwhTYWFybGFuZDEQMA4GA1UEChMHTVBJLVNXUzEiMCAGA1UECxMZRGlzdHJp
YnV0ZWQgU3lzdGVtcyBHcm91cDExMC8GA1UEAxMoNTEwM2FmZTlkNGUyZmVhY2E2
Y2QwOWZkYmJlOWE5Y2ZhYzM1YzJlOTEjMCEGCSqGSIb3DQEJARYUbm9kZTAxNjBA
b2N0YXJpbmUuZGUwgZ8wDQYJKoZIhvcNAQEBBQADgY0AMIGJAoGBAO7RBgoxYfkY
ZrlcaYqLGdMZnMoJc9LVJmxFk3fxgSwjf3W0PdQrg+qAl/Ps1IwDQhqupuKmE+n/
yeiDkyCAwji6f8uLFEBUbSSr0RLrx+8vwj7MyKlwXTATYjG/C7hQZ1H0iyOe8XKb
tWJi9f/mmaGxBP2EI2qCOnfThTgoIk5HAgMBAAEwDQYJKoZIhvcNAQEEBQADgYEA
khyU9RmCkThKzk2TlOupP+gWbhJIW3S6pDpRoxT4h6XSYp98MqaZD3Wq9/Nvoxnm
NQlMWwjEmnWS6xdFhjfPLD88qu73ka8ZifG/D1+WI0tPcqSiYKIsD7c0Ie0yfOx0
77MluiWoaV5U0UIsPpkw2wLaJ8LXn2XZ/9CyO8Py3Ec=
-----END CERTIFICATE-----
