Certificate:
    Data:
        Version: 1 (0x0)
        Serial Number:
            9b:27:d7:e8:d1:ba:08:f0
        Signature Algorithm: md5WithRSAEncryption
        Issuer: C=DE, ST=Saarland, O=MPI-SWS, OU=Distributed Systems Group, CN=Andreas Haeberlen/emailAddress=democa@octarine.de
        Validity
            Not Before: Apr 20 20:47:09 2015 GMT
            Not After : Apr 19 20:47:09 2016 GMT
        Subject: C=DE, ST=Saarland, O=MPI-SWS, OU=Distributed Systems Group, CN=a9f9384fd51ba8f24e6e0fa7d08f57e00d936e34/emailAddress=node0280@octarine.de
        Subject Public Key Info:
            Public Key Algorithm: rsaEncryption
            RSA Public Key: (1024 bit)
                Modulus (1024 bit):
                    00:d5:96:d6:3b:38:90:d7:61:5e:e0:c4:f6:b1:04:
                    e8:5a:c2:95:50:7b:a7:e4:37:19:cf:28:5c:15:e9:
                    7f:d8:36:b3:f1:75:da:15:e3:92:3d:86:bc:e7:1a:
                    03:2c:9d:f9:eb:ed:60:37:b1:e7:73:41:6d:ff:69:
                    45:36:6e:9e:ef:9f:21:b3:d3:61:90:87:88:a1:43:
                    81:ca:15:32:fe:55:21:ab:f6:b4:6f:02:cd:29:d8:
                    e3:5e:af:e8:4c:68:bc:5d:28:27:58:b7:30:c9:8c:
                    6f:d2:2a:82:3e:40:9b:0f:26:f6:d4:db:4a:75:73:
                    25:47:7a:ae:41:db:e9:cc:ef
                Exponent: 65537 (0x10001)
    Signature Algorithm: md5WithRSAEncryption
        81:d7:f0:50:22:8a:76:5e:2a:58:9f:28:d2:4a:28:49:73:ed:
        0c:e8:c1:f6:42:1b:be:78:c4:64:7e:b6:bf:fe:59:ea:70:a5:
        de:a8:5d:07:a5:50:e5:66:b6:64:54:33:e6:49:18:9d:0a:d5:
        15:66:8f:e3:de:ce:82:99:ee:0d:b6:86:e6:10:ad:14:2a:54:
        c4:80:d7:a2:98:96:35:05:d5:b6:9c:a8:74:52:05:92:4f:4a:
        88:bd:e4:64:cb:63:f2:8d:a8:25:60:7e:61:7e:23:ba:f0:fb:
        f2:cb:f0:08:13:df:86:28:45:2c:20:48:59:7e:2f:e8:c1:0e:
        3d:fb
-----BEGIN CERTIFICATE-----
MIICvDCCAiUCCQCbJ9fo0boI8DANBgkqhkiG9w0BAQQFADCBlTELMAkGA1UEBhMC
REUxETAPBgNVBAgTCFNhYXJsYW5kMRAwDgYDVQQKEwdNUEktU1dTMSIwIAYDVQQL
ExlEaXN0cmlidXRlZCBTeXN0ZW1zIEdyb3VwMRowGAYDVQQDExFBbmRyZWFzIEhh
ZWJlcmxlbjEhMB8GCSqGSIb3DQEJARYSZGVtb2NhQG9jdGFyaW5lLmRlMB4XDTE1
MDQyMDIwNDcwOVoXDTE2MDQxOTIwNDcwOVowga4xCzAJBgNVBAYTAkRFMREwDwYD
VQQIEwhTYWFybGFuZDEQMA4GA1UEChMHTVBJLVNXUzEiMCAGA1UECxMZRGlzdHJp
YnV0ZWQgU3lzdGVtcyBHcm91cDExMC8GA1UEAxMoYTlmOTM4NGZkNTFiYThmMjRl
NmUwZmE3ZDA4ZjU3ZTAwZDkzNmUzNDEjMCEGCSqGSIb3DQEJARYUbm9kZTAyODBA
b2N0YXJpbmUuZGUwgZ8wDQYJKoZIhvcNAQEBBQADgY0AMIGJAoGBANWW1js4kNdh
XuDE9rEE6FrClVB7p+Q3Gc8oXBXpf9g2s/F12hXjkj2GvOcaAyyd+evtYDex53NB
bf9pRTZunu+fIbPTYZCHiKFDgcoVMv5VIav2tG8CzSnY416v6ExovF0oJ1i3MMmM
b9Iqgj5Amw8m9tTbSnVzJUd6rkHb6czvAgMBAAEwDQYJKoZIhvcNAQEEBQADgYEA
gdfwUCKKdl4qWJ8o0kooSXPtDOjB9kIbvnjEZH62v/5Z6nCl3qhdB6VQ5Wa2ZFQz
5kkYnQrVFWaP497OgpnuDbaG5hCtFCpUxIDXopiWNQXVtpyodFIFkk9KiL3kZMtj
8o2oJWB+YX4juvD78svwCBPfhihFLCBIWX4v6MEOPfs=
-----END CERTIFICATE-----
