Certificate:
    Data:
        Version: 1 (0x0)
        Serial Number:
            9b:27:d7:e8:d1:ba:0b:54
        Signature Algorithm: md5WithRSAEncryption
        Issuer: C=DE, ST=Saarland, O=MPI-SWS, OU=Distributed Systems Group, CN=Andreas Haeberlen/emailAddress=democa@octarine.de
        Validity
            Not Before: Apr 20 20:47:36 2015 GMT
            Not After : Apr 19 20:47:36 2016 GMT
        Subject: C=DE, ST=Saarland, O=MPI-SWS, OU=Distributed Systems Group, CN=687582f79c91e294752f4726bd0c90cf94517480/emailAddress=node0892@octarine.de
        Subject Public Key Info:
            Public Key Algorithm: rsaEncryption
            RSA Public Key: (1024 bit)
                Modulus (1024 bit):
                    00:9e:ae:f3:e7:9a:97:a2:be:21:2f:49:10:c9:aa:
                    e4:e0:23:57:b4:d5:a3:49:af:0d:2b:d2:72:0f:70:
                    31:93:52:0f:e8:3a:5d:db:20:a9:e4:69:28:03:53:
                    ed:3a:5b:b5:3e:54:e2:4c:bc:c4:50:b5:e3:e2:67:
                    f6:53:f7:b6:94:6c:c4:1d:66:ae:f6:af:fe:8a:ff:
                    87:bf:bf:0b:9d:24:56:fc:0a:c5:07:9c:32:b2:5e:
                    19:05:9b:10:8b:27:fe:33:0a:6a:1e:7e:43:4f:e1:
                    9c:f3:19:ed:2c:a9:d0:e4:21:8e:28:25:92:67:81:
                    40:77:55:61:6e:8c:96:39:95
                Exponent: 65537 (0x10001)
    Signature Algorithm: md5WithRSAEncryption
        5c:e6:7a:ac:17:da:73:01:49:50:16:42:13:95:00:bf:21:f1:
        5c:53:0a:b8:66:04:c4:e3:45:76:54:1e:48:e9:3d:d8:19:a6:
        43:6d:f7:77:de:c9:d5:51:53:2b:63:a3:91:a3:6c:55:35:95:
        a6:df:81:d7:11:07:3f:9f:6c:c1:4c:38:54:31:7f:47:9c:cf:
        68:3e:c7:63:8f:9d:22:c5:88:3d:b3:aa:cd:88:06:5d:8e:05:
        ac:1b:a1:1c:15:d2:5f:67:1b:ab:2a:16:78:fa:43:62:18:15:
        40:b0:9b:eb:f8:a1:43:01:bc:a8:05:0b:2c:b7:51:be:28:15:
        58:60
-----BEGIN CERTIFICATE-----
MIICvDCCAiUCCQCbJ9fo0boLVDANBgkqhkiG9w0BAQQFADCBlTELMAkGA1UEBhMC
REUxETAPBgNVBAgTCFNhYXJsYW5kMRAwDgYDVQQKEwdNUEktU1dTMSIwIAYDVQQL
ExlEaXN0cmlidXRlZCBTeXN0ZW1zIEdyb3VwMRowGAYDVQQDExFBbmRyZWFzIEhh
ZWJlcmxlbjEhMB8GCSqGSIb3DQEJARYSZGVtb2NhQG9jdGFyaW5lLmRlMB4XDTE1
MDQyMDIwNDczNloXDTE2MDQxOTIwNDczNlowga4xCzAJBgNVBAYTAkRFMREwDwYD
VQQIEwhTYWFybGFuZDEQMA4GA1UEChMHTVBJLVNXUzEiMCAGA1UECxMZRGlzdHJp
YnV0ZWQgU3lzdGVtcyBHcm91cDExMC8GA1UEAxMoNjg3NTgyZjc5YzkxZTI5NDc1
MmY0NzI2YmQwYzkwY2Y5NDUxNzQ4MDEjMCEGCSqGSIb3DQEJARYUbm9kZTA4OTJA
b2N0YXJpbmUuZGUwgZ8wDQYJKoZIhvcNAQEBBQADgY0AMIGJAoGBAJ6u8+eal6K+
IS9JEMmq5OAjV7TVo0mvDSvScg9wMZNSD+g6XdsgqeRpKANT7TpbtT5U4ky8xFC1
4+Jn9lP3tpRsxB1mrvav/or/h7+/C50kVvwKxQecMrJeGQWbEIsn/jMKah5+Q0/h
nPMZ7Syp0OQhjiglkmeBQHdVYW6MljmVAgMBAAEwDQYJKoZIhvcNAQEEBQADgYEA
XOZ6rBfacwFJUBZCE5UAvyHxXFMKuGYExONFdlQeSOk92BmmQ233d97J1VFTK2Oj
kaNsVTWVpt+B1xEHP59swUw4VDF/R5zPaD7HY4+dIsWIPbOqzYgGXY4FrBuhHBXS
X2cbqyoWePpDYhgVQLCb6/ihQwG8qAULLLdRvigVWGA=
-----END CERTIFICATE-----
