Certificate:
    Data:
        Version: 1 (0x0)
        Serial Number:
            9b:27:d7:e8:d1:ba:07:e5
        Signature Algorithm: md5WithRSAEncryption
        Issuer: C=DE, ST=Saarland, O=MPI-SWS, OU=Distributed Systems Group, CN=Andreas Haeberlen/emailAddress=democa@octarine.de
        Validity
            Not Before: Apr 20 20:46:57 2015 GMT
            Not After : Apr 19 20:46:57 2016 GMT
        Subject: C=DE, ST=Saarland, O=MPI-SWS, OU=Distributed Systems Group, CN=7528c1576dc7ad6dadf9f10e2cf01508a31646da/emailAddress=node0013@octarine.de
        Subject Public Key Info:
            Public Key Algorithm: rsaEncryption
            RSA Public Key: (1024 bit)
                Modulus (1024 bit):
                    00:f7:13:f8:83:79:91:79:d1:d1:95:6d:c5:26:be:
                    9c:71:d8:6a:23:93:89:6b:e9:11:ae:c7:99:74:f6:
                    ac:fa:2c:71:6b:74:67:da:25:9c:0a:f4:33:8f:44:
                    9c:87:f2:2f:5b:c9:f8:13:33:02:03:a7:a8:9f:b6:
                    03:ec:55:87:84:fc:12:76:a4:e6:8a:ba:cc:62:0a:
                    e3:4c:c4:24:a5:00:48:15:4b:94:4d:17:87:2b:90:
                    12:10:cb:51:14:97:79:34:b5:d0:37:ef:a9:1f:1b:
                    f8:45:11:79:db:55:35:b6:b6:d0:07:27:af:c1:bd:
                    92:ab:44:63:97:a8:7a:5f:25
                Exponent: 65537 (0x10001)
    Signature Algorithm: md5WithRSAEncryption
        5b:6a:4c:ca:24:98:9f:91:db:32:7b:1d:db:84:8d:b7:53:9b:
        99:9e:16:29:7f:25:0f:92:2f:dd:ae:7c:f9:06:5f:6a:10:9a:
        b8:ef:ec:e4:50:45:f9:c0:fb:d1:b6:49:cd:b1:fb:d7:c8:a2:
        83:30:2a:bf:37:6a:a1:e1:73:b8:14:73:84:b7:69:7f:f1:ac:
        96:49:f6:31:33:33:25:cf:34:3b:80:cc:41:ec:4b:b2:42:9a:
        2a:8b:79:81:1f:b0:7d:ee:b5:c3:7c:75:96:c8:2a:62:b8:3f:
        ff:92:b6:db:aa:07:ba:b7:ac:a8:f0:dd:a8:bd:8e:8a:1c:a9:
        79:3c
-----BEGIN CERTIFICATE-----
MIICvDCCAiUCCQCbJ9fo0boH5TANBgkqhkiG9w0BAQQFADCBlTELMAkGA1UEBhMC
REUxETAPBgNVBAgTCFNhYXJsYW5kMRAwDgYDVQQKEwdNUEktU1dTMSIwIAYDVQQL
ExlEaXN0cmlidXRlZCBTeXN0ZW1zIEdyb3VwMRowGAYDVQQDExFBbmRyZWFzIEhh
ZWJlcmxlbjEhMB8GCSqGSIb3DQEJARYSZGVtb2NhQG9jdGFyaW5lLmRlMB4XDTE1
MDQyMDIwNDY1N1oXDTE2MDQxOTIwNDY1N1owga4xCzAJBgNVBAYTAkRFMREwDwYD
VQQIEwhTYWFybGFuZDEQMA4GA1UEChMHTVBJLVNXUzEiMCAGA1UECxMZRGlzdHJp
YnV0ZWQgU3lzdGVtcyBHcm91cDExMC8GA1UEAxMoNzUyOGMxNTc2ZGM3YWQ2ZGFk
ZjlmMTBlMmNmMDE1MDhhMzE2NDZkYTEjMCEGCSqGSIb3DQEJARYUbm9kZTAwMTNA
b2N0YXJpbmUuZGUwgZ8wDQYJKoZIhvcNAQEBBQADgY0AMIGJAoGBAPcT+IN5kXnR
0ZVtxSa+nHHYaiOTiWvpEa7HmXT2rPoscWt0Z9olnAr0M49EnIfyL1vJ+BMzAgOn
qJ+2A+xVh4T8Enak5oq6zGIK40zEJKUASBVLlE0XhyuQEhDLURSXeTS10DfvqR8b
+EURedtVNba20Acnr8G9kqtEY5eoel8lAgMBAAEwDQYJKoZIhvcNAQEEBQADgYEA
W2pMyiSYn5HbMnsd24SNt1ObmZ4WKX8lD5Iv3a58+QZfahCauO/s5FBF+cD70bZJ
zbH718iigzAqvzdqoeFzuBRzhLdpf/Gslkn2MTMzJc80O4DMQexLskKaKot5gR+w
fe61w3x1lsgqYrg//5K226oHuresqPDdqL2OihypeTw=
-----END CERTIFICATE-----
