Certificate:
    Data:
        Version: 1 (0x0)
        Serial Number:
            9b:27:d7:e8:d1:ba:09:ae
        Signature Algorithm: md5WithRSAEncryption
        Issuer: C=DE, ST=Saarland, O=MPI-SWS, OU=Distributed Systems Group, CN=Andreas Haeberlen/emailAddress=democa@octarine.de
        Validity
            Not Before: Apr 20 20:47:17 2015 GMT
            Not After : Apr 19 20:47:17 2016 GMT
        Subject: C=DE, ST=Saarland, O=MPI-SWS, OU=Distributed Systems Group, CN=22140ea3ecaccfa1d59f915fd7c73f1513a22550/emailAddress=node0470@octarine.de
        Subject Public Key Info:
            Public Key Algorithm: rsaEncryption
            RSA Public Key: (1024 bit)
                Modulus (1024 bit):
                    00:b7:09:b3:84:9a:d5:86:09:3c:41:ca:f7:a4:7c:
                    78:27:13:98:cc:4a:2c:e7:67:cb:08:10:72:07:5a:
                    1d:ff:b2:ca:7d:d8:3c:28:1d:4a:b7:9e:13:e2:85:
                    11:ab:f1:36:09:06:46:63:4d:bb:90:0f:d6:22:d8:
                    af:5a:29:eb:04:8c:42:cb:6e:11:59:ea:44:87:0c:
                    f5:5d:9e:ea:fb:90:5b:e2:54:b3:1a:2e:ec:94:ed:
                    e0:5e:70:10:e6:9c:30:ec:f0:12:f3:23:37:96:6b:
                    35:de:36:53:ad:53:34:d6:f9:f7:9e:cd:05:c7:f3:
                    3f:c6:a3:39:85:51:f0:fd:db
                Exponent: 65537 (0x10001)
    Signature Algorithm: md5WithRSAEncryption
        81:7a:71:ed:ed:46:00:90:87:e0:47:56:96:b9:49:f2:1d:51:
        4d:b7:b9:13:3a:91:69:38:5d:18:d2:b1:0c:8e:a2:16:1b:46:
        64:d7:4a:2a:70:c4:8b:6d:a1:63:72:f3:2f:e1:57:e4:73:4a:
        6f:aa:09:e9:e3:ff:67:fd:d3:6c:2f:e7:f9:9b:3d:77:5a:f2:
        a4:d1:62:f2:7f:9b:5c:cf:97:c9:57:df:39:f8:ed:22:27:2d:
        d7:2e:44:6c:91:9d:4c:17:59:0d:b9:ae:a7:5d:17:f2:27:fd:
        0f:bc:c2:10:4b:b8:22:a6:12:ed:f8:cf:f9:9a:35:62:cf:c9:
        11:d7
-----BEGIN CERTIFICATE-----
MIICvDCCAiUCCQCbJ9fo0boJrjANBgkqhkiG9w0BAQQFADCBlTELMAkGA1UEBhMC
REUxETAPBgNVBAgTCFNhYXJsYW5kMRAwDgYDVQQKEwdNUEktU1dTMSIwIAYDVQQL
ExlEaXN0cmlidXRlZCBTeXN0ZW1zIEdyb3VwMRowGAYDVQQDExFBbmRyZWFzIEhh
ZWJlcmxlbjEhMB8GCSqGSIb3DQEJARYSZGVtb2NhQG9jdGFyaW5lLmRlMB4XDTE1
MDQyMDIwNDcxN1oXDTE2MDQxOTIwNDcxN1owga4xCzAJBgNVBAYTAkRFMREwDwYD
VQQIEwhTYWFybGFuZDEQMA4GA1UEChMHTVBJLVNXUzEiMCAGA1UECxMZRGlzdHJp
YnV0ZWQgU3lzdGVtcyBHcm91cDExMC8GA1UEAxMoMjIxNDBlYTNlY2FjY2ZhMWQ1
OWY5MTVmZDdjNzNmMTUxM2EyMjU1MDEjMCEGCSqGSIb3DQEJARYUbm9kZTA0NzBA
b2N0YXJpbmUuZGUwgZ8wDQYJKoZIhvcNAQEBBQADgY0AMIGJAoGBALcJs4Sa1YYJ
PEHK96R8eCcTmMxKLOdnywgQcgdaHf+yyn3YPCgdSreeE+KFEavxNgkGRmNNu5AP
1iLYr1op6wSMQstuEVnqRIcM9V2e6vuQW+JUsxou7JTt4F5wEOacMOzwEvMjN5Zr
Nd42U61TNNb5957NBcfzP8ajOYVR8P3bAgMBAAEwDQYJKoZIhvcNAQEEBQADgYEA
gXpx7e1GAJCH4EdWlrlJ8h1RTbe5EzqRaThdGNKxDI6iFhtGZNdKKnDEi22hY3Lz
L+FX5HNKb6oJ6eP/Z/3TbC/n+Zs9d1rypNFi8n+bXM+XyVffOfjtIict1y5EbJGd
TBdZDbmup10X8if9D7zCEEu4IqYS7fjP+Zo1Ys/JEdc=
-----END CERTIFICATE-----
