Certificate:
    Data:
        Version: 1 (0x0)
        Serial Number:
            9b:27:d7:e8:d1:ba:0b:3a
        Signature Algorithm: md5WithRSAEncryption
        Issuer: C=DE, ST=Saarland, O=MPI-SWS, OU=Distributed Systems Group, CN=Andreas Haeberlen/emailAddress=democa@octarine.de
        Validity
            Not Before: Apr 20 20:47:35 2015 GMT
            Not After : Apr 19 20:47:35 2016 GMT
        Subject: C=DE, ST=Saarland, O=MPI-SWS, OU=Distributed Systems Group, CN=c528843a1dc4f5d4121a557daa2ce74bc735b70d/emailAddress=node0866@octarine.de
        Subject Public Key Info:
            Public Key Algorithm: rsaEncryption
            RSA Public Key: (1024 bit)
                Modulus (1024 bit):
                    00:b6:92:a1:26:e7:ca:7b:87:59:fb:fc:f6:b3:a3:
                    27:37:b6:92:aa:5a:c8:be:05:8f:d5:ae:a9:0e:ec:
                    40:18:21:87:7f:84:cc:7a:ae:21:44:72:15:c0:58:
                    66:fc:64:a6:e2:d3:64:a9:d4:c7:0c:fe:38:92:eb:
                    e6:50:ab:7a:8c:3a:4b:ae:95:29:b6:71:d0:a6:92:
                    31:dc:80:af:72:03:aa:80:3b:da:76:60:f6:2e:a2:
                    18:77:c7:db:e0:3c:12:dd:23:13:a0:72:7f:d2:75:
                    19:c4:bb:5d:c7:91:cf:db:82:12:b8:a2:58:6a:bc:
                    4c:36:90:5d:14:25:0b:ff:85
                Exponent: 65537 (0x10001)
    Signature Algorithm: md5WithRSAEncryption
        b0:1b:b3:67:93:09:0b:e4:51:93:0c:c8:96:37:76:c1:0b:44:
        a7:f1:8c:53:54:02:34:c8:d8:67:6f:1f:31:fa:97:0e:3e:90:
        95:9a:0e:9b:71:17:a9:e4:e0:95:59:78:7d:34:79:6b:b5:2d:
        09:f7:e6:fa:4e:70:3b:3c:ed:88:32:d0:66:c2:4c:a6:fc:95:
        4b:85:57:37:f2:20:b2:7e:f3:51:54:27:2f:d5:d0:64:7b:ad:
        0f:c2:74:dc:44:e2:4a:97:70:7a:38:1c:2e:c5:62:29:ae:ac:
        6c:5f:ff:8e:10:7a:61:fe:81:10:93:7e:41:36:83:01:92:3a:
        8c:29
-----BEGIN CERTIFICATE-----
MIICvDCCAiUCCQCbJ9fo0boLOjANBgkqhkiG9w0BAQQFADCBlTELMAkGA1UEBhMC
REUxETAPBgNVBAgTCFNhYXJsYW5kMRAwDgYDVQQKEwdNUEktU1dTMSIwIAYDVQQL
ExlEaXN0cmlidXRlZCBTeXN0ZW1zIEdyb3VwMRowGAYDVQQDExFBbmRyZWFzIEhh
ZWJlcmxlbjEhMB8GCSqGSIb3DQEJARYSZGVtb2NhQG9jdGFyaW5lLmRlMB4XDTE1
MDQyMDIwNDczNVoXDTE2MDQxOTIwNDczNVowga4xCzAJBgNVBAYTAkRFMREwDwYD
VQQIEwhTYWFybGFuZDEQMA4GA1UEChMHTVBJLVNXUzEiMCAGA1UECxMZRGlzdHJp
YnV0ZWQgU3lzdGVtcyBHcm91cDExMC8GA1UEAxMoYzUyODg0M2ExZGM0ZjVkNDEy
MWE1NTdkYWEyY2U3NGJjNzM1YjcwZDEjMCEGCSqGSIb3DQEJARYUbm9kZTA4NjZA
b2N0YXJpbmUuZGUwgZ8wDQYJKoZIhvcNAQEBBQADgY0AMIGJAoGBALaSoSbnynuH
Wfv89rOjJze2kqpayL4Fj9WuqQ7sQBghh3+EzHquIURyFcBYZvxkpuLTZKnUxwz+
OJLr5lCreow6S66VKbZx0KaSMdyAr3IDqoA72nZg9i6iGHfH2+A8Et0jE6Byf9J1
GcS7XceRz9uCEriiWGq8TDaQXRQlC/+FAgMBAAEwDQYJKoZIhvcNAQEEBQADgYEA
sBuzZ5MJC+RRkwzIljd2wQtEp/GMU1QCNMjYZ28fMfqXDj6QlZoOm3EXqeTglVl4
fTR5a7UtCffm+k5wOzztiDLQZsJMpvyVS4VXN/Igsn7zUVQnL9XQZHutD8J03ETi
SpdwejgcLsViKa6sbF//jhB6Yf6BEJN+QTaDAZI6jCk=
-----END CERTIFICATE-----
