Certificate:
    Data:
        Version: 1 (0x0)
        Serial Number:
            9b:27:d7:e8:d1:ba:08:c8
        Signature Algorithm: md5WithRSAEncryption
        Issuer: C=DE, ST=Saarland, O=MPI-SWS, OU=Distributed Systems Group, CN=Andreas Haeberlen/emailAddress=democa@octarine.de
        Validity
            Not Before: Apr 20 20:47:07 2015 GMT
            Not After : Apr 19 20:47:07 2016 GMT
        Subject: C=DE, ST=Saarland, O=MPI-SWS, OU=Distributed Systems Group, CN=d555162f15eba31a016e90272b1853428a8a0ba2/emailAddress=node0240@octarine.de
        Subject Public Key Info:
            Public Key Algorithm: rsaEncryption
            RSA Public Key: (1024 bit)
                Modulus (1024 bit):
                    00:c5:6f:54:97:08:e4:01:89:64:31:68:81:6f:72:
                    1a:59:3e:c3:f9:d9:ab:f4:f5:48:62:f9:20:70:d9:
                    07:b3:9f:52:9e:1d:2a:db:53:0c:ad:02:4e:6a:49:
                    f6:3a:d2:1a:3d:3a:ad:7c:ee:d6:d1:f6:e2:9b:1c:
                    18:81:84:fc:97:c0:1b:23:50:e6:be:a9:51:c4:20:
                    02:cc:03:99:aa:95:b0:97:e9:47:c2:0f:9e:9f:ee:
                    17:f2:07:04:cf:46:3b:34:86:3b:4d:e8:5c:52:8f:
                    ca:7d:59:4c:a3:2c:58:c2:ab:4b:ee:d5:31:2d:3d:
                    c2:65:7c:c1:00:a9:d2:74:d5
                Exponent: 65537 (0x10001)
    Signature Algorithm: md5WithRSAEncryption
        1e:b0:41:6f:09:b8:dd:2f:05:8b:91:dc:27:61:92:a0:65:0e:
        3b:23:01:e0:90:21:63:fc:4b:86:fa:d3:88:b0:c2:7d:b7:fd:
        68:09:da:89:3b:ec:c0:29:1b:68:e7:93:cc:e4:1a:39:38:25:
        08:a2:8e:11:9e:30:ff:a5:32:58:3b:64:bc:a4:7d:0a:34:23:
        51:7f:15:8d:7e:77:a9:2e:e5:7c:e5:88:c0:46:29:fd:3c:a5:
        4f:73:bf:cb:fa:e1:97:4a:3b:b8:3c:d2:99:29:60:9d:c2:1d:
        e5:08:bf:33:bf:24:63:94:f2:e6:aa:ad:31:08:68:f9:e8:6e:
        65:92
-----BEGIN CERTIFICATE-----
MIICvDCCAiUCCQCbJ9fo0boIyDANBgkqhkiG9w0BAQQFADCBlTELMAkGA1UEBhMC
REUxETAPBgNVBAgTCFNhYXJsYW5kMRAwDgYDVQQKEwdNUEktU1dTMSIwIAYDVQQL
ExlEaXN0cmlidXRlZCBTeXN0ZW1zIEdyb3VwMRowGAYDVQQDExFBbmRyZWFzIEhh
ZWJlcmxlbjEhMB8GCSqGSIb3DQEJARYSZGVtb2NhQG9jdGFyaW5lLmRlMB4XDTE1
MDQyMDIwNDcwN1oXDTE2MDQxOTIwNDcwN1owga4xCzAJBgNVBAYTAkRFMREwDwYD
VQQIEwhTYWFybGFuZDEQMA4GA1UEChMHTVBJLVNXUzEiMCAGA1UECxMZRGlzdHJp
YnV0ZWQgU3lzdGVtcyBHcm91cDExMC8GA1UEAxMoZDU1NTE2MmYxNWViYTMxYTAx
NmU5MDI3MmIxODUzNDI4YThhMGJhMjEjMCEGCSqGSIb3DQEJARYUbm9kZTAyNDBA
b2N0YXJpbmUuZGUwgZ8wDQYJKoZIhvcNAQEBBQADgY0AMIGJAoGBAMVvVJcI5AGJ
ZDFogW9yGlk+w/nZq/T1SGL5IHDZB7OfUp4dKttTDK0CTmpJ9jrSGj06rXzu1tH2
4pscGIGE/JfAGyNQ5r6pUcQgAswDmaqVsJfpR8IPnp/uF/IHBM9GOzSGO03oXFKP
yn1ZTKMsWMKrS+7VMS09wmV8wQCp0nTVAgMBAAEwDQYJKoZIhvcNAQEEBQADgYEA
HrBBbwm43S8Fi5HcJ2GSoGUOOyMB4JAhY/xLhvrTiLDCfbf9aAnaiTvswCkbaOeT
zOQaOTglCKKOEZ4w/6UyWDtkvKR9CjQjUX8VjX53qS7lfOWIwEYp/TylT3O/y/rh
l0o7uDzSmSlgncId5Qi/M78kY5Ty5qqtMQho+ehuZZI=
-----END CERTIFICATE-----
