Certificate:
    Data:
        Version: 1 (0x0)
        Serial Number:
            9b:27:d7:e8:d1:ba:07:dc
        Signature Algorithm: md5WithRSAEncryption
        Issuer: C=DE, ST=Saarland, O=MPI-SWS, OU=Distributed Systems Group, CN=Andreas Haeberlen/emailAddress=democa@octarine.de
        Validity
            Not Before: Apr 20 20:46:57 2015 GMT
            Not After : Apr 19 20:46:57 2016 GMT
        Subject: C=DE, ST=Saarland, O=MPI-SWS, OU=Distributed Systems Group, CN=001451e1423629e7f151cb7a5261f4a05b5bd4c2/emailAddress=node0004@octarine.de
        Subject Public Key Info:
            Public Key Algorithm: rsaEncryption
            RSA Public Key: (1024 bit)
                Modulus (1024 bit):
                    00:98:79:82:f3:e4:51:15:93:8b:1b:ef:7c:5f:cb:
                    1b:b4:1a:a6:ee:1c:f1:7e:ed:85:ea:9a:f0:03:fd:
                    8c:96:b5:9e:61:30:68:cd:50:09:12:82:07:f9:1d:
                    b6:14:5b:fa:8c:18:aa:28:5e:6d:ce:c2:a9:b0:d2:
                    c3:b2:de:d5:80:8c:52:99:4a:62:0d:8d:af:0a:29:
                    07:74:e3:8a:2a:64:b4:37:b4:a6:a7:86:25:05:bb:
                    48:a9:4e:54:58:48:98:62:90:07:98:4b:e4:01:6e:
                    91:86:c0:6a:bf:3e:14:38:ad:ce:3b:fa:54:a8:5e:
                    aa:af:59:07:57:04:81:4d:3b
                Exponent: 65537 (0x10001)
    Signature Algorithm: md5WithRSAEncryption
        70:8e:a0:da:03:47:7e:89:10:c3:fc:1a:5c:d9:37:27:b1:db:
        bc:5d:5e:29:19:24:04:1e:ca:6d:09:4c:9b:15:2e:2a:1f:8d:
        25:19:61:31:06:d8:34:df:b4:12:9a:96:cc:67:d3:60:9d:ab:
        f9:43:70:61:6f:39:ef:5b:0a:d7:9e:cc:8f:c2:f2:3e:92:ee:
        75:00:43:74:92:38:93:16:a1:bb:e1:81:8e:72:6b:7e:53:fd:
        06:eb:32:f2:c9:b7:b2:5a:14:55:ba:82:5d:74:7a:4a:77:08:
        e0:0e:ff:4c:9f:27:67:1b:8f:aa:8f:81:37:d6:ce:16:72:e6:
        75:f4
-----BEGIN CERTIFICATE-----
MIICvDCCAiUCCQCbJ9fo0boH3DANBgkqhkiG9w0BAQQFADCBlTELMAkGA1UEBhMC
REUxETAPBgNVBAgTCFNhYXJsYW5kMRAwDgYDVQQKEwdNUEktU1dTMSIwIAYDVQQL
ExlEaXN0cmlidXRlZCBTeXN0ZW1zIEdyb3VwMRowGAYDVQQDExFBbmRyZWFzIEhh
ZWJlcmxlbjEhMB8GCSqGSIb3DQEJARYSZGVtb2NhQG9jdGFyaW5lLmRlMB4XDTE1
MDQyMDIwNDY1N1oXDTE2MDQxOTIwNDY1N1owga4xCzAJBgNVBAYTAkRFMREwDwYD
VQQIEwhTYWFybGFuZDEQMA4GA1UEChMHTVBJLVNXUzEiMCAGA1UECxMZRGlzdHJp
YnV0ZWQgU3lzdGVtcyBHcm91cDExMC8GA1UEAxMoMDAxNDUxZTE0MjM2MjllN2Yx
NTFjYjdhNTI2MWY0YTA1YjViZDRjMjEjMCEGCSqGSIb3DQEJARYUbm9kZTAwMDRA
b2N0YXJpbmUuZGUwgZ8wDQYJKoZIhvcNAQEBBQADgY0AMIGJAoGBAJh5gvPkURWT
ixvvfF/LG7Qapu4c8X7theqa8AP9jJa1nmEwaM1QCRKCB/kdthRb+owYqihebc7C
qbDSw7Le1YCMUplKYg2NrwopB3TjiipktDe0pqeGJQW7SKlOVFhImGKQB5hL5AFu
kYbAar8+FDitzjv6VKheqq9ZB1cEgU07AgMBAAEwDQYJKoZIhvcNAQEEBQADgYEA
cI6g2gNHfokQw/waXNk3J7HbvF1eKRkkBB7KbQlMmxUuKh+NJRlhMQbYNN+0EpqW
zGfTYJ2r+UNwYW8571sK157Mj8LyPpLudQBDdJI4kxahu+GBjnJrflP9Busy8sm3
sloUVbqCXXR6SncI4A7/TJ8nZxuPqo+BN9bOFnLmdfQ=
-----END CERTIFICATE-----
