Certificate:
    Data:
        Version: 1 (0x0)
        Serial Number:
            9b:27:d7:e8:d1:ba:0a:c7
        Signature Algorithm: md5WithRSAEncryption
        Issuer: C=DE, ST=Saarland, O=MPI-SWS, OU=Distributed Systems Group, CN=Andreas Haeberlen/emailAddress=democa@octarine.de
        Validity
            Not Before: Apr 20 20:47:30 2015 GMT
            Not After : Apr 19 20:47:30 2016 GMT
        Subject: C=DE, ST=Saarland, O=MPI-SWS, OU=Distributed Systems Group, CN=0e3e2d00259987af61313b0140942cd2b01dd1e0/emailAddress=node0751@octarine.de
        Subject Public Key Info:
            Public Key Algorithm: rsaEncryption
            RSA Public Key: (1024 bit)
                Modulus (1024 bit):
                    00:aa:31:15:25:68:2e:ac:dd:a6:3d:a1:1b:f8:39:
                    de:19:be:f5:62:1f:46:d7:16:45:e2:65:0f:bc:4f:
                    36:8e:79:89:fa:39:68:92:8b:b2:46:25:04:16:cc:
                    dc:69:9c:d5:eb:46:03:75:8b:7f:11:10:96:ed:35:
                    b1:54:18:79:f9:ef:7c:e6:99:36:f9:bd:73:f7:0a:
                    55:37:4b:24:9e:ea:97:33:d4:f2:8b:c6:09:dd:c2:
                    42:7c:31:02:2c:07:67:3d:a1:65:10:e5:7a:0c:9d:
                    54:72:cb:b7:07:5e:70:1e:ca:89:28:0b:da:d2:4d:
                    9b:7e:f2:ee:63:63:68:b4:69
                Exponent: 65537 (0x10001)
    Signature Algorithm: md5WithRSAEncryption
        1a:28:8d:20:23:08:70:06:10:03:24:c4:81:6d:10:92:de:e1:
        d4:32:a1:31:1b:68:b3:59:dc:2b:05:07:4b:ff:ac:bb:41:fb:
        3f:b7:04:04:f2:f2:5c:93:76:66:7a:61:ed:59:2a:58:29:fa:
        09:aa:59:00:00:14:7c:9e:fa:14:98:fb:75:6d:c4:58:50:5a:
        ca:a7:d5:ad:75:a0:c4:3b:0d:1a:26:97:39:5c:e4:fc:bc:67:
        42:9d:0e:ee:b2:26:20:a5:e2:7a:5a:ca:72:4e:7b:55:c9:27:
        1e:c8:7b:bd:1e:dc:3f:02:e8:1e:10:59:4f:bc:8f:60:0d:42:
        87:1b
-----BEGIN CERTIFICATE-----
MIICvDCCAiUCCQCbJ9fo0boKxzANBgkqhkiG9w0BAQQFADCBlTELMAkGA1UEBhMC
REUxETAPBgNVBAgTCFNhYXJsYW5kMRAwDgYDVQQKEwdNUEktU1dTMSIwIAYDVQQL
ExlEaXN0cmlidXRlZCBTeXN0ZW1zIEdyb3VwMRowGAYDVQQDExFBbmRyZWFzIEhh
ZWJlcmxlbjEhMB8GCSqGSIb3DQEJARYSZGVtb2NhQG9jdGFyaW5lLmRlMB4XDTE1
MDQyMDIwNDczMFoXDTE2MDQxOTIwNDczMFowga4xCzAJBgNVBAYTAkRFMREwDwYD
VQQIEwhTYWFybGFuZDEQMA4GA1UEChMHTVBJLVNXUzEiMCAGA1UECxMZRGlzdHJp
YnV0ZWQgU3lzdGVtcyBHcm91cDExMC8GA1UEAxMoMGUzZTJkMDAyNTk5ODdhZjYx
MzEzYjAxNDA5NDJjZDJiMDFkZDFlMDEjMCEGCSqGSIb3DQEJARYUbm9kZTA3NTFA
b2N0YXJpbmUuZGUwgZ8wDQYJKoZIhvcNAQEBBQADgY0AMIGJAoGBAKoxFSVoLqzd
pj2hG/g53hm+9WIfRtcWReJlD7xPNo55ifo5aJKLskYlBBbM3Gmc1etGA3WLfxEQ
lu01sVQYefnvfOaZNvm9c/cKVTdLJJ7qlzPU8ovGCd3CQnwxAiwHZz2hZRDlegyd
VHLLtwdecB7KiSgL2tJNm37y7mNjaLRpAgMBAAEwDQYJKoZIhvcNAQEEBQADgYEA
GiiNICMIcAYQAyTEgW0Qkt7h1DKhMRtos1ncKwUHS/+su0H7P7cEBPLyXJN2Znph
7VkqWCn6CapZAAAUfJ76FJj7dW3EWFBayqfVrXWgxDsNGiaXOVzk/LxnQp0O7rIm
IKXielrKck57VcknHsh7vR7cPwLoHhBZT7yPYA1Chxs=
-----END CERTIFICATE-----
