Certificate:
    Data:
        Version: 1 (0x0)
        Serial Number:
            9b:27:d7:e8:d1:ba:0b:35
        Signature Algorithm: md5WithRSAEncryption
        Issuer: C=DE, ST=Saarland, O=MPI-SWS, OU=Distributed Systems Group, CN=Andreas Haeberlen/emailAddress=democa@octarine.de
        Validity
            Not Before: Apr 20 20:47:35 2015 GMT
            Not After : Apr 19 20:47:35 2016 GMT
        Subject: C=DE, ST=Saarland, O=MPI-SWS, OU=Distributed Systems Group, CN=565c2b50c8838e5a9592dee8fd0cd423b8fd44e0/emailAddress=node0861@octarine.de
        Subject Public Key Info:
            Public Key Algorithm: rsaEncryption
            RSA Public Key: (1024 bit)
                Modulus (1024 bit):
                    00:c3:f3:d4:87:0e:ef:49:08:64:d4:e4:21:e8:66:
                    1d:5d:bf:3e:20:b3:bf:35:c5:42:f8:ba:a1:a2:55:
                    72:09:28:9c:b9:8d:9c:e3:86:87:08:6f:06:19:c6:
                    bb:e3:93:d0:82:bd:30:61:a3:49:20:83:88:c3:fe:
                    90:76:3e:1e:87:79:56:12:0d:9f:ba:c3:32:4e:9b:
                    91:3c:a1:fc:b1:be:0b:85:05:ff:30:2c:86:e2:c1:
                    2c:17:ad:35:2c:2c:00:62:de:6e:70:9c:91:93:c6:
                    fc:23:ba:52:dc:15:ca:a3:81:f9:c9:5d:82:45:5f:
                    b3:8b:78:a0:9a:7b:0a:18:ed
                Exponent: 65537 (0x10001)
    Signature Algorithm: md5WithRSAEncryption
        19:12:a5:ad:80:73:11:06:ee:68:b9:15:9d:55:d6:8f:3c:78:
        5c:66:e1:e1:4f:9a:ae:f1:96:c8:d8:31:fd:6e:9d:94:8e:80:
        96:f7:6f:53:26:d4:39:16:d6:bb:98:49:51:77:5c:35:b9:77:
        b5:61:8c:16:f3:3e:48:ca:cc:7a:06:99:50:2f:88:65:84:78:
        23:e3:31:69:d0:15:8b:f9:72:74:ef:80:3d:ef:e3:98:de:70:
        bc:1c:c9:fd:28:55:47:28:db:c9:bb:a7:4d:c1:9d:ff:3a:2d:
        b0:ec:49:9f:3c:57:31:a8:5a:aa:cb:f0:ae:68:28:f6:e9:a6:
        05:fe
-----BEGIN CERTIFICATE-----
MIICvDCCAiUCCQCbJ9fo0boLNTANBgkqhkiG9w0BAQQFADCBlTELMAkGA1UEBhMC
REUxETAPBgNVBAgTCFNhYXJsYW5kMRAwDgYDVQQKEwdNUEktU1dTMSIwIAYDVQQL
ExlEaXN0cmlidXRlZCBTeXN0ZW1zIEdyb3VwMRowGAYDVQQDExFBbmRyZWFzIEhh
ZWJlcmxlbjEhMB8GCSqGSIb3DQEJARYSZGVtb2NhQG9jdGFyaW5lLmRlMB4XDTE1
MDQyMDIwNDczNVoXDTE2MDQxOTIwNDczNVowga4xCzAJBgNVBAYTAkRFMREwDwYD
VQQIEwhTYWFybGFuZDEQMA4GA1UEChMHTVBJLVNXUzEiMCAGA1UECxMZRGlzdHJp
YnV0ZWQgU3lzdGVtcyBHcm91cDExMC8GA1UEAxMoNTY1YzJiNTBjODgzOGU1YTk1
OTJkZWU4ZmQwY2Q0MjNiOGZkNDRlMDEjMCEGCSqGSIb3DQEJARYUbm9kZTA4NjFA
b2N0YXJpbmUuZGUwgZ8wDQYJKoZIhvcNAQEBBQADgY0AMIGJAoGBAMPz1IcO70kI
ZNTkIehmHV2/PiCzvzXFQvi6oaJVcgkonLmNnOOGhwhvBhnGu+OT0IK9MGGjSSCD
iMP+kHY+Hod5VhINn7rDMk6bkTyh/LG+C4UF/zAshuLBLBetNSwsAGLebnCckZPG
/CO6UtwVyqOB+cldgkVfs4t4oJp7ChjtAgMBAAEwDQYJKoZIhvcNAQEEBQADgYEA
GRKlrYBzEQbuaLkVnVXWjzx4XGbh4U+arvGWyNgx/W6dlI6AlvdvUybUORbWu5hJ
UXdcNbl3tWGMFvM+SMrMegaZUC+IZYR4I+MxadAVi/lydO+APe/jmN5wvBzJ/ShV
RyjbybunTcGd/zotsOxJnzxXMahaqsvwrmgo9ummBf4=
-----END CERTIFICATE-----
