Certificate:
    Data:
        Version: 1 (0x0)
        Serial Number:
            9b:27:d7:e8:d1:ba:0a:d5
        Signature Algorithm: md5WithRSAEncryption
        Issuer: C=DE, ST=Saarland, O=MPI-SWS, OU=Distributed Systems Group, CN=Andreas Haeberlen/emailAddress=democa@octarine.de
        Validity
            Not Before: Apr 20 20:47:31 2015 GMT
            Not After : Apr 19 20:47:31 2016 GMT
        Subject: C=DE, ST=Saarland, O=MPI-SWS, OU=Distributed Systems Group, CN=b2f6fe7325d1b2b6d44835fd999d716246934067/emailAddress=node0765@octarine.de
        Subject Public Key Info:
            Public Key Algorithm: rsaEncryption
            RSA Public Key: (1024 bit)
                Modulus (1024 bit):
                    00:fc:01:02:c9:9c:cc:23:8e:d6:f5:b3:dc:a6:d2:
                    41:70:16:71:51:93:12:ab:65:18:b6:a8:4a:39:4c:
                    fd:70:0e:fb:52:28:13:b1:b7:4a:08:0d:98:90:c5:
                    22:52:e3:24:44:a5:d8:cf:2c:e6:55:44:8e:c6:ad:
                    1a:a3:2a:25:82:6f:08:ca:8f:d8:57:f1:e8:73:f8:
                    70:d8:14:d8:53:e3:ee:15:3e:5c:f3:a4:da:6f:55:
                    b2:a2:49:37:6b:af:e2:3b:a7:29:a2:87:7f:ee:8c:
                    55:0f:12:e9:7f:1b:8c:c2:a8:4d:9d:f9:15:a9:98:
                    cd:91:d4:ca:d2:ff:37:1e:d9
                Exponent: 65537 (0x10001)
    Signature Algorithm: md5WithRSAEncryption
        32:91:88:5e:f7:a8:06:af:40:c7:f8:26:ad:fa:75:36:c0:b3:
        51:1b:80:34:b0:c4:ba:58:2a:49:7f:e7:a6:09:fe:c7:f7:e5:
        cd:3c:b8:92:ce:80:41:15:7f:6d:10:39:6c:3d:4a:06:61:fc:
        db:ef:e2:17:5f:91:42:99:ff:9c:98:b3:18:f9:46:46:0d:f5:
        9c:ea:99:87:c3:02:52:21:d3:a3:44:7d:ea:1e:52:4d:14:2b:
        30:e8:99:7c:31:15:e8:3b:85:c5:7b:9f:bc:01:dc:e4:92:8b:
        bd:d1:61:50:72:00:b7:25:be:d1:69:74:24:99:40:e0:6c:42:
        7d:8f
-----BEGIN CERTIFICATE-----
MIICvDCCAiUCCQCbJ9fo0boK1TANBgkqhkiG9w0BAQQFADCBlTELMAkGA1UEBhMC
REUxETAPBgNVBAgTCFNhYXJsYW5kMRAwDgYDVQQKEwdNUEktU1dTMSIwIAYDVQQL
ExlEaXN0cmlidXRlZCBTeXN0ZW1zIEdyb3VwMRowGAYDVQQDExFBbmRyZWFzIEhh
ZWJlcmxlbjEhMB8GCSqGSIb3DQEJARYSZGVtb2NhQG9jdGFyaW5lLmRlMB4XDTE1
MDQyMDIwNDczMVoXDTE2MDQxOTIwNDczMVowga4xCzAJBgNVBAYTAkRFMREwDwYD
VQQIEwhTYWFybGFuZDEQMA4GA1UEChMHTVBJLVNXUzEiMCAGA1UECxMZRGlzdHJp
YnV0ZWQgU3lzdGVtcyBHcm91cDExMC8GA1UEAxMoYjJmNmZlNzMyNWQxYjJiNmQ0
NDgzNWZkOTk5ZDcxNjI0NjkzNDA2NzEjMCEGCSqGSIb3DQEJARYUbm9kZTA3NjVA
b2N0YXJpbmUuZGUwgZ8wDQYJKoZIhvcNAQEBBQADgY0AMIGJAoGBAPwBAsmczCOO
1vWz3KbSQXAWcVGTEqtlGLaoSjlM/XAO+1IoE7G3SggNmJDFIlLjJESl2M8s5lVE
jsatGqMqJYJvCMqP2Ffx6HP4cNgU2FPj7hU+XPOk2m9VsqJJN2uv4junKaKHf+6M
VQ8S6X8bjMKoTZ35FamYzZHUytL/Nx7ZAgMBAAEwDQYJKoZIhvcNAQEEBQADgYEA
MpGIXveoBq9Ax/gmrfp1NsCzURuANLDEulgqSX/npgn+x/flzTy4ks6AQRV/bRA5
bD1KBmH82+/iF1+RQpn/nJizGPlGRg31nOqZh8MCUiHTo0R96h5STRQrMOiZfDEV
6DuFxXufvAHc5JKLvdFhUHIAtyW+0Wl0JJlA4GxCfY8=
-----END CERTIFICATE-----
