Certificate:
    Data:
        Version: 1 (0x0)
        Serial Number:
            9b:27:d7:e8:d1:ba:0b:53
        Signature Algorithm: md5WithRSAEncryption
        Issuer: C=DE, ST=Saarland, O=MPI-SWS, OU=Distributed Systems Group, CN=Andreas Haeberlen/emailAddress=democa@octarine.de
        Validity
            Not Before: Apr 20 20:47:36 2015 GMT
            Not After : Apr 19 20:47:36 2016 GMT
        Subject: C=DE, ST=Saarland, O=MPI-SWS, OU=Distributed Systems Group, CN=b3e77e25e987ffb9f7d2728755cd8f5323aa1cf0/emailAddress=node0891@octarine.de
        Subject Public Key Info:
            Public Key Algorithm: rsaEncryption
            RSA Public Key: (1024 bit)
                Modulus (1024 bit):
                    00:b8:40:f9:b3:24:ba:dc:20:c0:3f:51:31:f8:69:
                    47:4c:4a:6f:ff:13:32:86:b9:c9:9b:fd:7d:99:d7:
                    67:f2:79:21:5e:5f:2c:1e:1f:80:da:ef:c6:85:58:
                    52:5b:76:64:ae:2f:34:15:e5:6b:5e:c9:1e:94:0e:
                    f3:b3:99:dd:7e:51:cd:88:b0:36:b9:e6:1c:ff:e0:
                    d3:58:b2:ae:4b:0b:47:b5:bb:a3:65:83:84:7d:85:
                    77:f3:e2:09:6d:33:5e:19:d9:d3:e3:39:9b:08:c0:
                    b8:67:b6:82:6d:41:b8:5e:99:83:8e:74:8d:6b:a2:
                    61:ed:10:ff:0e:83:b6:d5:67
                Exponent: 65537 (0x10001)
    Signature Algorithm: md5WithRSAEncryption
        21:87:cb:b5:fc:7c:a0:fe:80:1c:ab:f8:19:c7:32:67:f9:75:
        7e:ea:dd:8a:1b:4f:b1:57:38:5c:80:67:11:47:a4:f9:4d:dc:
        43:2d:c8:61:8a:e9:a9:00:84:2b:ce:8c:fb:54:78:e2:52:96:
        b3:da:50:a4:81:25:4e:f8:ef:f4:e7:f2:2f:6e:2b:3b:7d:d2:
        96:9a:0c:50:87:57:b1:c3:66:2d:0b:77:b4:14:ee:42:ea:96:
        a0:7b:19:bf:0f:32:2e:d9:c2:44:04:3a:89:ff:7a:b1:14:21:
        4a:c2:c1:df:c5:de:94:fd:47:0e:f0:00:7f:d1:0e:e3:7d:e0:
        7d:e3
-----BEGIN CERTIFICATE-----
MIICvDCCAiUCCQCbJ9fo0boLUzANBgkqhkiG9w0BAQQFADCBlTELMAkGA1UEBhMC
REUxETAPBgNVBAgTCFNhYXJsYW5kMRAwDgYDVQQKEwdNUEktU1dTMSIwIAYDVQQL
ExlEaXN0cmlidXRlZCBTeXN0ZW1zIEdyb3VwMRowGAYDVQQDExFBbmRyZWFzIEhh
ZWJlcmxlbjEhMB8GCSqGSIb3DQEJARYSZGVtb2NhQG9jdGFyaW5lLmRlMB4XDTE1
MDQyMDIwNDczNloXDTE2MDQxOTIwNDczNlowga4xCzAJBgNVBAYTAkRFMREwDwYD
VQQIEwhTYWFybGFuZDEQMA4GA1UEChMHTVBJLVNXUzEiMCAGA1UECxMZRGlzdHJp
YnV0ZWQgU3lzdGVtcyBHcm91cDExMC8GA1UEAxMoYjNlNzdlMjVlOTg3ZmZiOWY3
ZDI3Mjg3NTVjZDhmNTMyM2FhMWNmMDEjMCEGCSqGSIb3DQEJARYUbm9kZTA4OTFA
b2N0YXJpbmUuZGUwgZ8wDQYJKoZIhvcNAQEBBQADgY0AMIGJAoGBALhA+bMkutwg
wD9RMfhpR0xKb/8TMoa5yZv9fZnXZ/J5IV5fLB4fgNrvxoVYUlt2ZK4vNBXla17J
HpQO87OZ3X5RzYiwNrnmHP/g01iyrksLR7W7o2WDhH2Fd/PiCW0zXhnZ0+M5mwjA
uGe2gm1BuF6Zg450jWuiYe0Q/w6DttVnAgMBAAEwDQYJKoZIhvcNAQEEBQADgYEA
IYfLtfx8oP6AHKv4GccyZ/l1furdihtPsVc4XIBnEUek+U3cQy3IYYrpqQCEK86M
+1R44lKWs9pQpIElTvjv9OfyL24rO33SlpoMUIdXscNmLQt3tBTuQuqWoHsZvw8y
LtnCRAQ6if96sRQhSsLB38XelP1HDvAAf9EO433gfeM=
-----END CERTIFICATE-----
