Certificate:
    Data:
        Version: 1 (0x0)
        Serial Number:
            9b:27:d7:e8:d1:ba:09:ca
        Signature Algorithm: md5WithRSAEncryption
        Issuer: C=DE, ST=Saarland, O=MPI-SWS, OU=Distributed Systems Group, CN=Andreas Haeberlen/emailAddress=democa@octarine.de
        Validity
            Not Before: Apr 20 20:47:18 2015 GMT
            Not After : Apr 19 20:47:18 2016 GMT
        Subject: C=DE, ST=Saarland, O=MPI-SWS, OU=Distributed Systems Group, CN=c6b23cc6a48ae97b6edea1d299dff1bb87dc393d/emailAddress=node0498@octarine.de
        Subject Public Key Info:
            Public Key Algorithm: rsaEncryption
            RSA Public Key: (1024 bit)
                Modulus (1024 bit):
                    00:ad:2f:85:ba:57:b4:9d:6d:e8:87:75:aa:a4:ba:
                    3b:d2:bd:90:08:b9:21:ce:4a:9f:f5:f1:27:1d:cd:
                    3a:5b:f5:63:a3:0d:b8:af:45:6c:58:1d:e1:a2:f0:
                    f1:f3:e1:59:d3:9b:88:12:3f:85:bd:0b:38:75:42:
                    73:fa:07:f3:f0:df:52:b9:50:bd:5a:3a:c8:96:42:
                    16:e6:73:0d:5f:6d:f1:2e:ea:67:d9:c2:38:5a:83:
                    2e:a4:f9:7c:15:2d:ec:a3:4d:55:5d:50:4f:99:7d:
                    04:de:0e:50:03:7a:7f:3b:b7:15:01:89:ae:f5:6d:
                    09:02:e1:f3:ad:9f:22:4b:e5
                Exponent: 65537 (0x10001)
    Signature Algorithm: md5WithRSAEncryption
        38:4f:33:6b:b9:4b:d3:5c:6c:f5:46:91:ef:1e:0f:e6:90:1c:
        df:52:3b:d6:c0:54:ec:cd:4c:cf:0b:7f:b0:92:c7:35:3b:2b:
        59:2e:52:8b:64:82:a0:8d:4e:5a:2a:d6:0f:10:c4:04:2c:5e:
        f5:8c:83:89:77:97:ee:c7:ee:02:46:e7:83:ed:32:f4:19:b0:
        52:c6:e8:1b:8b:0b:e5:49:47:5f:c6:3d:e0:51:59:fb:af:8b:
        3a:db:d3:70:ab:9c:b1:7e:7f:de:90:b8:f4:01:25:89:56:3d:
        a0:71:18:d9:f8:09:2c:3f:7f:a7:b4:d4:66:0a:17:15:01:77:
        ae:4d
-----BEGIN CERTIFICATE-----
MIICvDCCAiUCCQCbJ9fo0boJyjANBgkqhkiG9w0BAQQFADCBlTELMAkGA1UEBhMC
REUxETAPBgNVBAgTCFNhYXJsYW5kMRAwDgYDVQQKEwdNUEktU1dTMSIwIAYDVQQL
ExlEaXN0cmlidXRlZCBTeXN0ZW1zIEdyb3VwMRowGAYDVQQDExFBbmRyZWFzIEhh
ZWJlcmxlbjEhMB8GCSqGSIb3DQEJARYSZGVtb2NhQG9jdGFyaW5lLmRlMB4XDTE1
MDQyMDIwNDcxOFoXDTE2MDQxOTIwNDcxOFowga4xCzAJBgNVBAYTAkRFMREwDwYD
VQQIEwhTYWFybGFuZDEQMA4GA1UEChMHTVBJLVNXUzEiMCAGA1UECxMZRGlzdHJp
YnV0ZWQgU3lzdGVtcyBHcm91cDExMC8GA1UEAxMoYzZiMjNjYzZhNDhhZTk3YjZl
ZGVhMWQyOTlkZmYxYmI4N2RjMzkzZDEjMCEGCSqGSIb3DQEJARYUbm9kZTA0OThA
b2N0YXJpbmUuZGUwgZ8wDQYJKoZIhvcNAQEBBQADgY0AMIGJAoGBAK0vhbpXtJ1t
6Id1qqS6O9K9kAi5Ic5Kn/XxJx3NOlv1Y6MNuK9FbFgd4aLw8fPhWdObiBI/hb0L
OHVCc/oH8/DfUrlQvVo6yJZCFuZzDV9t8S7qZ9nCOFqDLqT5fBUt7KNNVV1QT5l9
BN4OUAN6fzu3FQGJrvVtCQLh862fIkvlAgMBAAEwDQYJKoZIhvcNAQEEBQADgYEA
OE8za7lL01xs9UaR7x4P5pAc31I71sBU7M1Mzwt/sJLHNTsrWS5Si2SCoI1OWirW
DxDEBCxe9YyDiXeX7sfuAkbng+0y9BmwUsboG4sL5UlHX8Y94FFZ+6+LOtvTcKuc
sX5/3pC49AEliVY9oHEY2fgJLD9/p7TUZgoXFQF3rk0=
-----END CERTIFICATE-----
