Certificate:
    Data:
        Version: 1 (0x0)
        Serial Number:
            9b:27:d7:e8:d1:ba:0b:44
        Signature Algorithm: md5WithRSAEncryption
        Issuer: C=DE, ST=Saarland, O=MPI-SWS, OU=Distributed Systems Group, CN=Andreas Haeberlen/emailAddress=democa@octarine.de
        Validity
            Not Before: Apr 20 20:47:36 2015 GMT
            Not After : Apr 19 20:47:36 2016 GMT
        Subject: C=DE, ST=Saarland, O=MPI-SWS, OU=Distributed Systems Group, CN=1d8d22b4a6815147c53a78c6fb88ed90a2dc490f/emailAddress=node0876@octarine.de
        Subject Public Key Info:
            Public Key Algorithm: rsaEncryption
            RSA Public Key: (1024 bit)
                Modulus (1024 bit):
                    00:ba:b6:4c:d8:82:e2:bc:bb:9c:38:97:1e:b4:da:
                    c8:0c:f2:12:b1:86:64:c5:27:9d:30:88:7b:49:f6:
                    6f:20:40:e2:7b:a8:fd:83:16:18:93:8f:2d:ab:ec:
                    6d:6b:47:b6:0e:b4:73:cd:1e:1e:1b:d2:ec:1a:91:
                    db:4f:45:85:1b:62:ea:41:80:ea:c7:ed:f6:82:4a:
                    9c:86:0c:b6:48:1f:ac:fe:84:02:ad:25:6e:16:01:
                    ad:3a:02:8d:bc:f4:87:75:6b:99:f8:40:ce:ce:aa:
                    ae:09:3b:3f:c8:0b:2b:85:1c:7b:e6:5f:31:35:1c:
                    46:57:c9:1e:6e:f6:73:f3:2f
                Exponent: 65537 (0x10001)
    Signature Algorithm: md5WithRSAEncryption
        2c:6e:81:f9:a4:4f:d2:c8:c4:c5:6b:1b:64:84:c2:39:76:aa:
        97:8d:bc:ce:3b:67:f5:db:3d:4c:60:90:0f:52:67:c1:4d:b5:
        fe:54:93:a5:4e:31:4f:bc:42:1e:64:68:e2:38:fe:2d:c4:5e:
        06:7a:0c:0f:31:dc:4c:35:0f:bb:e7:59:6d:59:01:22:62:5e:
        50:45:88:01:70:a9:b2:4f:2e:4d:af:8a:e5:b7:07:ef:2d:ef:
        a6:a6:fe:7e:3b:6e:d9:20:03:26:9a:41:a0:ce:d3:50:a2:a4:
        5f:60:1f:4b:96:4d:eb:9e:35:f0:e9:35:1a:f3:f8:56:44:8c:
        26:8e
-----BEGIN CERTIFICATE-----
MIICvDCCAiUCCQCbJ9fo0boLRDANBgkqhkiG9w0BAQQFADCBlTELMAkGA1UEBhMC
REUxETAPBgNVBAgTCFNhYXJsYW5kMRAwDgYDVQQKEwdNUEktU1dTMSIwIAYDVQQL
ExlEaXN0cmlidXRlZCBTeXN0ZW1zIEdyb3VwMRowGAYDVQQDExFBbmRyZWFzIEhh
ZWJlcmxlbjEhMB8GCSqGSIb3DQEJARYSZGVtb2NhQG9jdGFyaW5lLmRlMB4XDTE1
MDQyMDIwNDczNloXDTE2MDQxOTIwNDczNlowga4xCzAJBgNVBAYTAkRFMREwDwYD
VQQIEwhTYWFybGFuZDEQMA4GA1UEChMHTVBJLVNXUzEiMCAGA1UECxMZRGlzdHJp
YnV0ZWQgU3lzdGVtcyBHcm91cDExMC8GA1UEAxMoMWQ4ZDIyYjRhNjgxNTE0N2M1
M2E3OGM2ZmI4OGVkOTBhMmRjNDkwZjEjMCEGCSqGSIb3DQEJARYUbm9kZTA4NzZA
b2N0YXJpbmUuZGUwgZ8wDQYJKoZIhvcNAQEBBQADgY0AMIGJAoGBALq2TNiC4ry7
nDiXHrTayAzyErGGZMUnnTCIe0n2byBA4nuo/YMWGJOPLavsbWtHtg60c80eHhvS
7BqR209FhRti6kGA6sft9oJKnIYMtkgfrP6EAq0lbhYBrToCjbz0h3VrmfhAzs6q
rgk7P8gLK4Uce+ZfMTUcRlfJHm72c/MvAgMBAAEwDQYJKoZIhvcNAQEEBQADgYEA
LG6B+aRP0sjExWsbZITCOXaql428zjtn9ds9TGCQD1JnwU21/lSTpU4xT7xCHmRo
4jj+LcReBnoMDzHcTDUPu+dZbVkBImJeUEWIAXCpsk8uTa+K5bcH7y3vpqb+fjtu
2SADJppBoM7TUKKkX2AfS5ZN65418Ok1GvP4VkSMJo4=
-----END CERTIFICATE-----
