Certificate:
    Data:
        Version: 1 (0x0)
        Serial Number:
            9b:27:d7:e8:d1:ba:0b:33
        Signature Algorithm: md5WithRSAEncryption
        Issuer: C=DE, ST=Saarland, O=MPI-SWS, OU=Distributed Systems Group, CN=Andreas Haeberlen/emailAddress=democa@octarine.de
        Validity
            Not Before: Apr 20 20:47:35 2015 GMT
            Not After : Apr 19 20:47:35 2016 GMT
        Subject: C=DE, ST=Saarland, O=MPI-SWS, OU=Distributed Systems Group, CN=43673999a3a40a1dfc556f9532a996cda25ece86/emailAddress=node0859@octarine.de
        Subject Public Key Info:
            Public Key Algorithm: rsaEncryption
            RSA Public Key: (1024 bit)
                Modulus (1024 bit):
                    00:ac:dd:e2:72:25:17:da:01:40:56:26:e1:bb:54:
                    6a:f6:b2:a5:1e:73:5f:6a:a8:a8:ae:b6:e0:38:5a:
                    92:7a:11:28:85:99:68:eb:bb:73:67:73:4c:ff:25:
                    e6:a1:f7:7b:a5:94:eb:c9:3f:54:78:3b:45:12:6d:
                    3b:8f:57:97:3e:d5:c4:3b:3b:80:ac:35:dc:71:f8:
                    df:8e:64:82:7d:60:ef:51:3f:ca:9d:52:50:20:19:
                    87:9a:be:eb:73:d5:9d:29:a1:96:19:56:65:e7:e5:
                    ed:ff:a3:8c:06:11:ce:96:76:ea:56:bd:6e:29:f4:
                    05:d2:61:47:d9:9b:77:8a:bd
                Exponent: 65537 (0x10001)
    Signature Algorithm: md5WithRSAEncryption
        81:86:37:b3:a0:bb:61:9b:b8:f7:38:0d:55:dc:dc:2a:84:45:
        cc:bd:8d:d1:38:4d:1d:7e:64:e0:b2:eb:00:95:27:22:57:49:
        2e:7f:76:3c:56:f9:d8:b9:bb:37:a1:d5:bd:c1:0d:d5:b9:01:
        c5:36:65:1e:90:9e:c7:4a:71:5f:b5:f9:1a:45:d2:ae:19:8d:
        d8:a9:dc:98:a8:0a:47:01:6e:d6:22:db:d0:9e:21:8d:55:50:
        7f:b8:70:35:54:67:66:3f:3b:55:39:a3:54:9f:44:4d:b3:b4:
        21:8d:5f:71:b4:a0:2d:56:a0:a9:7c:06:39:40:62:80:43:d3:
        22:d0
-----BEGIN CERTIFICATE-----
MIICvDCCAiUCCQCbJ9fo0boLMzANBgkqhkiG9w0BAQQFADCBlTELMAkGA1UEBhMC
REUxETAPBgNVBAgTCFNhYXJsYW5kMRAwDgYDVQQKEwdNUEktU1dTMSIwIAYDVQQL
ExlEaXN0cmlidXRlZCBTeXN0ZW1zIEdyb3VwMRowGAYDVQQDExFBbmRyZWFzIEhh
ZWJlcmxlbjEhMB8GCSqGSIb3DQEJARYSZGVtb2NhQG9jdGFyaW5lLmRlMB4XDTE1
MDQyMDIwNDczNVoXDTE2MDQxOTIwNDczNVowga4xCzAJBgNVBAYTAkRFMREwDwYD
VQQIEwhTYWFybGFuZDEQMA4GA1UEChMHTVBJLVNXUzEiMCAGA1UECxMZRGlzdHJp
YnV0ZWQgU3lzdGVtcyBHcm91cDExMC8GA1UEAxMoNDM2NzM5OTlhM2E0MGExZGZj
NTU2Zjk1MzJhOTk2Y2RhMjVlY2U4NjEjMCEGCSqGSIb3DQEJARYUbm9kZTA4NTlA
b2N0YXJpbmUuZGUwgZ8wDQYJKoZIhvcNAQEBBQADgY0AMIGJAoGBAKzd4nIlF9oB
QFYm4btUavaypR5zX2qoqK624DhaknoRKIWZaOu7c2dzTP8l5qH3e6WU68k/VHg7
RRJtO49Xlz7VxDs7gKw13HH4345kgn1g71E/yp1SUCAZh5q+63PVnSmhlhlWZefl
7f+jjAYRzpZ26la9bin0BdJhR9mbd4q9AgMBAAEwDQYJKoZIhvcNAQEEBQADgYEA
gYY3s6C7YZu49zgNVdzcKoRFzL2N0ThNHX5k4LLrAJUnIldJLn92PFb52Lm7N6HV
vcEN1bkBxTZlHpCex0pxX7X5GkXSrhmN2KncmKgKRwFu1iLb0J4hjVVQf7hwNVRn
Zj87VTmjVJ9ETbO0IY1fcbSgLVagqXwGOUBigEPTItA=
-----END CERTIFICATE-----
