Certificate:
    Data:
        Version: 1 (0x0)
        Serial Number:
            9b:27:d7:e8:d1:ba:09:cf
        Signature Algorithm: md5WithRSAEncryption
        Issuer: C=DE, ST=Saarland, O=MPI-SWS, OU=Distributed Systems Group, CN=Andreas Haeberlen/emailAddress=democa@octarine.de
        Validity
            Not Before: Apr 20 20:47:19 2015 GMT
            Not After : Apr 19 20:47:19 2016 GMT
        Subject: C=DE, ST=Saarland, O=MPI-SWS, OU=Distributed Systems Group, CN=264e37b2ead63535c5888cc5db3268d8f2629257/emailAddress=node0503@octarine.de
        Subject Public Key Info:
            Public Key Algorithm: rsaEncryption
            RSA Public Key: (1024 bit)
                Modulus (1024 bit):
                    00:d4:2e:31:f4:52:78:ae:06:d0:b5:9b:19:c9:ed:
                    16:bc:7c:b7:5c:47:61:bf:b3:04:5d:f6:57:ba:1f:
                    1a:4a:89:8f:a4:36:b6:5a:ef:7b:bd:36:bd:1a:93:
                    05:a1:47:51:ce:e7:7c:71:e9:93:05:2c:69:4d:f0:
                    76:08:d4:cf:7e:53:30:6f:b3:9f:d6:23:dc:f8:f2:
                    fa:d8:cb:4c:1d:8d:c9:92:ad:c9:7d:d3:72:b8:c9:
                    02:6c:29:e1:c0:a7:68:b4:28:3a:ea:0c:58:54:52:
                    a4:73:56:82:08:23:ae:d6:50:ba:2a:f8:1b:27:33:
                    80:52:cd:31:49:84:d5:42:77
                Exponent: 65537 (0x10001)
    Signature Algorithm: md5WithRSAEncryption
        71:0c:77:b8:6c:36:41:14:1c:ec:f6:75:fe:70:8d:8a:9e:0d:
        1a:32:29:96:f6:18:2e:5d:32:1b:5a:14:f4:86:f2:cb:c5:09:
        92:9d:83:d1:15:c3:4d:89:6d:b3:72:81:a5:35:5c:9b:41:09:
        ef:07:05:f5:1b:d1:1c:bd:0c:7b:2d:08:02:4e:da:12:f7:c1:
        3c:a2:0b:b5:8e:f2:4b:eb:17:8c:f8:e6:e1:c0:4e:06:e9:93:
        5c:86:c3:a6:ae:a6:44:f4:2c:a0:83:45:f2:2e:03:ab:0f:da:
        1e:5a:98:4b:8f:62:61:be:a7:90:52:69:d8:42:e0:c1:1a:56:
        fc:78
-----BEGIN CERTIFICATE-----
MIICvDCCAiUCCQCbJ9fo0boJzzANBgkqhkiG9w0BAQQFADCBlTELMAkGA1UEBhMC
REUxETAPBgNVBAgTCFNhYXJsYW5kMRAwDgYDVQQKEwdNUEktU1dTMSIwIAYDVQQL
ExlEaXN0cmlidXRlZCBTeXN0ZW1zIEdyb3VwMRowGAYDVQQDExFBbmRyZWFzIEhh
ZWJlcmxlbjEhMB8GCSqGSIb3DQEJARYSZGVtb2NhQG9jdGFyaW5lLmRlMB4XDTE1
MDQyMDIwNDcxOVoXDTE2MDQxOTIwNDcxOVowga4xCzAJBgNVBAYTAkRFMREwDwYD
VQQIEwhTYWFybGFuZDEQMA4GA1UEChMHTVBJLVNXUzEiMCAGA1UECxMZRGlzdHJp
YnV0ZWQgU3lzdGVtcyBHcm91cDExMC8GA1UEAxMoMjY0ZTM3YjJlYWQ2MzUzNWM1
ODg4Y2M1ZGIzMjY4ZDhmMjYyOTI1NzEjMCEGCSqGSIb3DQEJARYUbm9kZTA1MDNA
b2N0YXJpbmUuZGUwgZ8wDQYJKoZIhvcNAQEBBQADgY0AMIGJAoGBANQuMfRSeK4G
0LWbGcntFrx8t1xHYb+zBF32V7ofGkqJj6Q2tlrve702vRqTBaFHUc7nfHHpkwUs
aU3wdgjUz35TMG+zn9Yj3Pjy+tjLTB2NyZKtyX3TcrjJAmwp4cCnaLQoOuoMWFRS
pHNWgggjrtZQuir4GyczgFLNMUmE1UJ3AgMBAAEwDQYJKoZIhvcNAQEEBQADgYEA
cQx3uGw2QRQc7PZ1/nCNip4NGjIplvYYLl0yG1oU9Ibyy8UJkp2D0RXDTYlts3KB
pTVcm0EJ7wcF9RvRHL0Mey0IAk7aEvfBPKILtY7yS+sXjPjm4cBOBumTXIbDpq6m
RPQsoINF8i4Dqw/aHlqYS49iYb6nkFJp2ELgwRpW/Hg=
-----END CERTIFICATE-----
