Certificate:
    Data:
        Version: 1 (0x0)
        Serial Number:
            9b:27:d7:e8:d1:ba:08:b0
        Signature Algorithm: md5WithRSAEncryption
        Issuer: C=DE, ST=Saarland, O=MPI-SWS, OU=Distributed Systems Group, CN=Andreas Haeberlen/emailAddress=democa@octarine.de
        Validity
            Not Before: Apr 20 20:47:06 2015 GMT
            Not After : Apr 19 20:47:06 2016 GMT
        Subject: C=DE, ST=Saarland, O=MPI-SWS, OU=Distributed Systems Group, CN=033ddfd52fd606ebb7a3be7d389004a07ee5dbaf/emailAddress=node0216@octarine.de
        Subject Public Key Info:
            Public Key Algorithm: rsaEncryption
            RSA Public Key: (1024 bit)
                Modulus (1024 bit):
                    00:c5:f0:c4:21:51:7c:3d:88:90:ff:03:94:2d:cf:
                    c7:7b:02:ab:19:64:4d:10:6b:cd:55:2e:ac:67:b0:
                    ef:f3:95:ff:7d:60:24:03:4c:dd:af:b2:da:af:0a:
                    5a:0c:87:80:47:a7:2f:06:5d:7c:f3:f7:15:9d:79:
                    02:57:c4:1d:5a:e8:34:78:cc:c6:46:65:70:57:52:
                    25:88:df:c1:d7:98:91:a0:b8:dd:5b:96:82:03:25:
                    61:a2:03:ec:41:fe:6a:9c:19:06:4c:d1:c3:54:ce:
                    2d:58:d8:1a:3e:24:68:40:42:b7:46:c6:55:a1:39:
                    1a:ac:5a:05:7b:48:9f:a4:09
                Exponent: 65537 (0x10001)
    Signature Algorithm: md5WithRSAEncryption
        a6:2c:f1:99:52:d8:e2:66:ad:80:53:57:52:aa:17:ab:d7:8d:
        35:41:ff:ed:77:89:b8:25:cc:58:38:39:6b:ed:9d:eb:74:cd:
        41:62:30:ab:49:8d:dc:f3:46:88:8f:9f:80:34:73:97:e5:3f:
        68:38:ab:0a:92:d6:2c:e8:ef:2f:9b:f8:1e:e3:3e:e6:99:95:
        a2:c8:93:aa:56:42:9f:b2:cf:a8:5e:b9:69:f8:0c:ed:f4:b0:
        57:a7:42:f3:38:1e:b8:05:95:c2:58:47:18:6a:1f:d9:f6:26:
        d1:96:7b:5d:56:2b:c5:41:8e:75:1e:ca:fb:78:18:93:c8:2f:
        18:ec
-----BEGIN CERTIFICATE-----
MIICvDCCAiUCCQCbJ9fo0boIsDANBgkqhkiG9w0BAQQFADCBlTELMAkGA1UEBhMC
REUxETAPBgNVBAgTCFNhYXJsYW5kMRAwDgYDVQQKEwdNUEktU1dTMSIwIAYDVQQL
ExlEaXN0cmlidXRlZCBTeXN0ZW1zIEdyb3VwMRowGAYDVQQDExFBbmRyZWFzIEhh
ZWJlcmxlbjEhMB8GCSqGSIb3DQEJARYSZGVtb2NhQG9jdGFyaW5lLmRlMB4XDTE1
MDQyMDIwNDcwNloXDTE2MDQxOTIwNDcwNlowga4xCzAJBgNVBAYTAkRFMREwDwYD
VQQIEwhTYWFybGFuZDEQMA4GA1UEChMHTVBJLVNXUzEiMCAGA1UECxMZRGlzdHJp
YnV0ZWQgU3lzdGVtcyBHcm91cDExMC8GA1UEAxMoMDMzZGRmZDUyZmQ2MDZlYmI3
YTNiZTdkMzg5MDA0YTA3ZWU1ZGJhZjEjMCEGCSqGSIb3DQEJARYUbm9kZTAyMTZA
b2N0YXJpbmUuZGUwgZ8wDQYJKoZIhvcNAQEBBQADgY0AMIGJAoGBAMXwxCFRfD2I
kP8DlC3Px3sCqxlkTRBrzVUurGew7/OV/31gJANM3a+y2q8KWgyHgEenLwZdfPP3
FZ15AlfEHVroNHjMxkZlcFdSJYjfwdeYkaC43VuWggMlYaID7EH+apwZBkzRw1TO
LVjYGj4kaEBCt0bGVaE5GqxaBXtIn6QJAgMBAAEwDQYJKoZIhvcNAQEEBQADgYEA
pizxmVLY4matgFNXUqoXq9eNNUH/7XeJuCXMWDg5a+2d63TNQWIwq0mN3PNGiI+f
gDRzl+U/aDirCpLWLOjvL5v4HuM+5pmVosiTqlZCn7LPqF65afgM7fSwV6dC8zge
uAWVwlhHGGof2fYm0ZZ7XVYrxUGOdR7K+3gYk8gvGOw=
-----END CERTIFICATE-----
