Certificate:
    Data:
        Version: 1 (0x0)
        Serial Number:
            9b:27:d7:e8:d1:ba:0a:a2
        Signature Algorithm: md5WithRSAEncryption
        Issuer: C=DE, ST=Saarland, O=MPI-SWS, OU=Distributed Systems Group, CN=Andreas Haeberlen/emailAddress=democa@octarine.de
        Validity
            Not Before: Apr 20 20:47:28 2015 GMT
            Not After : Apr 19 20:47:28 2016 GMT
        Subject: C=DE, ST=Saarland, O=MPI-SWS, OU=Distributed Systems Group, CN=0f76c55fd0055f59649de6550c9f51a501bd71c5/emailAddress=node0714@octarine.de
        Subject Public Key Info:
            Public Key Algorithm: rsaEncryption
            RSA Public Key: (1024 bit)
                Modulus (1024 bit):
                    00:c9:7b:ab:0a:00:5e:b4:e2:38:3d:1b:f6:c0:bb:
                    e3:27:32:d5:f2:91:0e:c6:73:77:71:e1:fc:31:fe:
                    a5:9b:12:24:c3:e8:62:f4:e0:78:be:cc:31:1c:b1:
                    a9:83:19:c0:f9:8d:17:be:fe:d2:6c:42:d8:5c:65:
                    7a:f6:1b:fc:56:d6:46:8a:ed:90:b9:e7:7b:52:da:
                    2f:23:85:e0:a6:d9:7f:c6:f3:74:64:f1:11:4c:cd:
                    a4:7c:c0:4c:6b:01:76:1c:41:26:d3:92:8a:1b:15:
                    c8:10:b3:6c:da:fb:df:9f:ef:72:ce:34:74:d0:86:
                    46:92:77:0c:ba:fa:4a:af:23
                Exponent: 65537 (0x10001)
    Signature Algorithm: md5WithRSAEncryption
        99:2a:13:d8:58:d9:72:d6:e6:26:4e:fd:95:19:ec:da:8d:fa:
        a9:35:93:7e:72:66:74:01:11:fe:a0:cc:e8:f3:78:d0:77:d7:
        d5:4d:49:ba:ca:ed:74:b4:06:b9:20:bb:79:fa:53:9a:23:fb:
        7b:52:94:3f:cb:bf:65:46:78:20:7f:11:65:7e:9a:fe:6e:00:
        d1:fa:36:d2:41:28:f5:ff:b3:04:58:39:eb:fc:13:93:cd:f3:
        16:eb:fc:8a:5e:e2:d5:3c:be:c8:c7:13:0f:3f:63:67:39:ba:
        15:c6:58:6b:67:32:0c:e9:15:d2:b3:0d:41:63:6e:06:ca:16:
        8c:a5
-----BEGIN CERTIFICATE-----
MIICvDCCAiUCCQCbJ9fo0boKojANBgkqhkiG9w0BAQQFADCBlTELMAkGA1UEBhMC
REUxETAPBgNVBAgTCFNhYXJsYW5kMRAwDgYDVQQKEwdNUEktU1dTMSIwIAYDVQQL
ExlEaXN0cmlidXRlZCBTeXN0ZW1zIEdyb3VwMRowGAYDVQQDExFBbmRyZWFzIEhh
ZWJlcmxlbjEhMB8GCSqGSIb3DQEJARYSZGVtb2NhQG9jdGFyaW5lLmRlMB4XDTE1
MDQyMDIwNDcyOFoXDTE2MDQxOTIwNDcyOFowga4xCzAJBgNVBAYTAkRFMREwDwYD
VQQIEwhTYWFybGFuZDEQMA4GA1UEChMHTVBJLVNXUzEiMCAGA1UECxMZRGlzdHJp
YnV0ZWQgU3lzdGVtcyBHcm91cDExMC8GA1UEAxMoMGY3NmM1NWZkMDA1NWY1OTY0
OWRlNjU1MGM5ZjUxYTUwMWJkNzFjNTEjMCEGCSqGSIb3DQEJARYUbm9kZTA3MTRA
b2N0YXJpbmUuZGUwgZ8wDQYJKoZIhvcNAQEBBQADgY0AMIGJAoGBAMl7qwoAXrTi
OD0b9sC74ycy1fKRDsZzd3Hh/DH+pZsSJMPoYvTgeL7MMRyxqYMZwPmNF77+0mxC
2FxlevYb/FbWRortkLnne1LaLyOF4KbZf8bzdGTxEUzNpHzATGsBdhxBJtOSihsV
yBCzbNr735/vcs40dNCGRpJ3DLr6Sq8jAgMBAAEwDQYJKoZIhvcNAQEEBQADgYEA
mSoT2FjZctbmJk79lRns2o36qTWTfnJmdAER/qDM6PN40HfX1U1JusrtdLQGuSC7
efpTmiP7e1KUP8u/ZUZ4IH8RZX6a/m4A0fo20kEo9f+zBFg56/wTk83zFuv8il7i
1Ty+yMcTDz9jZzm6FcZYa2cyDOkV0rMNQWNuBsoWjKU=
-----END CERTIFICATE-----
