Certificate:
    Data:
        Version: 1 (0x0)
        Serial Number:
            9b:27:d7:e8:d1:ba:08:46
        Signature Algorithm: md5WithRSAEncryption
        Issuer: C=DE, ST=Saarland, O=MPI-SWS, OU=Distributed Systems Group, CN=Andreas Haeberlen/emailAddress=democa@octarine.de
        Validity
            Not Before: Apr 20 20:47:01 2015 GMT
            Not After : Apr 19 20:47:01 2016 GMT
        Subject: C=DE, ST=Saarland, O=MPI-SWS, OU=Distributed Systems Group, CN=8a805e4f3f4a0f5b5be157a806de22bad4a22f25/emailAddress=node0110@octarine.de
        Subject Public Key Info:
            Public Key Algorithm: rsaEncryption
            RSA Public Key: (1024 bit)
                Modulus (1024 bit):
                    00:eb:b5:57:22:1e:b3:fc:76:5d:74:27:0b:d2:7f:
                    e0:74:b8:ce:10:79:1f:4c:62:dc:16:97:a5:50:8f:
                    be:4b:49:26:5a:a9:9f:5c:96:c2:3e:af:40:ad:c5:
                    cc:84:3b:7e:77:79:c5:f5:3f:3a:de:2f:76:4c:43:
                    a1:d0:b5:a8:33:37:7a:95:e9:2b:5c:21:7f:71:25:
                    b7:3e:ba:90:16:98:6a:dd:cf:d7:43:1f:14:7e:5e:
                    8d:e1:f2:6b:7f:4c:46:d1:8c:f5:cd:f2:08:b8:f5:
                    ae:d7:4f:f8:d4:f5:6b:80:15:34:48:d6:d4:b3:48:
                    1f:7b:13:cd:29:b5:d0:4e:f5
                Exponent: 65537 (0x10001)
    Signature Algorithm: md5WithRSAEncryption
        0e:97:cd:ec:08:1a:27:14:a6:5c:3f:80:78:ad:87:88:dc:ca:
        cf:76:e4:4b:4d:fb:60:60:95:e1:77:30:40:f5:87:c8:b0:9e:
        d4:5f:a3:ca:ec:b7:95:77:3e:4b:dc:01:f4:5f:ee:45:3c:51:
        13:4a:e2:bb:9c:23:29:38:75:cc:f6:74:75:7e:20:dd:14:c5:
        f4:48:91:a7:91:f9:b6:24:0c:1b:df:f4:32:25:3a:32:41:cd:
        4f:53:e3:26:09:73:67:89:0a:96:46:56:1f:6d:f4:a2:2e:37:
        40:ef:48:70:d0:73:de:79:c2:21:62:41:a6:59:3d:8f:e2:79:
        6a:d6
-----BEGIN CERTIFICATE-----
MIICvDCCAiUCCQCbJ9fo0boIRjANBgkqhkiG9w0BAQQFADCBlTELMAkGA1UEBhMC
REUxETAPBgNVBAgTCFNhYXJsYW5kMRAwDgYDVQQKEwdNUEktU1dTMSIwIAYDVQQL
ExlEaXN0cmlidXRlZCBTeXN0ZW1zIEdyb3VwMRowGAYDVQQDExFBbmRyZWFzIEhh
ZWJlcmxlbjEhMB8GCSqGSIb3DQEJARYSZGVtb2NhQG9jdGFyaW5lLmRlMB4XDTE1
MDQyMDIwNDcwMVoXDTE2MDQxOTIwNDcwMVowga4xCzAJBgNVBAYTAkRFMREwDwYD
VQQIEwhTYWFybGFuZDEQMA4GA1UEChMHTVBJLVNXUzEiMCAGA1UECxMZRGlzdHJp
YnV0ZWQgU3lzdGVtcyBHcm91cDExMC8GA1UEAxMoOGE4MDVlNGYzZjRhMGY1YjVi
ZTE1N2E4MDZkZTIyYmFkNGEyMmYyNTEjMCEGCSqGSIb3DQEJARYUbm9kZTAxMTBA
b2N0YXJpbmUuZGUwgZ8wDQYJKoZIhvcNAQEBBQADgY0AMIGJAoGBAOu1VyIes/x2
XXQnC9J/4HS4zhB5H0xi3BaXpVCPvktJJlqpn1yWwj6vQK3FzIQ7fnd5xfU/Ot4v
dkxDodC1qDM3epXpK1whf3Eltz66kBaYat3P10MfFH5ejeHya39MRtGM9c3yCLj1
rtdP+NT1a4AVNEjW1LNIH3sTzSm10E71AgMBAAEwDQYJKoZIhvcNAQEEBQADgYEA
DpfN7AgaJxSmXD+AeK2HiNzKz3bkS037YGCV4XcwQPWHyLCe1F+jyuy3lXc+S9wB
9F/uRTxRE0riu5wjKTh1zPZ0dX4g3RTF9EiRp5H5tiQMG9/0MiU6MkHNT1PjJglz
Z4kKlkZWH230oi43QO9IcNBz3nnCIWJBplk9j+J5atY=
-----END CERTIFICATE-----
