Certificate:
    Data:
        Version: 1 (0x0)
        Serial Number:
            9b:27:d7:e8:d1:ba:0a:47
        Signature Algorithm: md5WithRSAEncryption
        Issuer: C=DE, ST=Saarland, O=MPI-SWS, OU=Distributed Systems Group, CN=Andreas Haeberlen/emailAddress=democa@octarine.de
        Validity
            Not Before: Apr 20 20:47:24 2015 GMT
            Not After : Apr 19 20:47:24 2016 GMT
        Subject: C=DE, ST=Saarland, O=MPI-SWS, OU=Distributed Systems Group, CN=b3b6838a68b6dd02253e542240980c8b03287a3e/emailAddress=node0623@octarine.de
        Subject Public Key Info:
            Public Key Algorithm: rsaEncryption
            RSA Public Key: (1024 bit)
                Modulus (1024 bit):
                    00:c2:0f:57:b1:96:2f:cd:06:17:24:77:b1:1d:ac:
                    71:ef:4b:9e:a2:ea:32:a2:6a:54:80:bb:b8:c8:62:
                    64:d6:b5:77:98:ac:67:8a:bc:bc:d9:a5:10:38:ad:
                    50:f4:06:a0:20:12:36:7a:0b:1f:9d:be:cb:1f:51:
                    c3:18:35:40:9f:75:7d:73:3e:52:e2:33:9d:85:e3:
                    11:23:a2:43:fd:ed:23:ac:b2:1b:a6:9a:72:b2:2c:
                    24:74:74:3b:c4:26:75:c7:a1:54:8f:77:27:34:d5:
                    5c:75:1d:1d:77:81:63:88:0d:61:fe:0f:02:e8:6c:
                    7a:b5:a1:79:a9:df:ce:17:1f
                Exponent: 65537 (0x10001)
    Signature Algorithm: md5WithRSAEncryption
        1a:db:f9:2c:32:d4:42:7a:2b:f3:f1:3d:0a:42:68:0d:f4:38:
        22:8d:6c:96:ab:32:a9:6b:16:7e:06:b8:59:1b:3e:41:2e:52:
        54:ae:13:12:93:2a:63:da:3e:c7:37:90:b2:ca:a6:9a:9a:5d:
        23:9f:f5:a0:93:3a:d1:00:62:02:c8:cf:f6:45:e9:b9:95:a7:
        1b:d8:08:fe:b4:1e:bf:42:f7:21:48:27:48:a1:69:64:0a:31:
        70:c9:08:75:c0:9c:6b:84:cf:63:7c:44:d4:99:de:45:42:1c:
        11:9b:30:b5:77:1b:6d:b6:f3:a5:42:25:37:16:1b:f1:df:9f:
        77:b7
-----BEGIN CERTIFICATE-----
MIICvDCCAiUCCQCbJ9fo0boKRzANBgkqhkiG9w0BAQQFADCBlTELMAkGA1UEBhMC
REUxETAPBgNVBAgTCFNhYXJsYW5kMRAwDgYDVQQKEwdNUEktU1dTMSIwIAYDVQQL
ExlEaXN0cmlidXRlZCBTeXN0ZW1zIEdyb3VwMRowGAYDVQQDExFBbmRyZWFzIEhh
ZWJlcmxlbjEhMB8GCSqGSIb3DQEJARYSZGVtb2NhQG9jdGFyaW5lLmRlMB4XDTE1
MDQyMDIwNDcyNFoXDTE2MDQxOTIwNDcyNFowga4xCzAJBgNVBAYTAkRFMREwDwYD
VQQIEwhTYWFybGFuZDEQMA4GA1UEChMHTVBJLVNXUzEiMCAGA1UECxMZRGlzdHJp
YnV0ZWQgU3lzdGVtcyBHcm91cDExMC8GA1UEAxMoYjNiNjgzOGE2OGI2ZGQwMjI1
M2U1NDIyNDA5ODBjOGIwMzI4N2EzZTEjMCEGCSqGSIb3DQEJARYUbm9kZTA2MjNA
b2N0YXJpbmUuZGUwgZ8wDQYJKoZIhvcNAQEBBQADgY0AMIGJAoGBAMIPV7GWL80G
FyR3sR2sce9LnqLqMqJqVIC7uMhiZNa1d5isZ4q8vNmlEDitUPQGoCASNnoLH52+
yx9Rwxg1QJ91fXM+UuIznYXjESOiQ/3tI6yyG6aacrIsJHR0O8QmdcehVI93JzTV
XHUdHXeBY4gNYf4PAuhserWheanfzhcfAgMBAAEwDQYJKoZIhvcNAQEEBQADgYEA
Gtv5LDLUQnor8/E9CkJoDfQ4Io1slqsyqWsWfga4WRs+QS5SVK4TEpMqY9o+xzeQ
ssqmmppdI5/1oJM60QBiAsjP9kXpuZWnG9gI/rQev0L3IUgnSKFpZAoxcMkIdcCc
a4TPY3xE1JneRUIcEZswtXcbbbbzpUIlNxYb8d+fd7c=
-----END CERTIFICATE-----
