Certificate:
    Data:
        Version: 1 (0x0)
        Serial Number:
            9b:27:d7:e8:d1:ba:0a:eb
        Signature Algorithm: md5WithRSAEncryption
        Issuer: C=DE, ST=Saarland, O=MPI-SWS, OU=Distributed Systems Group, CN=Andreas Haeberlen/emailAddress=democa@octarine.de
        Validity
            Not Before: Apr 20 20:47:32 2015 GMT
            Not After : Apr 19 20:47:32 2016 GMT
        Subject: C=DE, ST=Saarland, O=MPI-SWS, OU=Distributed Systems Group, CN=83b9d3a29057d896f04aa07109278c60f2ac65ef/emailAddress=node0787@octarine.de
        Subject Public Key Info:
            Public Key Algorithm: rsaEncryption
            RSA Public Key: (1024 bit)
                Modulus (1024 bit):
                    00:f0:37:40:ce:03:6b:24:d3:aa:a9:d7:5c:38:2a:
                    aa:e7:22:d5:c2:ab:3d:ea:30:2a:2f:3c:92:05:b6:
                    48:49:e3:10:11:2a:cd:c8:a1:61:eb:f4:c1:81:db:
                    76:d6:f8:52:03:89:8f:a5:cd:aa:ba:c1:fe:f0:a1:
                    b8:07:1c:90:91:eb:bd:8b:84:6e:28:c3:f6:f5:b9:
                    84:c7:25:14:95:e4:a5:95:23:93:e0:ef:27:a2:b7:
                    43:54:cb:ab:34:aa:88:96:ee:20:22:89:e8:62:46:
                    f3:59:35:bd:ff:e6:7f:f2:c1:ad:e8:5e:3c:1d:15:
                    00:97:8b:56:35:ff:f9:98:45
                Exponent: 65537 (0x10001)
    Signature Algorithm: md5WithRSAEncryption
        25:9a:6d:a2:af:0c:2b:ce:75:3e:94:dc:75:09:3e:9c:15:a4:
        45:a8:36:ce:48:af:43:a3:7b:16:51:18:ef:a1:99:70:22:c8:
        e5:5e:b0:bc:e7:40:76:cb:f8:24:a9:88:84:1f:92:7f:f9:7f:
        75:17:84:81:4a:3e:60:86:3f:64:c8:eb:c3:71:fc:90:b7:3e:
        86:68:92:dd:7d:c9:27:5c:cc:da:8d:3b:7d:8f:28:b9:9a:1b:
        af:c5:3f:56:9f:3a:1a:99:2d:2c:90:fb:65:e9:2b:ac:05:22:
        c8:50:1b:f6:86:47:81:d2:d4:79:2a:7a:60:cf:02:81:bf:86:
        5e:1d
-----BEGIN CERTIFICATE-----
MIICvDCCAiUCCQCbJ9fo0boK6zANBgkqhkiG9w0BAQQFADCBlTELMAkGA1UEBhMC
REUxETAPBgNVBAgTCFNhYXJsYW5kMRAwDgYDVQQKEwdNUEktU1dTMSIwIAYDVQQL
ExlEaXN0cmlidXRlZCBTeXN0ZW1zIEdyb3VwMRowGAYDVQQDExFBbmRyZWFzIEhh
ZWJlcmxlbjEhMB8GCSqGSIb3DQEJARYSZGVtb2NhQG9jdGFyaW5lLmRlMB4XDTE1
MDQyMDIwNDczMloXDTE2MDQxOTIwNDczMlowga4xCzAJBgNVBAYTAkRFMREwDwYD
VQQIEwhTYWFybGFuZDEQMA4GA1UEChMHTVBJLVNXUzEiMCAGA1UECxMZRGlzdHJp
YnV0ZWQgU3lzdGVtcyBHcm91cDExMC8GA1UEAxMoODNiOWQzYTI5MDU3ZDg5NmYw
NGFhMDcxMDkyNzhjNjBmMmFjNjVlZjEjMCEGCSqGSIb3DQEJARYUbm9kZTA3ODdA
b2N0YXJpbmUuZGUwgZ8wDQYJKoZIhvcNAQEBBQADgY0AMIGJAoGBAPA3QM4DayTT
qqnXXDgqquci1cKrPeowKi88kgW2SEnjEBEqzcihYev0wYHbdtb4UgOJj6XNqrrB
/vChuAcckJHrvYuEbijD9vW5hMclFJXkpZUjk+DvJ6K3Q1TLqzSqiJbuICKJ6GJG
81k1vf/mf/LBrehePB0VAJeLVjX/+ZhFAgMBAAEwDQYJKoZIhvcNAQEEBQADgYEA
JZptoq8MK851PpTcdQk+nBWkRag2zkivQ6N7FlEY76GZcCLI5V6wvOdAdsv4JKmI
hB+Sf/l/dReEgUo+YIY/ZMjrw3H8kLc+hmiS3X3JJ1zM2o07fY8ouZobr8U/Vp86
GpktLJD7ZekrrAUiyFAb9oZHgdLUeSp6YM8Cgb+GXh0=
-----END CERTIFICATE-----
