Certificate:
    Data:
        Version: 1 (0x0)
        Serial Number:
            9b:27:d7:e8:d1:ba:08:24
        Signature Algorithm: md5WithRSAEncryption
        Issuer: C=DE, ST=Saarland, O=MPI-SWS, OU=Distributed Systems Group, CN=Andreas Haeberlen/emailAddress=democa@octarine.de
        Validity
            Not Before: Apr 20 20:47:00 2015 GMT
            Not After : Apr 19 20:47:00 2016 GMT
        Subject: C=DE, ST=Saarland, O=MPI-SWS, OU=Distributed Systems Group, CN=0db882889e4bd64423d496af505359a665ff8872/emailAddress=node0076@octarine.de
        Subject Public Key Info:
            Public Key Algorithm: rsaEncryption
            RSA Public Key: (1024 bit)
                Modulus (1024 bit):
                    00:d8:2e:19:70:40:3a:1c:fc:b5:d0:01:98:f8:58:
                    b2:36:c0:bb:7b:c4:b2:1e:7b:7e:35:24:52:ed:38:
                    2e:04:93:c7:0c:55:45:73:30:3d:5c:40:6e:53:46:
                    7b:cd:d3:d6:38:69:6b:a7:ff:02:4f:06:d4:38:19:
                    a7:0f:fb:35:22:72:94:d4:75:01:cb:c9:0c:bc:ee:
                    81:4c:ae:1a:7e:07:98:f8:1c:6e:83:ff:03:82:59:
                    28:c8:d6:14:b0:8d:de:61:29:9f:b1:f9:9d:19:12:
                    cf:b9:df:bb:17:bf:6f:0b:90:94:8c:85:16:f1:d7:
                    8a:9b:e1:ac:20:f6:78:83:69
                Exponent: 65537 (0x10001)
    Signature Algorithm: md5WithRSAEncryption
        19:e9:7c:4d:c5:4e:af:1f:6b:75:80:2e:60:9b:4c:c9:5e:07:
        d7:c2:95:e9:fd:4e:6f:07:90:75:06:b5:e3:0a:49:16:eb:96:
        72:f0:19:db:db:38:3d:39:b4:cb:c4:8a:12:75:08:d2:cb:dc:
        da:83:76:79:fd:78:de:ea:5f:50:25:4a:d4:bc:b0:16:b9:5a:
        02:51:17:9e:59:aa:c8:08:30:59:8d:7c:3f:2f:78:32:fb:93:
        c6:ef:a1:ba:b9:5e:e2:a4:82:46:25:ee:72:f2:4a:3b:17:99:
        7c:d1:55:5e:75:85:7e:30:59:5b:f6:0b:36:86:ca:0f:d3:0d:
        53:53
-----BEGIN CERTIFICATE-----
MIICvDCCAiUCCQCbJ9fo0boIJDANBgkqhkiG9w0BAQQFADCBlTELMAkGA1UEBhMC
REUxETAPBgNVBAgTCFNhYXJsYW5kMRAwDgYDVQQKEwdNUEktU1dTMSIwIAYDVQQL
ExlEaXN0cmlidXRlZCBTeXN0ZW1zIEdyb3VwMRowGAYDVQQDExFBbmRyZWFzIEhh
ZWJlcmxlbjEhMB8GCSqGSIb3DQEJARYSZGVtb2NhQG9jdGFyaW5lLmRlMB4XDTE1
MDQyMDIwNDcwMFoXDTE2MDQxOTIwNDcwMFowga4xCzAJBgNVBAYTAkRFMREwDwYD
VQQIEwhTYWFybGFuZDEQMA4GA1UEChMHTVBJLVNXUzEiMCAGA1UECxMZRGlzdHJp
YnV0ZWQgU3lzdGVtcyBHcm91cDExMC8GA1UEAxMoMGRiODgyODg5ZTRiZDY0NDIz
ZDQ5NmFmNTA1MzU5YTY2NWZmODg3MjEjMCEGCSqGSIb3DQEJARYUbm9kZTAwNzZA
b2N0YXJpbmUuZGUwgZ8wDQYJKoZIhvcNAQEBBQADgY0AMIGJAoGBANguGXBAOhz8
tdABmPhYsjbAu3vEsh57fjUkUu04LgSTxwxVRXMwPVxAblNGe83T1jhpa6f/Ak8G
1DgZpw/7NSJylNR1AcvJDLzugUyuGn4HmPgcboP/A4JZKMjWFLCN3mEpn7H5nRkS
z7nfuxe/bwuQlIyFFvHXipvhrCD2eINpAgMBAAEwDQYJKoZIhvcNAQEEBQADgYEA
Gel8TcVOrx9rdYAuYJtMyV4H18KV6f1ObweQdQa14wpJFuuWcvAZ29s4PTm0y8SK
EnUI0svc2oN2ef143upfUCVK1LywFrlaAlEXnlmqyAgwWY18Py94MvuTxu+hurle
4qSCRiXucvJKOxeZfNFVXnWFfjBZW/YLNobKD9MNU1M=
-----END CERTIFICATE-----
