Certificate:
    Data:
        Version: 1 (0x0)
        Serial Number:
            9b:27:d7:e8:d1:ba:0b:99
        Signature Algorithm: md5WithRSAEncryption
        Issuer: C=DE, ST=Saarland, O=MPI-SWS, OU=Distributed Systems Group, CN=Andreas Haeberlen/emailAddress=democa@octarine.de
        Validity
            Not Before: Apr 20 20:47:39 2015 GMT
            Not After : Apr 19 20:47:39 2016 GMT
        Subject: C=DE, ST=Saarland, O=MPI-SWS, OU=Distributed Systems Group, CN=1602b69fecb4a00c8f9edfb20bdb2854f56acfaa/emailAddress=node0961@octarine.de
        Subject Public Key Info:
            Public Key Algorithm: rsaEncryption
            RSA Public Key: (1024 bit)
                Modulus (1024 bit):
                    00:af:76:99:f2:89:ad:a6:71:a8:71:a4:ef:c3:6e:
                    3f:21:63:7e:f5:af:ec:db:ef:16:12:83:e2:f8:9d:
                    6d:63:ee:1e:60:8b:cb:14:18:71:18:00:dd:12:48:
                    9b:24:51:fa:04:64:27:d8:88:d4:67:e3:cd:09:ef:
                    9c:f7:02:3d:9d:4a:fe:4d:ad:a2:6a:df:ef:86:8d:
                    ac:fb:f0:e1:9d:1c:ab:2a:9a:15:b3:21:a3:d9:a7:
                    a8:c1:25:17:e8:23:a3:40:43:f0:94:27:98:50:d8:
                    fc:b7:6d:c6:d0:04:6d:d6:c7:39:20:ab:2b:7d:37:
                    94:59:12:75:27:90:76:46:87
                Exponent: 65537 (0x10001)
    Signature Algorithm: md5WithRSAEncryption
        85:c5:6f:bd:78:36:b9:6e:8d:56:24:89:3e:73:ed:c3:b3:0e:
        00:c0:b2:6f:da:33:28:98:9e:71:3e:67:9f:27:75:e3:5f:5b:
        c4:d7:53:9e:97:98:69:f1:50:82:cf:48:d0:f4:f5:05:e7:cf:
        18:28:91:17:fe:92:f9:9b:3f:46:68:2a:30:6c:78:c6:10:7a:
        f5:a5:03:91:ac:4a:71:aa:da:2d:e8:a7:1b:f6:cd:8e:69:0e:
        b5:f4:7e:66:d2:b6:d5:16:2b:5e:95:3d:56:af:e3:df:70:3e:
        8f:f6:f0:ad:55:07:53:9c:e0:91:7f:63:da:6f:b8:96:46:53:
        7d:20
-----BEGIN CERTIFICATE-----
MIICvDCCAiUCCQCbJ9fo0boLmTANBgkqhkiG9w0BAQQFADCBlTELMAkGA1UEBhMC
REUxETAPBgNVBAgTCFNhYXJsYW5kMRAwDgYDVQQKEwdNUEktU1dTMSIwIAYDVQQL
ExlEaXN0cmlidXRlZCBTeXN0ZW1zIEdyb3VwMRowGAYDVQQDExFBbmRyZWFzIEhh
ZWJlcmxlbjEhMB8GCSqGSIb3DQEJARYSZGVtb2NhQG9jdGFyaW5lLmRlMB4XDTE1
MDQyMDIwNDczOVoXDTE2MDQxOTIwNDczOVowga4xCzAJBgNVBAYTAkRFMREwDwYD
VQQIEwhTYWFybGFuZDEQMA4GA1UEChMHTVBJLVNXUzEiMCAGA1UECxMZRGlzdHJp
YnV0ZWQgU3lzdGVtcyBHcm91cDExMC8GA1UEAxMoMTYwMmI2OWZlY2I0YTAwYzhm
OWVkZmIyMGJkYjI4NTRmNTZhY2ZhYTEjMCEGCSqGSIb3DQEJARYUbm9kZTA5NjFA
b2N0YXJpbmUuZGUwgZ8wDQYJKoZIhvcNAQEBBQADgY0AMIGJAoGBAK92mfKJraZx
qHGk78NuPyFjfvWv7NvvFhKD4vidbWPuHmCLyxQYcRgA3RJImyRR+gRkJ9iI1Gfj
zQnvnPcCPZ1K/k2tomrf74aNrPvw4Z0cqyqaFbMho9mnqMElF+gjo0BD8JQnmFDY
/LdtxtAEbdbHOSCrK303lFkSdSeQdkaHAgMBAAEwDQYJKoZIhvcNAQEEBQADgYEA
hcVvvXg2uW6NViSJPnPtw7MOAMCyb9ozKJiecT5nnyd1419bxNdTnpeYafFQgs9I
0PT1BefPGCiRF/6S+Zs/RmgqMGx4xhB69aUDkaxKcaraLeinG/bNjmkOtfR+ZtK2
1RYrXpU9Vq/j33A+j/bwrVUHU5zgkX9j2m+4lkZTfSA=
-----END CERTIFICATE-----
