Certificate:
    Data:
        Version: 1 (0x0)
        Serial Number:
            9b:27:d7:e8:d1:ba:08:88
        Signature Algorithm: md5WithRSAEncryption
        Issuer: C=DE, ST=Saarland, O=MPI-SWS, OU=Distributed Systems Group, CN=Andreas Haeberlen/emailAddress=democa@octarine.de
        Validity
            Not Before: Apr 20 20:47:04 2015 GMT
            Not After : Apr 19 20:47:04 2016 GMT
        Subject: C=DE, ST=Saarland, O=MPI-SWS, OU=Distributed Systems Group, CN=9e43a935750ed7c85165f50705c75f7feb2856dc/emailAddress=node0176@octarine.de
        Subject Public Key Info:
            Public Key Algorithm: rsaEncryption
            RSA Public Key: (1024 bit)
                Modulus (1024 bit):
                    00:9b:96:c9:d5:f4:9b:ee:01:3f:aa:85:bc:5e:d3:
                    2a:95:2f:16:bb:9c:ab:ed:ec:10:de:7e:11:2a:1d:
                    42:35:6e:38:a5:59:72:8a:3b:4a:b7:11:b1:68:2d:
                    0b:8c:5e:6f:b0:87:f5:6f:ae:55:f3:ab:14:6f:c5:
                    b4:ad:c9:42:00:5c:26:17:ca:a1:8f:f9:21:a6:23:
                    83:c9:b1:29:79:ce:2e:91:eb:d5:f0:c9:d7:c0:4d:
                    90:20:d8:c9:bc:72:4a:07:34:bf:39:c3:c5:6e:6d:
                    4d:c8:eb:60:8c:c7:6c:82:21:08:63:c3:06:27:55:
                    4f:3d:87:b7:93:0f:a5:9c:11
                Exponent: 65537 (0x10001)
    Signature Algorithm: md5WithRSAEncryption
        48:c3:24:91:ca:d7:01:19:b7:bb:7a:2f:99:90:0a:93:1f:0a:
        dd:04:d8:fb:ff:e0:f4:94:7d:98:44:0e:b5:8d:a0:ac:0a:03:
        e1:15:cf:94:be:53:11:42:21:3a:8a:76:67:5b:4e:ae:42:a1:
        99:ca:b6:4f:c0:09:65:53:90:85:93:f5:fc:b0:8e:a5:eb:e1:
        08:37:31:68:b2:60:3a:46:43:18:49:f9:ff:38:84:39:ea:19:
        ce:8c:86:e5:d6:c2:74:6c:0f:d1:23:29:b0:37:d5:a6:8b:aa:
        69:c0:ca:fe:e4:14:c2:17:6c:ca:37:5d:f0:85:40:34:e5:d1:
        d3:8a
-----BEGIN CERTIFICATE-----
MIICvDCCAiUCCQCbJ9fo0boIiDANBgkqhkiG9w0BAQQFADCBlTELMAkGA1UEBhMC
REUxETAPBgNVBAgTCFNhYXJsYW5kMRAwDgYDVQQKEwdNUEktU1dTMSIwIAYDVQQL
ExlEaXN0cmlidXRlZCBTeXN0ZW1zIEdyb3VwMRowGAYDVQQDExFBbmRyZWFzIEhh
ZWJlcmxlbjEhMB8GCSqGSIb3DQEJARYSZGVtb2NhQG9jdGFyaW5lLmRlMB4XDTE1
MDQyMDIwNDcwNFoXDTE2MDQxOTIwNDcwNFowga4xCzAJBgNVBAYTAkRFMREwDwYD
VQQIEwhTYWFybGFuZDEQMA4GA1UEChMHTVBJLVNXUzEiMCAGA1UECxMZRGlzdHJp
YnV0ZWQgU3lzdGVtcyBHcm91cDExMC8GA1UEAxMoOWU0M2E5MzU3NTBlZDdjODUx
NjVmNTA3MDVjNzVmN2ZlYjI4NTZkYzEjMCEGCSqGSIb3DQEJARYUbm9kZTAxNzZA
b2N0YXJpbmUuZGUwgZ8wDQYJKoZIhvcNAQEBBQADgY0AMIGJAoGBAJuWydX0m+4B
P6qFvF7TKpUvFrucq+3sEN5+ESodQjVuOKVZcoo7SrcRsWgtC4xeb7CH9W+uVfOr
FG/FtK3JQgBcJhfKoY/5IaYjg8mxKXnOLpHr1fDJ18BNkCDYybxySgc0vznDxW5t
TcjrYIzHbIIhCGPDBidVTz2Ht5MPpZwRAgMBAAEwDQYJKoZIhvcNAQEEBQADgYEA
SMMkkcrXARm3u3ovmZAKkx8K3QTY+//g9JR9mEQOtY2grAoD4RXPlL5TEUIhOop2
Z1tOrkKhmcq2T8AJZVOQhZP1/LCOpevhCDcxaLJgOkZDGEn5/ziEOeoZzoyG5dbC
dGwP0SMpsDfVpouqacDK/uQUwhdsyjdd8IVANOXR04o=
-----END CERTIFICATE-----
