Certificate:
    Data:
        Version: 1 (0x0)
        Serial Number:
            9b:27:d7:e8:d1:ba:0b:73
        Signature Algorithm: md5WithRSAEncryption
        Issuer: C=DE, ST=Saarland, O=MPI-SWS, OU=Distributed Systems Group, CN=Andreas Haeberlen/emailAddress=democa@octarine.de
        Validity
            Not Before: Apr 20 20:47:38 2015 GMT
            Not After : Apr 19 20:47:38 2016 GMT
        Subject: C=DE, ST=Saarland, O=MPI-SWS, OU=Distributed Systems Group, CN=8a72b5164dafb1a0089f33c88db89281cf3755e9/emailAddress=node0923@octarine.de
        Subject Public Key Info:
            Public Key Algorithm: rsaEncryption
            RSA Public Key: (1024 bit)
                Modulus (1024 bit):
                    00:e7:ef:0c:92:91:b5:4a:86:9a:fb:c9:c6:cf:82:
                    45:3a:bd:e8:b1:9a:6b:c2:4d:b9:58:c2:ff:87:09:
                    72:b0:38:ba:5f:02:70:8b:68:22:13:c8:3e:c9:48:
                    19:86:ea:c1:5c:83:86:ed:ec:c0:ec:19:ec:07:3a:
                    cb:27:f5:f5:29:62:96:7e:45:eb:0e:eb:11:2b:70:
                    95:db:0c:7f:38:a2:e0:ce:4d:e0:e0:1c:8d:fd:ca:
                    71:6a:01:24:e4:33:f9:a5:11:0e:7d:eb:fb:d9:29:
                    e7:e0:7b:78:d8:a2:0d:5a:31:43:24:d3:4b:4f:39:
                    c9:0c:f7:d3:54:dc:8e:87:1d
                Exponent: 65537 (0x10001)
    Signature Algorithm: md5WithRSAEncryption
        cb:59:66:5f:3c:05:51:8d:06:5e:9f:e4:09:1b:c0:0e:0e:47:
        cb:40:d8:cc:28:09:8c:11:b6:5d:b5:c2:be:8f:7d:4b:31:d1:
        4e:86:ae:9e:be:15:84:78:1c:c3:53:c1:f7:4e:c7:c2:95:99:
        e6:f8:68:28:0b:6a:a3:b2:67:2a:82:e0:36:05:21:13:e3:c1:
        6a:d9:1c:e1:bb:ba:71:59:38:20:f3:2a:07:3a:96:93:34:1e:
        7e:e5:a7:a6:1a:82:af:cc:84:51:84:b6:60:dc:49:c1:29:62:
        91:53:18:89:ee:b6:48:25:20:01:ee:ac:7d:c1:f4:29:c7:59:
        0e:e4
-----BEGIN CERTIFICATE-----
MIICvDCCAiUCCQCbJ9fo0boLczANBgkqhkiG9w0BAQQFADCBlTELMAkGA1UEBhMC
REUxETAPBgNVBAgTCFNhYXJsYW5kMRAwDgYDVQQKEwdNUEktU1dTMSIwIAYDVQQL
ExlEaXN0cmlidXRlZCBTeXN0ZW1zIEdyb3VwMRowGAYDVQQDExFBbmRyZWFzIEhh
ZWJlcmxlbjEhMB8GCSqGSIb3DQEJARYSZGVtb2NhQG9jdGFyaW5lLmRlMB4XDTE1
MDQyMDIwNDczOFoXDTE2MDQxOTIwNDczOFowga4xCzAJBgNVBAYTAkRFMREwDwYD
VQQIEwhTYWFybGFuZDEQMA4GA1UEChMHTVBJLVNXUzEiMCAGA1UECxMZRGlzdHJp
YnV0ZWQgU3lzdGVtcyBHcm91cDExMC8GA1UEAxMoOGE3MmI1MTY0ZGFmYjFhMDA4
OWYzM2M4OGRiODkyODFjZjM3NTVlOTEjMCEGCSqGSIb3DQEJARYUbm9kZTA5MjNA
b2N0YXJpbmUuZGUwgZ8wDQYJKoZIhvcNAQEBBQADgY0AMIGJAoGBAOfvDJKRtUqG
mvvJxs+CRTq96LGaa8JNuVjC/4cJcrA4ul8CcItoIhPIPslIGYbqwVyDhu3swOwZ
7Ac6yyf19Sliln5F6w7rEStwldsMfzii4M5N4OAcjf3KcWoBJOQz+aURDn3r+9kp
5+B7eNiiDVoxQyTTS085yQz301TcjocdAgMBAAEwDQYJKoZIhvcNAQEEBQADgYEA
y1lmXzwFUY0GXp/kCRvADg5Hy0DYzCgJjBG2XbXCvo99SzHRToaunr4VhHgcw1PB
907HwpWZ5vhoKAtqo7JnKoLgNgUhE+PBatkc4bu6cVk4IPMqBzqWkzQefuWnphqC
r8yEUYS2YNxJwSlikVMYie62SCUgAe6sfcH0KcdZDuQ=
-----END CERTIFICATE-----
