Certificate:
    Data:
        Version: 1 (0x0)
        Serial Number:
            9b:27:d7:e8:d1:ba:09:a3
        Signature Algorithm: md5WithRSAEncryption
        Issuer: C=DE, ST=Saarland, O=MPI-SWS, OU=Distributed Systems Group, CN=Andreas Haeberlen/emailAddress=democa@octarine.de
        Validity
            Not Before: Apr 20 20:47:17 2015 GMT
            Not After : Apr 19 20:47:17 2016 GMT
        Subject: C=DE, ST=Saarland, O=MPI-SWS, OU=Distributed Systems Group, CN=9c85169aea53575fa59650de8104cdf6a8cbf65d/emailAddress=node0459@octarine.de
        Subject Public Key Info:
            Public Key Algorithm: rsaEncryption
            RSA Public Key: (1024 bit)
                Modulus (1024 bit):
                    00:b9:d5:dc:12:df:d0:e1:8e:df:8c:bc:d1:2f:5b:
                    5f:0b:ef:90:45:8d:23:a4:a1:2e:61:d5:24:17:04:
                    8d:3b:3d:7f:10:9f:f0:90:a9:45:9c:cc:2b:66:7d:
                    7e:21:3b:93:f2:44:b2:07:4c:51:5f:c8:11:2f:e0:
                    ff:31:9c:1e:2c:ad:b3:20:7a:70:f7:ea:d9:50:54:
                    16:90:66:74:f3:6f:2a:54:c7:23:1b:2e:da:52:37:
                    1a:06:67:12:c8:c3:40:06:cb:6d:a6:1c:6d:06:b4:
                    25:0e:39:5e:2b:53:73:38:9a:72:e1:78:3b:ff:57:
                    30:a8:80:b2:09:43:3f:2c:65
                Exponent: 65537 (0x10001)
    Signature Algorithm: md5WithRSAEncryption
        25:c3:f4:b7:85:9e:52:ae:8c:cf:53:03:eb:69:35:e4:60:3e:
        45:d0:b8:7d:29:79:cd:e5:90:03:f4:36:3e:8d:5e:0b:f8:ca:
        54:b3:f1:78:2f:b1:d6:8b:7e:8c:4b:e4:79:46:92:aa:46:b8:
        f7:02:63:e7:7c:a6:31:f4:34:d8:7c:a8:45:f3:19:e4:d1:66:
        c3:83:81:ed:40:72:24:ac:51:65:af:13:6c:1b:56:15:10:5f:
        52:b1:71:fe:f6:72:f7:11:c7:56:f0:b6:95:01:52:d6:a5:64:
        41:4a:49:41:95:e9:bb:d2:c8:08:b6:24:9a:d9:04:3d:b2:c5:
        a0:cf
-----BEGIN CERTIFICATE-----
MIICvDCCAiUCCQCbJ9fo0boJozANBgkqhkiG9w0BAQQFADCBlTELMAkGA1UEBhMC
REUxETAPBgNVBAgTCFNhYXJsYW5kMRAwDgYDVQQKEwdNUEktU1dTMSIwIAYDVQQL
ExlEaXN0cmlidXRlZCBTeXN0ZW1zIEdyb3VwMRowGAYDVQQDExFBbmRyZWFzIEhh
ZWJlcmxlbjEhMB8GCSqGSIb3DQEJARYSZGVtb2NhQG9jdGFyaW5lLmRlMB4XDTE1
MDQyMDIwNDcxN1oXDTE2MDQxOTIwNDcxN1owga4xCzAJBgNVBAYTAkRFMREwDwYD
VQQIEwhTYWFybGFuZDEQMA4GA1UEChMHTVBJLVNXUzEiMCAGA1UECxMZRGlzdHJp
YnV0ZWQgU3lzdGVtcyBHcm91cDExMC8GA1UEAxMoOWM4NTE2OWFlYTUzNTc1ZmE1
OTY1MGRlODEwNGNkZjZhOGNiZjY1ZDEjMCEGCSqGSIb3DQEJARYUbm9kZTA0NTlA
b2N0YXJpbmUuZGUwgZ8wDQYJKoZIhvcNAQEBBQADgY0AMIGJAoGBALnV3BLf0OGO
34y80S9bXwvvkEWNI6ShLmHVJBcEjTs9fxCf8JCpRZzMK2Z9fiE7k/JEsgdMUV/I
ES/g/zGcHiytsyB6cPfq2VBUFpBmdPNvKlTHIxsu2lI3GgZnEsjDQAbLbaYcbQa0
JQ45XitTcziacuF4O/9XMKiAsglDPyxlAgMBAAEwDQYJKoZIhvcNAQEEBQADgYEA
JcP0t4WeUq6Mz1MD62k15GA+RdC4fSl5zeWQA/Q2Po1eC/jKVLPxeC+x1ot+jEvk
eUaSqka49wJj53ymMfQ02HyoRfMZ5NFmw4OB7UByJKxRZa8TbBtWFRBfUrFx/vZy
9xHHVvC2lQFS1qVkQUpJQZXpu9LICLYkmtkEPbLFoM8=
-----END CERTIFICATE-----
