Certificate:
    Data:
        Version: 1 (0x0)
        Serial Number:
            9b:27:d7:e8:d1:ba:0b:9b
        Signature Algorithm: md5WithRSAEncryption
        Issuer: C=DE, ST=Saarland, O=MPI-SWS, OU=Distributed Systems Group, CN=Andreas Haeberlen/emailAddress=democa@octarine.de
        Validity
            Not Before: Apr 20 20:47:40 2015 GMT
            Not After : Apr 19 20:47:40 2016 GMT
        Subject: C=DE, ST=Saarland, O=MPI-SWS, OU=Distributed Systems Group, CN=1fec7c8a7f0bcbeebcdc4582ca52075163ed0787/emailAddress=node0963@octarine.de
        Subject Public Key Info:
            Public Key Algorithm: rsaEncryption
            RSA Public Key: (1024 bit)
                Modulus (1024 bit):
                    00:b4:4f:83:97:73:c6:3e:ed:a4:06:c0:a4:97:f8:
                    88:71:4c:2b:e8:d0:5a:a7:cf:0d:02:9c:8f:ca:89:
                    fc:95:af:e5:ba:a0:66:d4:cb:e9:ee:78:01:c1:d2:
                    52:1e:b8:95:a7:24:95:89:c5:7a:8c:56:ab:ae:e8:
                    55:ff:9c:67:ce:cd:39:62:e9:23:09:5f:33:eb:af:
                    ac:71:e2:6b:ce:77:dd:5c:4f:ea:a3:01:87:39:8a:
                    ec:bd:63:07:a0:e2:56:9a:60:08:0e:d7:c8:49:5a:
                    88:f7:b4:a0:c2:2c:ac:da:20:fd:d2:55:cc:5a:68:
                    a9:1d:33:36:4d:87:43:46:ff
                Exponent: 65537 (0x10001)
    Signature Algorithm: md5WithRSAEncryption
        76:91:04:15:12:e2:bc:ac:35:d6:eb:1e:b5:ed:fb:16:bc:95:
        3c:ee:39:db:69:a0:71:de:a4:f3:25:f4:db:b3:88:eb:fb:79:
        06:3e:f2:d0:b6:9f:fa:ef:40:d6:70:ae:b5:8c:03:d6:53:5f:
        bf:65:86:3c:01:2f:0a:22:9d:66:37:70:3a:02:81:c5:95:d4:
        5d:18:7e:f0:f5:5d:85:29:d3:c4:de:72:3a:e9:63:02:6a:e7:
        b9:a9:64:5d:34:a9:de:32:53:71:6b:c1:82:fd:52:da:65:f5:
        93:1c:95:be:43:55:ca:1b:1e:d1:4e:cd:0a:2b:5d:09:60:a8:
        7d:7a
-----BEGIN CERTIFICATE-----
MIICvDCCAiUCCQCbJ9fo0boLmzANBgkqhkiG9w0BAQQFADCBlTELMAkGA1UEBhMC
REUxETAPBgNVBAgTCFNhYXJsYW5kMRAwDgYDVQQKEwdNUEktU1dTMSIwIAYDVQQL
ExlEaXN0cmlidXRlZCBTeXN0ZW1zIEdyb3VwMRowGAYDVQQDExFBbmRyZWFzIEhh
ZWJlcmxlbjEhMB8GCSqGSIb3DQEJARYSZGVtb2NhQG9jdGFyaW5lLmRlMB4XDTE1
MDQyMDIwNDc0MFoXDTE2MDQxOTIwNDc0MFowga4xCzAJBgNVBAYTAkRFMREwDwYD
VQQIEwhTYWFybGFuZDEQMA4GA1UEChMHTVBJLVNXUzEiMCAGA1UECxMZRGlzdHJp
YnV0ZWQgU3lzdGVtcyBHcm91cDExMC8GA1UEAxMoMWZlYzdjOGE3ZjBiY2JlZWJj
ZGM0NTgyY2E1MjA3NTE2M2VkMDc4NzEjMCEGCSqGSIb3DQEJARYUbm9kZTA5NjNA
b2N0YXJpbmUuZGUwgZ8wDQYJKoZIhvcNAQEBBQADgY0AMIGJAoGBALRPg5dzxj7t
pAbApJf4iHFMK+jQWqfPDQKcj8qJ/JWv5bqgZtTL6e54AcHSUh64lacklYnFeoxW
q67oVf+cZ87NOWLpIwlfM+uvrHHia8533VxP6qMBhzmK7L1jB6DiVppgCA7XyEla
iPe0oMIsrNog/dJVzFpoqR0zNk2HQ0b/AgMBAAEwDQYJKoZIhvcNAQEEBQADgYEA
dpEEFRLivKw11usete37FryVPO4522mgcd6k8yX027OI6/t5Bj7y0Laf+u9A1nCu
tYwD1lNfv2WGPAEvCiKdZjdwOgKBxZXUXRh+8PVdhSnTxN5yOuljAmrnualkXTSp
3jJTcWvBgv1S2mX1kxyVvkNVyhse0U7NCitdCWCofXo=
-----END CERTIFICATE-----
