Certificate:
    Data:
        Version: 1 (0x0)
        Serial Number:
            9b:27:d7:e8:d1:ba:09:f8
        Signature Algorithm: md5WithRSAEncryption
        Issuer: C=DE, ST=Saarland, O=MPI-SWS, OU=Distributed Systems Group, CN=Andreas Haeberlen/emailAddress=democa@octarine.de
        Validity
            Not Before: Apr 20 20:47:21 2015 GMT
            Not After : Apr 19 20:47:21 2016 GMT
        Subject: C=DE, ST=Saarland, O=MPI-SWS, OU=Distributed Systems Group, CN=a74fd6080cc1a6a5f7845c61848990047444b4cc/emailAddress=node0544@octarine.de
        Subject Public Key Info:
            Public Key Algorithm: rsaEncryption
            RSA Public Key: (1024 bit)
                Modulus (1024 bit):
                    00:ca:52:1a:6e:09:00:24:a2:7c:47:1d:9f:d4:bf:
                    d4:6f:8c:02:ce:ee:42:63:ac:94:26:82:c7:39:e3:
                    6c:95:ac:cd:84:0b:2f:96:a2:30:ca:ca:8b:b1:c0:
                    58:38:e5:15:d5:f4:89:66:d5:34:b5:66:26:ad:4c:
                    45:de:b5:45:e8:30:ee:f6:70:c6:32:ea:70:13:b3:
                    b8:ab:ff:b2:3d:21:d0:f0:90:38:c8:f9:5a:d2:42:
                    63:37:87:ed:8a:c1:21:4f:b5:8c:85:a7:36:81:a8:
                    0d:08:c3:91:43:62:c0:52:ea:7e:b0:af:3b:db:6c:
                    3f:9a:f8:be:98:d6:96:16:07
                Exponent: 65537 (0x10001)
    Signature Algorithm: md5WithRSAEncryption
        cd:80:60:07:c7:8c:8b:31:66:30:ea:67:bf:8c:bb:17:e4:4e:
        ea:53:8a:74:7a:32:0d:76:b8:00:da:4e:5c:23:fe:af:ae:5f:
        82:bb:b7:24:86:2f:b2:8e:fa:27:8e:56:68:22:0a:99:a1:ee:
        d9:74:2f:a3:a1:fd:58:74:f1:e6:fd:f3:d7:be:d1:be:b4:c9:
        ec:ac:9a:df:ba:d9:c5:0b:01:28:77:61:5f:c4:17:fd:7b:8c:
        64:db:31:ad:66:80:92:6a:bd:81:22:ee:4f:78:f9:9c:70:d1:
        a9:de:bd:c1:92:94:10:2a:aa:23:27:4c:17:e9:ff:cc:47:8d:
        bb:7d
-----BEGIN CERTIFICATE-----
MIICvDCCAiUCCQCbJ9fo0boJ+DANBgkqhkiG9w0BAQQFADCBlTELMAkGA1UEBhMC
REUxETAPBgNVBAgTCFNhYXJsYW5kMRAwDgYDVQQKEwdNUEktU1dTMSIwIAYDVQQL
ExlEaXN0cmlidXRlZCBTeXN0ZW1zIEdyb3VwMRowGAYDVQQDExFBbmRyZWFzIEhh
ZWJlcmxlbjEhMB8GCSqGSIb3DQEJARYSZGVtb2NhQG9jdGFyaW5lLmRlMB4XDTE1
MDQyMDIwNDcyMVoXDTE2MDQxOTIwNDcyMVowga4xCzAJBgNVBAYTAkRFMREwDwYD
VQQIEwhTYWFybGFuZDEQMA4GA1UEChMHTVBJLVNXUzEiMCAGA1UECxMZRGlzdHJp
YnV0ZWQgU3lzdGVtcyBHcm91cDExMC8GA1UEAxMoYTc0ZmQ2MDgwY2MxYTZhNWY3
ODQ1YzYxODQ4OTkwMDQ3NDQ0YjRjYzEjMCEGCSqGSIb3DQEJARYUbm9kZTA1NDRA
b2N0YXJpbmUuZGUwgZ8wDQYJKoZIhvcNAQEBBQADgY0AMIGJAoGBAMpSGm4JACSi
fEcdn9S/1G+MAs7uQmOslCaCxznjbJWszYQLL5aiMMrKi7HAWDjlFdX0iWbVNLVm
Jq1MRd61Regw7vZwxjLqcBOzuKv/sj0h0PCQOMj5WtJCYzeH7YrBIU+1jIWnNoGo
DQjDkUNiwFLqfrCvO9tsP5r4vpjWlhYHAgMBAAEwDQYJKoZIhvcNAQEEBQADgYEA
zYBgB8eMizFmMOpnv4y7F+RO6lOKdHoyDXa4ANpOXCP+r65fgru3JIYvso76J45W
aCIKmaHu2XQvo6H9WHTx5v3z177RvrTJ7Kya37rZxQsBKHdhX8QX/XuMZNsxrWaA
kmq9gSLuT3j5nHDRqd69wZKUECqqIydMF+n/zEeNu30=
-----END CERTIFICATE-----
