Certificate:
    Data:
        Version: 1 (0x0)
        Serial Number:
            9b:27:d7:e8:d1:ba:08:b8
        Signature Algorithm: md5WithRSAEncryption
        Issuer: C=DE, ST=Saarland, O=MPI-SWS, OU=Distributed Systems Group, CN=Andreas Haeberlen/emailAddress=democa@octarine.de
        Validity
            Not Before: Apr 20 20:47:06 2015 GMT
            Not After : Apr 19 20:47:06 2016 GMT
        Subject: C=DE, ST=Saarland, O=MPI-SWS, OU=Distributed Systems Group, CN=a15576b7acb1223caf85ea97426e81e32499b406/emailAddress=node0224@octarine.de
        Subject Public Key Info:
            Public Key Algorithm: rsaEncryption
            RSA Public Key: (1024 bit)
                Modulus (1024 bit):
                    00:c1:2b:8f:8c:64:e2:6f:31:b3:bf:1e:dd:76:33:
                    88:b6:fb:13:ac:51:53:d9:7e:dc:05:c4:b8:15:7d:
                    2b:04:e8:e6:61:32:eb:71:d3:33:98:fb:d1:36:fc:
                    bb:10:ec:7f:14:c1:78:66:35:10:d8:c9:39:0b:3d:
                    72:d5:fa:b4:f0:7c:7b:6b:fb:fb:a0:1f:25:0c:fc:
                    c8:f8:0c:cc:db:e4:e7:7f:3c:7f:16:df:d7:cb:32:
                    b6:ec:0c:7f:b6:e9:92:17:b1:9c:ca:14:8e:16:ae:
                    2d:07:e1:4e:e5:2f:a5:23:83:6f:15:0e:47:ca:49:
                    8b:ef:0f:21:33:64:bc:ac:61
                Exponent: 65537 (0x10001)
    Signature Algorithm: md5WithRSAEncryption
        5e:da:f5:49:06:68:04:0d:b5:2b:0c:66:bd:49:89:f5:cc:f8:
        13:0f:81:ca:b2:64:72:f0:47:40:20:65:6a:f7:ec:a9:ca:cd:
        f3:60:5b:33:33:9d:a3:6e:c4:79:5c:fd:87:01:46:b8:eb:0e:
        ac:0d:2c:89:45:38:2c:33:17:13:fa:bb:56:e3:7a:35:c9:5a:
        ac:26:18:27:2f:95:2b:6d:b1:16:9f:b3:ec:c9:9d:d1:39:62:
        85:c3:54:e6:7c:c9:ee:07:09:9c:0c:26:e0:79:47:21:b5:80:
        85:83:2f:35:ff:8f:24:e8:7f:df:10:9a:17:6c:a6:07:e4:a4:
        e4:ca
-----BEGIN CERTIFICATE-----
MIICvDCCAiUCCQCbJ9fo0boIuDANBgkqhkiG9w0BAQQFADCBlTELMAkGA1UEBhMC
REUxETAPBgNVBAgTCFNhYXJsYW5kMRAwDgYDVQQKEwdNUEktU1dTMSIwIAYDVQQL
ExlEaXN0cmlidXRlZCBTeXN0ZW1zIEdyb3VwMRowGAYDVQQDExFBbmRyZWFzIEhh
ZWJlcmxlbjEhMB8GCSqGSIb3DQEJARYSZGVtb2NhQG9jdGFyaW5lLmRlMB4XDTE1
MDQyMDIwNDcwNloXDTE2MDQxOTIwNDcwNlowga4xCzAJBgNVBAYTAkRFMREwDwYD
VQQIEwhTYWFybGFuZDEQMA4GA1UEChMHTVBJLVNXUzEiMCAGA1UECxMZRGlzdHJp
YnV0ZWQgU3lzdGVtcyBHcm91cDExMC8GA1UEAxMoYTE1NTc2YjdhY2IxMjIzY2Fm
ODVlYTk3NDI2ZTgxZTMyNDk5YjQwNjEjMCEGCSqGSIb3DQEJARYUbm9kZTAyMjRA
b2N0YXJpbmUuZGUwgZ8wDQYJKoZIhvcNAQEBBQADgY0AMIGJAoGBAMErj4xk4m8x
s78e3XYziLb7E6xRU9l+3AXEuBV9KwTo5mEy63HTM5j70Tb8uxDsfxTBeGY1ENjJ
OQs9ctX6tPB8e2v7+6AfJQz8yPgMzNvk5388fxbf18sytuwMf7bpkhexnMoUjhau
LQfhTuUvpSODbxUOR8pJi+8PITNkvKxhAgMBAAEwDQYJKoZIhvcNAQEEBQADgYEA
Xtr1SQZoBA21KwxmvUmJ9cz4Ew+ByrJkcvBHQCBlavfsqcrN82BbMzOdo27EeVz9
hwFGuOsOrA0siUU4LDMXE/q7VuN6NclarCYYJy+VK22xFp+z7Mmd0TlihcNU5nzJ
7gcJnAwm4HlHIbWAhYMvNf+PJOh/3xCaF2ymB+Sk5Mo=
-----END CERTIFICATE-----
