Certificate:
    Data:
        Version: 1 (0x0)
        Serial Number:
            9b:27:d7:e8:d1:ba:09:c7
        Signature Algorithm: md5WithRSAEncryption
        Issuer: C=DE, ST=Saarland, O=MPI-SWS, OU=Distributed Systems Group, CN=Andreas Haeberlen/emailAddress=democa@octarine.de
        Validity
            Not Before: Apr 20 20:47:18 2015 GMT
            Not After : Apr 19 20:47:18 2016 GMT
        Subject: C=DE, ST=Saarland, O=MPI-SWS, OU=Distributed Systems Group, CN=70ff79a8684fe2efdbfe57d8aead653e53dcc752/emailAddress=node0495@octarine.de
        Subject Public Key Info:
            Public Key Algorithm: rsaEncryption
            RSA Public Key: (1024 bit)
                Modulus (1024 bit):
                    00:b0:d8:ee:46:e8:6e:2e:cc:43:bb:61:4e:ba:07:
                    6c:88:54:d4:03:90:34:63:5f:38:3f:af:2b:10:6b:
                    08:5d:c0:40:c2:9f:d3:59:02:46:63:39:2d:e8:c5:
                    d5:5e:36:52:db:1c:d6:c7:92:3a:e1:99:6b:01:49:
                    a1:53:24:e4:ec:3e:9b:70:7d:79:87:09:78:29:83:
                    3c:69:b0:f5:06:e5:1d:1b:6d:7a:94:5f:d9:2d:62:
                    26:52:8c:30:d7:b1:fd:db:25:98:2e:88:ee:e4:07:
                    91:e4:7b:c6:ed:d5:67:00:01:bd:2a:29:02:a6:ab:
                    2f:68:3e:9b:fe:e4:26:0d:6f
                Exponent: 65537 (0x10001)
    Signature Algorithm: md5WithRSAEncryption
        72:49:a2:af:59:dc:12:32:43:3d:91:4f:be:98:d0:fc:d4:63:
        29:f2:8a:dc:6b:dc:36:b3:8b:8b:8c:39:61:4c:4c:cf:29:15:
        f2:af:3c:0f:d5:c2:9c:8e:8e:75:b6:0b:19:b9:bb:80:3c:34:
        83:97:36:73:b1:5e:3a:55:9f:37:0f:fd:f5:95:a1:8c:67:40:
        07:01:b9:0b:55:a6:2b:2a:a6:cc:ce:d5:13:46:03:21:4f:b0:
        2a:da:7f:a9:75:2d:49:fa:07:38:f5:ac:ca:9b:f9:7f:4c:2d:
        5b:91:2b:9d:7a:7f:f0:13:eb:7f:60:27:ee:aa:ab:4c:43:c1:
        d3:56
-----BEGIN CERTIFICATE-----
MIICvDCCAiUCCQCbJ9fo0boJxzANBgkqhkiG9w0BAQQFADCBlTELMAkGA1UEBhMC
REUxETAPBgNVBAgTCFNhYXJsYW5kMRAwDgYDVQQKEwdNUEktU1dTMSIwIAYDVQQL
ExlEaXN0cmlidXRlZCBTeXN0ZW1zIEdyb3VwMRowGAYDVQQDExFBbmRyZWFzIEhh
ZWJlcmxlbjEhMB8GCSqGSIb3DQEJARYSZGVtb2NhQG9jdGFyaW5lLmRlMB4XDTE1
MDQyMDIwNDcxOFoXDTE2MDQxOTIwNDcxOFowga4xCzAJBgNVBAYTAkRFMREwDwYD
VQQIEwhTYWFybGFuZDEQMA4GA1UEChMHTVBJLVNXUzEiMCAGA1UECxMZRGlzdHJp
YnV0ZWQgU3lzdGVtcyBHcm91cDExMC8GA1UEAxMoNzBmZjc5YTg2ODRmZTJlZmRi
ZmU1N2Q4YWVhZDY1M2U1M2RjYzc1MjEjMCEGCSqGSIb3DQEJARYUbm9kZTA0OTVA
b2N0YXJpbmUuZGUwgZ8wDQYJKoZIhvcNAQEBBQADgY0AMIGJAoGBALDY7kbobi7M
Q7thTroHbIhU1AOQNGNfOD+vKxBrCF3AQMKf01kCRmM5LejF1V42Utsc1seSOuGZ
awFJoVMk5Ow+m3B9eYcJeCmDPGmw9QblHRttepRf2S1iJlKMMNex/dslmC6I7uQH
keR7xu3VZwABvSopAqarL2g+m/7kJg1vAgMBAAEwDQYJKoZIhvcNAQEEBQADgYEA
ckmir1ncEjJDPZFPvpjQ/NRjKfKK3GvcNrOLi4w5YUxMzykV8q88D9XCnI6OdbYL
Gbm7gDw0g5c2c7FeOlWfNw/99ZWhjGdABwG5C1WmKyqmzM7VE0YDIU+wKtp/qXUt
SfoHOPWsypv5f0wtW5ErnXp/8BPrf2An7qqrTEPB01Y=
-----END CERTIFICATE-----
