Certificate:
    Data:
        Version: 1 (0x0)
        Serial Number:
            9b:27:d7:e8:d1:ba:08:ad
        Signature Algorithm: md5WithRSAEncryption
        Issuer: C=DE, ST=Saarland, O=MPI-SWS, OU=Distributed Systems Group, CN=Andreas Haeberlen/emailAddress=democa@octarine.de
        Validity
            Not Before: Apr 20 20:47:06 2015 GMT
            Not After : Apr 19 20:47:06 2016 GMT
        Subject: C=DE, ST=Saarland, O=MPI-SWS, OU=Distributed Systems Group, CN=1cb5f147c05e8d0cc525c8d975f858275dd4f1bc/emailAddress=node0213@octarine.de
        Subject Public Key Info:
            Public Key Algorithm: rsaEncryption
            RSA Public Key: (1024 bit)
                Modulus (1024 bit):
                    00:dd:40:15:bf:1a:27:40:b8:43:2b:da:97:91:c4:
                    bb:e9:a7:e2:70:a3:64:38:68:51:58:3e:df:1b:0d:
                    e4:49:d6:cd:c0:14:25:2a:49:19:04:24:d0:87:17:
                    a4:e5:1a:69:4a:31:6d:69:13:7f:d5:68:48:2e:20:
                    92:c8:7a:5e:d4:e6:55:27:89:5e:dc:9f:61:d4:9a:
                    84:91:68:23:62:4e:92:ec:91:b9:a8:d3:73:92:e0:
                    ef:0c:24:d7:01:a1:2c:e8:4d:6e:f2:1b:37:46:7a:
                    0e:81:d3:72:2f:9b:a6:d2:2d:8a:d9:6a:30:65:bd:
                    29:d2:46:7d:39:c2:07:8a:99
                Exponent: 65537 (0x10001)
    Signature Algorithm: md5WithRSAEncryption
        ca:84:4b:56:45:df:10:df:b8:21:65:30:cd:37:3e:cb:b4:21:
        ce:29:4f:93:6c:9b:39:cc:5a:4f:93:9f:5d:cd:93:29:78:8f:
        0e:c7:43:ae:72:44:9d:5d:22:6e:84:5d:14:7d:66:3a:75:62:
        80:cd:b5:1f:00:45:0a:d7:8f:c5:04:a9:f8:36:a6:a8:bd:94:
        da:86:77:17:b4:3e:87:0f:03:c9:62:7a:ef:30:20:7a:01:9f:
        f3:6f:e2:b5:b4:45:a1:4e:2a:1a:fa:95:e9:c1:64:a7:d8:3f:
        bd:bf:c8:f0:c8:2d:f8:0f:37:7e:8a:4b:5d:25:6c:19:55:4f:
        20:76
-----BEGIN CERTIFICATE-----
MIICvDCCAiUCCQCbJ9fo0boIrTANBgkqhkiG9w0BAQQFADCBlTELMAkGA1UEBhMC
REUxETAPBgNVBAgTCFNhYXJsYW5kMRAwDgYDVQQKEwdNUEktU1dTMSIwIAYDVQQL
ExlEaXN0cmlidXRlZCBTeXN0ZW1zIEdyb3VwMRowGAYDVQQDExFBbmRyZWFzIEhh
ZWJlcmxlbjEhMB8GCSqGSIb3DQEJARYSZGVtb2NhQG9jdGFyaW5lLmRlMB4XDTE1
MDQyMDIwNDcwNloXDTE2MDQxOTIwNDcwNlowga4xCzAJBgNVBAYTAkRFMREwDwYD
VQQIEwhTYWFybGFuZDEQMA4GA1UEChMHTVBJLVNXUzEiMCAGA1UECxMZRGlzdHJp
YnV0ZWQgU3lzdGVtcyBHcm91cDExMC8GA1UEAxMoMWNiNWYxNDdjMDVlOGQwY2M1
MjVjOGQ5NzVmODU4Mjc1ZGQ0ZjFiYzEjMCEGCSqGSIb3DQEJARYUbm9kZTAyMTNA
b2N0YXJpbmUuZGUwgZ8wDQYJKoZIhvcNAQEBBQADgY0AMIGJAoGBAN1AFb8aJ0C4
Qyval5HEu+mn4nCjZDhoUVg+3xsN5EnWzcAUJSpJGQQk0IcXpOUaaUoxbWkTf9Vo
SC4gksh6XtTmVSeJXtyfYdSahJFoI2JOkuyRuajTc5Lg7wwk1wGhLOhNbvIbN0Z6
DoHTci+bptItitlqMGW9KdJGfTnCB4qZAgMBAAEwDQYJKoZIhvcNAQEEBQADgYEA
yoRLVkXfEN+4IWUwzTc+y7QhzilPk2ybOcxaT5OfXc2TKXiPDsdDrnJEnV0iboRd
FH1mOnVigM21HwBFCtePxQSp+DamqL2U2oZ3F7Q+hw8DyWJ67zAgegGf82/itbRF
oU4qGvqV6cFkp9g/vb/I8Mgt+A83fopLXSVsGVVPIHY=
-----END CERTIFICATE-----
