Certificate:
    Data:
        Version: 1 (0x0)
        Serial Number:
            9b:27:d7:e8:d1:ba:09:4b
        Signature Algorithm: md5WithRSAEncryption
        Issuer: C=DE, ST=Saarland, O=MPI-SWS, OU=Distributed Systems Group, CN=Andreas Haeberlen/emailAddress=democa@octarine.de
        Validity
            Not Before: Apr 20 20:47:12 2015 GMT
            Not After : Apr 19 20:47:12 2016 GMT
        Subject: C=DE, ST=Saarland, O=MPI-SWS, OU=Distributed Systems Group, CN=b49c82977a8cee996ffb88994391c857df451ed8/emailAddress=node0371@octarine.de
        Subject Public Key Info:
            Public Key Algorithm: rsaEncryption
            RSA Public Key: (1024 bit)
                Modulus (1024 bit):
                    00:ab:89:96:62:24:da:f7:9b:f3:6e:84:6f:e9:c9:
                    7c:1a:dc:a2:df:aa:e9:34:22:56:2b:45:57:97:ef:
                    43:3a:85:ee:77:e4:44:b8:14:e5:4a:8a:58:b7:54:
                    79:4f:4f:f1:56:c7:62:6b:f1:c3:f5:57:0b:fa:ba:
                    05:ac:5d:23:3d:d5:5b:a8:16:57:05:19:be:2c:e4:
                    4f:77:16:e7:48:fc:06:81:12:79:55:2b:8c:c0:3a:
                    cc:56:d6:7b:72:11:e4:18:87:5a:4d:f6:29:4e:e7:
                    6f:a5:07:7f:8b:3f:a8:58:ae:b1:ae:52:2d:19:ae:
                    93:cc:20:a5:b3:6d:3e:59:11
                Exponent: 65537 (0x10001)
    Signature Algorithm: md5WithRSAEncryption
        91:58:03:bc:f7:5a:a0:43:8f:2c:83:44:cf:1f:37:ca:84:97:
        7f:ff:50:fa:02:f2:b9:ab:52:6e:ab:57:b5:b6:d4:83:7d:78:
        47:e8:c7:1e:84:80:57:ce:53:5c:4c:a9:74:ba:af:df:c9:e2:
        de:bb:95:38:29:5a:7c:76:30:a9:01:3f:7d:19:29:c9:6b:45:
        bb:06:eb:76:31:2e:ce:8f:04:4f:bf:bc:50:3d:7e:c8:cf:25:
        77:c6:bb:b3:aa:db:bd:2d:11:d1:bf:fd:72:9f:4b:12:97:13:
        af:0d:f9:29:10:a6:ad:25:4d:f7:7e:79:22:41:5d:35:5a:d4:
        0e:cb
-----BEGIN CERTIFICATE-----
MIICvDCCAiUCCQCbJ9fo0boJSzANBgkqhkiG9w0BAQQFADCBlTELMAkGA1UEBhMC
REUxETAPBgNVBAgTCFNhYXJsYW5kMRAwDgYDVQQKEwdNUEktU1dTMSIwIAYDVQQL
ExlEaXN0cmlidXRlZCBTeXN0ZW1zIEdyb3VwMRowGAYDVQQDExFBbmRyZWFzIEhh
ZWJlcmxlbjEhMB8GCSqGSIb3DQEJARYSZGVtb2NhQG9jdGFyaW5lLmRlMB4XDTE1
MDQyMDIwNDcxMloXDTE2MDQxOTIwNDcxMlowga4xCzAJBgNVBAYTAkRFMREwDwYD
VQQIEwhTYWFybGFuZDEQMA4GA1UEChMHTVBJLVNXUzEiMCAGA1UECxMZRGlzdHJp
YnV0ZWQgU3lzdGVtcyBHcm91cDExMC8GA1UEAxMoYjQ5YzgyOTc3YThjZWU5OTZm
ZmI4ODk5NDM5MWM4NTdkZjQ1MWVkODEjMCEGCSqGSIb3DQEJARYUbm9kZTAzNzFA
b2N0YXJpbmUuZGUwgZ8wDQYJKoZIhvcNAQEBBQADgY0AMIGJAoGBAKuJlmIk2veb
826Eb+nJfBrcot+q6TQiVitFV5fvQzqF7nfkRLgU5UqKWLdUeU9P8VbHYmvxw/VX
C/q6BaxdIz3VW6gWVwUZvizkT3cW50j8BoESeVUrjMA6zFbWe3IR5BiHWk32KU7n
b6UHf4s/qFiusa5SLRmuk8wgpbNtPlkRAgMBAAEwDQYJKoZIhvcNAQEEBQADgYEA
kVgDvPdaoEOPLINEzx83yoSXf/9Q+gLyuatSbqtXtbbUg314R+jHHoSAV85TXEyp
dLqv38ni3ruVOClafHYwqQE/fRkpyWtFuwbrdjEuzo8ET7+8UD1+yM8ld8a7s6rb
vS0R0b/9cp9LEpcTrw35KRCmrSVN9355IkFdNVrUDss=
-----END CERTIFICATE-----
