Certificate:
    Data:
        Version: 1 (0x0)
        Serial Number:
            9b:27:d7:e8:d1:ba:0a:38
        Signature Algorithm: md5WithRSAEncryption
        Issuer: C=DE, ST=Saarland, O=MPI-SWS, OU=Distributed Systems Group, CN=Andreas Haeberlen/emailAddress=democa@octarine.de
        Validity
            Not Before: Apr 20 20:47:24 2015 GMT
            Not After : Apr 19 20:47:24 2016 GMT
        Subject: C=DE, ST=Saarland, O=MPI-SWS, OU=Distributed Systems Group, CN=7616f2e219ca1051d5847859b24ccb4416b08939/emailAddress=node0608@octarine.de
        Subject Public Key Info:
            Public Key Algorithm: rsaEncryption
            RSA Public Key: (1024 bit)
                Modulus (1024 bit):
                    00:9b:c7:d4:5a:c4:10:65:67:de:7a:df:d0:74:f1:
                    c8:74:49:d3:05:a7:34:66:cf:6a:fc:59:1c:69:e7:
                    18:cf:25:d0:cd:3a:67:6c:d9:b9:0b:3e:f6:db:78:
                    14:86:a3:a6:e0:17:2c:11:63:f1:a2:a4:47:3e:0e:
                    6f:6e:2e:57:a9:a2:e6:d4:09:cf:54:fb:fd:32:fa:
                    c8:53:0c:68:fa:e1:dc:21:e2:f7:8e:fb:f5:9b:a7:
                    30:b6:15:e1:fe:99:13:9e:75:f9:5d:37:f2:64:a5:
                    62:29:08:4c:28:86:ca:53:7a:71:b2:69:fa:bd:64:
                    16:7a:05:df:34:0c:3f:0f:d9
                Exponent: 65537 (0x10001)
    Signature Algorithm: md5WithRSAEncryption
        52:0b:36:bf:6d:ae:d7:6b:6e:f8:f8:2f:89:4f:25:7f:d6:d5:
        21:8a:2d:68:ec:8a:97:1c:25:b6:e8:b0:35:65:31:44:26:6d:
        71:98:1f:fa:f9:9c:dc:76:71:f8:eb:49:38:ce:16:98:d4:12:
        a9:33:e4:cd:74:31:cb:69:de:eb:76:39:17:5f:e3:c6:75:31:
        c2:89:49:86:47:f9:d7:21:ae:5a:fe:15:b7:96:c0:71:5b:ca:
        14:9e:20:63:fe:90:55:8b:12:cd:ab:69:c0:b8:f7:df:7a:69:
        bc:1f:93:76:2c:cc:74:39:a5:d1:e3:de:37:fc:a3:55:a7:e0:
        24:03
-----BEGIN CERTIFICATE-----
MIICvDCCAiUCCQCbJ9fo0boKODANBgkqhkiG9w0BAQQFADCBlTELMAkGA1UEBhMC
REUxETAPBgNVBAgTCFNhYXJsYW5kMRAwDgYDVQQKEwdNUEktU1dTMSIwIAYDVQQL
ExlEaXN0cmlidXRlZCBTeXN0ZW1zIEdyb3VwMRowGAYDVQQDExFBbmRyZWFzIEhh
ZWJlcmxlbjEhMB8GCSqGSIb3DQEJARYSZGVtb2NhQG9jdGFyaW5lLmRlMB4XDTE1
MDQyMDIwNDcyNFoXDTE2MDQxOTIwNDcyNFowga4xCzAJBgNVBAYTAkRFMREwDwYD
VQQIEwhTYWFybGFuZDEQMA4GA1UEChMHTVBJLVNXUzEiMCAGA1UECxMZRGlzdHJp
YnV0ZWQgU3lzdGVtcyBHcm91cDExMC8GA1UEAxMoNzYxNmYyZTIxOWNhMTA1MWQ1
ODQ3ODU5YjI0Y2NiNDQxNmIwODkzOTEjMCEGCSqGSIb3DQEJARYUbm9kZTA2MDhA
b2N0YXJpbmUuZGUwgZ8wDQYJKoZIhvcNAQEBBQADgY0AMIGJAoGBAJvH1FrEEGVn
3nrf0HTxyHRJ0wWnNGbPavxZHGnnGM8l0M06Z2zZuQs+9tt4FIajpuAXLBFj8aKk
Rz4Ob24uV6mi5tQJz1T7/TL6yFMMaPrh3CHi94779ZunMLYV4f6ZE551+V038mSl
YikITCiGylN6cbJp+r1kFnoF3zQMPw/ZAgMBAAEwDQYJKoZIhvcNAQEEBQADgYEA
Ugs2v22u12tu+PgviU8lf9bVIYotaOyKlxwltuiwNWUxRCZtcZgf+vmc3HZx+OtJ
OM4WmNQSqTPkzXQxy2ne63Y5F1/jxnUxwolJhkf51yGuWv4Vt5bAcVvKFJ4gY/6Q
VYsSzatpwLj333ppvB+TdizMdDml0ePeN/yjVafgJAM=
-----END CERTIFICATE-----
