Certificate:
    Data:
        Version: 1 (0x0)
        Serial Number:
            9b:27:d7:e8:d1:ba:08:17
        Signature Algorithm: md5WithRSAEncryption
        Issuer: C=DE, ST=Saarland, O=MPI-SWS, OU=Distributed Systems Group, CN=Andreas Haeberlen/emailAddress=democa@octarine.de
        Validity
            Not Before: Apr 20 20:46:59 2015 GMT
            Not After : Apr 19 20:46:59 2016 GMT
        Subject: C=DE, ST=Saarland, O=MPI-SWS, OU=Distributed Systems Group, CN=6d707828c5a13974f1c1c964a71d80afd1f592d6/emailAddress=node0063@octarine.de
        Subject Public Key Info:
            Public Key Algorithm: rsaEncryption
            RSA Public Key: (1024 bit)
                Modulus (1024 bit):
                    00:bf:5f:73:d3:2b:f3:2b:c7:ba:f6:72:7c:b1:83:
                    00:45:2e:e3:fa:e5:19:67:95:06:18:72:cb:1a:e4:
                    25:3c:e3:50:77:7f:ee:ae:6e:d6:83:29:b7:d9:fe:
                    aa:84:99:e0:fe:70:07:53:ae:3d:4a:3a:16:1d:bc:
                    b1:f2:dd:eb:3f:12:8d:c2:f7:da:f8:0b:d4:e7:da:
                    0f:37:24:13:b8:9b:f1:f9:b8:8d:11:25:48:9d:4a:
                    0f:60:3b:d9:f0:d9:91:84:53:7a:b9:d0:2d:13:d3:
                    ec:a6:08:21:f3:7d:9f:8b:38:68:ac:3a:23:68:f5:
                    0e:51:74:a9:17:f6:d9:8d:e1
                Exponent: 65537 (0x10001)
    Signature Algorithm: md5WithRSAEncryption
        a3:94:e9:7d:3c:90:85:73:56:a5:bc:b1:2b:cc:26:96:e2:c3:
        41:77:4f:aa:93:49:4e:9c:c1:d1:d2:b2:5f:18:15:7d:14:41:
        d8:4d:4f:6d:27:c2:4f:4e:ba:a2:66:94:e4:7b:c0:9f:c1:b8:
        09:7a:5f:42:ac:e8:15:ff:92:ab:90:f9:bb:43:9e:2b:82:a4:
        ff:0e:9e:f7:be:71:3a:59:36:e7:d2:11:2d:0a:49:7f:5f:18:
        02:41:58:34:5c:79:8b:24:22:57:fb:03:52:2f:a6:ac:8e:cb:
        b4:8f:6d:bd:4b:4a:a6:97:cc:26:50:3f:04:51:01:c2:e9:f3:
        21:06
-----BEGIN CERTIFICATE-----
MIICvDCCAiUCCQCbJ9fo0boIFzANBgkqhkiG9w0BAQQFADCBlTELMAkGA1UEBhMC
REUxETAPBgNVBAgTCFNhYXJsYW5kMRAwDgYDVQQKEwdNUEktU1dTMSIwIAYDVQQL
ExlEaXN0cmlidXRlZCBTeXN0ZW1zIEdyb3VwMRowGAYDVQQDExFBbmRyZWFzIEhh
ZWJlcmxlbjEhMB8GCSqGSIb3DQEJARYSZGVtb2NhQG9jdGFyaW5lLmRlMB4XDTE1
MDQyMDIwNDY1OVoXDTE2MDQxOTIwNDY1OVowga4xCzAJBgNVBAYTAkRFMREwDwYD
VQQIEwhTYWFybGFuZDEQMA4GA1UEChMHTVBJLVNXUzEiMCAGA1UECxMZRGlzdHJp
YnV0ZWQgU3lzdGVtcyBHcm91cDExMC8GA1UEAxMoNmQ3MDc4MjhjNWExMzk3NGYx
YzFjOTY0YTcxZDgwYWZkMWY1OTJkNjEjMCEGCSqGSIb3DQEJARYUbm9kZTAwNjNA
b2N0YXJpbmUuZGUwgZ8wDQYJKoZIhvcNAQEBBQADgY0AMIGJAoGBAL9fc9Mr8yvH
uvZyfLGDAEUu4/rlGWeVBhhyyxrkJTzjUHd/7q5u1oMpt9n+qoSZ4P5wB1OuPUo6
Fh28sfLd6z8SjcL32vgL1OfaDzckE7ib8fm4jRElSJ1KD2A72fDZkYRTernQLRPT
7KYIIfN9n4s4aKw6I2j1DlF0qRf22Y3hAgMBAAEwDQYJKoZIhvcNAQEEBQADgYEA
o5TpfTyQhXNWpbyxK8wmluLDQXdPqpNJTpzB0dKyXxgVfRRB2E1PbSfCT066omaU
5HvAn8G4CXpfQqzoFf+Sq5D5u0OeK4Kk/w6e975xOlk259IRLQpJf18YAkFYNFx5
iyQiV/sDUi+mrI7LtI9tvUtKppfMJlA/BFEBwunzIQY=
-----END CERTIFICATE-----
