Certificate:
    Data:
        Version: 1 (0x0)
        Serial Number:
            9b:27:d7:e8:d1:ba:09:18
        Signature Algorithm: md5WithRSAEncryption
        Issuer: C=DE, ST=Saarland, O=MPI-SWS, OU=Distributed Systems Group, CN=Andreas Haeberlen/emailAddress=democa@octarine.de
        Validity
            Not Before: Apr 20 20:47:10 2015 GMT
            Not After : Apr 19 20:47:10 2016 GMT
        Subject: C=DE, ST=Saarland, O=MPI-SWS, OU=Distributed Systems Group, CN=d634ab39c15164e65172b5488daa4ca22d6c8a65/emailAddress=node0320@octarine.de
        Subject Public Key Info:
            Public Key Algorithm: rsaEncryption
            RSA Public Key: (1024 bit)
                Modulus (1024 bit):
                    00:92:5f:d8:61:dd:66:fe:48:e3:22:d3:f8:13:46:
                    a7:f1:e9:db:9b:47:5b:83:96:34:bf:ac:75:a4:ad:
                    50:f4:3a:bc:77:0e:87:69:e1:27:e3:78:a6:d5:e8:
                    9e:f4:1e:38:4a:8f:eb:a8:d7:3b:a4:d9:2d:15:fd:
                    b9:d5:8d:03:5e:f6:11:b4:40:60:24:61:14:e8:dc:
                    9d:59:4f:35:0c:3b:ce:c6:d4:21:95:db:9f:0a:50:
                    2e:7a:fa:be:7c:a4:b4:1f:f9:e4:d1:3d:f3:5d:98:
                    f0:9b:bc:87:bb:7f:91:bf:96:d1:d4:3f:ad:bd:94:
                    97:2c:e2:77:e1:b7:01:73:c1
                Exponent: 65537 (0x10001)
    Signature Algorithm: md5WithRSAEncryption
        01:54:a1:c7:d9:de:00:ee:d4:df:79:a0:35:11:e0:04:3b:6a:
        6f:fc:e4:d7:3a:e7:66:4e:16:c2:8a:c2:1b:16:84:0f:68:c3:
        77:16:01:78:08:08:7b:32:a9:a4:42:3b:24:26:fd:53:8f:af:
        24:81:3e:ab:81:af:00:74:72:c2:0a:eb:43:9b:20:b7:89:cb:
        6e:fd:65:31:6e:ca:49:27:06:b3:0e:d3:8c:86:5e:a4:63:f8:
        9f:2f:6e:4c:4c:38:89:04:3a:e1:20:24:39:aa:ee:9e:11:9c:
        d3:8e:c2:19:bf:bc:c8:d3:fa:26:d7:5c:03:2a:76:16:d0:03:
        68:68
-----BEGIN CERTIFICATE-----
MIICvDCCAiUCCQCbJ9fo0boJGDANBgkqhkiG9w0BAQQFADCBlTELMAkGA1UEBhMC
REUxETAPBgNVBAgTCFNhYXJsYW5kMRAwDgYDVQQKEwdNUEktU1dTMSIwIAYDVQQL
ExlEaXN0cmlidXRlZCBTeXN0ZW1zIEdyb3VwMRowGAYDVQQDExFBbmRyZWFzIEhh
ZWJlcmxlbjEhMB8GCSqGSIb3DQEJARYSZGVtb2NhQG9jdGFyaW5lLmRlMB4XDTE1
MDQyMDIwNDcxMFoXDTE2MDQxOTIwNDcxMFowga4xCzAJBgNVBAYTAkRFMREwDwYD
VQQIEwhTYWFybGFuZDEQMA4GA1UEChMHTVBJLVNXUzEiMCAGA1UECxMZRGlzdHJp
YnV0ZWQgU3lzdGVtcyBHcm91cDExMC8GA1UEAxMoZDYzNGFiMzljMTUxNjRlNjUx
NzJiNTQ4OGRhYTRjYTIyZDZjOGE2NTEjMCEGCSqGSIb3DQEJARYUbm9kZTAzMjBA
b2N0YXJpbmUuZGUwgZ8wDQYJKoZIhvcNAQEBBQADgY0AMIGJAoGBAJJf2GHdZv5I
4yLT+BNGp/Hp25tHW4OWNL+sdaStUPQ6vHcOh2nhJ+N4ptXonvQeOEqP66jXO6TZ
LRX9udWNA172EbRAYCRhFOjcnVlPNQw7zsbUIZXbnwpQLnr6vnyktB/55NE9812Y
8Ju8h7t/kb+W0dQ/rb2Ulyzid+G3AXPBAgMBAAEwDQYJKoZIhvcNAQEEBQADgYEA
AVShx9neAO7U33mgNRHgBDtqb/zk1zrnZk4WworCGxaED2jDdxYBeAgIezKppEI7
JCb9U4+vJIE+q4GvAHRywgrrQ5sgt4nLbv1lMW7KSScGsw7TjIZepGP4ny9uTEw4
iQQ64SAkOarunhGc047CGb+8yNP6JtdcAyp2FtADaGg=
-----END CERTIFICATE-----
