Certificate:
    Data:
        Version: 1 (0x0)
        Serial Number:
            9b:27:d7:e8:d1:ba:08:ff
        Signature Algorithm: md5WithRSAEncryption
        Issuer: C=DE, ST=Saarland, O=MPI-SWS, OU=Distributed Systems Group, CN=Andreas Haeberlen/emailAddress=democa@octarine.de
        Validity
            Not Before: Apr 20 20:47:09 2015 GMT
            Not After : Apr 19 20:47:09 2016 GMT
        Subject: C=DE, ST=Saarland, O=MPI-SWS, OU=Distributed Systems Group, CN=3eb6050e78c0a27cdb56d5c95e07e98284889961/emailAddress=node0295@octarine.de
        Subject Public Key Info:
            Public Key Algorithm: rsaEncryption
            RSA Public Key: (1024 bit)
                Modulus (1024 bit):
                    00:ab:b7:d7:e4:8d:53:63:9d:7b:3f:bf:d9:95:a1:
                    7b:f4:64:50:21:69:1b:e4:c4:1d:fb:0b:94:88:63:
                    ca:17:81:03:21:6e:2c:63:d0:eb:fa:f8:d2:09:2a:
                    39:d7:f4:81:a5:ca:86:05:4c:3f:55:8d:3b:cd:7e:
                    3e:30:fc:39:b7:a6:15:e4:2a:54:d4:b4:34:38:75:
                    cc:2e:63:d5:56:a2:cd:cb:66:55:26:e2:6b:4c:32:
                    58:e2:01:58:3e:8e:6d:3b:cb:fd:bd:ad:58:fc:a7:
                    a7:ab:ca:5c:5b:05:61:a4:36:be:b7:96:85:b6:18:
                    16:41:37:43:44:b2:63:64:7b
                Exponent: 65537 (0x10001)
    Signature Algorithm: md5WithRSAEncryption
        28:4a:08:4c:37:ce:f8:be:9f:0d:ed:f3:08:c1:2a:8a:08:9f:
        25:38:3b:06:77:12:1a:09:c6:b4:4b:54:49:bd:6b:a7:61:fb:
        9d:9b:aa:bc:03:70:35:f2:4a:3c:22:aa:51:db:fb:2b:db:ec:
        1e:42:4c:76:aa:8e:23:a5:2a:74:f7:7c:22:a3:6a:c3:a6:f5:
        92:27:81:87:63:bf:90:c9:e0:d8:27:0e:c9:54:01:77:4d:16:
        aa:d3:82:ca:3f:73:a7:9a:01:fa:05:78:7d:63:23:35:aa:09:
        88:5e:f8:09:37:74:64:01:83:f9:7d:4e:8c:29:0a:1c:f4:0c:
        ae:ce
-----BEGIN CERTIFICATE-----
MIICvDCCAiUCCQCbJ9fo0boI/zANBgkqhkiG9w0BAQQFADCBlTELMAkGA1UEBhMC
REUxETAPBgNVBAgTCFNhYXJsYW5kMRAwDgYDVQQKEwdNUEktU1dTMSIwIAYDVQQL
ExlEaXN0cmlidXRlZCBTeXN0ZW1zIEdyb3VwMRowGAYDVQQDExFBbmRyZWFzIEhh
ZWJlcmxlbjEhMB8GCSqGSIb3DQEJARYSZGVtb2NhQG9jdGFyaW5lLmRlMB4XDTE1
MDQyMDIwNDcwOVoXDTE2MDQxOTIwNDcwOVowga4xCzAJBgNVBAYTAkRFMREwDwYD
VQQIEwhTYWFybGFuZDEQMA4GA1UEChMHTVBJLVNXUzEiMCAGA1UECxMZRGlzdHJp
YnV0ZWQgU3lzdGVtcyBHcm91cDExMC8GA1UEAxMoM2ViNjA1MGU3OGMwYTI3Y2Ri
NTZkNWM5NWUwN2U5ODI4NDg4OTk2MTEjMCEGCSqGSIb3DQEJARYUbm9kZTAyOTVA
b2N0YXJpbmUuZGUwgZ8wDQYJKoZIhvcNAQEBBQADgY0AMIGJAoGBAKu31+SNU2Od
ez+/2ZWhe/RkUCFpG+TEHfsLlIhjyheBAyFuLGPQ6/r40gkqOdf0gaXKhgVMP1WN
O81+PjD8ObemFeQqVNS0NDh1zC5j1VaizctmVSbia0wyWOIBWD6ObTvL/b2tWPyn
p6vKXFsFYaQ2vreWhbYYFkE3Q0SyY2R7AgMBAAEwDQYJKoZIhvcNAQEEBQADgYEA
KEoITDfO+L6fDe3zCMEqigifJTg7BncSGgnGtEtUSb1rp2H7nZuqvANwNfJKPCKq
Udv7K9vsHkJMdqqOI6UqdPd8IqNqw6b1kieBh2O/kMng2CcOyVQBd00WqtOCyj9z
p5oB+gV4fWMjNaoJiF74CTd0ZAGD+X1OjCkKHPQMrs4=
-----END CERTIFICATE-----
