Certificate:
    Data:
        Version: 1 (0x0)
        Serial Number:
            9b:27:d7:e8:d1:ba:08:85
        Signature Algorithm: md5WithRSAEncryption
        Issuer: C=DE, ST=Saarland, O=MPI-SWS, OU=Distributed Systems Group, CN=Andreas Haeberlen/emailAddress=democa@octarine.de
        Validity
            Not Before: Apr 20 20:47:04 2015 GMT
            Not After : Apr 19 20:47:04 2016 GMT
        Subject: C=DE, ST=Saarland, O=MPI-SWS, OU=Distributed Systems Group, CN=84f9764389381c3d6c0a04515cf9bf4434dab1d4/emailAddress=node0173@octarine.de
        Subject Public Key Info:
            Public Key Algorithm: rsaEncryption
            RSA Public Key: (1024 bit)
                Modulus (1024 bit):
                    00:d3:d5:4c:c7:d7:c3:d5:30:2d:72:10:7d:8f:64:
                    ef:fd:8a:85:fa:fc:e5:3d:32:d1:00:ca:98:c3:1d:
                    d3:6d:e3:76:a5:bf:27:31:27:b8:94:a2:a6:00:4a:
                    39:42:46:ea:a1:d8:03:17:2b:d9:84:8a:8b:27:07:
                    10:51:ae:e5:b4:27:54:2d:38:6e:45:8b:0d:7d:82:
                    46:8e:4e:9f:c3:c4:4f:00:8f:ad:fc:cd:14:b1:f0:
                    be:29:c1:31:fb:63:20:bb:3e:40:32:9c:87:a8:5a:
                    e0:83:13:48:4f:77:84:ae:f0:6b:b3:26:74:a1:4e:
                    e5:b5:d0:e8:01:e4:9f:3d:c5
                Exponent: 65537 (0x10001)
    Signature Algorithm: md5WithRSAEncryption
        15:3d:5c:91:c1:a2:e6:d5:eb:c9:7a:df:86:38:65:f3:a6:00:
        a8:55:e1:da:05:6a:89:c1:8d:d1:28:4a:cf:25:b3:69:67:cb:
        71:fb:38:d4:94:f9:f8:e8:c2:df:e2:77:14:e4:6e:0e:25:1b:
        f1:e2:5c:24:01:b1:4d:08:68:97:5d:60:ec:fd:39:45:d8:06:
        5b:3b:16:35:59:8a:0a:a2:e2:53:9d:73:a0:95:3e:26:81:ba:
        b1:da:99:e7:8d:78:f8:19:1e:31:9a:7a:20:42:40:e6:af:af:
        75:2e:70:10:73:07:85:d6:a0:e5:cc:b9:75:ec:57:59:b6:19:
        ad:72
-----BEGIN CERTIFICATE-----
MIICvDCCAiUCCQCbJ9fo0boIhTANBgkqhkiG9w0BAQQFADCBlTELMAkGA1UEBhMC
REUxETAPBgNVBAgTCFNhYXJsYW5kMRAwDgYDVQQKEwdNUEktU1dTMSIwIAYDVQQL
ExlEaXN0cmlidXRlZCBTeXN0ZW1zIEdyb3VwMRowGAYDVQQDExFBbmRyZWFzIEhh
ZWJlcmxlbjEhMB8GCSqGSIb3DQEJARYSZGVtb2NhQG9jdGFyaW5lLmRlMB4XDTE1
MDQyMDIwNDcwNFoXDTE2MDQxOTIwNDcwNFowga4xCzAJBgNVBAYTAkRFMREwDwYD
VQQIEwhTYWFybGFuZDEQMA4GA1UEChMHTVBJLVNXUzEiMCAGA1UECxMZRGlzdHJp
YnV0ZWQgU3lzdGVtcyBHcm91cDExMC8GA1UEAxMoODRmOTc2NDM4OTM4MWMzZDZj
MGEwNDUxNWNmOWJmNDQzNGRhYjFkNDEjMCEGCSqGSIb3DQEJARYUbm9kZTAxNzNA
b2N0YXJpbmUuZGUwgZ8wDQYJKoZIhvcNAQEBBQADgY0AMIGJAoGBANPVTMfXw9Uw
LXIQfY9k7/2Khfr85T0y0QDKmMMd023jdqW/JzEnuJSipgBKOUJG6qHYAxcr2YSK
iycHEFGu5bQnVC04bkWLDX2CRo5On8PETwCPrfzNFLHwvinBMftjILs+QDKch6ha
4IMTSE93hK7wa7MmdKFO5bXQ6AHknz3FAgMBAAEwDQYJKoZIhvcNAQEEBQADgYEA
FT1ckcGi5tXryXrfhjhl86YAqFXh2gVqicGN0ShKzyWzaWfLcfs41JT5+OjC3+J3
FORuDiUb8eJcJAGxTQhol11g7P05RdgGWzsWNVmKCqLiU51zoJU+JoG6sdqZ5414
+BkeMZp6IEJA5q+vdS5wEHMHhdag5cy5dexXWbYZrXI=
-----END CERTIFICATE-----
