Certificate:
    Data:
        Version: 1 (0x0)
        Serial Number:
            9b:27:d7:e8:d1:ba:09:b5
        Signature Algorithm: md5WithRSAEncryption
        Issuer: C=DE, ST=Saarland, O=MPI-SWS, OU=Distributed Systems Group, CN=Andreas Haeberlen/emailAddress=democa@octarine.de
        Validity
            Not Before: Apr 20 20:47:17 2015 GMT
            Not After : Apr 19 20:47:17 2016 GMT
        Subject: C=DE, ST=Saarland, O=MPI-SWS, OU=Distributed Systems Group, CN=34da28dd647da33fa16825638d775f093d45512b/emailAddress=node0477@octarine.de
        Subject Public Key Info:
            Public Key Algorithm: rsaEncryption
            RSA Public Key: (1024 bit)
                Modulus (1024 bit):
                    00:ec:4b:f7:1b:bc:b8:aa:1b:13:84:cc:10:49:0f:
                    1a:01:42:0f:61:89:ee:ba:4e:ff:d8:0b:fa:85:52:
                    02:73:62:83:37:61:fb:50:af:8c:b2:74:f2:43:15:
                    c4:95:c6:0b:84:32:9d:bd:f2:2e:da:56:1d:f5:31:
                    e0:3a:0c:6d:28:e4:f0:7d:46:ff:bb:11:ae:20:48:
                    b4:64:2f:07:f2:e6:5b:28:69:65:63:db:f7:dd:95:
                    0c:15:5e:c6:fd:e3:63:cb:23:6b:67:a6:21:5c:f9:
                    2a:59:e8:f2:5e:45:ff:70:9e:c4:b8:98:09:33:8a:
                    e9:6b:d6:52:42:9b:63:f9:ed
                Exponent: 65537 (0x10001)
    Signature Algorithm: md5WithRSAEncryption
        48:b6:cb:99:fa:1d:81:96:3d:34:af:a0:c3:d2:9a:34:37:e9:
        aa:87:39:89:b9:05:5d:41:9f:da:82:a6:fa:b3:bc:3b:db:15:
        5a:24:c6:63:e3:08:33:fc:06:41:97:b8:41:8c:5e:f0:67:d9:
        6b:76:12:69:4a:01:33:7a:0b:87:de:5a:fe:ac:9e:fd:68:96:
        ac:39:89:d1:a9:fb:25:7a:c5:7c:6a:28:8e:cf:7d:4d:43:c2:
        59:29:6f:09:8c:a3:cd:a9:55:83:ef:62:64:b3:64:66:b4:ed:
        e7:61:ab:39:21:d0:90:b1:e1:bb:9d:28:f7:fe:11:03:93:5e:
        cd:70
-----BEGIN CERTIFICATE-----
MIICvDCCAiUCCQCbJ9fo0boJtTANBgkqhkiG9w0BAQQFADCBlTELMAkGA1UEBhMC
REUxETAPBgNVBAgTCFNhYXJsYW5kMRAwDgYDVQQKEwdNUEktU1dTMSIwIAYDVQQL
ExlEaXN0cmlidXRlZCBTeXN0ZW1zIEdyb3VwMRowGAYDVQQDExFBbmRyZWFzIEhh
ZWJlcmxlbjEhMB8GCSqGSIb3DQEJARYSZGVtb2NhQG9jdGFyaW5lLmRlMB4XDTE1
MDQyMDIwNDcxN1oXDTE2MDQxOTIwNDcxN1owga4xCzAJBgNVBAYTAkRFMREwDwYD
VQQIEwhTYWFybGFuZDEQMA4GA1UEChMHTVBJLVNXUzEiMCAGA1UECxMZRGlzdHJp
YnV0ZWQgU3lzdGVtcyBHcm91cDExMC8GA1UEAxMoMzRkYTI4ZGQ2NDdkYTMzZmEx
NjgyNTYzOGQ3NzVmMDkzZDQ1NTEyYjEjMCEGCSqGSIb3DQEJARYUbm9kZTA0NzdA
b2N0YXJpbmUuZGUwgZ8wDQYJKoZIhvcNAQEBBQADgY0AMIGJAoGBAOxL9xu8uKob
E4TMEEkPGgFCD2GJ7rpO/9gL+oVSAnNigzdh+1CvjLJ08kMVxJXGC4Qynb3yLtpW
HfUx4DoMbSjk8H1G/7sRriBItGQvB/LmWyhpZWPb992VDBVexv3jY8sja2emIVz5
Klno8l5F/3CexLiYCTOK6WvWUkKbY/ntAgMBAAEwDQYJKoZIhvcNAQEEBQADgYEA
SLbLmfodgZY9NK+gw9KaNDfpqoc5ibkFXUGf2oKm+rO8O9sVWiTGY+MIM/wGQZe4
QYxe8GfZa3YSaUoBM3oLh95a/qye/WiWrDmJ0an7JXrFfGoojs99TUPCWSlvCYyj
zalVg+9iZLNkZrTt52GrOSHQkLHhu50o9/4RA5NezXA=
-----END CERTIFICATE-----
