Certificate:
    Data:
        Version: 1 (0x0)
        Serial Number:
            9b:27:d7:e8:d1:ba:0a:ac
        Signature Algorithm: md5WithRSAEncryption
        Issuer: C=DE, ST=Saarland, O=MPI-SWS, OU=Distributed Systems Group, CN=Andreas Haeberlen/emailAddress=democa@octarine.de
        Validity
            Not Before: Apr 20 20:47:29 2015 GMT
            Not After : Apr 19 20:47:29 2016 GMT
        Subject: C=DE, ST=Saarland, O=MPI-SWS, OU=Distributed Systems Group, CN=e35a4963e78ee47afc1810b8e1552790afbf9138/emailAddress=node0724@octarine.de
        Subject Public Key Info:
            Public Key Algorithm: rsaEncryption
            RSA Public Key: (1024 bit)
                Modulus (1024 bit):
                    00:cd:ee:94:86:19:9d:ad:dc:ff:d6:6a:8a:09:60:
                    b6:11:f6:81:55:97:85:b0:80:3d:98:47:9b:d0:82:
                    9e:07:81:3a:54:74:9b:40:d8:c4:f8:dc:b8:29:0d:
                    fa:69:e8:95:86:49:9b:67:f6:dc:a5:a0:bb:be:b8:
                    31:b2:ff:fc:15:33:61:27:10:b4:4c:ef:97:04:8c:
                    12:96:83:ba:6c:cd:29:34:a6:9c:7f:8d:f2:c6:86:
                    82:ad:c1:38:16:a6:ef:7b:d5:9d:a9:f3:b3:44:f8:
                    79:9e:d9:23:71:15:f7:74:ae:36:88:93:2d:8d:25:
                    a4:06:ec:15:82:7d:6d:28:93
                Exponent: 65537 (0x10001)
    Signature Algorithm: md5WithRSAEncryption
        51:41:70:30:29:a3:44:62:36:2c:53:3e:93:44:e2:d3:40:3d:
        d8:ab:82:c8:de:69:3f:e3:66:20:11:82:ad:22:9a:d4:3d:d5:
        39:f1:43:93:ca:f2:cd:f4:14:14:7a:22:d3:5f:a0:60:20:61:
        1f:e2:1b:15:8d:0e:e0:ff:38:c5:17:91:08:b3:4d:ae:f6:ae:
        95:6a:de:b6:dd:2f:92:ef:d7:38:a3:84:56:33:ba:2e:ea:07:
        f4:7a:11:de:9d:a4:f7:b2:4d:35:27:b1:83:e6:1c:cf:fd:c5:
        29:3c:c1:7e:1c:50:bf:cc:f0:67:71:1a:86:0b:ce:6b:a0:1c:
        11:aa
-----BEGIN CERTIFICATE-----
MIICvDCCAiUCCQCbJ9fo0boKrDANBgkqhkiG9w0BAQQFADCBlTELMAkGA1UEBhMC
REUxETAPBgNVBAgTCFNhYXJsYW5kMRAwDgYDVQQKEwdNUEktU1dTMSIwIAYDVQQL
ExlEaXN0cmlidXRlZCBTeXN0ZW1zIEdyb3VwMRowGAYDVQQDExFBbmRyZWFzIEhh
ZWJlcmxlbjEhMB8GCSqGSIb3DQEJARYSZGVtb2NhQG9jdGFyaW5lLmRlMB4XDTE1
MDQyMDIwNDcyOVoXDTE2MDQxOTIwNDcyOVowga4xCzAJBgNVBAYTAkRFMREwDwYD
VQQIEwhTYWFybGFuZDEQMA4GA1UEChMHTVBJLVNXUzEiMCAGA1UECxMZRGlzdHJp
YnV0ZWQgU3lzdGVtcyBHcm91cDExMC8GA1UEAxMoZTM1YTQ5NjNlNzhlZTQ3YWZj
MTgxMGI4ZTE1NTI3OTBhZmJmOTEzODEjMCEGCSqGSIb3DQEJARYUbm9kZTA3MjRA
b2N0YXJpbmUuZGUwgZ8wDQYJKoZIhvcNAQEBBQADgY0AMIGJAoGBAM3ulIYZna3c
/9ZqiglgthH2gVWXhbCAPZhHm9CCngeBOlR0m0DYxPjcuCkN+mnolYZJm2f23KWg
u764MbL//BUzYScQtEzvlwSMEpaDumzNKTSmnH+N8saGgq3BOBam73vVnanzs0T4
eZ7ZI3EV93SuNoiTLY0lpAbsFYJ9bSiTAgMBAAEwDQYJKoZIhvcNAQEEBQADgYEA
UUFwMCmjRGI2LFM+k0Ti00A92KuCyN5pP+NmIBGCrSKa1D3VOfFDk8ryzfQUFHoi
01+gYCBhH+IbFY0O4P84xReRCLNNrvaulWrett0vku/XOKOEVjO6LuoH9HoR3p2k
97JNNSexg+Ycz/3FKTzBfhxQv8zwZ3EahgvOa6AcEao=
-----END CERTIFICATE-----
