Certificate:
    Data:
        Version: 1 (0x0)
        Serial Number:
            9b:27:d7:e8:d1:ba:07:f7
        Signature Algorithm: md5WithRSAEncryption
        Issuer: C=DE, ST=Saarland, O=MPI-SWS, OU=Distributed Systems Group, CN=Andreas Haeberlen/emailAddress=democa@octarine.de
        Validity
            Not Before: Apr 20 20:46:58 2015 GMT
            Not After : Apr 19 20:46:58 2016 GMT
        Subject: C=DE, ST=Saarland, O=MPI-SWS, OU=Distributed Systems Group, CN=318bd3b4bc8229e998a0cd61c67c67d99656a0b5/emailAddress=node0031@octarine.de
        Subject Public Key Info:
            Public Key Algorithm: rsaEncryption
            RSA Public Key: (1024 bit)
                Modulus (1024 bit):
                    00:9e:5d:15:a3:64:29:53:f0:2c:43:39:29:93:b0:
                    18:ec:a7:4b:fa:47:d9:13:8a:84:93:10:c8:61:49:
                    8a:a2:d0:69:1c:92:40:20:65:02:ee:a6:d7:7d:5d:
                    f6:72:16:f4:c1:14:4e:85:e4:a1:32:1c:c0:9e:52:
                    fd:06:3a:20:68:67:c3:2c:f7:5c:b3:60:a7:39:ac:
                    10:38:e6:67:22:f7:30:bc:fd:a4:fd:90:37:08:a6:
                    ab:d3:24:a8:12:14:3f:8d:fb:4f:6d:01:32:03:ce:
                    30:f4:6b:a9:ee:54:a5:6b:2d:16:68:61:da:98:c1:
                    5a:d4:a7:a1:b8:86:e1:66:43
                Exponent: 65537 (0x10001)
    Signature Algorithm: md5WithRSAEncryption
        2b:a0:71:d7:dd:2e:a0:5e:f0:aa:27:55:72:be:c2:0e:64:c8:
        cb:31:24:2a:dd:e7:cc:c5:71:ea:c7:3c:3c:15:f3:52:f4:03:
        44:2a:91:27:04:9b:a1:10:fa:1f:2f:bf:b2:97:5a:09:f8:f0:
        40:c0:51:65:72:1d:d2:bc:6f:21:06:cb:cc:47:97:fe:6f:1e:
        ad:06:96:e3:a2:03:17:d9:a2:9b:ce:57:42:8c:a9:4f:89:8d:
        1b:2e:88:42:11:ba:96:61:56:e7:2e:2f:fe:fb:11:1d:79:8b:
        65:e0:a1:0c:35:25:2d:83:45:ca:8a:7b:fc:52:44:54:81:ea:
        5e:58
-----BEGIN CERTIFICATE-----
MIICvDCCAiUCCQCbJ9fo0boH9zANBgkqhkiG9w0BAQQFADCBlTELMAkGA1UEBhMC
REUxETAPBgNVBAgTCFNhYXJsYW5kMRAwDgYDVQQKEwdNUEktU1dTMSIwIAYDVQQL
ExlEaXN0cmlidXRlZCBTeXN0ZW1zIEdyb3VwMRowGAYDVQQDExFBbmRyZWFzIEhh
ZWJlcmxlbjEhMB8GCSqGSIb3DQEJARYSZGVtb2NhQG9jdGFyaW5lLmRlMB4XDTE1
MDQyMDIwNDY1OFoXDTE2MDQxOTIwNDY1OFowga4xCzAJBgNVBAYTAkRFMREwDwYD
VQQIEwhTYWFybGFuZDEQMA4GA1UEChMHTVBJLVNXUzEiMCAGA1UECxMZRGlzdHJp
YnV0ZWQgU3lzdGVtcyBHcm91cDExMC8GA1UEAxMoMzE4YmQzYjRiYzgyMjllOTk4
YTBjZDYxYzY3YzY3ZDk5NjU2YTBiNTEjMCEGCSqGSIb3DQEJARYUbm9kZTAwMzFA
b2N0YXJpbmUuZGUwgZ8wDQYJKoZIhvcNAQEBBQADgY0AMIGJAoGBAJ5dFaNkKVPw
LEM5KZOwGOynS/pH2ROKhJMQyGFJiqLQaRySQCBlAu6m131d9nIW9MEUToXkoTIc
wJ5S/QY6IGhnwyz3XLNgpzmsEDjmZyL3MLz9pP2QNwimq9MkqBIUP437T20BMgPO
MPRrqe5UpWstFmhh2pjBWtSnobiG4WZDAgMBAAEwDQYJKoZIhvcNAQEEBQADgYEA
K6Bx190uoF7wqidVcr7CDmTIyzEkKt3nzMVx6sc8PBXzUvQDRCqRJwSboRD6Hy+/
spdaCfjwQMBRZXId0rxvIQbLzEeX/m8erQaW46IDF9mim85XQoypT4mNGy6IQhG6
lmFW5y4v/vsRHXmLZeChDDUlLYNFyop7/FJEVIHqXlg=
-----END CERTIFICATE-----
