Certificate:
    Data:
        Version: 1 (0x0)
        Serial Number:
            9b:27:d7:e8:d1:ba:0a:56
        Signature Algorithm: md5WithRSAEncryption
        Issuer: C=DE, ST=Saarland, O=MPI-SWS, OU=Distributed Systems Group, CN=Andreas Haeberlen/emailAddress=democa@octarine.de
        Validity
            Not Before: Apr 20 20:47:25 2015 GMT
            Not After : Apr 19 20:47:25 2016 GMT
        Subject: C=DE, ST=Saarland, O=MPI-SWS, OU=Distributed Systems Group, CN=4db514bc2ffc8ad7df73cc3daf533b379eda3875/emailAddress=node0638@octarine.de
        Subject Public Key Info:
            Public Key Algorithm: rsaEncryption
            RSA Public Key: (1024 bit)
                Modulus (1024 bit):
                    00:b5:0e:67:8d:75:d5:d8:0a:c4:fe:b7:69:e3:45:
                    d3:f4:91:37:6f:e3:d6:da:6c:02:39:96:d4:d9:e4:
                    c1:8b:76:3d:89:36:f4:54:db:fc:e2:33:77:c1:94:
                    42:21:a0:a6:1e:bc:c0:dc:61:00:63:d1:e2:f4:87:
                    dd:ae:d7:8e:c2:31:3c:08:a2:b7:3f:5a:b1:c0:96:
                    73:5c:8f:56:18:19:21:44:56:7c:01:3d:48:14:1a:
                    40:0d:82:79:ea:78:80:f0:30:7b:01:14:f8:61:e6:
                    df:5b:78:fd:3a:a0:6a:8c:ac:a7:e7:95:d3:ea:d4:
                    9a:09:a4:39:32:6a:3a:2c:1f
                Exponent: 65537 (0x10001)
    Signature Algorithm: md5WithRSAEncryption
        79:a7:65:cc:f0:f5:51:8f:37:85:82:ba:df:77:26:c9:f4:57:
        31:44:42:14:81:4b:1f:96:95:d9:21:81:1d:f1:2f:93:ea:dc:
        61:38:33:de:2c:d3:b5:cb:32:02:45:4f:a3:b3:7e:2d:11:86:
        5e:a9:e3:90:9e:81:33:39:ac:0b:f5:d8:f9:46:df:ec:ce:9b:
        40:75:f0:8c:c8:ad:ad:1f:b3:39:d2:e4:d5:99:0b:ef:01:2b:
        38:5d:12:4e:7c:9d:2f:8f:f5:c1:04:e0:4f:19:20:16:f5:64:
        a3:9a:99:16:db:70:0e:c9:1f:fe:0a:1d:ee:f5:c2:2a:cc:b8:
        85:9e
-----BEGIN CERTIFICATE-----
MIICvDCCAiUCCQCbJ9fo0boKVjANBgkqhkiG9w0BAQQFADCBlTELMAkGA1UEBhMC
REUxETAPBgNVBAgTCFNhYXJsYW5kMRAwDgYDVQQKEwdNUEktU1dTMSIwIAYDVQQL
ExlEaXN0cmlidXRlZCBTeXN0ZW1zIEdyb3VwMRowGAYDVQQDExFBbmRyZWFzIEhh
ZWJlcmxlbjEhMB8GCSqGSIb3DQEJARYSZGVtb2NhQG9jdGFyaW5lLmRlMB4XDTE1
MDQyMDIwNDcyNVoXDTE2MDQxOTIwNDcyNVowga4xCzAJBgNVBAYTAkRFMREwDwYD
VQQIEwhTYWFybGFuZDEQMA4GA1UEChMHTVBJLVNXUzEiMCAGA1UECxMZRGlzdHJp
YnV0ZWQgU3lzdGVtcyBHcm91cDExMC8GA1UEAxMoNGRiNTE0YmMyZmZjOGFkN2Rm
NzNjYzNkYWY1MzNiMzc5ZWRhMzg3NTEjMCEGCSqGSIb3DQEJARYUbm9kZTA2MzhA
b2N0YXJpbmUuZGUwgZ8wDQYJKoZIhvcNAQEBBQADgY0AMIGJAoGBALUOZ4111dgK
xP63aeNF0/SRN2/j1tpsAjmW1NnkwYt2PYk29FTb/OIzd8GUQiGgph68wNxhAGPR
4vSH3a7XjsIxPAiitz9ascCWc1yPVhgZIURWfAE9SBQaQA2Ceep4gPAwewEU+GHm
31t4/Tqgaoysp+eV0+rUmgmkOTJqOiwfAgMBAAEwDQYJKoZIhvcNAQEEBQADgYEA
eadlzPD1UY83hYK633cmyfRXMURCFIFLH5aV2SGBHfEvk+rcYTgz3izTtcsyAkVP
o7N+LRGGXqnjkJ6BMzmsC/XY+Ubf7M6bQHXwjMitrR+zOdLk1ZkL7wErOF0STnyd
L4/1wQTgTxkgFvVko5qZFttwDskf/god7vXCKsy4hZ4=
-----END CERTIFICATE-----
