Certificate:
    Data:
        Version: 1 (0x0)
        Serial Number:
            9b:27:d7:e8:d1:ba:0b:5e
        Signature Algorithm: md5WithRSAEncryption
        Issuer: C=DE, ST=Saarland, O=MPI-SWS, OU=Distributed Systems Group, CN=Andreas Haeberlen/emailAddress=democa@octarine.de
        Validity
            Not Before: Apr 20 20:47:37 2015 GMT
            Not After : Apr 19 20:47:37 2016 GMT
        Subject: C=DE, ST=Saarland, O=MPI-SWS, OU=Distributed Systems Group, CN=71222158ffacf75e9be5bd6536dc4fbc0ee3f3bf/emailAddress=node0902@octarine.de
        Subject Public Key Info:
            Public Key Algorithm: rsaEncryption
            RSA Public Key: (1024 bit)
                Modulus (1024 bit):
                    00:c2:70:b7:3e:54:ce:66:44:76:4c:fe:6a:38:c2:
                    16:ba:2d:b2:fe:94:98:07:1e:ba:78:17:1c:49:8c:
                    ac:80:97:5a:cb:dd:81:90:01:04:9d:90:7f:af:e8:
                    82:56:00:be:35:54:96:7d:5a:54:07:92:66:b1:38:
                    59:9e:d2:1d:b6:84:b7:19:cc:aa:00:05:bd:5a:63:
                    94:d4:aa:e8:3c:9c:1f:6c:da:54:2d:05:74:4f:f7:
                    0a:6c:3d:93:e2:a9:93:14:79:0d:85:b3:3f:45:b8:
                    50:d9:05:3b:6c:89:cc:8a:ba:e5:a4:f1:cd:4d:5d:
                    c0:17:d6:e4:87:c6:56:38:6b
                Exponent: 65537 (0x10001)
    Signature Algorithm: md5WithRSAEncryption
        9e:f2:a9:02:50:39:bc:8f:e3:c1:46:1b:8c:6c:d9:22:0f:9a:
        28:73:59:9e:18:d8:1d:dc:56:fd:d8:73:2d:9b:13:a6:d2:05:
        7f:b5:1b:4d:43:7f:01:20:21:66:66:b8:f7:2a:0b:6b:2e:0b:
        b2:f1:71:c6:c9:3d:f6:e0:86:7e:e3:88:1f:98:5c:df:f0:16:
        f1:72:92:9f:0d:e9:28:8a:d4:eb:8b:d7:85:7e:47:35:ca:14:
        1c:1c:ac:84:01:bf:f5:ab:ab:0c:56:db:13:d9:60:d1:70:32:
        fe:be:ca:d8:f9:33:86:ad:68:18:94:6d:82:06:da:b3:18:f6:
        25:03
-----BEGIN CERTIFICATE-----
MIICvDCCAiUCCQCbJ9fo0boLXjANBgkqhkiG9w0BAQQFADCBlTELMAkGA1UEBhMC
REUxETAPBgNVBAgTCFNhYXJsYW5kMRAwDgYDVQQKEwdNUEktU1dTMSIwIAYDVQQL
ExlEaXN0cmlidXRlZCBTeXN0ZW1zIEdyb3VwMRowGAYDVQQDExFBbmRyZWFzIEhh
ZWJlcmxlbjEhMB8GCSqGSIb3DQEJARYSZGVtb2NhQG9jdGFyaW5lLmRlMB4XDTE1
MDQyMDIwNDczN1oXDTE2MDQxOTIwNDczN1owga4xCzAJBgNVBAYTAkRFMREwDwYD
VQQIEwhTYWFybGFuZDEQMA4GA1UEChMHTVBJLVNXUzEiMCAGA1UECxMZRGlzdHJp
YnV0ZWQgU3lzdGVtcyBHcm91cDExMC8GA1UEAxMoNzEyMjIxNThmZmFjZjc1ZTli
ZTViZDY1MzZkYzRmYmMwZWUzZjNiZjEjMCEGCSqGSIb3DQEJARYUbm9kZTA5MDJA
b2N0YXJpbmUuZGUwgZ8wDQYJKoZIhvcNAQEBBQADgY0AMIGJAoGBAMJwtz5UzmZE
dkz+ajjCFrotsv6UmAceungXHEmMrICXWsvdgZABBJ2Qf6/oglYAvjVUln1aVAeS
ZrE4WZ7SHbaEtxnMqgAFvVpjlNSq6DycH2zaVC0FdE/3Cmw9k+KpkxR5DYWzP0W4
UNkFO2yJzIq65aTxzU1dwBfW5IfGVjhrAgMBAAEwDQYJKoZIhvcNAQEEBQADgYEA
nvKpAlA5vI/jwUYbjGzZIg+aKHNZnhjYHdxW/dhzLZsTptIFf7UbTUN/ASAhZma4
9yoLay4LsvFxxsk99uCGfuOIH5hc3/AW8XKSnw3pKIrU64vXhX5HNcoUHByshAG/
9aurDFbbE9lg0XAy/r7K2Pkzhq1oGJRtggbasxj2JQM=
-----END CERTIFICATE-----
