Certificate:
    Data:
        Version: 1 (0x0)
        Serial Number:
            9b:27:d7:e8:d1:ba:0a:e0
        Signature Algorithm: md5WithRSAEncryption
        Issuer: C=DE, ST=Saarland, O=MPI-SWS, OU=Distributed Systems Group, CN=Andreas Haeberlen/emailAddress=democa@octarine.de
        Validity
            Not Before: Apr 20 20:47:31 2015 GMT
            Not After : Apr 19 20:47:31 2016 GMT
        Subject: C=DE, ST=Saarland, O=MPI-SWS, OU=Distributed Systems Group, CN=7d7fdd02a9ed423c2c3da4661ab8aa818f15c287/emailAddress=node0776@octarine.de
        Subject Public Key Info:
            Public Key Algorithm: rsaEncryption
            RSA Public Key: (1024 bit)
                Modulus (1024 bit):
                    00:e8:ad:a6:53:75:3e:4f:a4:ff:da:89:7d:c6:c8:
                    53:ad:fc:68:9a:bb:f4:ea:ed:d7:48:94:b3:50:de:
                    ec:ec:0c:1e:82:9e:b5:f3:b8:46:59:e0:30:ee:fb:
                    78:e8:e0:d8:dc:2b:b5:1e:30:fd:78:f4:c3:7c:8d:
                    10:8f:78:78:e0:00:e1:77:73:80:28:6c:b4:89:34:
                    2c:23:b6:88:2c:6e:05:fa:4f:d0:74:8d:fb:35:4c:
                    92:a6:9d:2f:3f:b7:fa:c1:c3:38:b5:1b:1b:59:da:
                    a9:c7:9f:3f:f7:c3:47:30:98:ce:14:b1:5a:93:24:
                    24:a5:03:fd:f4:c2:58:b9:83
                Exponent: 65537 (0x10001)
    Signature Algorithm: md5WithRSAEncryption
        b0:4e:31:f1:10:1d:9e:50:b3:04:af:f1:b5:41:af:0a:7b:86:
        95:54:e9:f6:b9:f2:b3:7c:21:52:64:01:17:70:93:a9:57:2c:
        38:a7:6c:f5:7a:5a:d7:7f:27:05:51:dd:46:1a:4b:0f:3d:08:
        d8:0d:84:20:dd:69:e6:3b:93:7a:f0:45:45:06:2f:eb:1d:62:
        71:e4:3e:59:2d:17:52:4d:14:24:4e:3e:c8:35:70:1a:45:2a:
        88:69:1e:67:0b:ad:cf:bf:7c:39:61:9f:37:82:74:c3:0c:c4:
        3f:50:a1:4b:07:60:05:d4:28:e9:03:38:6d:24:7c:68:84:31:
        68:df
-----BEGIN CERTIFICATE-----
MIICvDCCAiUCCQCbJ9fo0boK4DANBgkqhkiG9w0BAQQFADCBlTELMAkGA1UEBhMC
REUxETAPBgNVBAgTCFNhYXJsYW5kMRAwDgYDVQQKEwdNUEktU1dTMSIwIAYDVQQL
ExlEaXN0cmlidXRlZCBTeXN0ZW1zIEdyb3VwMRowGAYDVQQDExFBbmRyZWFzIEhh
ZWJlcmxlbjEhMB8GCSqGSIb3DQEJARYSZGVtb2NhQG9jdGFyaW5lLmRlMB4XDTE1
MDQyMDIwNDczMVoXDTE2MDQxOTIwNDczMVowga4xCzAJBgNVBAYTAkRFMREwDwYD
VQQIEwhTYWFybGFuZDEQMA4GA1UEChMHTVBJLVNXUzEiMCAGA1UECxMZRGlzdHJp
YnV0ZWQgU3lzdGVtcyBHcm91cDExMC8GA1UEAxMoN2Q3ZmRkMDJhOWVkNDIzYzJj
M2RhNDY2MWFiOGFhODE4ZjE1YzI4NzEjMCEGCSqGSIb3DQEJARYUbm9kZTA3NzZA
b2N0YXJpbmUuZGUwgZ8wDQYJKoZIhvcNAQEBBQADgY0AMIGJAoGBAOitplN1Pk+k
/9qJfcbIU638aJq79Ort10iUs1De7OwMHoKetfO4RlngMO77eOjg2NwrtR4w/Xj0
w3yNEI94eOAA4XdzgChstIk0LCO2iCxuBfpP0HSN+zVMkqadLz+3+sHDOLUbG1na
qcefP/fDRzCYzhSxWpMkJKUD/fTCWLmDAgMBAAEwDQYJKoZIhvcNAQEEBQADgYEA
sE4x8RAdnlCzBK/xtUGvCnuGlVTp9rnys3whUmQBF3CTqVcsOKds9Xpa138nBVHd
RhpLDz0I2A2EIN1p5juTevBFRQYv6x1iceQ+WS0XUk0UJE4+yDVwGkUqiGkeZwut
z798OWGfN4J0wwzEP1ChSwdgBdQo6QM4bSR8aIQxaN8=
-----END CERTIFICATE-----
