Certificate:
    Data:
        Version: 1 (0x0)
        Serial Number:
            9b:27:d7:e8:d1:ba:09:2a
        Signature Algorithm: md5WithRSAEncryption
        Issuer: C=DE, ST=Saarland, O=MPI-SWS, OU=Distributed Systems Group, CN=Andreas Haeberlen/emailAddress=democa@octarine.de
        Validity
            Not Before: Apr 20 20:47:11 2015 GMT
            Not After : Apr 19 20:47:11 2016 GMT
        Subject: C=DE, ST=Saarland, O=MPI-SWS, OU=Distributed Systems Group, CN=25fdaee5247ce1cd5fe80ec1439baf2d42bf0942/emailAddress=node0338@octarine.de
        Subject Public Key Info:
            Public Key Algorithm: rsaEncryption
            RSA Public Key: (1024 bit)
                Modulus (1024 bit):
                    00:ba:78:db:2a:e0:6c:20:b6:62:c3:45:6c:6b:27:
                    9a:7c:56:1f:6c:76:a3:55:c1:27:b6:85:77:df:59:
                    47:27:a2:cd:3f:22:bd:0a:96:44:c3:d6:51:13:8e:
                    88:ba:a9:35:b3:fb:e6:1c:4e:6e:82:af:a3:cf:67:
                    83:66:01:b4:fc:3e:aa:eb:df:b4:08:f1:ce:d6:64:
                    47:bc:b9:16:4c:17:1a:59:1d:ec:4a:79:f5:3d:0e:
                    c2:9b:c5:34:e0:5f:23:df:f6:8a:87:9b:1e:69:5b:
                    1e:6f:cc:b9:ae:46:53:d1:34:e3:95:5f:a9:45:13:
                    83:71:79:38:ed:2a:a8:1d:55
                Exponent: 65537 (0x10001)
    Signature Algorithm: md5WithRSAEncryption
        be:36:78:5f:71:f7:5a:28:c4:2a:f3:07:03:99:a1:42:80:36:
        d2:2d:01:d9:c5:49:e3:13:8a:70:50:8d:08:2f:84:59:68:c7:
        6f:b9:16:bd:53:1f:31:2c:cd:76:61:5f:db:41:1f:3c:8c:a9:
        ed:74:1e:8a:61:fe:ea:56:57:f3:89:78:b6:ae:84:b3:77:a3:
        c2:4a:61:83:80:24:a1:97:7a:38:ed:05:7a:8d:21:e8:66:dd:
        4d:90:1e:80:f6:d4:2f:07:49:85:e0:19:b5:32:30:35:4b:fd:
        1c:36:fc:5a:9a:8b:0d:07:76:51:98:c2:30:25:bc:6d:b6:c3:
        cd:48
-----BEGIN CERTIFICATE-----
MIICvDCCAiUCCQCbJ9fo0boJKjANBgkqhkiG9w0BAQQFADCBlTELMAkGA1UEBhMC
REUxETAPBgNVBAgTCFNhYXJsYW5kMRAwDgYDVQQKEwdNUEktU1dTMSIwIAYDVQQL
ExlEaXN0cmlidXRlZCBTeXN0ZW1zIEdyb3VwMRowGAYDVQQDExFBbmRyZWFzIEhh
ZWJlcmxlbjEhMB8GCSqGSIb3DQEJARYSZGVtb2NhQG9jdGFyaW5lLmRlMB4XDTE1
MDQyMDIwNDcxMVoXDTE2MDQxOTIwNDcxMVowga4xCzAJBgNVBAYTAkRFMREwDwYD
VQQIEwhTYWFybGFuZDEQMA4GA1UEChMHTVBJLVNXUzEiMCAGA1UECxMZRGlzdHJp
YnV0ZWQgU3lzdGVtcyBHcm91cDExMC8GA1UEAxMoMjVmZGFlZTUyNDdjZTFjZDVm
ZTgwZWMxNDM5YmFmMmQ0MmJmMDk0MjEjMCEGCSqGSIb3DQEJARYUbm9kZTAzMzhA
b2N0YXJpbmUuZGUwgZ8wDQYJKoZIhvcNAQEBBQADgY0AMIGJAoGBALp42yrgbCC2
YsNFbGsnmnxWH2x2o1XBJ7aFd99ZRyeizT8ivQqWRMPWUROOiLqpNbP75hxOboKv
o89ng2YBtPw+quvftAjxztZkR7y5FkwXGlkd7Ep59T0OwpvFNOBfI9/2ioebHmlb
Hm/Mua5GU9E045VfqUUTg3F5OO0qqB1VAgMBAAEwDQYJKoZIhvcNAQEEBQADgYEA
vjZ4X3H3WijEKvMHA5mhQoA20i0B2cVJ4xOKcFCNCC+EWWjHb7kWvVMfMSzNdmFf
20EfPIyp7XQeimH+6lZX84l4tq6Es3ejwkphg4AkoZd6OO0Feo0h6GbdTZAegPbU
LwdJheAZtTIwNUv9HDb8WpqLDQd2UZjCMCW8bbbDzUg=
-----END CERTIFICATE-----
