Certificate:
    Data:
        Version: 1 (0x0)
        Serial Number:
            9b:27:d7:e8:d1:ba:0a:2c
        Signature Algorithm: md5WithRSAEncryption
        Issuer: C=DE, ST=Saarland, O=MPI-SWS, OU=Distributed Systems Group, CN=Andreas Haeberlen/emailAddress=democa@octarine.de
        Validity
            Not Before: Apr 20 20:47:23 2015 GMT
            Not After : Apr 19 20:47:23 2016 GMT
        Subject: C=DE, ST=Saarland, O=MPI-SWS, OU=Distributed Systems Group, CN=915636a6f4facdbe36a3258a4ba52c9bde215c74/emailAddress=node0596@octarine.de
        Subject Public Key Info:
            Public Key Algorithm: rsaEncryption
            RSA Public Key: (1024 bit)
                Modulus (1024 bit):
                    00:a9:47:0a:83:ea:7d:7a:48:13:6a:ac:b7:4d:fc:
                    e3:66:81:f6:b9:e3:62:b6:cb:2e:d1:46:2e:f3:be:
                    a0:5c:3e:e1:16:6b:57:70:dc:64:8b:62:72:3c:74:
                    66:45:3a:34:1f:d1:e7:2f:eb:db:20:7d:66:b5:3d:
                    37:9c:a3:18:cf:3e:e5:1e:2c:d5:f1:34:f1:a7:cd:
                    00:f9:cc:12:36:d1:65:0d:92:d7:4b:1a:bd:94:b7:
                    28:48:15:3d:52:e3:76:ce:fd:f2:c3:e6:a9:5e:9a:
                    7b:80:ed:9a:75:8a:03:09:d9:97:73:56:67:9f:41:
                    a5:28:40:22:a7:ea:56:4c:67
                Exponent: 65537 (0x10001)
    Signature Algorithm: md5WithRSAEncryption
        b4:83:81:f0:35:c2:06:8d:5d:02:31:36:9b:03:45:fb:af:ea:
        9d:28:f9:0c:7b:ca:16:6b:ad:65:11:bc:87:58:d1:ed:25:0f:
        7b:a4:3e:52:b5:8a:e7:28:2e:11:39:20:71:70:39:af:ec:b3:
        61:72:9a:43:b7:c1:b9:6b:ef:4f:9e:e8:ed:7b:0b:42:d7:cf:
        00:97:0a:e5:20:14:88:8f:9e:f9:49:22:90:ca:a1:9f:86:7b:
        1a:7a:76:f9:ed:8a:52:79:61:22:bc:14:99:d9:82:8a:9f:ef:
        5f:34:2f:31:41:2e:3a:2f:59:39:82:16:cd:da:d9:c4:1e:ef:
        2b:f6
-----BEGIN CERTIFICATE-----
MIICvDCCAiUCCQCbJ9fo0boKLDANBgkqhkiG9w0BAQQFADCBlTELMAkGA1UEBhMC
REUxETAPBgNVBAgTCFNhYXJsYW5kMRAwDgYDVQQKEwdNUEktU1dTMSIwIAYDVQQL
ExlEaXN0cmlidXRlZCBTeXN0ZW1zIEdyb3VwMRowGAYDVQQDExFBbmRyZWFzIEhh
ZWJlcmxlbjEhMB8GCSqGSIb3DQEJARYSZGVtb2NhQG9jdGFyaW5lLmRlMB4XDTE1
MDQyMDIwNDcyM1oXDTE2MDQxOTIwNDcyM1owga4xCzAJBgNVBAYTAkRFMREwDwYD
VQQIEwhTYWFybGFuZDEQMA4GA1UEChMHTVBJLVNXUzEiMCAGA1UECxMZRGlzdHJp
YnV0ZWQgU3lzdGVtcyBHcm91cDExMC8GA1UEAxMoOTE1NjM2YTZmNGZhY2RiZTM2
YTMyNThhNGJhNTJjOWJkZTIxNWM3NDEjMCEGCSqGSIb3DQEJARYUbm9kZTA1OTZA
b2N0YXJpbmUuZGUwgZ8wDQYJKoZIhvcNAQEBBQADgY0AMIGJAoGBAKlHCoPqfXpI
E2qst03842aB9rnjYrbLLtFGLvO+oFw+4RZrV3DcZIticjx0ZkU6NB/R5y/r2yB9
ZrU9N5yjGM8+5R4s1fE08afNAPnMEjbRZQ2S10savZS3KEgVPVLjds798sPmqV6a
e4DtmnWKAwnZl3NWZ59BpShAIqfqVkxnAgMBAAEwDQYJKoZIhvcNAQEEBQADgYEA
tIOB8DXCBo1dAjE2mwNF+6/qnSj5DHvKFmutZRG8h1jR7SUPe6Q+UrWK5yguETkg
cXA5r+yzYXKaQ7fBuWvvT57o7XsLQtfPAJcK5SAUiI+e+UkikMqhn4Z7Gnp2+e2K
UnlhIrwUmdmCip/vXzQvMUEuOi9ZOYIWzdrZxB7vK/Y=
-----END CERTIFICATE-----
