Certificate:
    Data:
        Version: 1 (0x0)
        Serial Number:
            9b:27:d7:e8:d1:ba:08:d7
        Signature Algorithm: md5WithRSAEncryption
        Issuer: C=DE, ST=Saarland, O=MPI-SWS, OU=Distributed Systems Group, CN=Andreas Haeberlen/emailAddress=democa@octarine.de
        Validity
            Not Before: Apr 20 20:47:08 2015 GMT
            Not After : Apr 19 20:47:08 2016 GMT
        Subject: C=DE, ST=Saarland, O=MPI-SWS, OU=Distributed Systems Group, CN=3603c7b8fca4b1eb829ad1a01caac990093c1e50/emailAddress=node0255@octarine.de
        Subject Public Key Info:
            Public Key Algorithm: rsaEncryption
            RSA Public Key: (1024 bit)
                Modulus (1024 bit):
                    00:f2:e1:92:2b:eb:ab:93:d7:eb:19:2a:21:e2:6f:
                    be:2d:f3:a1:db:27:8a:dd:47:cf:f5:98:54:3a:34:
                    ac:75:09:8e:5b:0e:65:76:f3:ac:9e:73:ba:a3:d5:
                    93:be:09:21:a8:1f:30:3c:c4:2c:5d:a8:c2:2a:fa:
                    a7:ca:b5:1a:1b:75:72:fa:3e:9e:29:aa:18:74:06:
                    df:c2:9e:47:1e:60:88:11:03:c7:2d:d5:18:1f:d1:
                    2f:66:b2:41:f3:51:a8:e4:6f:9c:ff:45:2a:b2:d0:
                    a2:f6:a0:4e:9e:1a:f4:5b:58:0a:54:70:dc:62:00:
                    f3:95:51:58:32:d2:64:29:53
                Exponent: 65537 (0x10001)
    Signature Algorithm: md5WithRSAEncryption
        5b:6d:81:8f:c1:28:17:a6:3d:7d:ab:f0:6a:f9:74:d0:04:23:
        af:da:62:71:25:85:af:f1:03:88:d0:ef:c2:63:4e:5f:49:d1:
        2e:c8:a5:12:e1:58:ee:2d:02:d2:f9:04:b6:27:4a:e2:23:8a:
        f8:ff:d1:ca:06:e0:4c:cf:03:61:e1:2e:15:bf:63:47:7c:8c:
        a1:86:41:18:b7:ac:e6:f4:f8:dc:18:74:25:76:63:9a:2a:d1:
        7d:f2:70:33:fb:97:39:ec:8f:6b:c3:7c:87:6e:91:22:77:08:
        e3:75:82:64:08:05:0f:83:e8:d3:de:7e:30:e8:f9:f7:6d:5b:
        69:e8
-----BEGIN CERTIFICATE-----
MIICvDCCAiUCCQCbJ9fo0boI1zANBgkqhkiG9w0BAQQFADCBlTELMAkGA1UEBhMC
REUxETAPBgNVBAgTCFNhYXJsYW5kMRAwDgYDVQQKEwdNUEktU1dTMSIwIAYDVQQL
ExlEaXN0cmlidXRlZCBTeXN0ZW1zIEdyb3VwMRowGAYDVQQDExFBbmRyZWFzIEhh
ZWJlcmxlbjEhMB8GCSqGSIb3DQEJARYSZGVtb2NhQG9jdGFyaW5lLmRlMB4XDTE1
MDQyMDIwNDcwOFoXDTE2MDQxOTIwNDcwOFowga4xCzAJBgNVBAYTAkRFMREwDwYD
VQQIEwhTYWFybGFuZDEQMA4GA1UEChMHTVBJLVNXUzEiMCAGA1UECxMZRGlzdHJp
YnV0ZWQgU3lzdGVtcyBHcm91cDExMC8GA1UEAxMoMzYwM2M3YjhmY2E0YjFlYjgy
OWFkMWEwMWNhYWM5OTAwOTNjMWU1MDEjMCEGCSqGSIb3DQEJARYUbm9kZTAyNTVA
b2N0YXJpbmUuZGUwgZ8wDQYJKoZIhvcNAQEBBQADgY0AMIGJAoGBAPLhkivrq5PX
6xkqIeJvvi3zodsnit1Hz/WYVDo0rHUJjlsOZXbzrJ5zuqPVk74JIagfMDzELF2o
wir6p8q1Ght1cvo+nimqGHQG38KeRx5giBEDxy3VGB/RL2ayQfNRqORvnP9FKrLQ
ovagTp4a9FtYClRw3GIA85VRWDLSZClTAgMBAAEwDQYJKoZIhvcNAQEEBQADgYEA
W22Bj8EoF6Y9favwavl00AQjr9picSWFr/EDiNDvwmNOX0nRLsilEuFY7i0C0vkE
tidK4iOK+P/RygbgTM8DYeEuFb9jR3yMoYZBGLes5vT43Bh0JXZjmirRffJwM/uX
OeyPa8N8h26RIncI43WCZAgFD4Po095+MOj5921baeg=
-----END CERTIFICATE-----
