Certificate:
    Data:
        Version: 1 (0x0)
        Serial Number:
            9b:27:d7:e8:d1:ba:09:09
        Signature Algorithm: md5WithRSAEncryption
        Issuer: C=DE, ST=Saarland, O=MPI-SWS, OU=Distributed Systems Group, CN=Andreas Haeberlen/emailAddress=democa@octarine.de
        Validity
            Not Before: Apr 20 20:47:10 2015 GMT
            Not After : Apr 19 20:47:10 2016 GMT
        Subject: C=DE, ST=Saarland, O=MPI-SWS, OU=Distributed Systems Group, CN=5a302b37a1a96eb82701428eb5569feea1fcd248/emailAddress=node0305@octarine.de
        Subject Public Key Info:
            Public Key Algorithm: rsaEncryption
            RSA Public Key: (1024 bit)
                Modulus (1024 bit):
                    00:c6:8f:53:44:0f:48:a9:e4:1d:9c:eb:f4:aa:08:
                    81:6d:28:6e:53:b9:19:b1:75:10:de:3e:04:5f:68:
                    a2:a2:2b:fd:fc:90:37:e1:04:dc:a4:5e:44:cc:b0:
                    68:89:28:ed:02:82:a1:d7:8d:9a:6a:63:6e:42:95:
                    c3:7b:f0:35:18:b0:f4:d6:ba:6c:77:66:81:8c:90:
                    ad:46:97:a9:d5:05:3d:8b:af:ad:2a:46:4b:cf:53:
                    61:50:60:b2:e0:87:f6:98:29:b0:18:4f:09:6e:a8:
                    e5:4f:de:d1:be:ea:bb:14:87:a4:24:ee:1f:c7:d8:
                    43:a4:b7:e1:b0:b8:d9:4b:ad
                Exponent: 65537 (0x10001)
    Signature Algorithm: md5WithRSAEncryption
        22:53:ea:dd:6e:27:ea:31:fe:3a:50:06:e0:24:e3:83:72:5c:
        a4:7e:23:65:78:cd:aa:07:b0:88:2b:a6:d1:d9:f2:5a:74:65:
        f5:6e:48:60:a5:51:7c:60:e9:d4:cc:f8:a5:43:a5:cb:ac:6a:
        78:6f:ce:60:49:b4:cc:dc:3b:01:19:62:4d:83:7a:e0:96:15:
        9c:57:cd:0d:0a:55:12:a7:de:51:03:13:91:33:e4:ea:30:9c:
        f1:8b:d6:f9:11:e4:a9:3b:77:e6:d7:8c:b3:48:44:29:49:62:
        e2:ab:47:42:cc:7f:b8:8f:fb:49:e7:06:13:6a:a4:3d:ab:1b:
        22:fc
-----BEGIN CERTIFICATE-----
MIICvDCCAiUCCQCbJ9fo0boJCTANBgkqhkiG9w0BAQQFADCBlTELMAkGA1UEBhMC
REUxETAPBgNVBAgTCFNhYXJsYW5kMRAwDgYDVQQKEwdNUEktU1dTMSIwIAYDVQQL
ExlEaXN0cmlidXRlZCBTeXN0ZW1zIEdyb3VwMRowGAYDVQQDExFBbmRyZWFzIEhh
ZWJlcmxlbjEhMB8GCSqGSIb3DQEJARYSZGVtb2NhQG9jdGFyaW5lLmRlMB4XDTE1
MDQyMDIwNDcxMFoXDTE2MDQxOTIwNDcxMFowga4xCzAJBgNVBAYTAkRFMREwDwYD
VQQIEwhTYWFybGFuZDEQMA4GA1UEChMHTVBJLVNXUzEiMCAGA1UECxMZRGlzdHJp
YnV0ZWQgU3lzdGVtcyBHcm91cDExMC8GA1UEAxMoNWEzMDJiMzdhMWE5NmViODI3
MDE0MjhlYjU1NjlmZWVhMWZjZDI0ODEjMCEGCSqGSIb3DQEJARYUbm9kZTAzMDVA
b2N0YXJpbmUuZGUwgZ8wDQYJKoZIhvcNAQEBBQADgY0AMIGJAoGBAMaPU0QPSKnk
HZzr9KoIgW0oblO5GbF1EN4+BF9ooqIr/fyQN+EE3KReRMywaIko7QKCodeNmmpj
bkKVw3vwNRiw9Na6bHdmgYyQrUaXqdUFPYuvrSpGS89TYVBgsuCH9pgpsBhPCW6o
5U/e0b7quxSHpCTuH8fYQ6S34bC42UutAgMBAAEwDQYJKoZIhvcNAQEEBQADgYEA
IlPq3W4n6jH+OlAG4CTjg3JcpH4jZXjNqgewiCum0dnyWnRl9W5IYKVRfGDp1Mz4
pUOly6xqeG/OYEm0zNw7ARliTYN64JYVnFfNDQpVEqfeUQMTkTPk6jCc8YvW+RHk
qTt35teMs0hEKUli4qtHQsx/uI/7SecGE2qkPasbIvw=
-----END CERTIFICATE-----
