Certificate:
    Data:
        Version: 1 (0x0)
        Serial Number:
            9b:27:d7:e8:d1:ba:08:f7
        Signature Algorithm: md5WithRSAEncryption
        Issuer: C=DE, ST=Saarland, O=MPI-SWS, OU=Distributed Systems Group, CN=Andreas Haeberlen/emailAddress=democa@octarine.de
        Validity
            Not Before: Apr 20 20:47:09 2015 GMT
            Not After : Apr 19 20:47:09 2016 GMT
        Subject: C=DE, ST=Saarland, O=MPI-SWS, OU=Distributed Systems Group, CN=5083532bf28118bbbdb02b6ad7d50e05f995cb0b/emailAddress=node0287@octarine.de
        Subject Public Key Info:
            Public Key Algorithm: rsaEncryption
            RSA Public Key: (1024 bit)
                Modulus (1024 bit):
                    00:c8:9a:14:00:df:c1:be:55:93:35:f4:9d:60:be:
                    55:61:32:e0:10:a3:9e:1a:5b:57:67:fb:2b:84:f7:
                    20:5d:f7:06:e3:55:04:ee:5a:c5:4e:2b:a5:70:03:
                    e0:52:b2:d7:02:9f:15:32:c4:00:cf:4a:4c:a9:ab:
                    0d:5a:cb:db:99:d6:80:de:45:79:c3:6a:5a:d1:ff:
                    58:60:d5:fb:e4:52:f5:3b:5a:e4:29:a4:05:c9:d2:
                    24:4e:4e:c8:d4:de:c4:87:53:3b:9e:41:83:72:d4:
                    f9:ce:69:c8:49:b7:6c:5e:cd:de:97:a2:86:64:16:
                    94:07:88:d7:04:ae:7b:70:89
                Exponent: 65537 (0x10001)
    Signature Algorithm: md5WithRSAEncryption
        81:f0:12:6d:43:5c:b8:21:4a:a7:0e:96:df:21:8e:ae:f8:85:
        ae:73:f2:fb:d0:01:47:cc:29:c8:a4:91:e2:c3:22:39:07:e2:
        57:e6:07:cf:a0:cf:bf:2a:f9:10:71:37:5e:7c:8b:9d:4c:57:
        42:de:62:79:90:b5:45:10:4d:15:d0:13:77:06:1a:d1:00:64:
        cd:45:07:ca:3a:fe:d3:29:9a:00:30:48:ed:e9:06:fc:19:67:
        ca:0b:ca:f3:3c:6e:27:8b:0f:8e:37:7f:21:23:97:67:36:4d:
        57:0d:89:c4:05:7a:e2:cb:48:67:92:ba:57:c9:8a:c5:04:ee:
        3f:2a
-----BEGIN CERTIFICATE-----
MIICvDCCAiUCCQCbJ9fo0boI9zANBgkqhkiG9w0BAQQFADCBlTELMAkGA1UEBhMC
REUxETAPBgNVBAgTCFNhYXJsYW5kMRAwDgYDVQQKEwdNUEktU1dTMSIwIAYDVQQL
ExlEaXN0cmlidXRlZCBTeXN0ZW1zIEdyb3VwMRowGAYDVQQDExFBbmRyZWFzIEhh
ZWJlcmxlbjEhMB8GCSqGSIb3DQEJARYSZGVtb2NhQG9jdGFyaW5lLmRlMB4XDTE1
MDQyMDIwNDcwOVoXDTE2MDQxOTIwNDcwOVowga4xCzAJBgNVBAYTAkRFMREwDwYD
VQQIEwhTYWFybGFuZDEQMA4GA1UEChMHTVBJLVNXUzEiMCAGA1UECxMZRGlzdHJp
YnV0ZWQgU3lzdGVtcyBHcm91cDExMC8GA1UEAxMoNTA4MzUzMmJmMjgxMThiYmJk
YjAyYjZhZDdkNTBlMDVmOTk1Y2IwYjEjMCEGCSqGSIb3DQEJARYUbm9kZTAyODdA
b2N0YXJpbmUuZGUwgZ8wDQYJKoZIhvcNAQEBBQADgY0AMIGJAoGBAMiaFADfwb5V
kzX0nWC+VWEy4BCjnhpbV2f7K4T3IF33BuNVBO5axU4rpXAD4FKy1wKfFTLEAM9K
TKmrDVrL25nWgN5FecNqWtH/WGDV++RS9Tta5CmkBcnSJE5OyNTexIdTO55Bg3LU
+c5pyEm3bF7N3peihmQWlAeI1wSue3CJAgMBAAEwDQYJKoZIhvcNAQEEBQADgYEA
gfASbUNcuCFKpw6W3yGOrviFrnPy+9ABR8wpyKSR4sMiOQfiV+YHz6DPvyr5EHE3
XnyLnUxXQt5ieZC1RRBNFdATdwYa0QBkzUUHyjr+0ymaADBI7ekG/BlnygvK8zxu
J4sPjjd/ISOXZzZNVw2JxAV64stIZ5K6V8mKxQTuPyo=
-----END CERTIFICATE-----
