Certificate:
    Data:
        Version: 1 (0x0)
        Serial Number:
            9b:27:d7:e8:d1:ba:08:be
        Signature Algorithm: md5WithRSAEncryption
        Issuer: C=DE, ST=Saarland, O=MPI-SWS, OU=Distributed Systems Group, CN=Andreas Haeberlen/emailAddress=democa@octarine.de
        Validity
            Not Before: Apr 20 20:47:07 2015 GMT
            Not After : Apr 19 20:47:07 2016 GMT
        Subject: C=DE, ST=Saarland, O=MPI-SWS, OU=Distributed Systems Group, CN=c8cea3d9abaabfbbf9d2ce8e3d0ec238af7435ed/emailAddress=node0230@octarine.de
        Subject Public Key Info:
            Public Key Algorithm: rsaEncryption
            RSA Public Key: (1024 bit)
                Modulus (1024 bit):
                    00:9e:c7:39:f3:6a:15:5a:3f:b8:69:09:35:0c:74:
                    b6:de:c9:78:f5:67:74:09:65:73:01:4b:1c:31:cd:
                    3b:06:f5:93:87:58:10:89:29:be:0f:97:36:5d:bf:
                    6e:88:fe:61:1f:c4:d5:ae:6c:4f:bf:66:4f:4f:50:
                    32:ac:52:a0:65:2f:cc:a4:20:c6:4f:6b:8a:19:dc:
                    4c:07:9b:3e:18:90:0a:20:38:aa:7e:a7:a2:09:61:
                    81:94:b8:e2:20:04:d8:28:71:9d:cb:1b:66:8b:e7:
                    8a:fd:11:ac:46:36:b0:14:b0:42:8f:81:66:cb:77:
                    41:a3:e4:64:ab:4e:92:69:17
                Exponent: 65537 (0x10001)
    Signature Algorithm: md5WithRSAEncryption
        64:3b:3e:8f:92:81:7a:71:8e:b4:ed:76:bc:4c:06:5f:50:21:
        b5:f7:b9:71:a2:29:f8:39:5a:80:3d:02:9f:f0:e9:c8:4e:90:
        f2:be:b9:03:d8:a1:0a:0c:86:e9:d0:ab:08:6c:69:4a:69:d3:
        4d:53:93:b4:33:b4:20:19:b1:2d:55:d4:ee:b8:08:e7:5d:87:
        8c:28:1d:6f:ea:c7:6f:6e:b8:a0:40:d1:b6:ad:6c:6b:9b:7e:
        8d:17:2a:b8:ba:19:89:60:0b:0a:52:cf:ba:ff:4b:e6:69:ac:
        b3:63:d0:ac:0d:ba:b3:1c:7b:ed:8c:34:ff:f4:40:f5:3f:4c:
        1d:dc
-----BEGIN CERTIFICATE-----
MIICvDCCAiUCCQCbJ9fo0boIvjANBgkqhkiG9w0BAQQFADCBlTELMAkGA1UEBhMC
REUxETAPBgNVBAgTCFNhYXJsYW5kMRAwDgYDVQQKEwdNUEktU1dTMSIwIAYDVQQL
ExlEaXN0cmlidXRlZCBTeXN0ZW1zIEdyb3VwMRowGAYDVQQDExFBbmRyZWFzIEhh
ZWJlcmxlbjEhMB8GCSqGSIb3DQEJARYSZGVtb2NhQG9jdGFyaW5lLmRlMB4XDTE1
MDQyMDIwNDcwN1oXDTE2MDQxOTIwNDcwN1owga4xCzAJBgNVBAYTAkRFMREwDwYD
VQQIEwhTYWFybGFuZDEQMA4GA1UEChMHTVBJLVNXUzEiMCAGA1UECxMZRGlzdHJp
YnV0ZWQgU3lzdGVtcyBHcm91cDExMC8GA1UEAxMoYzhjZWEzZDlhYmFhYmZiYmY5
ZDJjZThlM2QwZWMyMzhhZjc0MzVlZDEjMCEGCSqGSIb3DQEJARYUbm9kZTAyMzBA
b2N0YXJpbmUuZGUwgZ8wDQYJKoZIhvcNAQEBBQADgY0AMIGJAoGBAJ7HOfNqFVo/
uGkJNQx0tt7JePVndAllcwFLHDHNOwb1k4dYEIkpvg+XNl2/boj+YR/E1a5sT79m
T09QMqxSoGUvzKQgxk9rihncTAebPhiQCiA4qn6noglhgZS44iAE2ChxncsbZovn
iv0RrEY2sBSwQo+BZst3QaPkZKtOkmkXAgMBAAEwDQYJKoZIhvcNAQEEBQADgYEA
ZDs+j5KBenGOtO12vEwGX1Ahtfe5caIp+DlagD0Cn/DpyE6Q8r65A9ihCgyG6dCr
CGxpSmnTTVOTtDO0IBmxLVXU7rgI512HjCgdb+rHb264oEDRtq1sa5t+jRcquLoZ
iWALClLPuv9L5mmss2PQrA26sxx77Yw0//RA9T9MHdw=
-----END CERTIFICATE-----
