Certificate:
    Data:
        Version: 1 (0x0)
        Serial Number:
            9b:27:d7:e8:d1:ba:08:bd
        Signature Algorithm: md5WithRSAEncryption
        Issuer: C=DE, ST=Saarland, O=MPI-SWS, OU=Distributed Systems Group, CN=Andreas Haeberlen/emailAddress=democa@octarine.de
        Validity
            Not Before: Apr 20 20:47:07 2015 GMT
            Not After : Apr 19 20:47:07 2016 GMT
        Subject: C=DE, ST=Saarland, O=MPI-SWS, OU=Distributed Systems Group, CN=3f4e059fae67217ef6e00040f0e232061542ae25/emailAddress=node0229@octarine.de
        Subject Public Key Info:
            Public Key Algorithm: rsaEncryption
            RSA Public Key: (1024 bit)
                Modulus (1024 bit):
                    00:c3:09:eb:54:4a:1b:3c:ba:ef:24:fd:ac:7b:d9:
                    3c:11:9b:4c:f7:39:51:3e:85:59:7e:08:d7:8b:e0:
                    af:b2:ab:ef:46:08:f4:10:2f:75:11:c5:bc:ee:72:
                    19:3f:50:ba:95:db:cc:10:6a:6b:13:2b:3e:4e:f4:
                    23:fa:cf:cd:f1:7a:0a:db:3d:46:74:fa:3d:2c:48:
                    71:05:42:86:7a:f9:73:a6:bf:71:5d:bc:37:04:ab:
                    a0:76:ab:bd:64:e1:b6:d7:52:97:f8:4a:c3:40:30:
                    6e:06:b8:2f:58:ff:0d:2a:57:51:36:21:84:89:8f:
                    85:b5:3e:dc:42:86:06:01:8f
                Exponent: 65537 (0x10001)
    Signature Algorithm: md5WithRSAEncryption
        ae:7f:ba:a4:76:51:e8:3d:52:92:66:bd:99:03:8d:d9:e3:ee:
        37:f2:bc:89:4b:eb:20:3e:76:06:0e:70:55:f6:36:4a:90:5e:
        7b:58:6f:41:f9:8b:9a:4b:1e:f0:6c:d5:bc:06:9b:94:b1:ce:
        a1:c3:d4:dc:35:60:95:23:4f:66:60:2b:d4:df:1b:21:11:16:
        f7:60:10:36:50:79:f4:4f:77:92:d8:52:2d:b1:fe:60:e5:62:
        e1:71:ad:92:65:12:bf:d8:8f:79:dc:e9:71:aa:6b:02:77:c3:
        ac:7c:7e:8c:aa:d4:7d:68:cf:82:e1:9f:c9:0c:db:30:2a:f0:
        c5:ef
-----BEGIN CERTIFICATE-----
MIICvDCCAiUCCQCbJ9fo0boIvTANBgkqhkiG9w0BAQQFADCBlTELMAkGA1UEBhMC
REUxETAPBgNVBAgTCFNhYXJsYW5kMRAwDgYDVQQKEwdNUEktU1dTMSIwIAYDVQQL
ExlEaXN0cmlidXRlZCBTeXN0ZW1zIEdyb3VwMRowGAYDVQQDExFBbmRyZWFzIEhh
ZWJlcmxlbjEhMB8GCSqGSIb3DQEJARYSZGVtb2NhQG9jdGFyaW5lLmRlMB4XDTE1
MDQyMDIwNDcwN1oXDTE2MDQxOTIwNDcwN1owga4xCzAJBgNVBAYTAkRFMREwDwYD
VQQIEwhTYWFybGFuZDEQMA4GA1UEChMHTVBJLVNXUzEiMCAGA1UECxMZRGlzdHJp
YnV0ZWQgU3lzdGVtcyBHcm91cDExMC8GA1UEAxMoM2Y0ZTA1OWZhZTY3MjE3ZWY2
ZTAwMDQwZjBlMjMyMDYxNTQyYWUyNTEjMCEGCSqGSIb3DQEJARYUbm9kZTAyMjlA
b2N0YXJpbmUuZGUwgZ8wDQYJKoZIhvcNAQEBBQADgY0AMIGJAoGBAMMJ61RKGzy6
7yT9rHvZPBGbTPc5UT6FWX4I14vgr7Kr70YI9BAvdRHFvO5yGT9QupXbzBBqaxMr
Pk70I/rPzfF6Cts9RnT6PSxIcQVChnr5c6a/cV28NwSroHarvWThttdSl/hKw0Aw
bga4L1j/DSpXUTYhhImPhbU+3EKGBgGPAgMBAAEwDQYJKoZIhvcNAQEEBQADgYEA
rn+6pHZR6D1Skma9mQON2ePuN/K8iUvrID52Bg5wVfY2SpBee1hvQfmLmkse8GzV
vAablLHOocPU3DVglSNPZmAr1N8bIREW92AQNlB59E93kthSLbH+YOVi4XGtkmUS
v9iPedzpcaprAnfDrHx+jKrUfWjPguGfyQzbMCrwxe8=
-----END CERTIFICATE-----
