Certificate:
    Data:
        Version: 1 (0x0)
        Serial Number:
            9b:27:d7:e8:d1:ba:0b:37
        Signature Algorithm: md5WithRSAEncryption
        Issuer: C=DE, ST=Saarland, O=MPI-SWS, OU=Distributed Systems Group, CN=Andreas Haeberlen/emailAddress=democa@octarine.de
        Validity
            Not Before: Apr 20 20:47:35 2015 GMT
            Not After : Apr 19 20:47:35 2016 GMT
        Subject: C=DE, ST=Saarland, O=MPI-SWS, OU=Distributed Systems Group, CN=1ceac33a985313820a82ae2188eb09d15bc1ffb8/emailAddress=node0863@octarine.de
        Subject Public Key Info:
            Public Key Algorithm: rsaEncryption
            RSA Public Key: (1024 bit)
                Modulus (1024 bit):
                    00:d8:9f:52:88:4b:41:71:1f:15:4c:f1:fe:74:45:
                    c6:42:96:e1:52:a9:5f:68:b9:a1:c2:65:95:4d:f8:
                    76:f5:99:50:d5:97:b8:91:a0:94:f0:ba:78:ad:01:
                    26:47:2e:41:9f:6d:ad:eb:7d:94:69:10:4d:11:3f:
                    0a:c7:1e:c1:1e:ed:48:32:38:0e:42:2e:2d:87:26:
                    e0:78:25:99:0b:4a:f6:f2:d7:a3:9e:9f:0c:65:d6:
                    3b:d0:36:a6:41:db:bf:8e:7e:a9:45:e5:65:f6:2d:
                    32:a3:44:13:78:03:cb:80:be:c0:05:c1:86:bc:ac:
                    f8:90:b3:fb:a4:b0:bc:a7:d7
                Exponent: 65537 (0x10001)
    Signature Algorithm: md5WithRSAEncryption
        32:3d:19:ac:55:dd:1e:52:b4:84:7e:09:1d:ee:2e:17:41:b4:
        d6:6b:27:96:ed:2b:11:89:24:0d:b4:5b:93:e2:9d:2c:89:d4:
        db:4a:2c:55:bf:2b:4a:d3:c4:94:a6:ac:2f:b3:45:78:7c:3e:
        6c:ae:80:ff:fe:eb:93:20:61:27:20:2f:4b:c6:c8:35:d3:47:
        c2:da:99:38:37:f2:7a:b5:61:fe:58:b7:db:cb:31:ce:ee:ca:
        42:53:e1:2a:cc:23:98:ea:68:c7:5c:ef:fe:07:26:e4:fa:0f:
        b0:05:04:81:8a:09:bd:a9:de:83:e3:35:bc:5d:c9:19:c3:71:
        c8:ca
-----BEGIN CERTIFICATE-----
MIICvDCCAiUCCQCbJ9fo0boLNzANBgkqhkiG9w0BAQQFADCBlTELMAkGA1UEBhMC
REUxETAPBgNVBAgTCFNhYXJsYW5kMRAwDgYDVQQKEwdNUEktU1dTMSIwIAYDVQQL
ExlEaXN0cmlidXRlZCBTeXN0ZW1zIEdyb3VwMRowGAYDVQQDExFBbmRyZWFzIEhh
ZWJlcmxlbjEhMB8GCSqGSIb3DQEJARYSZGVtb2NhQG9jdGFyaW5lLmRlMB4XDTE1
MDQyMDIwNDczNVoXDTE2MDQxOTIwNDczNVowga4xCzAJBgNVBAYTAkRFMREwDwYD
VQQIEwhTYWFybGFuZDEQMA4GA1UEChMHTVBJLVNXUzEiMCAGA1UECxMZRGlzdHJp
YnV0ZWQgU3lzdGVtcyBHcm91cDExMC8GA1UEAxMoMWNlYWMzM2E5ODUzMTM4MjBh
ODJhZTIxODhlYjA5ZDE1YmMxZmZiODEjMCEGCSqGSIb3DQEJARYUbm9kZTA4NjNA
b2N0YXJpbmUuZGUwgZ8wDQYJKoZIhvcNAQEBBQADgY0AMIGJAoGBANifUohLQXEf
FUzx/nRFxkKW4VKpX2i5ocJllU34dvWZUNWXuJGglPC6eK0BJkcuQZ9tret9lGkQ
TRE/CscewR7tSDI4DkIuLYcm4HglmQtK9vLXo56fDGXWO9A2pkHbv45+qUXlZfYt
MqNEE3gDy4C+wAXBhrys+JCz+6SwvKfXAgMBAAEwDQYJKoZIhvcNAQEEBQADgYEA
Mj0ZrFXdHlK0hH4JHe4uF0G01msnlu0rEYkkDbRbk+KdLInU20osVb8rStPElKas
L7NFeHw+bK6A//7rkyBhJyAvS8bINdNHwtqZODfyerVh/li328sxzu7KQlPhKswj
mOpox1zv/gcm5PoPsAUEgYoJvaneg+M1vF3JGcNxyMo=
-----END CERTIFICATE-----
