Certificate:
    Data:
        Version: 1 (0x0)
        Serial Number:
            9b:27:d7:e8:d1:ba:08:51
        Signature Algorithm: md5WithRSAEncryption
        Issuer: C=DE, ST=Saarland, O=MPI-SWS, OU=Distributed Systems Group, CN=Andreas Haeberlen/emailAddress=democa@octarine.de
        Validity
            Not Before: Apr 20 20:47:02 2015 GMT
            Not After : Apr 19 20:47:02 2016 GMT
        Subject: C=DE, ST=Saarland, O=MPI-SWS, OU=Distributed Systems Group, CN=a8d70d6af4cc87bbb0c3872efdaee308bd0cb67b/emailAddress=node0121@octarine.de
        Subject Public Key Info:
            Public Key Algorithm: rsaEncryption
            RSA Public Key: (1024 bit)
                Modulus (1024 bit):
                    00:e3:af:91:0b:b0:7f:e9:38:36:92:31:00:6a:12:
                    df:d0:8d:53:75:25:ae:62:97:35:c3:56:f6:73:60:
                    46:56:76:25:6d:56:ab:e7:e5:ea:bc:6a:ee:01:fe:
                    19:ba:c6:bf:99:77:00:31:9a:8a:6b:65:6a:75:ce:
                    9d:6d:20:60:e2:3f:0a:58:9c:f1:83:a5:47:1d:95:
                    03:e0:a7:af:6a:ec:b0:b5:7f:ae:e5:95:32:5b:ce:
                    8e:e5:31:cc:15:5c:5d:49:2c:d9:e5:d2:2d:9f:d7:
                    d8:7a:96:91:f2:d7:1e:a4:d2:ea:e0:dc:4d:31:13:
                    7f:04:71:45:20:04:c6:ff:d7
                Exponent: 65537 (0x10001)
    Signature Algorithm: md5WithRSAEncryption
        8a:46:d7:cf:e5:db:57:97:08:63:62:67:e5:14:4d:bf:4a:0e:
        70:df:cc:cf:22:8c:7c:66:36:b4:c5:65:85:9d:56:e4:b0:0c:
        b9:b3:26:75:61:ca:c8:60:02:39:92:73:3c:4a:d3:b4:41:ac:
        a8:7e:fc:a3:84:6c:ac:eb:73:5f:e8:40:4b:90:83:77:8b:ac:
        db:cf:f3:22:b7:f8:ff:06:48:28:3d:6e:6e:8a:45:eb:4c:a5:
        a9:a8:29:ad:7f:cf:57:cf:44:ab:ea:d4:8e:2d:a1:0e:bb:6b:
        b9:59:c6:f2:ee:fa:f4:87:25:0c:43:6b:5e:78:c7:bf:1f:72:
        ef:9c
-----BEGIN CERTIFICATE-----
MIICvDCCAiUCCQCbJ9fo0boIUTANBgkqhkiG9w0BAQQFADCBlTELMAkGA1UEBhMC
REUxETAPBgNVBAgTCFNhYXJsYW5kMRAwDgYDVQQKEwdNUEktU1dTMSIwIAYDVQQL
ExlEaXN0cmlidXRlZCBTeXN0ZW1zIEdyb3VwMRowGAYDVQQDExFBbmRyZWFzIEhh
ZWJlcmxlbjEhMB8GCSqGSIb3DQEJARYSZGVtb2NhQG9jdGFyaW5lLmRlMB4XDTE1
MDQyMDIwNDcwMloXDTE2MDQxOTIwNDcwMlowga4xCzAJBgNVBAYTAkRFMREwDwYD
VQQIEwhTYWFybGFuZDEQMA4GA1UEChMHTVBJLVNXUzEiMCAGA1UECxMZRGlzdHJp
YnV0ZWQgU3lzdGVtcyBHcm91cDExMC8GA1UEAxMoYThkNzBkNmFmNGNjODdiYmIw
YzM4NzJlZmRhZWUzMDhiZDBjYjY3YjEjMCEGCSqGSIb3DQEJARYUbm9kZTAxMjFA
b2N0YXJpbmUuZGUwgZ8wDQYJKoZIhvcNAQEBBQADgY0AMIGJAoGBAOOvkQuwf+k4
NpIxAGoS39CNU3UlrmKXNcNW9nNgRlZ2JW1Wq+fl6rxq7gH+GbrGv5l3ADGaimtl
anXOnW0gYOI/Clic8YOlRx2VA+Cnr2rssLV/ruWVMlvOjuUxzBVcXUks2eXSLZ/X
2HqWkfLXHqTS6uDcTTETfwRxRSAExv/XAgMBAAEwDQYJKoZIhvcNAQEEBQADgYEA
ikbXz+XbV5cIY2Jn5RRNv0oOcN/MzyKMfGY2tMVlhZ1W5LAMubMmdWHKyGACOZJz
PErTtEGsqH78o4RsrOtzX+hAS5CDd4us28/zIrf4/wZIKD1ubopF60ylqagprX/P
V89Eq+rUji2hDrtruVnG8u769IclDENrXnjHvx9y75w=
-----END CERTIFICATE-----
