Certificate:
    Data:
        Version: 1 (0x0)
        Serial Number:
            9b:27:d7:e8:d1:ba:08:26
        Signature Algorithm: md5WithRSAEncryption
        Issuer: C=DE, ST=Saarland, O=MPI-SWS, OU=Distributed Systems Group, CN=Andreas Haeberlen/emailAddress=democa@octarine.de
        Validity
            Not Before: Apr 20 20:47:00 2015 GMT
            Not After : Apr 19 20:47:00 2016 GMT
        Subject: C=DE, ST=Saarland, O=MPI-SWS, OU=Distributed Systems Group, CN=0b5d04e5830622b74f4db5c320f3b09cbeab381b/emailAddress=node0078@octarine.de
        Subject Public Key Info:
            Public Key Algorithm: rsaEncryption
            RSA Public Key: (1024 bit)
                Modulus (1024 bit):
                    00:d0:d7:6e:6c:3e:b6:80:70:69:02:fd:a1:3e:92:
                    22:e3:e3:e3:db:aa:8b:6d:1d:65:aa:d5:d2:a8:bb:
                    33:8d:34:2d:00:28:05:b6:55:a3:a1:e5:01:f9:f5:
                    3e:40:f6:b3:6c:c9:dc:9f:b5:bb:28:5a:f8:c5:c7:
                    f8:1b:be:45:a7:d9:08:a7:3f:e6:d9:38:13:fc:6d:
                    5e:8b:98:d1:e7:3b:cf:e2:9c:b6:89:23:09:b5:63:
                    89:89:ab:5f:51:cc:d1:2e:42:ca:bb:f8:aa:5f:65:
                    02:37:40:77:77:75:fa:dc:15:05:fa:76:a2:c1:08:
                    92:8d:7e:51:bc:2e:2f:21:11
                Exponent: 65537 (0x10001)
    Signature Algorithm: md5WithRSAEncryption
        31:2a:0a:fe:96:8b:22:a3:a4:1e:98:0f:1e:0d:f1:f9:88:7b:
        08:35:82:62:74:40:e9:a3:f1:d2:6e:bc:53:1c:4d:bf:2a:de:
        72:7b:9b:20:46:5b:c7:0a:6f:55:d9:7a:97:d8:f0:be:42:7d:
        c3:cd:fd:08:9b:14:31:9a:41:cd:15:0c:d4:45:91:3b:70:1b:
        d5:54:9d:2d:a0:07:94:ed:a2:4f:22:2c:03:81:19:3f:ea:14:
        52:70:ca:65:2b:c4:78:4b:98:1b:4e:82:b2:7d:a8:5e:24:fc:
        63:4c:c8:92:c0:6a:93:a4:ee:85:de:e7:d0:d9:c8:f6:78:b5:
        6b:6f
-----BEGIN CERTIFICATE-----
MIICvDCCAiUCCQCbJ9fo0boIJjANBgkqhkiG9w0BAQQFADCBlTELMAkGA1UEBhMC
REUxETAPBgNVBAgTCFNhYXJsYW5kMRAwDgYDVQQKEwdNUEktU1dTMSIwIAYDVQQL
ExlEaXN0cmlidXRlZCBTeXN0ZW1zIEdyb3VwMRowGAYDVQQDExFBbmRyZWFzIEhh
ZWJlcmxlbjEhMB8GCSqGSIb3DQEJARYSZGVtb2NhQG9jdGFyaW5lLmRlMB4XDTE1
MDQyMDIwNDcwMFoXDTE2MDQxOTIwNDcwMFowga4xCzAJBgNVBAYTAkRFMREwDwYD
VQQIEwhTYWFybGFuZDEQMA4GA1UEChMHTVBJLVNXUzEiMCAGA1UECxMZRGlzdHJp
YnV0ZWQgU3lzdGVtcyBHcm91cDExMC8GA1UEAxMoMGI1ZDA0ZTU4MzA2MjJiNzRm
NGRiNWMzMjBmM2IwOWNiZWFiMzgxYjEjMCEGCSqGSIb3DQEJARYUbm9kZTAwNzhA
b2N0YXJpbmUuZGUwgZ8wDQYJKoZIhvcNAQEBBQADgY0AMIGJAoGBANDXbmw+toBw
aQL9oT6SIuPj49uqi20dZarV0qi7M400LQAoBbZVo6HlAfn1PkD2s2zJ3J+1uyha
+MXH+Bu+RafZCKc/5tk4E/xtXouY0ec7z+KctokjCbVjiYmrX1HM0S5Cyrv4ql9l
AjdAd3d1+twVBfp2osEIko1+UbwuLyERAgMBAAEwDQYJKoZIhvcNAQEEBQADgYEA
MSoK/paLIqOkHpgPHg3x+Yh7CDWCYnRA6aPx0m68UxxNvyrecnubIEZbxwpvVdl6
l9jwvkJ9w839CJsUMZpBzRUM1EWRO3Ab1VSdLaAHlO2iTyIsA4EZP+oUUnDKZSvE
eEuYG06Csn2oXiT8Y0zIksBqk6Tuhd7n0NnI9ni1a28=
-----END CERTIFICATE-----
