Certificate:
    Data:
        Version: 1 (0x0)
        Serial Number:
            9b:27:d7:e8:d1:ba:0b:84
        Signature Algorithm: md5WithRSAEncryption
        Issuer: C=DE, ST=Saarland, O=MPI-SWS, OU=Distributed Systems Group, CN=Andreas Haeberlen/emailAddress=democa@octarine.de
        Validity
            Not Before: Apr 20 20:47:39 2015 GMT
            Not After : Apr 19 20:47:39 2016 GMT
        Subject: C=DE, ST=Saarland, O=MPI-SWS, OU=Distributed Systems Group, CN=a5440e52404641e4cbcca6365fe96ff143641b75/emailAddress=node0940@octarine.de
        Subject Public Key Info:
            Public Key Algorithm: rsaEncryption
            RSA Public Key: (1024 bit)
                Modulus (1024 bit):
                    00:ad:ce:06:4f:ed:84:99:66:e6:b5:87:64:24:d0:
                    93:fc:3a:f5:61:5c:c9:9f:66:fd:13:82:f2:7a:a6:
                    3e:ba:46:35:8b:99:64:50:db:f7:b2:90:97:cd:ff:
                    8d:87:0e:75:cb:a2:02:1f:6c:80:d5:f2:bd:be:e5:
                    e2:d6:37:fc:89:40:fb:72:78:1b:97:60:a6:9d:f4:
                    c5:3b:ea:e0:d0:b0:84:fa:33:3f:e5:7a:d8:b2:31:
                    35:11:3b:30:b7:77:63:9e:7b:ec:31:9f:26:78:3b:
                    dd:32:3c:32:99:f8:d7:5e:a5:b0:16:01:b6:8d:01:
                    e8:ba:9d:cf:d3:23:98:44:ab
                Exponent: 65537 (0x10001)
    Signature Algorithm: md5WithRSAEncryption
        a0:a8:3c:c2:c5:76:82:82:08:c2:43:e0:0b:95:70:04:71:ad:
        b8:59:dd:b7:b2:99:10:07:e0:36:cd:fa:37:73:04:50:2f:31:
        49:d5:1a:28:85:25:10:5b:7f:c9:8d:b6:df:0c:04:ea:7f:3c:
        b9:8c:88:89:be:bc:ca:a4:e5:fb:93:27:eb:e8:ba:e0:71:0c:
        4a:b8:11:d5:c2:e3:84:c5:59:5c:ee:d9:9f:86:56:a4:08:73:
        e4:fe:d9:b1:76:5c:5b:46:78:79:58:55:77:ea:6c:91:e0:2f:
        86:f0:98:b5:1a:cd:2e:ad:c3:f4:fc:54:dd:32:37:12:31:43:
        83:b3
-----BEGIN CERTIFICATE-----
MIICvDCCAiUCCQCbJ9fo0boLhDANBgkqhkiG9w0BAQQFADCBlTELMAkGA1UEBhMC
REUxETAPBgNVBAgTCFNhYXJsYW5kMRAwDgYDVQQKEwdNUEktU1dTMSIwIAYDVQQL
ExlEaXN0cmlidXRlZCBTeXN0ZW1zIEdyb3VwMRowGAYDVQQDExFBbmRyZWFzIEhh
ZWJlcmxlbjEhMB8GCSqGSIb3DQEJARYSZGVtb2NhQG9jdGFyaW5lLmRlMB4XDTE1
MDQyMDIwNDczOVoXDTE2MDQxOTIwNDczOVowga4xCzAJBgNVBAYTAkRFMREwDwYD
VQQIEwhTYWFybGFuZDEQMA4GA1UEChMHTVBJLVNXUzEiMCAGA1UECxMZRGlzdHJp
YnV0ZWQgU3lzdGVtcyBHcm91cDExMC8GA1UEAxMoYTU0NDBlNTI0MDQ2NDFlNGNi
Y2NhNjM2NWZlOTZmZjE0MzY0MWI3NTEjMCEGCSqGSIb3DQEJARYUbm9kZTA5NDBA
b2N0YXJpbmUuZGUwgZ8wDQYJKoZIhvcNAQEBBQADgY0AMIGJAoGBAK3OBk/thJlm
5rWHZCTQk/w69WFcyZ9m/ROC8nqmPrpGNYuZZFDb97KQl83/jYcOdcuiAh9sgNXy
vb7l4tY3/IlA+3J4G5dgpp30xTvq4NCwhPozP+V62LIxNRE7MLd3Y5577DGfJng7
3TI8Mpn4116lsBYBto0B6Lqdz9MjmESrAgMBAAEwDQYJKoZIhvcNAQEEBQADgYEA
oKg8wsV2goIIwkPgC5VwBHGtuFndt7KZEAfgNs36N3MEUC8xSdUaKIUlEFt/yY22
3wwE6n88uYyIib68yqTl+5Mn6+i64HEMSrgR1cLjhMVZXO7Zn4ZWpAhz5P7ZsXZc
W0Z4eVhVd+pskeAvhvCYtRrNLq3D9PxU3TI3EjFDg7M=
-----END CERTIFICATE-----
