Certificate:
    Data:
        Version: 1 (0x0)
        Serial Number:
            9b:27:d7:e8:d1:ba:08:d8
        Signature Algorithm: md5WithRSAEncryption
        Issuer: C=DE, ST=Saarland, O=MPI-SWS, OU=Distributed Systems Group, CN=Andreas Haeberlen/emailAddress=democa@octarine.de
        Validity
            Not Before: Apr 20 20:47:08 2015 GMT
            Not After : Apr 19 20:47:08 2016 GMT
        Subject: C=DE, ST=Saarland, O=MPI-SWS, OU=Distributed Systems Group, CN=bf56131a5b43ce3dad877277cb4da9e594ba7d5d/emailAddress=node0256@octarine.de
        Subject Public Key Info:
            Public Key Algorithm: rsaEncryption
            RSA Public Key: (1024 bit)
                Modulus (1024 bit):
                    00:ba:82:ab:cf:70:fc:f4:16:e2:a3:42:3d:3b:b3:
                    ca:d7:ba:2c:d7:d0:2c:f0:df:a6:aa:d4:a1:67:f7:
                    d1:b1:f0:2b:98:08:cb:37:e4:cb:22:ef:87:a2:48:
                    d3:b6:51:26:0e:9a:8f:37:7c:10:93:08:6e:22:89:
                    6e:fa:2f:a0:1a:5c:de:b8:4a:e3:a4:02:90:8a:56:
                    cf:83:69:d4:8f:6b:58:5b:2b:bb:48:04:8a:f3:93:
                    64:75:ee:9e:b9:2b:32:f2:38:34:69:c0:8f:82:a6:
                    a1:43:ad:8f:66:69:47:7b:93:55:4f:3f:f2:fb:37:
                    4e:39:e0:e0:bc:fe:a3:6c:6b
                Exponent: 65537 (0x10001)
    Signature Algorithm: md5WithRSAEncryption
        95:c5:2b:d1:f4:dd:df:6b:39:a8:94:2b:6b:cd:fa:a0:aa:23:
        59:58:27:aa:17:db:72:4c:dc:b0:61:25:b6:08:f6:38:74:86:
        66:19:d5:65:29:85:d9:c7:12:a4:c6:04:14:46:72:67:d7:0e:
        4e:9b:9b:a9:b2:ff:3e:ea:3f:27:57:4b:81:d9:38:42:cf:f8:
        fb:d7:e2:05:f7:41:b4:b6:7c:8b:78:64:ca:bc:58:37:54:1b:
        9c:60:f4:84:81:ea:53:31:cd:3a:38:6a:25:5e:67:fd:33:68:
        78:2d:e1:76:e8:d2:d7:8a:16:1f:df:2c:57:af:43:ef:55:7a:
        0a:32
-----BEGIN CERTIFICATE-----
MIICvDCCAiUCCQCbJ9fo0boI2DANBgkqhkiG9w0BAQQFADCBlTELMAkGA1UEBhMC
REUxETAPBgNVBAgTCFNhYXJsYW5kMRAwDgYDVQQKEwdNUEktU1dTMSIwIAYDVQQL
ExlEaXN0cmlidXRlZCBTeXN0ZW1zIEdyb3VwMRowGAYDVQQDExFBbmRyZWFzIEhh
ZWJlcmxlbjEhMB8GCSqGSIb3DQEJARYSZGVtb2NhQG9jdGFyaW5lLmRlMB4XDTE1
MDQyMDIwNDcwOFoXDTE2MDQxOTIwNDcwOFowga4xCzAJBgNVBAYTAkRFMREwDwYD
VQQIEwhTYWFybGFuZDEQMA4GA1UEChMHTVBJLVNXUzEiMCAGA1UECxMZRGlzdHJp
YnV0ZWQgU3lzdGVtcyBHcm91cDExMC8GA1UEAxMoYmY1NjEzMWE1YjQzY2UzZGFk
ODc3Mjc3Y2I0ZGE5ZTU5NGJhN2Q1ZDEjMCEGCSqGSIb3DQEJARYUbm9kZTAyNTZA
b2N0YXJpbmUuZGUwgZ8wDQYJKoZIhvcNAQEBBQADgY0AMIGJAoGBALqCq89w/PQW
4qNCPTuzyte6LNfQLPDfpqrUoWf30bHwK5gIyzfkyyLvh6JI07ZRJg6ajzd8EJMI
biKJbvovoBpc3rhK46QCkIpWz4Np1I9rWFsru0gEivOTZHXunrkrMvI4NGnAj4Km
oUOtj2ZpR3uTVU8/8vs3Tjng4Lz+o2xrAgMBAAEwDQYJKoZIhvcNAQEEBQADgYEA
lcUr0fTd32s5qJQra836oKojWVgnqhfbckzcsGEltgj2OHSGZhnVZSmF2ccSpMYE
FEZyZ9cOTpubqbL/Puo/J1dLgdk4Qs/4+9fiBfdBtLZ8i3hkyrxYN1QbnGD0hIHq
UzHNOjhqJV5n/TNoeC3hdujS14oWH98sV69D71V6CjI=
-----END CERTIFICATE-----
