Certificate:
    Data:
        Version: 1 (0x0)
        Serial Number:
            9b:27:d7:e8:d1:ba:0b:4e
        Signature Algorithm: md5WithRSAEncryption
        Issuer: C=DE, ST=Saarland, O=MPI-SWS, OU=Distributed Systems Group, CN=Andreas Haeberlen/emailAddress=democa@octarine.de
        Validity
            Not Before: Apr 20 20:47:36 2015 GMT
            Not After : Apr 19 20:47:36 2016 GMT
        Subject: C=DE, ST=Saarland, O=MPI-SWS, OU=Distributed Systems Group, CN=c392fd27ccb7b6892a5bf3ffe6b3b9c8d6ac3d4f/emailAddress=node0886@octarine.de
        Subject Public Key Info:
            Public Key Algorithm: rsaEncryption
            RSA Public Key: (1024 bit)
                Modulus (1024 bit):
                    00:ac:ed:4f:f7:2a:88:fa:ad:ee:89:f9:a4:17:b6:
                    ea:e2:42:a8:53:d4:29:a4:d7:cd:0e:fa:7b:a4:5c:
                    2d:0c:34:a4:ae:19:0e:08:38:ac:8f:b2:fd:af:7d:
                    74:30:81:5b:9d:54:b5:b9:27:47:f9:3b:6a:5b:9c:
                    50:d1:62:34:77:75:09:28:e7:5f:65:33:32:d5:a8:
                    a8:a7:e6:fd:ee:e1:79:10:9d:f1:db:76:ea:56:8d:
                    7d:89:9b:66:38:e8:8b:9d:b6:a1:85:c8:78:22:64:
                    24:95:2f:7c:e7:5b:c1:a7:4c:cf:d5:13:cd:48:13:
                    a9:08:02:c7:47:d9:42:19:5b
                Exponent: 65537 (0x10001)
    Signature Algorithm: md5WithRSAEncryption
        0b:4e:08:63:46:1b:e0:62:b1:36:b0:8c:60:05:76:89:af:17:
        1e:b0:6b:e0:fa:cd:b9:50:82:aa:15:28:41:a3:57:c2:0d:53:
        51:a1:bb:7e:a4:88:d1:68:b0:2e:d2:a0:d0:7e:c5:06:35:41:
        09:d1:0d:91:66:23:0d:71:8c:2d:ff:9f:28:8b:ce:26:1c:4a:
        dd:a9:66:49:7b:d8:ba:13:20:44:30:ac:76:cf:79:aa:51:57:
        64:e4:0f:75:88:87:a2:ea:bf:17:5c:5a:31:22:47:ae:10:55:
        a1:99:5b:ed:33:9f:6d:c1:5e:d2:f8:60:c9:25:ed:69:0a:5d:
        fd:f7
-----BEGIN CERTIFICATE-----
MIICvDCCAiUCCQCbJ9fo0boLTjANBgkqhkiG9w0BAQQFADCBlTELMAkGA1UEBhMC
REUxETAPBgNVBAgTCFNhYXJsYW5kMRAwDgYDVQQKEwdNUEktU1dTMSIwIAYDVQQL
ExlEaXN0cmlidXRlZCBTeXN0ZW1zIEdyb3VwMRowGAYDVQQDExFBbmRyZWFzIEhh
ZWJlcmxlbjEhMB8GCSqGSIb3DQEJARYSZGVtb2NhQG9jdGFyaW5lLmRlMB4XDTE1
MDQyMDIwNDczNloXDTE2MDQxOTIwNDczNlowga4xCzAJBgNVBAYTAkRFMREwDwYD
VQQIEwhTYWFybGFuZDEQMA4GA1UEChMHTVBJLVNXUzEiMCAGA1UECxMZRGlzdHJp
YnV0ZWQgU3lzdGVtcyBHcm91cDExMC8GA1UEAxMoYzM5MmZkMjdjY2I3YjY4OTJh
NWJmM2ZmZTZiM2I5YzhkNmFjM2Q0ZjEjMCEGCSqGSIb3DQEJARYUbm9kZTA4ODZA
b2N0YXJpbmUuZGUwgZ8wDQYJKoZIhvcNAQEBBQADgY0AMIGJAoGBAKztT/cqiPqt
7on5pBe26uJCqFPUKaTXzQ76e6RcLQw0pK4ZDgg4rI+y/a99dDCBW51UtbknR/k7
alucUNFiNHd1CSjnX2UzMtWoqKfm/e7heRCd8dt26laNfYmbZjjoi522oYXIeCJk
JJUvfOdbwadMz9UTzUgTqQgCx0fZQhlbAgMBAAEwDQYJKoZIhvcNAQEEBQADgYEA
C04IY0Yb4GKxNrCMYAV2ia8XHrBr4PrNuVCCqhUoQaNXwg1TUaG7fqSI0WiwLtKg
0H7FBjVBCdENkWYjDXGMLf+fKIvOJhxK3almSXvYuhMgRDCsds95qlFXZOQPdYiH
ouq/F1xaMSJHrhBVoZlb7TOfbcFe0vhgySXtaQpd/fc=
-----END CERTIFICATE-----
