Certificate:
    Data:
        Version: 1 (0x0)
        Serial Number:
            9b:27:d7:e8:d1:ba:09:47
        Signature Algorithm: md5WithRSAEncryption
        Issuer: C=DE, ST=Saarland, O=MPI-SWS, OU=Distributed Systems Group, CN=Andreas Haeberlen/emailAddress=democa@octarine.de
        Validity
            Not Before: Apr 20 20:47:12 2015 GMT
            Not After : Apr 19 20:47:12 2016 GMT
        Subject: C=DE, ST=Saarland, O=MPI-SWS, OU=Distributed Systems Group, CN=1ea04f7dfee3f6d4a912cfff34d3cd3ecde0d6ec/emailAddress=node0367@octarine.de
        Subject Public Key Info:
            Public Key Algorithm: rsaEncryption
            RSA Public Key: (1024 bit)
                Modulus (1024 bit):
                    00:b3:6b:e3:00:b4:55:02:bf:f4:39:25:51:79:5b:
                    56:14:cd:eb:81:f1:5f:3e:2c:1f:eb:e5:cc:ea:89:
                    d1:3a:2d:ca:ea:72:68:00:5e:31:b6:41:a7:cd:92:
                    0e:22:18:21:d3:09:ae:41:86:17:2d:a4:4d:b4:64:
                    73:38:5e:1a:05:d6:23:2b:8f:de:3d:7a:bb:e0:6e:
                    99:96:ee:c0:e9:fd:86:55:4a:91:da:b3:ae:b5:dd:
                    35:62:41:f9:e2:34:bd:08:93:ec:53:fc:8b:0a:2d:
                    f4:70:c4:ae:69:6a:aa:a5:8e:91:cb:10:67:d4:6f:
                    0e:de:28:ea:03:1a:c0:08:4f
                Exponent: 65537 (0x10001)
    Signature Algorithm: md5WithRSAEncryption
        73:33:f6:0b:b7:ff:2a:86:4a:d6:c9:bb:10:06:d8:20:76:bf:
        e0:d8:c5:71:bc:7d:dd:2b:8d:a3:e5:03:9f:7e:61:5b:46:e8:
        06:e8:91:c0:ff:54:bb:87:c8:de:b2:e2:a0:e0:81:cb:aa:39:
        ce:6d:6f:fb:3a:76:79:61:7a:e8:34:82:39:82:78:a8:79:5a:
        9c:39:fe:36:7d:d5:91:23:ac:ea:8e:da:50:8a:fc:7e:0a:3d:
        32:06:38:e5:37:bc:62:3a:39:e0:77:29:af:6b:ab:78:ad:22:
        b1:eb:97:9a:02:81:4c:77:46:aa:97:c8:22:2e:3d:6c:f8:01:
        6c:fb
-----BEGIN CERTIFICATE-----
MIICvDCCAiUCCQCbJ9fo0boJRzANBgkqhkiG9w0BAQQFADCBlTELMAkGA1UEBhMC
REUxETAPBgNVBAgTCFNhYXJsYW5kMRAwDgYDVQQKEwdNUEktU1dTMSIwIAYDVQQL
ExlEaXN0cmlidXRlZCBTeXN0ZW1zIEdyb3VwMRowGAYDVQQDExFBbmRyZWFzIEhh
ZWJlcmxlbjEhMB8GCSqGSIb3DQEJARYSZGVtb2NhQG9jdGFyaW5lLmRlMB4XDTE1
MDQyMDIwNDcxMloXDTE2MDQxOTIwNDcxMlowga4xCzAJBgNVBAYTAkRFMREwDwYD
VQQIEwhTYWFybGFuZDEQMA4GA1UEChMHTVBJLVNXUzEiMCAGA1UECxMZRGlzdHJp
YnV0ZWQgU3lzdGVtcyBHcm91cDExMC8GA1UEAxMoMWVhMDRmN2RmZWUzZjZkNGE5
MTJjZmZmMzRkM2NkM2VjZGUwZDZlYzEjMCEGCSqGSIb3DQEJARYUbm9kZTAzNjdA
b2N0YXJpbmUuZGUwgZ8wDQYJKoZIhvcNAQEBBQADgY0AMIGJAoGBALNr4wC0VQK/
9DklUXlbVhTN64HxXz4sH+vlzOqJ0TotyupyaABeMbZBp82SDiIYIdMJrkGGFy2k
TbRkczheGgXWIyuP3j16u+BumZbuwOn9hlVKkdqzrrXdNWJB+eI0vQiT7FP8iwot
9HDErmlqqqWOkcsQZ9RvDt4o6gMawAhPAgMBAAEwDQYJKoZIhvcNAQEEBQADgYEA
czP2C7f/KoZK1sm7EAbYIHa/4NjFcbx93SuNo+UDn35hW0boBuiRwP9Uu4fI3rLi
oOCBy6o5zm1v+zp2eWF66DSCOYJ4qHlanDn+Nn3VkSOs6o7aUIr8fgo9MgY45Te8
Yjo54Hcpr2ureK0iseuXmgKBTHdGqpfIIi49bPgBbPs=
-----END CERTIFICATE-----
