Certificate:
    Data:
        Version: 1 (0x0)
        Serial Number:
            9b:27:d7:e8:d1:ba:09:60
        Signature Algorithm: md5WithRSAEncryption
        Issuer: C=DE, ST=Saarland, O=MPI-SWS, OU=Distributed Systems Group, CN=Andreas Haeberlen/emailAddress=democa@octarine.de
        Validity
            Not Before: Apr 20 20:47:13 2015 GMT
            Not After : Apr 19 20:47:13 2016 GMT
        Subject: C=DE, ST=Saarland, O=MPI-SWS, OU=Distributed Systems Group, CN=e75b94c7f00cac1daabc8bae0eeaeead6f9f4574/emailAddress=node0392@octarine.de
        Subject Public Key Info:
            Public Key Algorithm: rsaEncryption
            RSA Public Key: (1024 bit)
                Modulus (1024 bit):
                    00:ee:10:fa:ec:ab:80:d4:e9:f4:31:30:c1:40:50:
                    90:3a:69:e6:11:2d:89:0b:f2:f2:8e:29:53:4d:36:
                    d1:5f:f7:57:da:3f:e2:14:d1:19:0c:1c:fd:9b:75:
                    bd:e2:84:fa:74:07:4c:f5:1e:8e:42:ba:48:1f:52:
                    84:33:bf:03:38:a7:f0:5f:0c:9e:4b:48:18:48:d2:
                    e2:39:bf:69:84:ee:75:3c:7f:cc:29:6b:42:18:67:
                    4e:f6:f3:08:1d:94:e7:f7:e0:95:f6:d6:ae:cc:31:
                    7e:38:9f:13:1a:c8:d3:a2:c4:db:d1:fa:61:21:ef:
                    6e:27:d4:54:13:25:80:21:13
                Exponent: 65537 (0x10001)
    Signature Algorithm: md5WithRSAEncryption
        b8:67:6e:4a:e2:44:79:9a:8d:08:e2:b3:84:19:a5:01:b8:57:
        3b:ac:92:8b:88:47:5f:d1:e0:90:1d:26:15:83:32:ea:87:1a:
        c6:bd:74:6a:f3:39:e9:f9:cd:23:d3:19:76:b3:e2:8f:3c:df:
        39:67:24:a3:e5:67:35:0e:9d:d1:75:ce:50:c7:21:b6:bc:d5:
        f2:f1:3f:ab:4a:cc:32:4b:cb:bc:21:eb:23:39:e0:5e:f4:df:
        68:4c:44:e7:59:4e:e6:91:b6:50:ac:f8:fc:c0:a7:4c:3a:a0:
        87:61:27:e4:af:d7:f1:35:c7:6a:7c:3b:b9:bc:0f:46:cc:b5:
        08:9e
-----BEGIN CERTIFICATE-----
MIICvDCCAiUCCQCbJ9fo0boJYDANBgkqhkiG9w0BAQQFADCBlTELMAkGA1UEBhMC
REUxETAPBgNVBAgTCFNhYXJsYW5kMRAwDgYDVQQKEwdNUEktU1dTMSIwIAYDVQQL
ExlEaXN0cmlidXRlZCBTeXN0ZW1zIEdyb3VwMRowGAYDVQQDExFBbmRyZWFzIEhh
ZWJlcmxlbjEhMB8GCSqGSIb3DQEJARYSZGVtb2NhQG9jdGFyaW5lLmRlMB4XDTE1
MDQyMDIwNDcxM1oXDTE2MDQxOTIwNDcxM1owga4xCzAJBgNVBAYTAkRFMREwDwYD
VQQIEwhTYWFybGFuZDEQMA4GA1UEChMHTVBJLVNXUzEiMCAGA1UECxMZRGlzdHJp
YnV0ZWQgU3lzdGVtcyBHcm91cDExMC8GA1UEAxMoZTc1Yjk0YzdmMDBjYWMxZGFh
YmM4YmFlMGVlYWVlYWQ2ZjlmNDU3NDEjMCEGCSqGSIb3DQEJARYUbm9kZTAzOTJA
b2N0YXJpbmUuZGUwgZ8wDQYJKoZIhvcNAQEBBQADgY0AMIGJAoGBAO4Q+uyrgNTp
9DEwwUBQkDpp5hEtiQvy8o4pU0020V/3V9o/4hTRGQwc/Zt1veKE+nQHTPUejkK6
SB9ShDO/Azin8F8MnktIGEjS4jm/aYTudTx/zClrQhhnTvbzCB2U5/fglfbWrswx
fjifExrI06LE29H6YSHvbifUVBMlgCETAgMBAAEwDQYJKoZIhvcNAQEEBQADgYEA
uGduSuJEeZqNCOKzhBmlAbhXO6ySi4hHX9HgkB0mFYMy6ocaxr10avM56fnNI9MZ
drPijzzfOWcko+VnNQ6d0XXOUMchtrzV8vE/q0rMMkvLvCHrIzngXvTfaExE51lO
5pG2UKz4/MCnTDqgh2En5K/X8TXHanw7ubwPRsy1CJ4=
-----END CERTIFICATE-----
