Certificate:
    Data:
        Version: 1 (0x0)
        Serial Number:
            9b:27:d7:e8:d1:ba:08:69
        Signature Algorithm: md5WithRSAEncryption
        Issuer: C=DE, ST=Saarland, O=MPI-SWS, OU=Distributed Systems Group, CN=Andreas Haeberlen/emailAddress=democa@octarine.de
        Validity
            Not Before: Apr 20 20:47:03 2015 GMT
            Not After : Apr 19 20:47:03 2016 GMT
        Subject: C=DE, ST=Saarland, O=MPI-SWS, OU=Distributed Systems Group, CN=c46d0bd9d62f343365bf3e9b67f613bd81b9d82b/emailAddress=node0145@octarine.de
        Subject Public Key Info:
            Public Key Algorithm: rsaEncryption
            RSA Public Key: (1024 bit)
                Modulus (1024 bit):
                    00:a4:8d:d4:87:1b:7d:df:09:c8:8a:93:90:12:aa:
                    ee:af:1a:5c:33:0b:f0:ad:76:61:16:b0:ed:cb:2c:
                    54:ed:d9:83:fb:01:9b:25:02:ad:c9:7a:17:18:26:
                    01:6c:a5:13:af:fd:6c:a4:44:52:cc:dd:05:e6:30:
                    7c:0e:56:c1:63:91:1c:a1:df:f4:54:ff:6c:2d:c4:
                    72:59:9e:b8:39:f2:90:40:6f:e2:a4:17:22:6c:4a:
                    55:0f:cf:68:5e:a8:c8:9c:27:23:49:49:b9:f6:65:
                    e2:00:ae:f5:79:64:34:4a:fe:21:b2:1f:e5:8e:bd:
                    ee:e7:b9:66:87:10:2d:ac:19
                Exponent: 65537 (0x10001)
    Signature Algorithm: md5WithRSAEncryption
        98:93:a6:30:77:42:0c:68:2a:62:3e:6f:55:0d:b9:d4:26:d5:
        e4:7b:3e:78:94:b7:2d:27:9d:ae:c0:b6:cf:f8:41:e3:d4:f6:
        15:3c:5e:80:3e:05:77:a0:8b:50:80:bc:03:96:bd:cc:b6:72:
        2d:a3:6e:a2:75:9e:ce:32:cb:86:a8:5c:ef:1f:f5:cc:15:5c:
        25:3c:c3:2c:e4:43:7b:b4:dc:9d:71:95:cd:37:e1:82:c3:bf:
        bc:33:bf:66:9a:a3:80:d8:9b:75:5d:a1:bb:e6:7c:31:ae:84:
        a1:13:58:cd:90:01:a6:20:95:79:0e:24:cc:5a:fa:86:59:2f:
        d7:ca
-----BEGIN CERTIFICATE-----
MIICvDCCAiUCCQCbJ9fo0boIaTANBgkqhkiG9w0BAQQFADCBlTELMAkGA1UEBhMC
REUxETAPBgNVBAgTCFNhYXJsYW5kMRAwDgYDVQQKEwdNUEktU1dTMSIwIAYDVQQL
ExlEaXN0cmlidXRlZCBTeXN0ZW1zIEdyb3VwMRowGAYDVQQDExFBbmRyZWFzIEhh
ZWJlcmxlbjEhMB8GCSqGSIb3DQEJARYSZGVtb2NhQG9jdGFyaW5lLmRlMB4XDTE1
MDQyMDIwNDcwM1oXDTE2MDQxOTIwNDcwM1owga4xCzAJBgNVBAYTAkRFMREwDwYD
VQQIEwhTYWFybGFuZDEQMA4GA1UEChMHTVBJLVNXUzEiMCAGA1UECxMZRGlzdHJp
YnV0ZWQgU3lzdGVtcyBHcm91cDExMC8GA1UEAxMoYzQ2ZDBiZDlkNjJmMzQzMzY1
YmYzZTliNjdmNjEzYmQ4MWI5ZDgyYjEjMCEGCSqGSIb3DQEJARYUbm9kZTAxNDVA
b2N0YXJpbmUuZGUwgZ8wDQYJKoZIhvcNAQEBBQADgY0AMIGJAoGBAKSN1Icbfd8J
yIqTkBKq7q8aXDML8K12YRaw7cssVO3Zg/sBmyUCrcl6FxgmAWylE6/9bKREUszd
BeYwfA5WwWORHKHf9FT/bC3EclmeuDnykEBv4qQXImxKVQ/PaF6oyJwnI0lJufZl
4gCu9XlkNEr+IbIf5Y697ue5ZocQLawZAgMBAAEwDQYJKoZIhvcNAQEEBQADgYEA
mJOmMHdCDGgqYj5vVQ251CbV5Hs+eJS3LSedrsC2z/hB49T2FTxegD4Fd6CLUIC8
A5a9zLZyLaNuonWezjLLhqhc7x/1zBVcJTzDLORDe7TcnXGVzTfhgsO/vDO/Zpqj
gNibdV2hu+Z8Ma6EoRNYzZABpiCVeQ4kzFr6hlkv18o=
-----END CERTIFICATE-----
