Certificate:
    Data:
        Version: 1 (0x0)
        Serial Number:
            9b:27:d7:e8:d1:ba:0a:18
        Signature Algorithm: md5WithRSAEncryption
        Issuer: C=DE, ST=Saarland, O=MPI-SWS, OU=Distributed Systems Group, CN=Andreas Haeberlen/emailAddress=democa@octarine.de
        Validity
            Not Before: Apr 20 20:47:22 2015 GMT
            Not After : Apr 19 20:47:22 2016 GMT
        Subject: C=DE, ST=Saarland, O=MPI-SWS, OU=Distributed Systems Group, CN=d5a14e7aa2b8b6b1044998af5bb9bc492ea6d107/emailAddress=node0576@octarine.de
        Subject Public Key Info:
            Public Key Algorithm: rsaEncryption
            RSA Public Key: (1024 bit)
                Modulus (1024 bit):
                    00:aa:9e:76:db:91:b4:67:fd:01:5d:2e:e3:b5:a4:
                    2f:d6:ae:01:98:ad:68:b8:0d:f0:60:a7:31:56:3f:
                    83:5a:a3:3f:13:e6:5a:31:67:0d:a5:25:b7:27:fd:
                    55:b5:dc:8b:d8:7b:32:89:15:9f:19:fd:0a:8e:5f:
                    7d:94:87:1f:a8:52:9c:82:70:02:f2:75:68:f8:f0:
                    61:b6:b8:58:b5:62:32:de:52:6b:24:2f:48:a5:bd:
                    1e:8e:f1:81:e9:6e:4d:fa:61:6a:06:22:d1:59:cf:
                    d7:d7:8e:81:91:a2:01:b9:26:17:5f:b0:26:a1:48:
                    98:95:5b:6b:56:a6:11:d9:f5
                Exponent: 65537 (0x10001)
    Signature Algorithm: md5WithRSAEncryption
        c3:fe:1d:f5:e9:1c:8d:3d:d0:41:7d:5d:37:b9:5a:dc:3d:aa:
        91:84:b3:c6:af:e5:1c:0e:db:61:74:e8:19:f0:f4:16:c6:9f:
        3e:9e:7f:69:bc:76:80:90:af:7e:9c:a7:e9:1c:12:62:55:2c:
        f8:f2:55:34:34:da:9f:02:e6:86:a5:a2:1c:91:42:cb:54:32:
        e7:00:5a:74:4a:03:cc:84:82:5a:c4:d2:39:96:33:64:85:8e:
        c7:0c:ed:a6:c0:5f:e2:e2:8e:ef:dd:07:c6:c5:7e:ec:f2:50:
        d5:d8:df:3b:1c:67:b0:c1:c7:f0:ed:10:62:42:18:e1:a7:44:
        ee:aa
-----BEGIN CERTIFICATE-----
MIICvDCCAiUCCQCbJ9fo0boKGDANBgkqhkiG9w0BAQQFADCBlTELMAkGA1UEBhMC
REUxETAPBgNVBAgTCFNhYXJsYW5kMRAwDgYDVQQKEwdNUEktU1dTMSIwIAYDVQQL
ExlEaXN0cmlidXRlZCBTeXN0ZW1zIEdyb3VwMRowGAYDVQQDExFBbmRyZWFzIEhh
ZWJlcmxlbjEhMB8GCSqGSIb3DQEJARYSZGVtb2NhQG9jdGFyaW5lLmRlMB4XDTE1
MDQyMDIwNDcyMloXDTE2MDQxOTIwNDcyMlowga4xCzAJBgNVBAYTAkRFMREwDwYD
VQQIEwhTYWFybGFuZDEQMA4GA1UEChMHTVBJLVNXUzEiMCAGA1UECxMZRGlzdHJp
YnV0ZWQgU3lzdGVtcyBHcm91cDExMC8GA1UEAxMoZDVhMTRlN2FhMmI4YjZiMTA0
NDk5OGFmNWJiOWJjNDkyZWE2ZDEwNzEjMCEGCSqGSIb3DQEJARYUbm9kZTA1NzZA
b2N0YXJpbmUuZGUwgZ8wDQYJKoZIhvcNAQEBBQADgY0AMIGJAoGBAKqedtuRtGf9
AV0u47WkL9auAZitaLgN8GCnMVY/g1qjPxPmWjFnDaUltyf9VbXci9h7MokVnxn9
Co5ffZSHH6hSnIJwAvJ1aPjwYba4WLViMt5SayQvSKW9Ho7xgeluTfphagYi0VnP
19eOgZGiAbkmF1+wJqFImJVba1amEdn1AgMBAAEwDQYJKoZIhvcNAQEEBQADgYEA
w/4d9ekcjT3QQX1dN7la3D2qkYSzxq/lHA7bYXToGfD0FsafPp5/abx2gJCvfpyn
6RwSYlUs+PJVNDTanwLmhqWiHJFCy1Qy5wBadEoDzISCWsTSOZYzZIWOxwztpsBf
4uKO790HxsV+7PJQ1djfOxxnsMHH8O0QYkIY4adE7qo=
-----END CERTIFICATE-----
