Certificate:
    Data:
        Version: 1 (0x0)
        Serial Number:
            9b:27:d7:e8:d1:ba:0b:31
        Signature Algorithm: md5WithRSAEncryption
        Issuer: C=DE, ST=Saarland, O=MPI-SWS, OU=Distributed Systems Group, CN=Andreas Haeberlen/emailAddress=democa@octarine.de
        Validity
            Not Before: Apr 20 20:47:35 2015 GMT
            Not After : Apr 19 20:47:35 2016 GMT
        Subject: C=DE, ST=Saarland, O=MPI-SWS, OU=Distributed Systems Group, CN=69f3c9ef7b6780a708f0868fd5d9a910213fa1e1/emailAddress=node0857@octarine.de
        Subject Public Key Info:
            Public Key Algorithm: rsaEncryption
            RSA Public Key: (1024 bit)
                Modulus (1024 bit):
                    00:d5:a4:7f:66:f8:3b:5d:a2:af:6b:42:34:69:22:
                    70:a2:40:69:6f:8b:a3:b8:c6:95:de:87:e7:ec:35:
                    1d:60:76:99:1c:1b:66:89:93:48:fb:75:2a:73:e5:
                    dd:2c:38:de:aa:14:b8:0c:50:e1:48:63:70:43:c0:
                    8e:31:6e:79:78:fd:5f:c3:f5:6b:64:0a:32:01:9b:
                    45:15:76:0f:c0:50:3c:68:04:a1:93:88:77:64:ad:
                    4f:f9:87:63:75:34:7b:4c:38:6e:97:26:fe:97:1f:
                    13:4e:2a:55:c4:54:b1:dc:ad:a9:49:ba:37:f3:16:
                    ba:47:71:3a:47:d5:2c:b8:d5
                Exponent: 65537 (0x10001)
    Signature Algorithm: md5WithRSAEncryption
        c4:c3:3b:80:8a:eb:7a:ca:03:b3:21:90:8a:d7:a9:b1:37:e9:
        f0:0d:de:da:54:7f:a9:16:33:6e:56:2f:16:95:e2:1e:1d:61:
        6d:7f:fc:f9:f5:64:7a:b2:76:44:a8:bd:78:76:11:4c:20:4f:
        59:3f:4f:1b:ab:fe:72:63:b7:1b:81:e6:56:32:16:62:f3:51:
        31:1f:e8:4b:94:59:62:45:08:76:5e:cd:4a:a6:f1:e3:76:10:
        f3:2d:8d:eb:e5:dd:a5:24:03:38:53:bf:e0:d9:ef:ad:ec:9b:
        e8:11:fd:c2:77:00:a9:46:7c:c7:73:e6:45:71:14:8b:bd:68:
        f0:fb
-----BEGIN CERTIFICATE-----
MIICvDCCAiUCCQCbJ9fo0boLMTANBgkqhkiG9w0BAQQFADCBlTELMAkGA1UEBhMC
REUxETAPBgNVBAgTCFNhYXJsYW5kMRAwDgYDVQQKEwdNUEktU1dTMSIwIAYDVQQL
ExlEaXN0cmlidXRlZCBTeXN0ZW1zIEdyb3VwMRowGAYDVQQDExFBbmRyZWFzIEhh
ZWJlcmxlbjEhMB8GCSqGSIb3DQEJARYSZGVtb2NhQG9jdGFyaW5lLmRlMB4XDTE1
MDQyMDIwNDczNVoXDTE2MDQxOTIwNDczNVowga4xCzAJBgNVBAYTAkRFMREwDwYD
VQQIEwhTYWFybGFuZDEQMA4GA1UEChMHTVBJLVNXUzEiMCAGA1UECxMZRGlzdHJp
YnV0ZWQgU3lzdGVtcyBHcm91cDExMC8GA1UEAxMoNjlmM2M5ZWY3YjY3ODBhNzA4
ZjA4NjhmZDVkOWE5MTAyMTNmYTFlMTEjMCEGCSqGSIb3DQEJARYUbm9kZTA4NTdA
b2N0YXJpbmUuZGUwgZ8wDQYJKoZIhvcNAQEBBQADgY0AMIGJAoGBANWkf2b4O12i
r2tCNGkicKJAaW+Lo7jGld6H5+w1HWB2mRwbZomTSPt1KnPl3Sw43qoUuAxQ4Uhj
cEPAjjFueXj9X8P1a2QKMgGbRRV2D8BQPGgEoZOId2StT/mHY3U0e0w4bpcm/pcf
E04qVcRUsdytqUm6N/MWukdxOkfVLLjVAgMBAAEwDQYJKoZIhvcNAQEEBQADgYEA
xMM7gIrresoDsyGQitepsTfp8A3e2lR/qRYzblYvFpXiHh1hbX/8+fVkerJ2RKi9
eHYRTCBPWT9PG6v+cmO3G4HmVjIWYvNRMR/oS5RZYkUIdl7NSqbx43YQ8y2N6+Xd
pSQDOFO/4Nnvreyb6BH9wncAqUZ8x3PmRXEUi71o8Ps=
-----END CERTIFICATE-----
