Certificate:
    Data:
        Version: 1 (0x0)
        Serial Number:
            9b:27:d7:e8:d1:ba:0a:8d
        Signature Algorithm: md5WithRSAEncryption
        Issuer: C=DE, ST=Saarland, O=MPI-SWS, OU=Distributed Systems Group, CN=Andreas Haeberlen/emailAddress=democa@octarine.de
        Validity
            Not Before: Apr 20 20:47:27 2015 GMT
            Not After : Apr 19 20:47:27 2016 GMT
        Subject: C=DE, ST=Saarland, O=MPI-SWS, OU=Distributed Systems Group, CN=cef3a73a9f37d5bc2f5968fd98c9d37a26dce168/emailAddress=node0693@octarine.de
        Subject Public Key Info:
            Public Key Algorithm: rsaEncryption
            RSA Public Key: (1024 bit)
                Modulus (1024 bit):
                    00:ac:04:ca:ed:5f:c0:ef:6b:63:51:2d:74:1d:cd:
                    02:4f:40:be:f7:03:0c:8e:43:50:63:71:6b:5c:1f:
                    b8:aa:0b:96:24:ac:af:19:e5:25:34:26:43:38:63:
                    fb:01:20:f5:ed:86:80:d2:b7:bf:66:a5:88:d0:7c:
                    53:7f:db:79:12:73:74:5e:e5:dc:ca:6f:3b:e3:0b:
                    5d:d0:5a:16:da:a3:09:e5:e0:dc:fd:65:ed:7e:b8:
                    12:2a:95:d7:a5:b2:82:ca:f7:4f:9e:53:23:f9:f8:
                    d0:2c:a7:32:76:ac:28:a8:06:f8:81:5d:46:63:10:
                    c8:97:f7:88:7e:7e:e0:f0:a7
                Exponent: 65537 (0x10001)
    Signature Algorithm: md5WithRSAEncryption
        b5:1c:1a:0d:d3:16:43:7d:78:c7:05:28:3d:c3:73:ee:ce:63:
        a3:7d:34:3a:eb:d6:fc:a8:9a:a8:07:26:5d:1a:eb:44:89:da:
        91:83:90:7f:4b:f6:87:92:d8:25:00:3e:e2:5e:28:32:14:06:
        eb:fb:5e:a5:a9:b7:47:0d:d2:d8:ad:af:f7:87:96:22:67:03:
        05:bc:1a:53:77:57:a1:98:d3:0e:91:23:e1:cb:94:a6:6e:22:
        7c:49:e7:4d:e1:01:c3:f8:c8:41:79:ca:ad:b7:e0:55:18:c8:
        ea:86:43:48:f2:af:43:fe:b0:35:5a:04:e5:3c:37:ef:fb:25:
        68:82
-----BEGIN CERTIFICATE-----
MIICvDCCAiUCCQCbJ9fo0boKjTANBgkqhkiG9w0BAQQFADCBlTELMAkGA1UEBhMC
REUxETAPBgNVBAgTCFNhYXJsYW5kMRAwDgYDVQQKEwdNUEktU1dTMSIwIAYDVQQL
ExlEaXN0cmlidXRlZCBTeXN0ZW1zIEdyb3VwMRowGAYDVQQDExFBbmRyZWFzIEhh
ZWJlcmxlbjEhMB8GCSqGSIb3DQEJARYSZGVtb2NhQG9jdGFyaW5lLmRlMB4XDTE1
MDQyMDIwNDcyN1oXDTE2MDQxOTIwNDcyN1owga4xCzAJBgNVBAYTAkRFMREwDwYD
VQQIEwhTYWFybGFuZDEQMA4GA1UEChMHTVBJLVNXUzEiMCAGA1UECxMZRGlzdHJp
YnV0ZWQgU3lzdGVtcyBHcm91cDExMC8GA1UEAxMoY2VmM2E3M2E5ZjM3ZDViYzJm
NTk2OGZkOThjOWQzN2EyNmRjZTE2ODEjMCEGCSqGSIb3DQEJARYUbm9kZTA2OTNA
b2N0YXJpbmUuZGUwgZ8wDQYJKoZIhvcNAQEBBQADgY0AMIGJAoGBAKwEyu1fwO9r
Y1EtdB3NAk9AvvcDDI5DUGNxa1wfuKoLliSsrxnlJTQmQzhj+wEg9e2GgNK3v2al
iNB8U3/beRJzdF7l3MpvO+MLXdBaFtqjCeXg3P1l7X64EiqV16Wygsr3T55TI/n4
0CynMnasKKgG+IFdRmMQyJf3iH5+4PCnAgMBAAEwDQYJKoZIhvcNAQEEBQADgYEA
tRwaDdMWQ314xwUoPcNz7s5jo300OuvW/KiaqAcmXRrrRInakYOQf0v2h5LYJQA+
4l4oMhQG6/tepam3Rw3S2K2v94eWImcDBbwaU3dXoZjTDpEj4cuUpm4ifEnnTeEB
w/jIQXnKrbfgVRjI6oZDSPKvQ/6wNVoE5Tw37/slaII=
-----END CERTIFICATE-----
