Certificate:
    Data:
        Version: 1 (0x0)
        Serial Number:
            9b:27:d7:e8:d1:ba:0a:a3
        Signature Algorithm: md5WithRSAEncryption
        Issuer: C=DE, ST=Saarland, O=MPI-SWS, OU=Distributed Systems Group, CN=Andreas Haeberlen/emailAddress=democa@octarine.de
        Validity
            Not Before: Apr 20 20:47:28 2015 GMT
            Not After : Apr 19 20:47:28 2016 GMT
        Subject: C=DE, ST=Saarland, O=MPI-SWS, OU=Distributed Systems Group, CN=1db7d0035914079132084ad4c923ae9cc43953da/emailAddress=node0715@octarine.de
        Subject Public Key Info:
            Public Key Algorithm: rsaEncryption
            RSA Public Key: (1024 bit)
                Modulus (1024 bit):
                    00:cd:40:65:a5:c2:d9:a5:d1:47:4c:20:29:34:b4:
                    d9:1e:89:71:47:b6:6b:46:ef:c5:e7:a7:be:b8:f1:
                    ef:78:0b:05:ae:ee:b2:88:34:ab:d8:91:5a:4f:3f:
                    a4:63:db:fe:07:a2:83:2b:10:96:16:99:0d:29:7e:
                    33:05:d3:59:b1:47:dc:6f:02:16:45:a0:18:00:9f:
                    7a:07:8d:23:fd:9b:54:bc:a0:ba:f0:56:c2:fa:1f:
                    fd:79:b4:89:18:59:9b:d4:1b:54:19:77:58:d3:db:
                    e7:69:5b:29:bf:08:f0:54:99:fb:8f:c6:95:0c:13:
                    bd:b0:30:74:ec:62:fc:b0:c5
                Exponent: 65537 (0x10001)
    Signature Algorithm: md5WithRSAEncryption
        38:6a:5b:61:35:ec:7a:4c:a1:72:8f:54:1f:05:6f:8d:42:32:
        e3:b7:fb:fb:4f:af:31:ad:82:06:0d:25:d0:00:fb:d7:9a:f1:
        61:45:e9:55:27:c0:8b:e5:35:7f:4c:0e:19:82:1a:15:31:0f:
        ab:ba:f5:de:54:60:82:21:e6:e3:71:f0:c1:7a:c6:c3:1b:0f:
        12:7d:76:3b:dc:20:56:5f:61:47:6c:60:b7:f5:06:59:0d:50:
        6d:28:de:8b:91:6c:6a:f2:a0:06:0a:9d:a6:0c:12:61:6b:34:
        3c:75:0c:32:1b:f2:88:d8:12:87:f7:74:33:93:2a:e3:6d:49:
        49:77
-----BEGIN CERTIFICATE-----
MIICvDCCAiUCCQCbJ9fo0boKozANBgkqhkiG9w0BAQQFADCBlTELMAkGA1UEBhMC
REUxETAPBgNVBAgTCFNhYXJsYW5kMRAwDgYDVQQKEwdNUEktU1dTMSIwIAYDVQQL
ExlEaXN0cmlidXRlZCBTeXN0ZW1zIEdyb3VwMRowGAYDVQQDExFBbmRyZWFzIEhh
ZWJlcmxlbjEhMB8GCSqGSIb3DQEJARYSZGVtb2NhQG9jdGFyaW5lLmRlMB4XDTE1
MDQyMDIwNDcyOFoXDTE2MDQxOTIwNDcyOFowga4xCzAJBgNVBAYTAkRFMREwDwYD
VQQIEwhTYWFybGFuZDEQMA4GA1UEChMHTVBJLVNXUzEiMCAGA1UECxMZRGlzdHJp
YnV0ZWQgU3lzdGVtcyBHcm91cDExMC8GA1UEAxMoMWRiN2QwMDM1OTE0MDc5MTMy
MDg0YWQ0YzkyM2FlOWNjNDM5NTNkYTEjMCEGCSqGSIb3DQEJARYUbm9kZTA3MTVA
b2N0YXJpbmUuZGUwgZ8wDQYJKoZIhvcNAQEBBQADgY0AMIGJAoGBAM1AZaXC2aXR
R0wgKTS02R6JcUe2a0bvxeenvrjx73gLBa7usog0q9iRWk8/pGPb/geigysQlhaZ
DSl+MwXTWbFH3G8CFkWgGACfegeNI/2bVLyguvBWwvof/Xm0iRhZm9QbVBl3WNPb
52lbKb8I8FSZ+4/GlQwTvbAwdOxi/LDFAgMBAAEwDQYJKoZIhvcNAQEEBQADgYEA
OGpbYTXsekyhco9UHwVvjUIy47f7+0+vMa2CBg0l0AD715rxYUXpVSfAi+U1f0wO
GYIaFTEPq7r13lRggiHm43HwwXrGwxsPEn12O9wgVl9hR2xgt/UGWQ1QbSjei5Fs
avKgBgqdpgwSYWs0PHUMMhvyiNgSh/d0M5Mq421JSXc=
-----END CERTIFICATE-----
