Certificate:
    Data:
        Version: 1 (0x0)
        Serial Number:
            9b:27:d7:e8:d1:ba:0b:b5
        Signature Algorithm: md5WithRSAEncryption
        Issuer: C=DE, ST=Saarland, O=MPI-SWS, OU=Distributed Systems Group, CN=Andreas Haeberlen/emailAddress=democa@octarine.de
        Validity
            Not Before: Apr 20 20:47:41 2015 GMT
            Not After : Apr 19 20:47:41 2016 GMT
        Subject: C=DE, ST=Saarland, O=MPI-SWS, OU=Distributed Systems Group, CN=4d9018482d2f72b4bf5bbec3bac8511aeabf2f85/emailAddress=node0989@octarine.de
        Subject Public Key Info:
            Public Key Algorithm: rsaEncryption
            RSA Public Key: (1024 bit)
                Modulus (1024 bit):
                    00:b9:a5:48:26:06:c1:fe:23:56:98:b2:a9:9c:f2:
                    be:0c:ee:d6:49:24:d2:1c:b9:bb:5a:6a:49:d0:a3:
                    8b:1e:f9:89:3e:32:40:ea:14:f6:10:f6:36:a8:71:
                    bc:ae:85:a6:67:08:25:5a:ce:7b:67:5b:12:96:a2:
                    6d:51:10:08:1e:61:eb:86:da:c2:6f:df:e3:7d:65:
                    9a:b4:30:3a:8d:43:3e:ef:ee:c4:ee:dc:22:06:46:
                    6e:e0:5a:95:7e:bb:a5:fd:b8:fd:34:f0:f0:e4:b5:
                    27:9d:e1:5b:9a:3d:80:c8:d7:dd:5e:be:56:5c:98:
                    61:a5:fe:5d:8c:5d:b6:93:29
                Exponent: 65537 (0x10001)
    Signature Algorithm: md5WithRSAEncryption
        00:84:7e:55:c1:99:d9:c1:8f:9f:8a:cb:e9:27:90:88:0f:76:
        a6:55:02:14:5b:d2:d4:33:44:70:9a:7a:a1:4a:c2:41:67:ab:
        c7:81:96:13:58:87:84:4c:5b:36:31:90:ad:67:7c:1c:60:3b:
        d0:97:0f:8d:c6:94:e0:16:d9:cb:6e:1a:79:23:e8:70:d5:b5:
        29:30:5f:13:74:fd:0c:7a:f5:a5:7f:5f:39:7a:e2:f9:e3:27:
        f3:22:d7:68:c1:07:de:87:b7:24:d7:27:bc:0b:f6:c8:f1:59:
        1c:72:51:18:21:a4:6b:18:91:c6:68:91:b0:fa:8c:16:9b:63:
        c4:fb
-----BEGIN CERTIFICATE-----
MIICvDCCAiUCCQCbJ9fo0boLtTANBgkqhkiG9w0BAQQFADCBlTELMAkGA1UEBhMC
REUxETAPBgNVBAgTCFNhYXJsYW5kMRAwDgYDVQQKEwdNUEktU1dTMSIwIAYDVQQL
ExlEaXN0cmlidXRlZCBTeXN0ZW1zIEdyb3VwMRowGAYDVQQDExFBbmRyZWFzIEhh
ZWJlcmxlbjEhMB8GCSqGSIb3DQEJARYSZGVtb2NhQG9jdGFyaW5lLmRlMB4XDTE1
MDQyMDIwNDc0MVoXDTE2MDQxOTIwNDc0MVowga4xCzAJBgNVBAYTAkRFMREwDwYD
VQQIEwhTYWFybGFuZDEQMA4GA1UEChMHTVBJLVNXUzEiMCAGA1UECxMZRGlzdHJp
YnV0ZWQgU3lzdGVtcyBHcm91cDExMC8GA1UEAxMoNGQ5MDE4NDgyZDJmNzJiNGJm
NWJiZWMzYmFjODUxMWFlYWJmMmY4NTEjMCEGCSqGSIb3DQEJARYUbm9kZTA5ODlA
b2N0YXJpbmUuZGUwgZ8wDQYJKoZIhvcNAQEBBQADgY0AMIGJAoGBALmlSCYGwf4j
VpiyqZzyvgzu1kkk0hy5u1pqSdCjix75iT4yQOoU9hD2NqhxvK6FpmcIJVrOe2db
EpaibVEQCB5h64bawm/f431lmrQwOo1DPu/uxO7cIgZGbuBalX67pf24/TTw8OS1
J53hW5o9gMjX3V6+VlyYYaX+XYxdtpMpAgMBAAEwDQYJKoZIhvcNAQEEBQADgYEA
AIR+VcGZ2cGPn4rL6SeQiA92plUCFFvS1DNEcJp6oUrCQWerx4GWE1iHhExbNjGQ
rWd8HGA70JcPjcaU4BbZy24aeSPocNW1KTBfE3T9DHr1pX9fOXri+eMn8yLXaMEH
3oe3JNcnvAv2yPFZHHJRGCGkaxiRxmiRsPqMFptjxPs=
-----END CERTIFICATE-----
