Certificate:
    Data:
        Version: 1 (0x0)
        Serial Number:
            9b:27:d7:e8:d1:ba:09:84
        Signature Algorithm: md5WithRSAEncryption
        Issuer: C=DE, ST=Saarland, O=MPI-SWS, OU=Distributed Systems Group, CN=Andreas Haeberlen/emailAddress=democa@octarine.de
        Validity
            Not Before: Apr 20 20:47:15 2015 GMT
            Not After : Apr 19 20:47:15 2016 GMT
        Subject: C=DE, ST=Saarland, O=MPI-SWS, OU=Distributed Systems Group, CN=e7732e2de166df1113ce4f60c367b9da05d240f2/emailAddress=node0428@octarine.de
        Subject Public Key Info:
            Public Key Algorithm: rsaEncryption
            RSA Public Key: (1024 bit)
                Modulus (1024 bit):
                    00:b6:81:30:92:fe:a0:d4:35:96:03:f1:77:f1:2e:
                    3e:7e:08:13:1f:0e:3c:3d:e8:04:11:a8:35:e0:16:
                    c9:24:4c:8a:27:ee:0e:22:9f:04:66:e3:9b:b1:7e:
                    a4:81:ff:0e:4c:c8:0f:2e:1b:f2:a2:d0:c0:fe:fa:
                    e1:cb:df:f8:2d:0a:65:6d:eb:1a:55:1e:47:a3:97:
                    fb:86:51:42:9e:df:ca:90:4f:06:35:5e:ff:a3:f9:
                    c4:50:61:e4:2c:f2:99:92:23:b9:e4:27:8f:cf:58:
                    c4:6a:25:6b:4d:3f:8c:71:ee:73:c5:23:f1:58:99:
                    cb:19:f4:09:3b:b5:7a:a7:31
                Exponent: 65537 (0x10001)
    Signature Algorithm: md5WithRSAEncryption
        1e:ec:46:09:f1:93:d0:39:ab:54:33:65:81:2e:c2:52:5e:48:
        48:e5:30:bb:fd:b8:48:d6:d6:ff:da:27:9b:41:9c:65:50:26:
        85:a7:73:9f:5c:21:52:71:c0:3a:da:fa:e9:44:4e:b5:a6:16:
        42:3d:06:b3:dc:e7:7f:28:52:e3:9f:d9:99:28:2f:80:68:1a:
        c6:b4:a0:77:29:87:98:d6:12:65:e6:52:4f:21:8c:8d:c3:63:
        ff:b0:87:71:c2:94:80:59:93:d7:70:07:ec:5b:89:6b:0d:c9:
        2d:f9:18:e8:c8:ab:f1:22:6e:86:03:59:3c:f8:3d:fd:80:9d:
        7b:6c
-----BEGIN CERTIFICATE-----
MIICvDCCAiUCCQCbJ9fo0boJhDANBgkqhkiG9w0BAQQFADCBlTELMAkGA1UEBhMC
REUxETAPBgNVBAgTCFNhYXJsYW5kMRAwDgYDVQQKEwdNUEktU1dTMSIwIAYDVQQL
ExlEaXN0cmlidXRlZCBTeXN0ZW1zIEdyb3VwMRowGAYDVQQDExFBbmRyZWFzIEhh
ZWJlcmxlbjEhMB8GCSqGSIb3DQEJARYSZGVtb2NhQG9jdGFyaW5lLmRlMB4XDTE1
MDQyMDIwNDcxNVoXDTE2MDQxOTIwNDcxNVowga4xCzAJBgNVBAYTAkRFMREwDwYD
VQQIEwhTYWFybGFuZDEQMA4GA1UEChMHTVBJLVNXUzEiMCAGA1UECxMZRGlzdHJp
YnV0ZWQgU3lzdGVtcyBHcm91cDExMC8GA1UEAxMoZTc3MzJlMmRlMTY2ZGYxMTEz
Y2U0ZjYwYzM2N2I5ZGEwNWQyNDBmMjEjMCEGCSqGSIb3DQEJARYUbm9kZTA0MjhA
b2N0YXJpbmUuZGUwgZ8wDQYJKoZIhvcNAQEBBQADgY0AMIGJAoGBALaBMJL+oNQ1
lgPxd/EuPn4IEx8OPD3oBBGoNeAWySRMiifuDiKfBGbjm7F+pIH/DkzIDy4b8qLQ
wP764cvf+C0KZW3rGlUeR6OX+4ZRQp7fypBPBjVe/6P5xFBh5CzymZIjueQnj89Y
xGola00/jHHuc8Uj8ViZyxn0CTu1eqcxAgMBAAEwDQYJKoZIhvcNAQEEBQADgYEA
HuxGCfGT0DmrVDNlgS7CUl5ISOUwu/24SNbW/9onm0GcZVAmhadzn1whUnHAOtr6
6UROtaYWQj0Gs9znfyhS45/ZmSgvgGgaxrSgdymHmNYSZeZSTyGMjcNj/7CHccKU
gFmT13AH7FuJaw3JLfkY6Mir8SJuhgNZPPg9/YCde2w=
-----END CERTIFICATE-----
