Certificate:
    Data:
        Version: 1 (0x0)
        Serial Number:
            9b:27:d7:e8:d1:ba:0b:65
        Signature Algorithm: md5WithRSAEncryption
        Issuer: C=DE, ST=Saarland, O=MPI-SWS, OU=Distributed Systems Group, CN=Andreas Haeberlen/emailAddress=democa@octarine.de
        Validity
            Not Before: Apr 20 20:47:37 2015 GMT
            Not After : Apr 19 20:47:37 2016 GMT
        Subject: C=DE, ST=Saarland, O=MPI-SWS, OU=Distributed Systems Group, CN=98859edf4472fa9499ed90c4d268f1c9a4f32c37/emailAddress=node0909@octarine.de
        Subject Public Key Info:
            Public Key Algorithm: rsaEncryption
            RSA Public Key: (1024 bit)
                Modulus (1024 bit):
                    00:a3:9a:68:7a:2b:02:01:21:36:c3:2c:2e:2f:c8:
                    39:c6:cf:2a:41:11:75:b7:b7:42:e2:6c:9b:63:0a:
                    67:62:28:6a:7e:34:43:5b:cf:7e:cd:51:1a:55:a8:
                    ea:77:ea:e6:e1:a1:9c:df:4f:ba:84:f0:8d:6a:0a:
                    9a:35:57:91:d8:10:78:ae:1c:72:3b:05:89:b0:f0:
                    e3:ce:2f:25:71:34:10:19:79:71:fd:72:f6:21:f6:
                    12:ee:db:65:98:a9:e4:6b:01:bf:74:1b:97:0d:ba:
                    69:14:ce:1d:57:71:ed:fa:53:94:7b:5e:21:ed:e1:
                    c2:c7:8b:83:6e:ce:b1:e2:53
                Exponent: 65537 (0x10001)
    Signature Algorithm: md5WithRSAEncryption
        8c:08:56:e7:2f:91:f8:06:46:3d:73:71:62:70:04:6b:d2:66:
        da:06:a0:a6:17:c7:78:dd:e6:1b:41:ad:33:e7:29:d2:de:7c:
        7e:f6:2e:dc:e6:b2:ea:53:7c:19:89:98:f6:29:ff:d8:78:23:
        13:5f:a4:d7:e4:65:f3:df:83:b8:53:f8:c3:89:7b:96:61:79:
        dd:5c:fc:69:bf:d7:45:d0:b3:e7:8c:3a:6a:47:45:34:14:e8:
        7c:83:3f:de:9c:82:c6:e2:9e:65:07:eb:e4:6b:f1:d1:25:29:
        a6:72:06:71:0f:02:65:c1:67:4b:4e:a7:93:46:aa:42:41:65:
        90:d4
-----BEGIN CERTIFICATE-----
MIICvDCCAiUCCQCbJ9fo0boLZTANBgkqhkiG9w0BAQQFADCBlTELMAkGA1UEBhMC
REUxETAPBgNVBAgTCFNhYXJsYW5kMRAwDgYDVQQKEwdNUEktU1dTMSIwIAYDVQQL
ExlEaXN0cmlidXRlZCBTeXN0ZW1zIEdyb3VwMRowGAYDVQQDExFBbmRyZWFzIEhh
ZWJlcmxlbjEhMB8GCSqGSIb3DQEJARYSZGVtb2NhQG9jdGFyaW5lLmRlMB4XDTE1
MDQyMDIwNDczN1oXDTE2MDQxOTIwNDczN1owga4xCzAJBgNVBAYTAkRFMREwDwYD
VQQIEwhTYWFybGFuZDEQMA4GA1UEChMHTVBJLVNXUzEiMCAGA1UECxMZRGlzdHJp
YnV0ZWQgU3lzdGVtcyBHcm91cDExMC8GA1UEAxMoOTg4NTllZGY0NDcyZmE5NDk5
ZWQ5MGM0ZDI2OGYxYzlhNGYzMmMzNzEjMCEGCSqGSIb3DQEJARYUbm9kZTA5MDlA
b2N0YXJpbmUuZGUwgZ8wDQYJKoZIhvcNAQEBBQADgY0AMIGJAoGBAKOaaHorAgEh
NsMsLi/IOcbPKkERdbe3QuJsm2MKZ2Ioan40Q1vPfs1RGlWo6nfq5uGhnN9PuoTw
jWoKmjVXkdgQeK4ccjsFibDw484vJXE0EBl5cf1y9iH2Eu7bZZip5GsBv3Qblw26
aRTOHVdx7fpTlHteIe3hwseLg27OseJTAgMBAAEwDQYJKoZIhvcNAQEEBQADgYEA
jAhW5y+R+AZGPXNxYnAEa9Jm2gagphfHeN3mG0GtM+cp0t58fvYu3Oay6lN8GYmY
9in/2HgjE1+k1+Rl89+DuFP4w4l7lmF53Vz8ab/XRdCz54w6akdFNBTofIM/3pyC
xuKeZQfr5Gvx0SUppnIGcQ8CZcFnS06nk0aqQkFlkNQ=
-----END CERTIFICATE-----
