Certificate:
    Data:
        Version: 1 (0x0)
        Serial Number:
            9b:27:d7:e8:d1:ba:09:45
        Signature Algorithm: md5WithRSAEncryption
        Issuer: C=DE, ST=Saarland, O=MPI-SWS, OU=Distributed Systems Group, CN=Andreas Haeberlen/emailAddress=democa@octarine.de
        Validity
            Not Before: Apr 20 20:47:12 2015 GMT
            Not After : Apr 19 20:47:12 2016 GMT
        Subject: C=DE, ST=Saarland, O=MPI-SWS, OU=Distributed Systems Group, CN=f173d58371871c3c545ca47a92ae73b753b3836f/emailAddress=node0365@octarine.de
        Subject Public Key Info:
            Public Key Algorithm: rsaEncryption
            RSA Public Key: (1024 bit)
                Modulus (1024 bit):
                    00:a2:97:bc:4a:ef:c3:cb:8d:31:3d:aa:d6:a7:60:
                    43:4e:5e:2f:70:c4:90:d2:7b:95:58:13:6b:e9:fd:
                    f9:c9:27:6b:9f:a5:2d:ee:69:21:72:f7:49:d6:0d:
                    b5:71:51:4f:59:30:90:28:6a:d9:a2:73:b0:06:2f:
                    aa:61:b7:bf:e8:85:19:4e:d2:8d:64:ed:f0:2c:ad:
                    2a:d2:62:27:b7:25:66:7d:c4:ee:2b:f4:72:60:1b:
                    a6:01:ae:91:aa:21:fd:7d:02:42:47:d9:da:ce:ee:
                    2e:af:31:86:e9:bc:68:5a:d8:73:3e:b1:6e:53:79:
                    9f:66:46:d2:f3:ab:40:db:65
                Exponent: 65537 (0x10001)
    Signature Algorithm: md5WithRSAEncryption
        84:52:fa:ca:34:4d:06:0e:4e:f3:30:c6:c5:68:ac:e4:75:90:
        cb:38:69:f4:e7:be:b4:13:2f:3b:73:9a:f9:91:25:9f:54:e1:
        34:e1:e2:15:37:b9:0b:3c:bb:e7:fd:36:17:4a:8b:6b:b1:c3:
        0b:97:78:1a:49:0c:f6:ea:cf:28:d5:3a:44:c2:2d:0b:1e:be:
        8a:10:eb:81:86:01:5a:7f:0b:a3:6f:c0:da:0b:87:e7:c5:c6:
        0a:8d:35:fe:72:13:12:d9:af:5a:28:4c:8d:46:db:55:b8:4a:
        b7:70:af:61:b6:0b:9e:1b:a6:14:7b:e5:4f:95:49:a3:c1:98:
        db:d8
-----BEGIN CERTIFICATE-----
MIICvDCCAiUCCQCbJ9fo0boJRTANBgkqhkiG9w0BAQQFADCBlTELMAkGA1UEBhMC
REUxETAPBgNVBAgTCFNhYXJsYW5kMRAwDgYDVQQKEwdNUEktU1dTMSIwIAYDVQQL
ExlEaXN0cmlidXRlZCBTeXN0ZW1zIEdyb3VwMRowGAYDVQQDExFBbmRyZWFzIEhh
ZWJlcmxlbjEhMB8GCSqGSIb3DQEJARYSZGVtb2NhQG9jdGFyaW5lLmRlMB4XDTE1
MDQyMDIwNDcxMloXDTE2MDQxOTIwNDcxMlowga4xCzAJBgNVBAYTAkRFMREwDwYD
VQQIEwhTYWFybGFuZDEQMA4GA1UEChMHTVBJLVNXUzEiMCAGA1UECxMZRGlzdHJp
YnV0ZWQgU3lzdGVtcyBHcm91cDExMC8GA1UEAxMoZjE3M2Q1ODM3MTg3MWMzYzU0
NWNhNDdhOTJhZTczYjc1M2IzODM2ZjEjMCEGCSqGSIb3DQEJARYUbm9kZTAzNjVA
b2N0YXJpbmUuZGUwgZ8wDQYJKoZIhvcNAQEBBQADgY0AMIGJAoGBAKKXvErvw8uN
MT2q1qdgQ05eL3DEkNJ7lVgTa+n9+ckna5+lLe5pIXL3SdYNtXFRT1kwkChq2aJz
sAYvqmG3v+iFGU7SjWTt8CytKtJiJ7clZn3E7iv0cmAbpgGukaoh/X0CQkfZ2s7u
Lq8xhum8aFrYcz6xblN5n2ZG0vOrQNtlAgMBAAEwDQYJKoZIhvcNAQEEBQADgYEA
hFL6yjRNBg5O8zDGxWis5HWQyzhp9Oe+tBMvO3Oa+ZEln1ThNOHiFTe5Czy75/02
F0qLa7HDC5d4GkkM9urPKNU6RMItCx6+ihDrgYYBWn8Lo2/A2guH58XGCo01/nIT
EtmvWihMjUbbVbhKt3CvYbYLnhumFHvlT5VJo8GY29g=
-----END CERTIFICATE-----
