Certificate:
    Data:
        Version: 1 (0x0)
        Serial Number:
            9b:27:d7:e8:d1:ba:09:55
        Signature Algorithm: md5WithRSAEncryption
        Issuer: C=DE, ST=Saarland, O=MPI-SWS, OU=Distributed Systems Group, CN=Andreas Haeberlen/emailAddress=democa@octarine.de
        Validity
            Not Before: Apr 20 20:47:13 2015 GMT
            Not After : Apr 19 20:47:13 2016 GMT
        Subject: C=DE, ST=Saarland, O=MPI-SWS, OU=Distributed Systems Group, CN=3d2962312dbfa32013c6f9c3af7f6d49b621963b/emailAddress=node0381@octarine.de
        Subject Public Key Info:
            Public Key Algorithm: rsaEncryption
            RSA Public Key: (1024 bit)
                Modulus (1024 bit):
                    00:ca:07:26:a5:33:bc:29:b5:5e:e1:e7:3f:e2:29:
                    e4:b1:3c:97:b7:22:a1:7b:4d:ce:cf:05:82:67:05:
                    aa:33:4e:e7:68:2d:a1:f9:40:2f:7d:78:fb:0e:d4:
                    ac:f1:4e:49:74:65:e2:47:57:98:e2:2d:6b:51:d8:
                    3b:67:f1:59:96:47:07:3c:69:ab:c9:12:c5:6f:52:
                    d4:ec:07:70:f7:18:aa:ac:5f:cf:e8:8b:f4:be:f2:
                    d5:bd:7f:89:2b:71:59:ae:47:cb:05:1f:69:40:88:
                    5d:ef:67:6d:f8:4d:56:12:53:b1:42:b7:3f:ac:e8:
                    d7:7e:f2:f9:a8:3b:bc:ec:9f
                Exponent: 65537 (0x10001)
    Signature Algorithm: md5WithRSAEncryption
        84:84:95:28:46:fc:eb:07:8e:79:f7:a1:38:69:70:74:3f:3a:
        ec:7f:e9:30:35:01:fe:da:0b:a5:d0:38:ac:b6:b3:d4:61:22:
        01:2c:4f:72:fe:c7:75:34:68:18:78:d3:63:76:63:e0:bf:81:
        50:ab:33:b7:90:d5:31:e9:71:d6:b1:cc:7c:4c:d9:5f:6a:c8:
        96:d7:ed:97:dd:75:25:47:7e:43:1a:c7:cf:6a:14:e5:ba:bd:
        db:63:a9:86:52:1d:c2:08:38:1d:4e:76:2a:fc:3f:cb:8d:60:
        f5:dc:81:f1:5e:f4:20:d4:cd:15:3a:06:9b:4a:5f:da:ab:d5:
        a6:a6
-----BEGIN CERTIFICATE-----
MIICvDCCAiUCCQCbJ9fo0boJVTANBgkqhkiG9w0BAQQFADCBlTELMAkGA1UEBhMC
REUxETAPBgNVBAgTCFNhYXJsYW5kMRAwDgYDVQQKEwdNUEktU1dTMSIwIAYDVQQL
ExlEaXN0cmlidXRlZCBTeXN0ZW1zIEdyb3VwMRowGAYDVQQDExFBbmRyZWFzIEhh
ZWJlcmxlbjEhMB8GCSqGSIb3DQEJARYSZGVtb2NhQG9jdGFyaW5lLmRlMB4XDTE1
MDQyMDIwNDcxM1oXDTE2MDQxOTIwNDcxM1owga4xCzAJBgNVBAYTAkRFMREwDwYD
VQQIEwhTYWFybGFuZDEQMA4GA1UEChMHTVBJLVNXUzEiMCAGA1UECxMZRGlzdHJp
YnV0ZWQgU3lzdGVtcyBHcm91cDExMC8GA1UEAxMoM2QyOTYyMzEyZGJmYTMyMDEz
YzZmOWMzYWY3ZjZkNDliNjIxOTYzYjEjMCEGCSqGSIb3DQEJARYUbm9kZTAzODFA
b2N0YXJpbmUuZGUwgZ8wDQYJKoZIhvcNAQEBBQADgY0AMIGJAoGBAMoHJqUzvCm1
XuHnP+Ip5LE8l7cioXtNzs8FgmcFqjNO52gtoflAL314+w7UrPFOSXRl4kdXmOIt
a1HYO2fxWZZHBzxpq8kSxW9S1OwHcPcYqqxfz+iL9L7y1b1/iStxWa5HywUfaUCI
Xe9nbfhNVhJTsUK3P6zo137y+ag7vOyfAgMBAAEwDQYJKoZIhvcNAQEEBQADgYEA
hISVKEb86weOefehOGlwdD867H/pMDUB/toLpdA4rLaz1GEiASxPcv7HdTRoGHjT
Y3Zj4L+BUKszt5DVMelx1rHMfEzZX2rIltftl911JUd+QxrHz2oU5bq922OphlId
wgg4HU52Kvw/y41g9dyB8V70INTNFToGm0pf2qvVpqY=
-----END CERTIFICATE-----
