Certificate:
    Data:
        Version: 1 (0x0)
        Serial Number:
            9b:27:d7:e8:d1:ba:08:00
        Signature Algorithm: md5WithRSAEncryption
        Issuer: C=DE, ST=Saarland, O=MPI-SWS, OU=Distributed Systems Group, CN=Andreas Haeberlen/emailAddress=democa@octarine.de
        Validity
            Not Before: Apr 20 20:46:58 2015 GMT
            Not After : Apr 19 20:46:58 2016 GMT
        Subject: C=DE, ST=Saarland, O=MPI-SWS, OU=Distributed Systems Group, CN=b6aee7ef838b81026ccb7523fa060bfb299017f9/emailAddress=node0040@octarine.de
        Subject Public Key Info:
            Public Key Algorithm: rsaEncryption
            RSA Public Key: (1024 bit)
                Modulus (1024 bit):
                    00:dd:a9:76:ff:a0:67:be:e6:fd:91:ed:cd:55:9d:
                    07:b7:d2:47:2c:1b:10:16:dd:3b:e8:58:16:9a:20:
                    3c:5a:9c:4c:26:c0:32:25:9e:70:11:0b:9c:b7:49:
                    6a:f8:f5:3c:d6:97:d2:68:55:a8:93:3e:59:34:fe:
                    71:10:bc:fd:bb:1d:bb:bc:e6:6f:10:db:72:b3:52:
                    b1:05:47:32:b9:fd:25:d5:1e:6b:9e:d1:11:11:0b:
                    fb:bc:cb:1c:05:09:c0:2c:aa:18:b8:41:22:2d:f7:
                    8c:60:0d:96:1f:c6:d8:0c:86:d9:0f:f1:04:f4:84:
                    fd:d3:bc:c3:7f:51:a2:c9:c7
                Exponent: 65537 (0x10001)
    Signature Algorithm: md5WithRSAEncryption
        2a:bf:f9:04:25:05:a6:42:a0:59:6f:e7:ea:82:9d:ee:8a:91:
        ab:f8:c1:bb:f0:9b:ee:e9:76:31:a2:9a:b8:6c:a2:a7:89:12:
        0e:90:c7:d2:c1:bb:c2:e8:f0:bc:76:e3:4d:65:34:9d:51:0e:
        63:07:5b:95:8c:06:5f:97:9c:7c:64:99:8d:2d:c8:16:69:a2:
        47:27:dd:a1:34:be:ce:5e:39:60:ec:ed:d6:b3:82:39:61:e4:
        e0:32:9d:ba:a2:95:fc:f3:bb:8b:bf:ec:b5:57:3c:e9:fc:2f:
        ce:b5:30:03:aa:8c:da:48:80:61:5f:02:29:59:fb:b1:00:3a:
        a5:53
-----BEGIN CERTIFICATE-----
MIICvDCCAiUCCQCbJ9fo0boIADANBgkqhkiG9w0BAQQFADCBlTELMAkGA1UEBhMC
REUxETAPBgNVBAgTCFNhYXJsYW5kMRAwDgYDVQQKEwdNUEktU1dTMSIwIAYDVQQL
ExlEaXN0cmlidXRlZCBTeXN0ZW1zIEdyb3VwMRowGAYDVQQDExFBbmRyZWFzIEhh
ZWJlcmxlbjEhMB8GCSqGSIb3DQEJARYSZGVtb2NhQG9jdGFyaW5lLmRlMB4XDTE1
MDQyMDIwNDY1OFoXDTE2MDQxOTIwNDY1OFowga4xCzAJBgNVBAYTAkRFMREwDwYD
VQQIEwhTYWFybGFuZDEQMA4GA1UEChMHTVBJLVNXUzEiMCAGA1UECxMZRGlzdHJp
YnV0ZWQgU3lzdGVtcyBHcm91cDExMC8GA1UEAxMoYjZhZWU3ZWY4MzhiODEwMjZj
Y2I3NTIzZmEwNjBiZmIyOTkwMTdmOTEjMCEGCSqGSIb3DQEJARYUbm9kZTAwNDBA
b2N0YXJpbmUuZGUwgZ8wDQYJKoZIhvcNAQEBBQADgY0AMIGJAoGBAN2pdv+gZ77m
/ZHtzVWdB7fSRywbEBbdO+hYFpogPFqcTCbAMiWecBELnLdJavj1PNaX0mhVqJM+
WTT+cRC8/bsdu7zmbxDbcrNSsQVHMrn9JdUea57REREL+7zLHAUJwCyqGLhBIi33
jGANlh/G2AyG2Q/xBPSE/dO8w39RosnHAgMBAAEwDQYJKoZIhvcNAQEEBQADgYEA
Kr/5BCUFpkKgWW/n6oKd7oqRq/jBu/Cb7ul2MaKauGyip4kSDpDH0sG7wujwvHbj
TWU0nVEOYwdblYwGX5ecfGSZjS3IFmmiRyfdoTS+zl45YOzt1rOCOWHk4DKduqKV
/PO7i7/stVc86fwvzrUwA6qM2kiAYV8CKVn7sQA6pVM=
-----END CERTIFICATE-----
