Certificate:
    Data:
        Version: 1 (0x0)
        Serial Number:
            9b:27:d7:e8:d1:ba:08:07
        Signature Algorithm: md5WithRSAEncryption
        Issuer: C=DE, ST=Saarland, O=MPI-SWS, OU=Distributed Systems Group, CN=Andreas Haeberlen/emailAddress=democa@octarine.de
        Validity
            Not Before: Apr 20 20:46:59 2015 GMT
            Not After : Apr 19 20:46:59 2016 GMT
        Subject: C=DE, ST=Saarland, O=MPI-SWS, OU=Distributed Systems Group, CN=1a0d947f4ded207b652962af97085427e3587c7b/emailAddress=node0047@octarine.de
        Subject Public Key Info:
            Public Key Algorithm: rsaEncryption
            RSA Public Key: (1024 bit)
                Modulus (1024 bit):
                    00:e4:94:49:5f:c8:95:f4:1b:58:02:cf:64:23:b5:
                    e1:01:ac:56:c1:c3:b7:4b:44:c4:d1:64:d9:de:f8:
                    64:5c:c6:64:5a:45:e4:f9:d4:15:6d:36:4e:48:73:
                    21:b3:30:e1:6a:ba:15:7f:9c:36:02:e9:62:fe:80:
                    7a:0e:b9:b5:0f:59:55:41:70:5b:ba:b6:a7:5b:45:
                    7e:87:3c:ff:42:1e:77:4d:dd:11:b6:99:5c:9e:90:
                    b8:b7:97:07:44:36:e8:50:b4:b3:a2:03:e4:61:ac:
                    e6:ae:9b:f6:75:da:6c:4c:79:99:a9:21:0b:e6:ba:
                    d3:c2:7e:11:97:08:0e:fc:0d
                Exponent: 65537 (0x10001)
    Signature Algorithm: md5WithRSAEncryption
        69:11:7e:fe:6f:cb:56:d0:62:f7:55:6e:36:7c:67:bf:b5:06:
        1d:1e:d9:86:40:be:2b:68:3a:9d:19:e8:58:40:ff:41:be:5f:
        c7:88:13:d8:b2:0d:8b:ed:9e:af:3f:e5:c4:98:03:a3:48:3c:
        a6:66:44:3c:8c:32:89:97:60:2d:a2:b3:92:40:ac:a9:59:3b:
        49:67:3a:70:0c:dd:35:d2:2e:be:4b:d5:fe:ee:96:99:5c:2b:
        98:7e:b9:92:51:50:f4:9b:be:e9:1a:a6:8e:3d:a3:59:eb:08:
        42:93:82:3e:d6:63:c5:ab:be:06:c0:77:13:f0:42:d1:47:c2:
        91:bd
-----BEGIN CERTIFICATE-----
MIICvDCCAiUCCQCbJ9fo0boIBzANBgkqhkiG9w0BAQQFADCBlTELMAkGA1UEBhMC
REUxETAPBgNVBAgTCFNhYXJsYW5kMRAwDgYDVQQKEwdNUEktU1dTMSIwIAYDVQQL
ExlEaXN0cmlidXRlZCBTeXN0ZW1zIEdyb3VwMRowGAYDVQQDExFBbmRyZWFzIEhh
ZWJlcmxlbjEhMB8GCSqGSIb3DQEJARYSZGVtb2NhQG9jdGFyaW5lLmRlMB4XDTE1
MDQyMDIwNDY1OVoXDTE2MDQxOTIwNDY1OVowga4xCzAJBgNVBAYTAkRFMREwDwYD
VQQIEwhTYWFybGFuZDEQMA4GA1UEChMHTVBJLVNXUzEiMCAGA1UECxMZRGlzdHJp
YnV0ZWQgU3lzdGVtcyBHcm91cDExMC8GA1UEAxMoMWEwZDk0N2Y0ZGVkMjA3YjY1
Mjk2MmFmOTcwODU0MjdlMzU4N2M3YjEjMCEGCSqGSIb3DQEJARYUbm9kZTAwNDdA
b2N0YXJpbmUuZGUwgZ8wDQYJKoZIhvcNAQEBBQADgY0AMIGJAoGBAOSUSV/IlfQb
WALPZCO14QGsVsHDt0tExNFk2d74ZFzGZFpF5PnUFW02TkhzIbMw4Wq6FX+cNgLp
Yv6Aeg65tQ9ZVUFwW7q2p1tFfoc8/0Ied03dEbaZXJ6QuLeXB0Q26FC0s6ID5GGs
5q6b9nXabEx5makhC+a608J+EZcIDvwNAgMBAAEwDQYJKoZIhvcNAQEEBQADgYEA
aRF+/m/LVtBi91VuNnxnv7UGHR7ZhkC+K2g6nRnoWED/Qb5fx4gT2LINi+2erz/l
xJgDo0g8pmZEPIwyiZdgLaKzkkCsqVk7SWc6cAzdNdIuvkvV/u6WmVwrmH65klFQ
9Ju+6Rqmjj2jWesIQpOCPtZjxau+BsB3E/BC0UfCkb0=
-----END CERTIFICATE-----
