Certificate:
    Data:
        Version: 1 (0x0)
        Serial Number:
            9b:27:d7:e8:d1:ba:0a:91
        Signature Algorithm: md5WithRSAEncryption
        Issuer: C=DE, ST=Saarland, O=MPI-SWS, OU=Distributed Systems Group, CN=Andreas Haeberlen/emailAddress=democa@octarine.de
        Validity
            Not Before: Apr 20 20:47:27 2015 GMT
            Not After : Apr 19 20:47:27 2016 GMT
        Subject: C=DE, ST=Saarland, O=MPI-SWS, OU=Distributed Systems Group, CN=36f5325531e225c585698f7ba43f09a30a84ce90/emailAddress=node0697@octarine.de
        Subject Public Key Info:
            Public Key Algorithm: rsaEncryption
            RSA Public Key: (1024 bit)
                Modulus (1024 bit):
                    00:e8:d1:b8:8d:77:b6:fd:62:9d:bb:6e:76:74:1a:
                    a8:f2:32:41:ea:f7:12:5d:66:bd:ce:4b:c7:75:e7:
                    8f:28:08:6f:53:e4:57:ff:9b:20:75:df:94:1e:28:
                    0d:e5:13:14:95:eb:29:46:60:34:a2:1b:7f:3d:5f:
                    8c:72:bc:55:ad:a8:93:75:6e:a9:2c:09:44:82:37:
                    f3:a6:56:15:15:0e:72:17:5e:6d:7c:ce:48:12:81:
                    3e:89:89:c7:62:cf:3f:d9:aa:0a:5d:a8:9e:74:a9:
                    44:88:74:83:8f:1f:06:aa:23:82:a2:74:11:18:3f:
                    92:82:29:42:2c:98:de:18:5f
                Exponent: 65537 (0x10001)
    Signature Algorithm: md5WithRSAEncryption
        55:54:e2:dd:c7:79:2e:ca:f1:0f:4e:9f:38:60:c8:6c:d2:fc:
        2e:60:64:1e:fc:8d:6d:23:8e:b8:83:70:2f:08:77:34:d9:69:
        18:f8:d9:bd:8d:ca:cd:57:8c:81:0b:d7:89:34:21:10:0e:45:
        2c:75:e4:6c:49:c2:cf:e3:c6:d7:d1:d7:58:07:3e:2e:8c:38:
        fe:30:91:da:8c:3d:54:74:10:59:50:64:1e:a0:bb:7c:78:3e:
        d1:9a:36:ab:57:d0:ec:aa:7c:55:46:ae:13:06:94:45:21:a8:
        3b:fb:d4:14:2b:de:bc:b5:cb:3c:02:2b:6c:26:93:e4:7b:fc:
        49:a1
-----BEGIN CERTIFICATE-----
MIICvDCCAiUCCQCbJ9fo0boKkTANBgkqhkiG9w0BAQQFADCBlTELMAkGA1UEBhMC
REUxETAPBgNVBAgTCFNhYXJsYW5kMRAwDgYDVQQKEwdNUEktU1dTMSIwIAYDVQQL
ExlEaXN0cmlidXRlZCBTeXN0ZW1zIEdyb3VwMRowGAYDVQQDExFBbmRyZWFzIEhh
ZWJlcmxlbjEhMB8GCSqGSIb3DQEJARYSZGVtb2NhQG9jdGFyaW5lLmRlMB4XDTE1
MDQyMDIwNDcyN1oXDTE2MDQxOTIwNDcyN1owga4xCzAJBgNVBAYTAkRFMREwDwYD
VQQIEwhTYWFybGFuZDEQMA4GA1UEChMHTVBJLVNXUzEiMCAGA1UECxMZRGlzdHJp
YnV0ZWQgU3lzdGVtcyBHcm91cDExMC8GA1UEAxMoMzZmNTMyNTUzMWUyMjVjNTg1
Njk4ZjdiYTQzZjA5YTMwYTg0Y2U5MDEjMCEGCSqGSIb3DQEJARYUbm9kZTA2OTdA
b2N0YXJpbmUuZGUwgZ8wDQYJKoZIhvcNAQEBBQADgY0AMIGJAoGBAOjRuI13tv1i
nbtudnQaqPIyQer3El1mvc5Lx3XnjygIb1PkV/+bIHXflB4oDeUTFJXrKUZgNKIb
fz1fjHK8Va2ok3VuqSwJRII386ZWFRUOchdebXzOSBKBPomJx2LPP9mqCl2onnSp
RIh0g48fBqojgqJ0ERg/koIpQiyY3hhfAgMBAAEwDQYJKoZIhvcNAQEEBQADgYEA
VVTi3cd5LsrxD06fOGDIbNL8LmBkHvyNbSOOuINwLwh3NNlpGPjZvY3KzVeMgQvX
iTQhEA5FLHXkbEnCz+PG19HXWAc+Low4/jCR2ow9VHQQWVBkHqC7fHg+0Zo2q1fQ
7Kp8VUauEwaURSGoO/vUFCvevLXLPAIrbCaT5Hv8SaE=
-----END CERTIFICATE-----
