Certificate:
    Data:
        Version: 1 (0x0)
        Serial Number:
            9b:27:d7:e8:d1:ba:0a:b0
        Signature Algorithm: md5WithRSAEncryption
        Issuer: C=DE, ST=Saarland, O=MPI-SWS, OU=Distributed Systems Group, CN=Andreas Haeberlen/emailAddress=democa@octarine.de
        Validity
            Not Before: Apr 20 20:47:29 2015 GMT
            Not After : Apr 19 20:47:29 2016 GMT
        Subject: C=DE, ST=Saarland, O=MPI-SWS, OU=Distributed Systems Group, CN=dc40f965276b7e76cf90325a12665cc38148aaed/emailAddress=node0728@octarine.de
        Subject Public Key Info:
            Public Key Algorithm: rsaEncryption
            RSA Public Key: (1024 bit)
                Modulus (1024 bit):
                    00:c9:fa:8b:65:ae:75:40:70:f3:7f:b1:06:60:e1:
                    2f:d5:36:15:86:3b:40:f7:05:3f:86:b6:06:34:a1:
                    06:cc:dc:2a:cb:7b:5d:64:7d:83:ec:29:9e:69:36:
                    9a:0d:bb:2c:96:76:30:c4:c9:7c:78:ba:0d:55:cf:
                    0f:72:77:50:58:61:0f:0b:4c:8f:0c:10:94:cb:81:
                    ef:91:9d:76:9a:4f:fc:08:d1:18:66:d3:d6:c3:ff:
                    b4:be:aa:af:8f:27:48:b7:84:fc:5d:a1:e4:66:3d:
                    e3:51:89:ad:5d:33:ac:44:40:5a:54:d4:c7:a3:b8:
                    4d:24:4a:02:f2:96:8b:05:df
                Exponent: 65537 (0x10001)
    Signature Algorithm: md5WithRSAEncryption
        6c:d5:f0:6d:2b:56:dc:61:31:45:d3:d5:ec:ac:74:ac:96:4f:
        ed:2d:f0:86:23:e4:08:29:15:e7:9f:39:68:a4:98:e1:a6:8c:
        04:5a:6b:58:53:b0:be:7a:cb:37:ae:30:a2:0f:a9:c5:5c:b9:
        ba:e6:e6:0b:ce:ac:66:8d:56:d0:5c:cb:07:a9:e2:a0:6c:ce:
        80:cf:b0:d6:31:b9:ad:69:c4:30:d0:a6:f3:90:67:0b:5f:57:
        f9:dc:ec:07:d4:17:d4:58:32:82:fd:32:61:8f:08:81:60:68:
        53:f5:fd:08:60:ee:17:b8:60:b0:38:aa:da:be:86:3b:97:f2:
        58:d5
-----BEGIN CERTIFICATE-----
MIICvDCCAiUCCQCbJ9fo0boKsDANBgkqhkiG9w0BAQQFADCBlTELMAkGA1UEBhMC
REUxETAPBgNVBAgTCFNhYXJsYW5kMRAwDgYDVQQKEwdNUEktU1dTMSIwIAYDVQQL
ExlEaXN0cmlidXRlZCBTeXN0ZW1zIEdyb3VwMRowGAYDVQQDExFBbmRyZWFzIEhh
ZWJlcmxlbjEhMB8GCSqGSIb3DQEJARYSZGVtb2NhQG9jdGFyaW5lLmRlMB4XDTE1
MDQyMDIwNDcyOVoXDTE2MDQxOTIwNDcyOVowga4xCzAJBgNVBAYTAkRFMREwDwYD
VQQIEwhTYWFybGFuZDEQMA4GA1UEChMHTVBJLVNXUzEiMCAGA1UECxMZRGlzdHJp
YnV0ZWQgU3lzdGVtcyBHcm91cDExMC8GA1UEAxMoZGM0MGY5NjUyNzZiN2U3NmNm
OTAzMjVhMTI2NjVjYzM4MTQ4YWFlZDEjMCEGCSqGSIb3DQEJARYUbm9kZTA3MjhA
b2N0YXJpbmUuZGUwgZ8wDQYJKoZIhvcNAQEBBQADgY0AMIGJAoGBAMn6i2WudUBw
83+xBmDhL9U2FYY7QPcFP4a2BjShBszcKst7XWR9g+wpnmk2mg27LJZ2MMTJfHi6
DVXPD3J3UFhhDwtMjwwQlMuB75GddppP/AjRGGbT1sP/tL6qr48nSLeE/F2h5GY9
41GJrV0zrERAWlTUx6O4TSRKAvKWiwXfAgMBAAEwDQYJKoZIhvcNAQEEBQADgYEA
bNXwbStW3GExRdPV7Kx0rJZP7S3whiPkCCkV5585aKSY4aaMBFprWFOwvnrLN64w
og+pxVy5uubmC86sZo1W0FzLB6nioGzOgM+w1jG5rWnEMNCm85BnC19X+dzsB9QX
1Fgygv0yYY8IgWBoU/X9CGDuF7hgsDiq2r6GO5fyWNU=
-----END CERTIFICATE-----
