Certificate:
    Data:
        Version: 1 (0x0)
        Serial Number:
            9b:27:d7:e8:d1:ba:0a:a5
        Signature Algorithm: md5WithRSAEncryption
        Issuer: C=DE, ST=Saarland, O=MPI-SWS, OU=Distributed Systems Group, CN=Andreas Haeberlen/emailAddress=democa@octarine.de
        Validity
            Not Before: Apr 20 20:47:28 2015 GMT
            Not After : Apr 19 20:47:28 2016 GMT
        Subject: C=DE, ST=Saarland, O=MPI-SWS, OU=Distributed Systems Group, CN=189a8ef1495ab6b2a7e20578ba59dc3e4d8db8ef/emailAddress=node0717@octarine.de
        Subject Public Key Info:
            Public Key Algorithm: rsaEncryption
            RSA Public Key: (1024 bit)
                Modulus (1024 bit):
                    00:bb:88:a3:46:2c:9a:eb:f1:08:ff:3c:12:1e:b5:
                    89:a2:f7:e4:3e:02:94:e9:cd:63:85:da:df:bb:1b:
                    61:4e:1b:0e:ae:b3:c5:fc:a4:2c:11:65:e5:0e:77:
                    5a:7f:f7:40:4d:c2:db:c5:c4:5e:5c:04:97:da:86:
                    03:d1:8f:18:d3:c7:fb:83:ed:dd:17:36:75:c9:87:
                    5b:da:35:6e:2d:a0:02:63:18:e0:e4:a9:04:8e:d9:
                    66:47:ac:b4:89:c3:cf:7a:58:c0:dc:3e:88:4d:10:
                    15:08:10:72:00:89:32:18:db:33:bb:45:34:69:3a:
                    bb:d5:c2:ad:63:40:6d:d0:09
                Exponent: 65537 (0x10001)
    Signature Algorithm: md5WithRSAEncryption
        62:6c:2f:1d:9d:f6:62:1e:0c:1e:87:5c:9c:01:c2:9f:8c:0e:
        fd:7e:46:5c:b1:36:22:f8:de:46:04:72:dd:05:fb:b9:77:c3:
        dd:21:6b:40:1a:69:c0:44:fd:16:9b:44:e5:94:86:c2:ea:63:
        62:4a:06:a1:e9:de:4b:f6:26:55:6a:e1:7e:44:29:a7:cd:37:
        7c:8f:ba:eb:fa:96:2f:01:33:ef:be:6c:4e:8d:61:00:22:cc:
        4a:cc:da:dd:70:ec:0c:f4:f0:6c:f9:5a:7d:5c:44:76:f2:ac:
        4c:d9:4d:e7:77:7d:9f:32:13:e2:4e:8a:11:72:ce:be:44:84:
        90:c5
-----BEGIN CERTIFICATE-----
MIICvDCCAiUCCQCbJ9fo0boKpTANBgkqhkiG9w0BAQQFADCBlTELMAkGA1UEBhMC
REUxETAPBgNVBAgTCFNhYXJsYW5kMRAwDgYDVQQKEwdNUEktU1dTMSIwIAYDVQQL
ExlEaXN0cmlidXRlZCBTeXN0ZW1zIEdyb3VwMRowGAYDVQQDExFBbmRyZWFzIEhh
ZWJlcmxlbjEhMB8GCSqGSIb3DQEJARYSZGVtb2NhQG9jdGFyaW5lLmRlMB4XDTE1
MDQyMDIwNDcyOFoXDTE2MDQxOTIwNDcyOFowga4xCzAJBgNVBAYTAkRFMREwDwYD
VQQIEwhTYWFybGFuZDEQMA4GA1UEChMHTVBJLVNXUzEiMCAGA1UECxMZRGlzdHJp
YnV0ZWQgU3lzdGVtcyBHcm91cDExMC8GA1UEAxMoMTg5YThlZjE0OTVhYjZiMmE3
ZTIwNTc4YmE1OWRjM2U0ZDhkYjhlZjEjMCEGCSqGSIb3DQEJARYUbm9kZTA3MTdA
b2N0YXJpbmUuZGUwgZ8wDQYJKoZIhvcNAQEBBQADgY0AMIGJAoGBALuIo0Ysmuvx
CP88Eh61iaL35D4ClOnNY4Xa37sbYU4bDq6zxfykLBFl5Q53Wn/3QE3C28XEXlwE
l9qGA9GPGNPH+4Pt3Rc2dcmHW9o1bi2gAmMY4OSpBI7ZZkestInDz3pYwNw+iE0Q
FQgQcgCJMhjbM7tFNGk6u9XCrWNAbdAJAgMBAAEwDQYJKoZIhvcNAQEEBQADgYEA
YmwvHZ32Yh4MHodcnAHCn4wO/X5GXLE2IvjeRgRy3QX7uXfD3SFrQBppwET9FptE
5ZSGwupjYkoGoeneS/YmVWrhfkQpp803fI+66/qWLwEz775sTo1hACLMSsza3XDs
DPTwbPlafVxEdvKsTNlN53d9nzIT4k6KEXLOvkSEkMU=
-----END CERTIFICATE-----
