Certificate:
    Data:
        Version: 1 (0x0)
        Serial Number:
            9b:27:d7:e8:d1:ba:08:e2
        Signature Algorithm: md5WithRSAEncryption
        Issuer: C=DE, ST=Saarland, O=MPI-SWS, OU=Distributed Systems Group, CN=Andreas Haeberlen/emailAddress=democa@octarine.de
        Validity
            Not Before: Apr 20 20:47:08 2015 GMT
            Not After : Apr 19 20:47:08 2016 GMT
        Subject: C=DE, ST=Saarland, O=MPI-SWS, OU=Distributed Systems Group, CN=0a3a8a9fca09e43f5b8265eb508d4b755bfd59d2/emailAddress=node0266@octarine.de
        Subject Public Key Info:
            Public Key Algorithm: rsaEncryption
            RSA Public Key: (1024 bit)
                Modulus (1024 bit):
                    00:b9:d1:eb:25:2a:38:9a:96:da:a2:02:42:50:64:
                    67:75:4e:cb:d3:8f:dd:35:2a:ab:79:25:9d:be:c8:
                    a8:07:84:08:23:dd:7e:99:e3:f9:db:da:9d:38:8f:
                    1e:f1:8d:b3:4e:09:cb:3b:ad:0b:7e:e5:1b:9a:07:
                    a9:40:70:8e:4a:75:e2:6f:5f:0b:5a:92:3a:40:32:
                    53:54:fd:15:05:a7:87:20:49:1a:34:12:a8:b8:21:
                    ea:ca:e3:09:ec:e6:95:98:d1:2b:15:a5:fd:41:dc:
                    b8:f7:60:5b:7a:2c:e1:8e:42:fa:fe:e1:39:be:46:
                    6b:35:e4:11:e4:b7:3e:a8:eb
                Exponent: 65537 (0x10001)
    Signature Algorithm: md5WithRSAEncryption
        ac:62:12:6e:6a:73:83:79:b7:63:0d:4d:92:e9:a2:26:08:fe:
        7f:16:16:b6:7d:bf:24:ad:b0:19:0a:bf:18:ad:1b:25:1c:12:
        d6:36:91:71:c2:df:93:d2:02:6a:66:07:44:57:0e:8a:4b:e5:
        ac:3b:e8:65:2b:59:3f:23:6e:cf:34:50:ee:0f:84:51:af:44:
        04:00:fb:42:8f:d2:57:38:2f:c0:3a:d8:68:24:87:7f:63:a2:
        d8:3f:d7:5e:39:d9:74:31:2c:fc:14:d0:d3:70:9b:ee:42:28:
        fa:5a:d1:eb:a8:b0:1a:1e:76:ed:9b:8e:10:80:a1:f6:09:f3:
        e7:fb
-----BEGIN CERTIFICATE-----
MIICvDCCAiUCCQCbJ9fo0boI4jANBgkqhkiG9w0BAQQFADCBlTELMAkGA1UEBhMC
REUxETAPBgNVBAgTCFNhYXJsYW5kMRAwDgYDVQQKEwdNUEktU1dTMSIwIAYDVQQL
ExlEaXN0cmlidXRlZCBTeXN0ZW1zIEdyb3VwMRowGAYDVQQDExFBbmRyZWFzIEhh
ZWJlcmxlbjEhMB8GCSqGSIb3DQEJARYSZGVtb2NhQG9jdGFyaW5lLmRlMB4XDTE1
MDQyMDIwNDcwOFoXDTE2MDQxOTIwNDcwOFowga4xCzAJBgNVBAYTAkRFMREwDwYD
VQQIEwhTYWFybGFuZDEQMA4GA1UEChMHTVBJLVNXUzEiMCAGA1UECxMZRGlzdHJp
YnV0ZWQgU3lzdGVtcyBHcm91cDExMC8GA1UEAxMoMGEzYThhOWZjYTA5ZTQzZjVi
ODI2NWViNTA4ZDRiNzU1YmZkNTlkMjEjMCEGCSqGSIb3DQEJARYUbm9kZTAyNjZA
b2N0YXJpbmUuZGUwgZ8wDQYJKoZIhvcNAQEBBQADgY0AMIGJAoGBALnR6yUqOJqW
2qICQlBkZ3VOy9OP3TUqq3klnb7IqAeECCPdfpnj+dvanTiPHvGNs04JyzutC37l
G5oHqUBwjkp14m9fC1qSOkAyU1T9FQWnhyBJGjQSqLgh6srjCezmlZjRKxWl/UHc
uPdgW3os4Y5C+v7hOb5GazXkEeS3PqjrAgMBAAEwDQYJKoZIhvcNAQEEBQADgYEA
rGISbmpzg3m3Yw1NkumiJgj+fxYWtn2/JK2wGQq/GK0bJRwS1jaRccLfk9ICamYH
RFcOikvlrDvoZStZPyNuzzRQ7g+EUa9EBAD7Qo/SVzgvwDrYaCSHf2Oi2D/XXjnZ
dDEs/BTQ03Cb7kIo+lrR66iwGh527ZuOEICh9gnz5/s=
-----END CERTIFICATE-----
