Certificate:
    Data:
        Version: 1 (0x0)
        Serial Number:
            9b:27:d7:e8:d1:ba:09:b1
        Signature Algorithm: md5WithRSAEncryption
        Issuer: C=DE, ST=Saarland, O=MPI-SWS, OU=Distributed Systems Group, CN=Andreas Haeberlen/emailAddress=democa@octarine.de
        Validity
            Not Before: Apr 20 20:47:17 2015 GMT
            Not After : Apr 19 20:47:17 2016 GMT
        Subject: C=DE, ST=Saarland, O=MPI-SWS, OU=Distributed Systems Group, CN=710d7e9c1d5eb47d9ac16498cb3af217414bfe70/emailAddress=node0473@octarine.de
        Subject Public Key Info:
            Public Key Algorithm: rsaEncryption
            RSA Public Key: (1024 bit)
                Modulus (1024 bit):
                    00:a4:e7:ac:c5:11:75:67:a7:8b:93:fd:63:b7:35:
                    06:62:d4:91:0f:08:53:4b:bb:fb:b0:1a:fd:21:9d:
                    5f:78:c5:e4:69:e8:64:eb:7e:ea:70:77:17:06:7c:
                    de:dc:14:d2:50:0f:9b:eb:96:32:32:62:cd:3d:a7:
                    81:c2:34:10:50:e9:28:12:b1:8e:5c:5a:b8:74:73:
                    28:59:d7:29:28:b6:b2:81:c8:a9:52:e3:ad:ca:98:
                    67:1a:7b:3a:69:f5:85:9a:33:2e:01:3d:a9:f0:cf:
                    56:83:6b:63:71:43:10:fd:ea:ff:b7:c2:c1:57:3f:
                    7e:e3:dc:97:d8:8e:0e:f5:cf
                Exponent: 65537 (0x10001)
    Signature Algorithm: md5WithRSAEncryption
        18:44:02:44:91:a7:fa:e4:c1:da:55:fc:0f:dc:ec:2b:a0:c1:
        73:38:ec:d0:f8:43:9b:1f:32:ac:5c:97:61:08:76:bf:a6:66:
        73:7d:29:61:77:a3:5b:eb:02:03:0c:7a:4f:47:2a:d0:9d:ea:
        6c:e6:c2:fc:3d:94:10:a8:71:2d:7d:01:0b:ab:a7:c0:05:03:
        c5:a3:0e:f7:a5:e3:1c:6d:fa:cf:1e:2a:d6:e0:7e:1e:ae:08:
        59:af:06:bb:22:a8:4e:03:bc:49:2b:51:f2:7a:84:11:57:28:
        ce:65:98:db:78:ae:82:17:71:fd:08:1b:ad:62:f4:21:ee:69:
        1c:db
-----BEGIN CERTIFICATE-----
MIICvDCCAiUCCQCbJ9fo0boJsTANBgkqhkiG9w0BAQQFADCBlTELMAkGA1UEBhMC
REUxETAPBgNVBAgTCFNhYXJsYW5kMRAwDgYDVQQKEwdNUEktU1dTMSIwIAYDVQQL
ExlEaXN0cmlidXRlZCBTeXN0ZW1zIEdyb3VwMRowGAYDVQQDExFBbmRyZWFzIEhh
ZWJlcmxlbjEhMB8GCSqGSIb3DQEJARYSZGVtb2NhQG9jdGFyaW5lLmRlMB4XDTE1
MDQyMDIwNDcxN1oXDTE2MDQxOTIwNDcxN1owga4xCzAJBgNVBAYTAkRFMREwDwYD
VQQIEwhTYWFybGFuZDEQMA4GA1UEChMHTVBJLVNXUzEiMCAGA1UECxMZRGlzdHJp
YnV0ZWQgU3lzdGVtcyBHcm91cDExMC8GA1UEAxMoNzEwZDdlOWMxZDVlYjQ3ZDlh
YzE2NDk4Y2IzYWYyMTc0MTRiZmU3MDEjMCEGCSqGSIb3DQEJARYUbm9kZTA0NzNA
b2N0YXJpbmUuZGUwgZ8wDQYJKoZIhvcNAQEBBQADgY0AMIGJAoGBAKTnrMURdWen
i5P9Y7c1BmLUkQ8IU0u7+7Aa/SGdX3jF5GnoZOt+6nB3FwZ83twU0lAPm+uWMjJi
zT2ngcI0EFDpKBKxjlxauHRzKFnXKSi2soHIqVLjrcqYZxp7Omn1hZozLgE9qfDP
VoNrY3FDEP3q/7fCwVc/fuPcl9iODvXPAgMBAAEwDQYJKoZIhvcNAQEEBQADgYEA
GEQCRJGn+uTB2lX8D9zsK6DBczjs0PhDmx8yrFyXYQh2v6Zmc30pYXejW+sCAwx6
T0cq0J3qbObC/D2UEKhxLX0BC6unwAUDxaMO96XjHG36zx4q1uB+Hq4IWa8GuyKo
TgO8SStR8nqEEVcozmWY23iughdx/QgbrWL0Ie5pHNs=
-----END CERTIFICATE-----
