Certificate:
    Data:
        Version: 1 (0x0)
        Serial Number:
            9b:27:d7:e8:d1:ba:09:b8
        Signature Algorithm: md5WithRSAEncryption
        Issuer: C=DE, ST=Saarland, O=MPI-SWS, OU=Distributed Systems Group, CN=Andreas Haeberlen/emailAddress=democa@octarine.de
        Validity
            Not Before: Apr 20 20:47:17 2015 GMT
            Not After : Apr 19 20:47:17 2016 GMT
        Subject: C=DE, ST=Saarland, O=MPI-SWS, OU=Distributed Systems Group, CN=b4b98004a5bb62cbad124625955eea1aed37d3b8/emailAddress=node0480@octarine.de
        Subject Public Key Info:
            Public Key Algorithm: rsaEncryption
            RSA Public Key: (1024 bit)
                Modulus (1024 bit):
                    00:bc:7b:87:db:ec:10:4a:46:89:6a:b8:f9:31:5a:
                    0e:0d:b9:41:c6:01:ce:45:b5:09:c0:8a:6e:7f:cc:
                    c2:e3:36:f6:a9:54:05:25:d6:85:86:75:09:da:53:
                    66:08:13:1b:ff:06:34:f1:63:cb:af:50:e5:5d:dc:
                    5a:2b:12:28:1f:f4:64:ba:f0:f6:14:c8:da:8f:23:
                    5e:03:7c:27:86:8c:aa:44:5e:bd:ab:d2:42:ec:ee:
                    e3:32:a9:7a:aa:13:90:16:eb:8d:02:c4:e4:94:5c:
                    78:6f:67:96:a8:71:7c:1c:62:70:c3:b1:d3:ee:a1:
                    97:d0:d2:9c:9e:36:1a:77:1d
                Exponent: 65537 (0x10001)
    Signature Algorithm: md5WithRSAEncryption
        91:14:96:79:bf:de:2d:b9:2b:cb:ae:c7:3f:2b:0d:71:d3:1f:
        76:e3:a9:19:8f:4a:a4:e4:4a:38:c9:7c:e3:7f:76:66:47:53:
        28:60:c4:b5:23:2e:1f:3d:89:29:42:de:9a:a7:94:f8:25:32:
        52:69:9d:4d:9e:23:8e:e7:ad:5e:bf:3a:2d:d4:bd:0e:af:db:
        10:b6:6c:f2:3c:7d:d0:47:2a:9a:a9:67:35:48:25:ff:60:8f:
        e8:d4:2f:e7:75:22:92:25:18:bd:38:ab:f9:c6:0f:79:02:25:
        3d:1e:82:b7:83:05:80:94:99:8f:d4:43:b0:40:df:ca:a9:1c:
        01:27
-----BEGIN CERTIFICATE-----
MIICvDCCAiUCCQCbJ9fo0boJuDANBgkqhkiG9w0BAQQFADCBlTELMAkGA1UEBhMC
REUxETAPBgNVBAgTCFNhYXJsYW5kMRAwDgYDVQQKEwdNUEktU1dTMSIwIAYDVQQL
ExlEaXN0cmlidXRlZCBTeXN0ZW1zIEdyb3VwMRowGAYDVQQDExFBbmRyZWFzIEhh
ZWJlcmxlbjEhMB8GCSqGSIb3DQEJARYSZGVtb2NhQG9jdGFyaW5lLmRlMB4XDTE1
MDQyMDIwNDcxN1oXDTE2MDQxOTIwNDcxN1owga4xCzAJBgNVBAYTAkRFMREwDwYD
VQQIEwhTYWFybGFuZDEQMA4GA1UEChMHTVBJLVNXUzEiMCAGA1UECxMZRGlzdHJp
YnV0ZWQgU3lzdGVtcyBHcm91cDExMC8GA1UEAxMoYjRiOTgwMDRhNWJiNjJjYmFk
MTI0NjI1OTU1ZWVhMWFlZDM3ZDNiODEjMCEGCSqGSIb3DQEJARYUbm9kZTA0ODBA
b2N0YXJpbmUuZGUwgZ8wDQYJKoZIhvcNAQEBBQADgY0AMIGJAoGBALx7h9vsEEpG
iWq4+TFaDg25QcYBzkW1CcCKbn/MwuM29qlUBSXWhYZ1CdpTZggTG/8GNPFjy69Q
5V3cWisSKB/0ZLrw9hTI2o8jXgN8J4aMqkRevavSQuzu4zKpeqoTkBbrjQLE5JRc
eG9nlqhxfBxicMOx0+6hl9DSnJ42GncdAgMBAAEwDQYJKoZIhvcNAQEEBQADgYEA
kRSWeb/eLbkry67HPysNcdMfduOpGY9KpORKOMl84392ZkdTKGDEtSMuHz2JKULe
mqeU+CUyUmmdTZ4jjuetXr86LdS9Dq/bELZs8jx90EcqmqlnNUgl/2CP6NQv53Ui
kiUYvTir+cYPeQIlPR6Ct4MFgJSZj9RDsEDfyqkcASc=
-----END CERTIFICATE-----
