Certificate:
    Data:
        Version: 1 (0x0)
        Serial Number:
            9b:27:d7:e8:d1:ba:0b:3c
        Signature Algorithm: md5WithRSAEncryption
        Issuer: C=DE, ST=Saarland, O=MPI-SWS, OU=Distributed Systems Group, CN=Andreas Haeberlen/emailAddress=democa@octarine.de
        Validity
            Not Before: Apr 20 20:47:35 2015 GMT
            Not After : Apr 19 20:47:35 2016 GMT
        Subject: C=DE, ST=Saarland, O=MPI-SWS, OU=Distributed Systems Group, CN=025f89870e6f90abeb83c3d90c9d3dc30228cb0c/emailAddress=node0868@octarine.de
        Subject Public Key Info:
            Public Key Algorithm: rsaEncryption
            RSA Public Key: (1024 bit)
                Modulus (1024 bit):
                    00:d4:55:52:a6:6e:3d:5c:9e:d2:e7:97:10:f4:f6:
                    bb:4b:56:2e:ea:43:73:ab:fc:27:92:1b:6d:82:aa:
                    0b:83:42:d5:9d:80:bd:e1:b7:82:5c:82:ef:a9:11:
                    99:44:16:71:5a:53:77:b8:64:e2:74:85:17:fa:31:
                    c4:a9:40:a0:91:27:0d:6f:b2:ad:b8:29:54:d6:8f:
                    c1:85:43:14:4c:d3:9d:ff:bc:a3:54:5d:2a:9a:c9:
                    1e:66:26:63:5a:4f:a1:6f:14:65:ae:6f:af:5e:dd:
                    67:d8:eb:22:a5:44:87:83:3b:e8:f4:fc:2a:9d:c6:
                    57:1d:07:2f:3c:a3:6c:69:37
                Exponent: 65537 (0x10001)
    Signature Algorithm: md5WithRSAEncryption
        26:cb:21:b0:32:ef:81:e7:b3:9a:1b:26:5f:7b:ac:db:7e:61:
        14:92:f5:9f:5f:5d:a6:ab:84:45:46:07:b9:31:7c:4e:c7:5e:
        14:e5:a7:20:cb:89:ae:3d:07:ac:12:bb:82:1a:ab:87:68:8e:
        6e:3c:84:bd:f4:da:74:b2:25:c6:a8:41:ec:74:1f:21:37:dd:
        d6:d3:54:fd:04:bd:12:d6:c6:ea:1d:8e:9a:3b:ab:a9:5e:22:
        15:05:cd:81:fc:55:01:f1:79:dd:b4:d4:58:a4:7d:1f:01:af:
        92:cc:8c:47:5f:e5:cb:9a:03:84:bb:f1:71:55:90:9b:cb:f5:
        60:03
-----BEGIN CERTIFICATE-----
MIICvDCCAiUCCQCbJ9fo0boLPDANBgkqhkiG9w0BAQQFADCBlTELMAkGA1UEBhMC
REUxETAPBgNVBAgTCFNhYXJsYW5kMRAwDgYDVQQKEwdNUEktU1dTMSIwIAYDVQQL
ExlEaXN0cmlidXRlZCBTeXN0ZW1zIEdyb3VwMRowGAYDVQQDExFBbmRyZWFzIEhh
ZWJlcmxlbjEhMB8GCSqGSIb3DQEJARYSZGVtb2NhQG9jdGFyaW5lLmRlMB4XDTE1
MDQyMDIwNDczNVoXDTE2MDQxOTIwNDczNVowga4xCzAJBgNVBAYTAkRFMREwDwYD
VQQIEwhTYWFybGFuZDEQMA4GA1UEChMHTVBJLVNXUzEiMCAGA1UECxMZRGlzdHJp
YnV0ZWQgU3lzdGVtcyBHcm91cDExMC8GA1UEAxMoMDI1Zjg5ODcwZTZmOTBhYmVi
ODNjM2Q5MGM5ZDNkYzMwMjI4Y2IwYzEjMCEGCSqGSIb3DQEJARYUbm9kZTA4NjhA
b2N0YXJpbmUuZGUwgZ8wDQYJKoZIhvcNAQEBBQADgY0AMIGJAoGBANRVUqZuPVye
0ueXEPT2u0tWLupDc6v8J5IbbYKqC4NC1Z2AveG3glyC76kRmUQWcVpTd7hk4nSF
F/oxxKlAoJEnDW+yrbgpVNaPwYVDFEzTnf+8o1RdKprJHmYmY1pPoW8UZa5vr17d
Z9jrIqVEh4M76PT8Kp3GVx0HLzyjbGk3AgMBAAEwDQYJKoZIhvcNAQEEBQADgYEA
JsshsDLvgeezmhsmX3us235hFJL1n19dpquERUYHuTF8TsdeFOWnIMuJrj0HrBK7
ghqrh2iObjyEvfTadLIlxqhB7HQfITfd1tNU/QS9EtbG6h2OmjurqV4iFQXNgfxV
AfF53bTUWKR9HwGvksyMR1/ly5oDhLvxcVWQm8v1YAM=
-----END CERTIFICATE-----
