Certificate:
    Data:
        Version: 1 (0x0)
        Serial Number:
            9b:27:d7:e8:d1:ba:0a:7b
        Signature Algorithm: md5WithRSAEncryption
        Issuer: C=DE, ST=Saarland, O=MPI-SWS, OU=Distributed Systems Group, CN=Andreas Haeberlen/emailAddress=democa@octarine.de
        Validity
            Not Before: Apr 20 20:47:26 2015 GMT
            Not After : Apr 19 20:47:26 2016 GMT
        Subject: C=DE, ST=Saarland, O=MPI-SWS, OU=Distributed Systems Group, CN=63d17499b8d2bef3aafea3ad941704d78a80f2ab/emailAddress=node0675@octarine.de
        Subject Public Key Info:
            Public Key Algorithm: rsaEncryption
            RSA Public Key: (1024 bit)
                Modulus (1024 bit):
                    00:9c:8e:c4:df:8a:a1:fc:91:0f:3e:fc:64:d9:c8:
                    1a:72:84:66:ce:11:00:91:b5:57:66:b7:c5:df:0c:
                    ec:ab:43:3d:be:c0:9d:7a:3b:d8:25:01:c1:45:da:
                    96:76:80:18:2c:2e:7b:7c:ee:10:4f:f1:fb:39:e9:
                    ff:c7:92:84:1f:28:64:83:20:a6:fc:5e:99:fd:90:
                    56:53:c9:23:6f:97:05:83:78:39:6c:a2:c2:c4:92:
                    bb:5b:3d:1d:ab:9e:8f:10:b2:2b:4b:0b:09:e6:fb:
                    47:37:c6:e9:51:13:10:e3:cd:e4:bf:5b:b0:80:3e:
                    7a:f4:c8:a3:e9:bc:9a:f1:ad
                Exponent: 65537 (0x10001)
    Signature Algorithm: md5WithRSAEncryption
        72:d2:16:4e:f2:06:69:39:81:dc:65:2c:f7:bf:82:e8:d8:c5:
        bc:39:2e:91:c7:3c:33:38:4b:df:13:68:82:0e:8c:1f:5d:ec:
        83:f5:ee:c1:45:9c:19:2a:8a:7a:3d:74:07:69:13:22:12:03:
        d9:60:4a:0e:91:78:89:0e:66:2b:8b:3f:aa:a2:16:ea:da:d8:
        64:63:ec:9a:60:87:79:5d:5f:22:bb:d3:fd:78:49:26:90:a8:
        36:45:bd:b4:94:f3:5d:58:45:20:e0:0e:e3:cf:25:98:68:bc:
        d8:73:1a:d6:65:1c:f1:60:a4:93:09:2a:77:61:cb:eb:d9:be:
        aa:37
-----BEGIN CERTIFICATE-----
MIICvDCCAiUCCQCbJ9fo0boKezANBgkqhkiG9w0BAQQFADCBlTELMAkGA1UEBhMC
REUxETAPBgNVBAgTCFNhYXJsYW5kMRAwDgYDVQQKEwdNUEktU1dTMSIwIAYDVQQL
ExlEaXN0cmlidXRlZCBTeXN0ZW1zIEdyb3VwMRowGAYDVQQDExFBbmRyZWFzIEhh
ZWJlcmxlbjEhMB8GCSqGSIb3DQEJARYSZGVtb2NhQG9jdGFyaW5lLmRlMB4XDTE1
MDQyMDIwNDcyNloXDTE2MDQxOTIwNDcyNlowga4xCzAJBgNVBAYTAkRFMREwDwYD
VQQIEwhTYWFybGFuZDEQMA4GA1UEChMHTVBJLVNXUzEiMCAGA1UECxMZRGlzdHJp
YnV0ZWQgU3lzdGVtcyBHcm91cDExMC8GA1UEAxMoNjNkMTc0OTliOGQyYmVmM2Fh
ZmVhM2FkOTQxNzA0ZDc4YTgwZjJhYjEjMCEGCSqGSIb3DQEJARYUbm9kZTA2NzVA
b2N0YXJpbmUuZGUwgZ8wDQYJKoZIhvcNAQEBBQADgY0AMIGJAoGBAJyOxN+KofyR
Dz78ZNnIGnKEZs4RAJG1V2a3xd8M7KtDPb7AnXo72CUBwUXalnaAGCwue3zuEE/x
+znp/8eShB8oZIMgpvxemf2QVlPJI2+XBYN4OWyiwsSSu1s9HauejxCyK0sLCeb7
RzfG6VETEOPN5L9bsIA+evTIo+m8mvGtAgMBAAEwDQYJKoZIhvcNAQEEBQADgYEA
ctIWTvIGaTmB3GUs97+C6NjFvDkukcc8MzhL3xNogg6MH13sg/XuwUWcGSqKej10
B2kTIhID2WBKDpF4iQ5mK4s/qqIW6trYZGPsmmCHeV1fIrvT/XhJJpCoNkW9tJTz
XVhFIOAO488lmGi82HMa1mUc8WCkkwkqd2HL69m+qjc=
-----END CERTIFICATE-----
