Certificate:
    Data:
        Version: 1 (0x0)
        Serial Number:
            9b:27:d7:e8:d1:ba:0a:7c
        Signature Algorithm: md5WithRSAEncryption
        Issuer: C=DE, ST=Saarland, O=MPI-SWS, OU=Distributed Systems Group, CN=Andreas Haeberlen/emailAddress=democa@octarine.de
        Validity
            Not Before: Apr 20 20:47:26 2015 GMT
            Not After : Apr 19 20:47:26 2016 GMT
        Subject: C=DE, ST=Saarland, O=MPI-SWS, OU=Distributed Systems Group, CN=b7d76cb16af1d9e7e0ee4c5d7ed6171cee35be62/emailAddress=node0676@octarine.de
        Subject Public Key Info:
            Public Key Algorithm: rsaEncryption
            RSA Public Key: (1024 bit)
                Modulus (1024 bit):
                    00:bd:35:46:59:b7:0d:8d:b2:e6:f0:b2:a0:d2:63:
                    39:f4:09:15:96:53:35:c9:d3:6f:d5:62:ac:9b:59:
                    d9:52:c8:4c:72:1a:e3:6f:95:b2:0d:af:f6:0b:5a:
                    10:ed:be:a4:30:0e:d0:e2:21:89:83:4b:b4:7e:24:
                    d8:6b:d2:de:1f:09:06:a1:17:65:bd:52:fb:a7:60:
                    e2:67:ed:1c:a1:36:d8:42:9c:e2:4b:52:d2:02:62:
                    64:3a:7e:56:63:f8:9b:33:10:14:75:f2:8b:c4:54:
                    5f:4f:9a:95:7d:a8:3a:69:11:69:81:3c:03:77:95:
                    62:f0:e7:6e:6e:89:69:aa:a9
                Exponent: 65537 (0x10001)
    Signature Algorithm: md5WithRSAEncryption
        09:d3:48:1c:87:a8:81:d4:00:7a:12:6b:26:8c:7a:f6:aa:ea:
        03:e1:67:5e:61:04:a6:bf:79:80:28:1b:8b:c5:00:af:d5:2c:
        67:f9:3f:80:e3:1d:db:4b:23:2c:d6:75:8f:ca:a0:1d:45:0b:
        df:b5:78:c2:cc:c0:ae:df:cf:34:10:e5:ac:77:90:74:2a:f7:
        e8:c7:84:38:c6:90:e0:11:54:a0:43:a6:45:3a:52:f1:91:d5:
        71:c6:e6:8a:db:6c:ed:65:f8:6b:5e:25:6a:7e:3a:9e:37:60:
        47:25:bc:3d:b7:c6:85:19:bd:26:66:c4:e6:ed:1c:58:b2:fe:
        a6:b3
-----BEGIN CERTIFICATE-----
MIICvDCCAiUCCQCbJ9fo0boKfDANBgkqhkiG9w0BAQQFADCBlTELMAkGA1UEBhMC
REUxETAPBgNVBAgTCFNhYXJsYW5kMRAwDgYDVQQKEwdNUEktU1dTMSIwIAYDVQQL
ExlEaXN0cmlidXRlZCBTeXN0ZW1zIEdyb3VwMRowGAYDVQQDExFBbmRyZWFzIEhh
ZWJlcmxlbjEhMB8GCSqGSIb3DQEJARYSZGVtb2NhQG9jdGFyaW5lLmRlMB4XDTE1
MDQyMDIwNDcyNloXDTE2MDQxOTIwNDcyNlowga4xCzAJBgNVBAYTAkRFMREwDwYD
VQQIEwhTYWFybGFuZDEQMA4GA1UEChMHTVBJLVNXUzEiMCAGA1UECxMZRGlzdHJp
YnV0ZWQgU3lzdGVtcyBHcm91cDExMC8GA1UEAxMoYjdkNzZjYjE2YWYxZDllN2Uw
ZWU0YzVkN2VkNjE3MWNlZTM1YmU2MjEjMCEGCSqGSIb3DQEJARYUbm9kZTA2NzZA
b2N0YXJpbmUuZGUwgZ8wDQYJKoZIhvcNAQEBBQADgY0AMIGJAoGBAL01Rlm3DY2y
5vCyoNJjOfQJFZZTNcnTb9VirJtZ2VLITHIa42+Vsg2v9gtaEO2+pDAO0OIhiYNL
tH4k2GvS3h8JBqEXZb1S+6dg4mftHKE22EKc4ktS0gJiZDp+VmP4mzMQFHXyi8RU
X0+alX2oOmkRaYE8A3eVYvDnbm6JaaqpAgMBAAEwDQYJKoZIhvcNAQEEBQADgYEA
CdNIHIeogdQAehJrJox69qrqA+FnXmEEpr95gCgbi8UAr9UsZ/k/gOMd20sjLNZ1
j8qgHUUL37V4wszArt/PNBDlrHeQdCr36MeEOMaQ4BFUoEOmRTpS8ZHVccbmitts
7WX4a14lan46njdgRyW8PbfGhRm9JmbE5u0cWLL+prM=
-----END CERTIFICATE-----
