Certificate:
    Data:
        Version: 1 (0x0)
        Serial Number:
            9b:27:d7:e8:d1:ba:0a:14
        Signature Algorithm: md5WithRSAEncryption
        Issuer: C=DE, ST=Saarland, O=MPI-SWS, OU=Distributed Systems Group, CN=Andreas Haeberlen/emailAddress=democa@octarine.de
        Validity
            Not Before: Apr 20 20:47:22 2015 GMT
            Not After : Apr 19 20:47:22 2016 GMT
        Subject: C=DE, ST=Saarland, O=MPI-SWS, OU=Distributed Systems Group, CN=9062ab797b117d0b3eb01059364b90b2115bdc54/emailAddress=node0572@octarine.de
        Subject Public Key Info:
            Public Key Algorithm: rsaEncryption
            RSA Public Key: (1024 bit)
                Modulus (1024 bit):
                    00:df:7d:2f:27:d1:0d:81:0a:df:0a:d2:5a:82:e5:
                    d3:37:91:83:36:cc:37:88:96:ca:1c:88:52:63:d1:
                    3c:f9:19:af:27:a5:60:80:ea:d2:e9:ee:8b:05:01:
                    75:d4:ca:7e:cc:7e:c1:80:df:a6:ec:78:8e:8b:71:
                    df:e6:43:94:e5:f4:68:ed:ae:15:48:97:0b:f0:0a:
                    fd:4c:6a:2b:00:6c:9c:f4:e5:60:1e:11:47:cb:96:
                    d0:5b:79:1d:92:bb:77:b2:00:60:05:19:28:76:4e:
                    8e:f0:53:46:23:81:d5:95:81:7c:12:25:fd:17:41:
                    79:36:e6:21:71:83:73:44:6d
                Exponent: 65537 (0x10001)
    Signature Algorithm: md5WithRSAEncryption
        07:e1:6f:1d:8b:f0:f6:6b:4a:a8:49:f7:cc:05:a2:f3:2e:70:
        50:6d:46:0c:1c:5c:bc:85:ef:9d:ee:9d:60:bc:65:e0:49:d3:
        f1:63:61:d6:f9:76:1d:10:d8:17:91:04:3d:05:ef:69:80:c1:
        c2:fa:64:c5:79:d7:9e:2b:ec:14:67:1d:5a:0f:58:9e:12:5c:
        bc:69:f5:5f:33:b8:90:a7:ed:7b:e3:6b:71:11:ae:89:67:54:
        3a:09:7d:12:4f:78:b2:e7:3b:0d:c9:4b:d4:46:1c:c9:4c:1e:
        5b:59:5e:ff:4a:97:bc:8d:3e:81:5d:aa:26:b1:8b:44:af:b6:
        e7:df
-----BEGIN CERTIFICATE-----
MIICvDCCAiUCCQCbJ9fo0boKFDANBgkqhkiG9w0BAQQFADCBlTELMAkGA1UEBhMC
REUxETAPBgNVBAgTCFNhYXJsYW5kMRAwDgYDVQQKEwdNUEktU1dTMSIwIAYDVQQL
ExlEaXN0cmlidXRlZCBTeXN0ZW1zIEdyb3VwMRowGAYDVQQDExFBbmRyZWFzIEhh
ZWJlcmxlbjEhMB8GCSqGSIb3DQEJARYSZGVtb2NhQG9jdGFyaW5lLmRlMB4XDTE1
MDQyMDIwNDcyMloXDTE2MDQxOTIwNDcyMlowga4xCzAJBgNVBAYTAkRFMREwDwYD
VQQIEwhTYWFybGFuZDEQMA4GA1UEChMHTVBJLVNXUzEiMCAGA1UECxMZRGlzdHJp
YnV0ZWQgU3lzdGVtcyBHcm91cDExMC8GA1UEAxMoOTA2MmFiNzk3YjExN2QwYjNl
YjAxMDU5MzY0YjkwYjIxMTViZGM1NDEjMCEGCSqGSIb3DQEJARYUbm9kZTA1NzJA
b2N0YXJpbmUuZGUwgZ8wDQYJKoZIhvcNAQEBBQADgY0AMIGJAoGBAN99LyfRDYEK
3wrSWoLl0zeRgzbMN4iWyhyIUmPRPPkZryelYIDq0unuiwUBddTKfsx+wYDfpux4
jotx3+ZDlOX0aO2uFUiXC/AK/UxqKwBsnPTlYB4RR8uW0Ft5HZK7d7IAYAUZKHZO
jvBTRiOB1ZWBfBIl/RdBeTbmIXGDc0RtAgMBAAEwDQYJKoZIhvcNAQEEBQADgYEA
B+FvHYvw9mtKqEn3zAWi8y5wUG1GDBxcvIXvne6dYLxl4EnT8WNh1vl2HRDYF5EE
PQXvaYDBwvpkxXnXnivsFGcdWg9YnhJcvGn1XzO4kKfte+NrcRGuiWdUOgl9Ek94
suc7DclL1EYcyUweW1le/0qXvI0+gV2qJrGLRK+2598=
-----END CERTIFICATE-----
