Certificate:
    Data:
        Version: 1 (0x0)
        Serial Number:
            9b:27:d7:e8:d1:ba:0a:11
        Signature Algorithm: md5WithRSAEncryption
        Issuer: C=DE, ST=Saarland, O=MPI-SWS, OU=Distributed Systems Group, CN=Andreas Haeberlen/emailAddress=democa@octarine.de
        Validity
            Not Before: Apr 20 20:47:22 2015 GMT
            Not After : Apr 19 20:47:22 2016 GMT
        Subject: C=DE, ST=Saarland, O=MPI-SWS, OU=Distributed Systems Group, CN=14a8797065f6b236a56b2fd940fd3be4f9d72579/emailAddress=node0569@octarine.de
        Subject Public Key Info:
            Public Key Algorithm: rsaEncryption
            RSA Public Key: (1024 bit)
                Modulus (1024 bit):
                    00:e1:49:94:5d:7d:9a:30:47:a4:07:e6:03:b5:9d:
                    80:f7:c6:05:af:7d:e5:7b:86:73:dc:ec:78:c0:ba:
                    d8:7d:1f:7e:50:83:77:90:3f:97:f2:ab:5c:d2:89:
                    98:21:38:77:fa:85:fb:d9:13:29:2e:7a:81:71:5b:
                    2d:37:78:de:13:5c:ef:56:80:28:92:27:ad:b6:4f:
                    62:50:d9:36:f5:19:4d:b1:76:7e:f0:fc:c0:03:e9:
                    ab:01:0f:3a:0e:3c:1c:0d:99:22:c2:74:7e:53:00:
                    bd:cd:0e:b4:d4:d9:65:1c:1f:ac:13:8c:d5:e1:64:
                    d5:13:e4:0f:bc:49:26:6e:13
                Exponent: 65537 (0x10001)
    Signature Algorithm: md5WithRSAEncryption
        0d:3c:35:7a:e6:df:9d:76:55:99:c0:bc:fd:b7:75:de:a8:5e:
        d6:54:25:75:b3:10:d8:7d:42:42:c8:da:22:2b:98:23:02:09:
        f6:70:ea:82:b6:df:6b:49:20:68:0f:15:c5:81:7d:bc:6e:21:
        ad:e1:a9:29:10:e7:e2:97:ae:eb:14:88:ba:71:e0:14:21:02:
        3d:d4:56:fd:4d:67:29:05:a4:ed:24:19:5c:d0:8b:84:0b:4f:
        f1:76:2b:42:b2:68:22:16:b9:d0:1b:5b:3e:c6:83:58:08:6c:
        52:d7:50:29:c7:38:19:27:91:31:a0:c6:8c:56:76:33:1f:e6:
        9d:a5
-----BEGIN CERTIFICATE-----
MIICvDCCAiUCCQCbJ9fo0boKETANBgkqhkiG9w0BAQQFADCBlTELMAkGA1UEBhMC
REUxETAPBgNVBAgTCFNhYXJsYW5kMRAwDgYDVQQKEwdNUEktU1dTMSIwIAYDVQQL
ExlEaXN0cmlidXRlZCBTeXN0ZW1zIEdyb3VwMRowGAYDVQQDExFBbmRyZWFzIEhh
ZWJlcmxlbjEhMB8GCSqGSIb3DQEJARYSZGVtb2NhQG9jdGFyaW5lLmRlMB4XDTE1
MDQyMDIwNDcyMloXDTE2MDQxOTIwNDcyMlowga4xCzAJBgNVBAYTAkRFMREwDwYD
VQQIEwhTYWFybGFuZDEQMA4GA1UEChMHTVBJLVNXUzEiMCAGA1UECxMZRGlzdHJp
YnV0ZWQgU3lzdGVtcyBHcm91cDExMC8GA1UEAxMoMTRhODc5NzA2NWY2YjIzNmE1
NmIyZmQ5NDBmZDNiZTRmOWQ3MjU3OTEjMCEGCSqGSIb3DQEJARYUbm9kZTA1NjlA
b2N0YXJpbmUuZGUwgZ8wDQYJKoZIhvcNAQEBBQADgY0AMIGJAoGBAOFJlF19mjBH
pAfmA7WdgPfGBa995XuGc9zseMC62H0fflCDd5A/l/KrXNKJmCE4d/qF+9kTKS56
gXFbLTd43hNc71aAKJInrbZPYlDZNvUZTbF2fvD8wAPpqwEPOg48HA2ZIsJ0flMA
vc0OtNTZZRwfrBOM1eFk1RPkD7xJJm4TAgMBAAEwDQYJKoZIhvcNAQEEBQADgYEA
DTw1eubfnXZVmcC8/bd13qhe1lQldbMQ2H1CQsjaIiuYIwIJ9nDqgrbfa0kgaA8V
xYF9vG4hreGpKRDn4peu6xSIunHgFCECPdRW/U1nKQWk7SQZXNCLhAtP8XYrQrJo
Iha50BtbPsaDWAhsUtdQKcc4GSeRMaDGjFZ2Mx/mnaU=
-----END CERTIFICATE-----
