Certificate:
    Data:
        Version: 1 (0x0)
        Serial Number:
            9b:27:d7:e8:d1:ba:0a:8a
        Signature Algorithm: md5WithRSAEncryption
        Issuer: C=DE, ST=Saarland, O=MPI-SWS, OU=Distributed Systems Group, CN=Andreas Haeberlen/emailAddress=democa@octarine.de
        Validity
            Not Before: Apr 20 20:47:27 2015 GMT
            Not After : Apr 19 20:47:27 2016 GMT
        Subject: C=DE, ST=Saarland, O=MPI-SWS, OU=Distributed Systems Group, CN=ae68e661595622cd733a73aa2ae3c4363af21537/emailAddress=node0690@octarine.de
        Subject Public Key Info:
            Public Key Algorithm: rsaEncryption
            RSA Public Key: (1024 bit)
                Modulus (1024 bit):
                    00:c6:13:ff:94:80:04:6e:9f:9f:7a:4a:17:0d:dd:
                    46:63:d5:35:69:17:d4:d5:c6:65:a2:d8:2d:29:0a:
                    aa:9d:bd:ff:7f:db:4b:8a:ea:78:80:75:09:83:76:
                    44:17:b0:43:97:03:05:32:82:be:55:6c:e9:c4:49:
                    6d:9b:3d:05:5e:5f:f3:ee:7f:47:69:a6:54:04:70:
                    e1:59:1a:2d:be:ad:4b:54:89:b4:81:48:0d:2c:1c:
                    fa:5f:07:59:4c:34:96:49:4a:ec:f9:54:73:85:88:
                    c7:c5:6f:0c:8f:9d:01:81:48:71:a7:22:4c:ea:91:
                    d3:27:57:a9:28:56:77:83:c3
                Exponent: 65537 (0x10001)
    Signature Algorithm: md5WithRSAEncryption
        bd:24:74:f5:83:b2:f8:89:6c:04:2a:79:61:91:c9:d9:2d:7e:
        13:07:5f:77:c5:de:a7:04:5a:f1:bb:ee:1e:f4:38:51:c4:ad:
        70:d0:47:4e:44:0e:79:40:d1:40:0d:7b:19:f0:78:87:5c:d8:
        54:6c:b7:95:41:33:89:e3:2e:f2:65:8c:e2:61:87:c2:88:d6:
        15:4e:b4:dd:89:53:2c:b2:7c:56:aa:3a:5f:dc:41:3c:a6:8f:
        f9:9e:0d:a8:0f:c3:5c:fc:87:1d:a4:de:31:93:95:45:cb:48:
        ba:37:8d:52:95:ab:25:32:0f:9c:4a:e4:37:91:9f:cf:17:ca:
        72:06
-----BEGIN CERTIFICATE-----
MIICvDCCAiUCCQCbJ9fo0boKijANBgkqhkiG9w0BAQQFADCBlTELMAkGA1UEBhMC
REUxETAPBgNVBAgTCFNhYXJsYW5kMRAwDgYDVQQKEwdNUEktU1dTMSIwIAYDVQQL
ExlEaXN0cmlidXRlZCBTeXN0ZW1zIEdyb3VwMRowGAYDVQQDExFBbmRyZWFzIEhh
ZWJlcmxlbjEhMB8GCSqGSIb3DQEJARYSZGVtb2NhQG9jdGFyaW5lLmRlMB4XDTE1
MDQyMDIwNDcyN1oXDTE2MDQxOTIwNDcyN1owga4xCzAJBgNVBAYTAkRFMREwDwYD
VQQIEwhTYWFybGFuZDEQMA4GA1UEChMHTVBJLVNXUzEiMCAGA1UECxMZRGlzdHJp
YnV0ZWQgU3lzdGVtcyBHcm91cDExMC8GA1UEAxMoYWU2OGU2NjE1OTU2MjJjZDcz
M2E3M2FhMmFlM2M0MzYzYWYyMTUzNzEjMCEGCSqGSIb3DQEJARYUbm9kZTA2OTBA
b2N0YXJpbmUuZGUwgZ8wDQYJKoZIhvcNAQEBBQADgY0AMIGJAoGBAMYT/5SABG6f
n3pKFw3dRmPVNWkX1NXGZaLYLSkKqp29/3/bS4rqeIB1CYN2RBewQ5cDBTKCvlVs
6cRJbZs9BV5f8+5/R2mmVARw4VkaLb6tS1SJtIFIDSwc+l8HWUw0lklK7PlUc4WI
x8VvDI+dAYFIcaciTOqR0ydXqShWd4PDAgMBAAEwDQYJKoZIhvcNAQEEBQADgYEA
vSR09YOy+IlsBCp5YZHJ2S1+Ewdfd8XepwRa8bvuHvQ4UcStcNBHTkQOeUDRQA17
GfB4h1zYVGy3lUEzieMu8mWM4mGHwojWFU603YlTLLJ8Vqo6X9xBPKaP+Z4NqA/D
XPyHHaTeMZOVRctIujeNUpWrJTIPnErkN5GfzxfKcgY=
-----END CERTIFICATE-----
