Certificate:
    Data:
        Version: 1 (0x0)
        Serial Number:
            9b:27:d7:e8:d1:ba:0a:5c
        Signature Algorithm: md5WithRSAEncryption
        Issuer: C=DE, ST=Saarland, O=MPI-SWS, OU=Distributed Systems Group, CN=Andreas Haeberlen/emailAddress=democa@octarine.de
        Validity
            Not Before: Apr 20 20:47:25 2015 GMT
            Not After : Apr 19 20:47:25 2016 GMT
        Subject: C=DE, ST=Saarland, O=MPI-SWS, OU=Distributed Systems Group, CN=a0609308a17d862740494f4557fca1c5225b5640/emailAddress=node0644@octarine.de
        Subject Public Key Info:
            Public Key Algorithm: rsaEncryption
            RSA Public Key: (1024 bit)
                Modulus (1024 bit):
                    00:9e:75:d6:67:b2:33:34:b0:d0:c1:ca:3f:15:8d:
                    17:bd:64:c7:0a:8e:d9:9c:8b:54:f4:03:67:d3:80:
                    02:71:99:fb:f2:a1:4d:ed:61:ca:89:df:94:9a:6c:
                    d2:b7:38:f9:62:7f:90:17:af:3f:4f:33:58:36:40:
                    14:05:9e:e2:97:e6:ff:72:b8:8b:3a:c9:51:22:a4:
                    fe:d1:46:90:d9:71:ae:97:bd:f1:e6:e6:2e:89:ca:
                    13:c6:b1:8d:af:24:de:51:8a:df:58:7f:10:7a:ab:
                    e9:c3:30:97:9a:fe:db:0d:5c:7b:74:be:3c:7a:01:
                    0f:a2:f4:48:74:12:cc:ae:b5
                Exponent: 65537 (0x10001)
    Signature Algorithm: md5WithRSAEncryption
        9e:21:44:de:81:d9:82:04:d9:66:0d:32:eb:78:17:c2:b9:16:
        40:49:c1:5f:5a:75:ea:30:60:b6:90:11:dd:39:af:55:01:20:
        9e:10:e5:04:76:b1:84:53:9a:ad:a7:3a:cf:8e:ed:4c:f6:f8:
        8c:8b:63:80:84:3c:d1:fb:8d:b8:8f:d1:5e:f1:99:07:5d:4c:
        ad:89:a8:de:cd:80:ac:23:93:cb:82:e6:5d:9e:96:36:e0:e1:
        34:e5:73:d0:0e:c4:d9:fd:7d:89:ff:5d:e7:ad:b0:44:ce:a8:
        43:03:5c:73:60:21:03:ac:a4:a4:cc:de:83:bc:91:2d:2f:d4:
        61:3d
-----BEGIN CERTIFICATE-----
MIICvDCCAiUCCQCbJ9fo0boKXDANBgkqhkiG9w0BAQQFADCBlTELMAkGA1UEBhMC
REUxETAPBgNVBAgTCFNhYXJsYW5kMRAwDgYDVQQKEwdNUEktU1dTMSIwIAYDVQQL
ExlEaXN0cmlidXRlZCBTeXN0ZW1zIEdyb3VwMRowGAYDVQQDExFBbmRyZWFzIEhh
ZWJlcmxlbjEhMB8GCSqGSIb3DQEJARYSZGVtb2NhQG9jdGFyaW5lLmRlMB4XDTE1
MDQyMDIwNDcyNVoXDTE2MDQxOTIwNDcyNVowga4xCzAJBgNVBAYTAkRFMREwDwYD
VQQIEwhTYWFybGFuZDEQMA4GA1UEChMHTVBJLVNXUzEiMCAGA1UECxMZRGlzdHJp
YnV0ZWQgU3lzdGVtcyBHcm91cDExMC8GA1UEAxMoYTA2MDkzMDhhMTdkODYyNzQw
NDk0ZjQ1NTdmY2ExYzUyMjViNTY0MDEjMCEGCSqGSIb3DQEJARYUbm9kZTA2NDRA
b2N0YXJpbmUuZGUwgZ8wDQYJKoZIhvcNAQEBBQADgY0AMIGJAoGBAJ511meyMzSw
0MHKPxWNF71kxwqO2ZyLVPQDZ9OAAnGZ+/KhTe1hyonflJps0rc4+WJ/kBevP08z
WDZAFAWe4pfm/3K4izrJUSKk/tFGkNlxrpe98ebmLonKE8axja8k3lGK31h/EHqr
6cMwl5r+2w1ce3S+PHoBD6L0SHQSzK61AgMBAAEwDQYJKoZIhvcNAQEEBQADgYEA
niFE3oHZggTZZg0y63gXwrkWQEnBX1p16jBgtpAR3TmvVQEgnhDlBHaxhFOarac6
z47tTPb4jItjgIQ80fuNuI/RXvGZB11MrYmo3s2ArCOTy4LmXZ6WNuDhNOVz0A7E
2f19if9d562wRM6oQwNcc2AhA6ykpMzeg7yRLS/UYT0=
-----END CERTIFICATE-----
