Certificate:
    Data:
        Version: 1 (0x0)
        Serial Number:
            9b:27:d7:e8:d1:ba:09:a2
        Signature Algorithm: md5WithRSAEncryption
        Issuer: C=DE, ST=Saarland, O=MPI-SWS, OU=Distributed Systems Group, CN=Andreas Haeberlen/emailAddress=democa@octarine.de
        Validity
            Not Before: Apr 20 20:47:16 2015 GMT
            Not After : Apr 19 20:47:16 2016 GMT
        Subject: C=DE, ST=Saarland, O=MPI-SWS, OU=Distributed Systems Group, CN=a80ea359ef0dc4e3970a5b219209c0768842caca/emailAddress=node0458@octarine.de
        Subject Public Key Info:
            Public Key Algorithm: rsaEncryption
            RSA Public Key: (1024 bit)
                Modulus (1024 bit):
                    00:e1:b9:d3:52:11:59:fa:4a:23:ae:aa:6f:bd:05:
                    af:87:7a:0d:76:9e:2b:56:6f:eb:38:08:aa:30:51:
                    05:2f:99:61:d1:ae:73:fc:cc:62:77:6e:bd:10:d6:
                    99:91:d1:1d:99:b8:90:bd:67:1c:d7:67:4c:68:ad:
                    93:a5:a8:1c:f3:60:97:61:c2:ba:58:1b:7a:d8:6d:
                    d5:d6:7b:1f:79:1a:ad:d1:ea:c9:1f:57:e1:e2:41:
                    c0:be:62:44:2d:ca:40:be:15:0f:b0:1d:cc:78:73:
                    9c:f1:16:50:f1:29:42:af:cd:60:01:12:c8:4c:6f:
                    56:05:a2:32:37:2c:88:8f:eb
                Exponent: 65537 (0x10001)
    Signature Algorithm: md5WithRSAEncryption
        00:3d:b1:17:64:6b:0c:2b:b4:4e:4e:1a:41:7b:ef:82:28:5b:
        6e:fa:5b:1b:e8:4b:95:27:35:23:06:e0:33:28:92:b3:91:b9:
        77:43:64:80:21:2f:8a:81:bf:46:87:df:4d:de:81:f8:ff:05:
        f9:61:9a:13:8a:7f:d8:c4:3c:d2:2a:40:f6:cd:59:0b:c3:cc:
        d3:95:29:0f:bd:0c:03:3b:0e:5c:b9:f9:b8:8b:46:ff:7b:a1:
        57:b3:1b:04:69:92:ab:56:bd:54:9c:1f:4a:f6:bb:2f:4e:22:
        64:ba:e5:7b:f3:0e:22:64:6e:cb:7e:1a:67:16:fe:42:40:59:
        84:74
-----BEGIN CERTIFICATE-----
MIICvDCCAiUCCQCbJ9fo0boJojANBgkqhkiG9w0BAQQFADCBlTELMAkGA1UEBhMC
REUxETAPBgNVBAgTCFNhYXJsYW5kMRAwDgYDVQQKEwdNUEktU1dTMSIwIAYDVQQL
ExlEaXN0cmlidXRlZCBTeXN0ZW1zIEdyb3VwMRowGAYDVQQDExFBbmRyZWFzIEhh
ZWJlcmxlbjEhMB8GCSqGSIb3DQEJARYSZGVtb2NhQG9jdGFyaW5lLmRlMB4XDTE1
MDQyMDIwNDcxNloXDTE2MDQxOTIwNDcxNlowga4xCzAJBgNVBAYTAkRFMREwDwYD
VQQIEwhTYWFybGFuZDEQMA4GA1UEChMHTVBJLVNXUzEiMCAGA1UECxMZRGlzdHJp
YnV0ZWQgU3lzdGVtcyBHcm91cDExMC8GA1UEAxMoYTgwZWEzNTllZjBkYzRlMzk3
MGE1YjIxOTIwOWMwNzY4ODQyY2FjYTEjMCEGCSqGSIb3DQEJARYUbm9kZTA0NThA
b2N0YXJpbmUuZGUwgZ8wDQYJKoZIhvcNAQEBBQADgY0AMIGJAoGBAOG501IRWfpK
I66qb70Fr4d6DXaeK1Zv6zgIqjBRBS+ZYdGuc/zMYnduvRDWmZHRHZm4kL1nHNdn
TGitk6WoHPNgl2HCulgbetht1dZ7H3kardHqyR9X4eJBwL5iRC3KQL4VD7AdzHhz
nPEWUPEpQq/NYAESyExvVgWiMjcsiI/rAgMBAAEwDQYJKoZIhvcNAQEEBQADgYEA
AD2xF2RrDCu0Tk4aQXvvgihbbvpbG+hLlSc1IwbgMyiSs5G5d0NkgCEvioG/Roff
Td6B+P8F+WGaE4p/2MQ80ipA9s1ZC8PM05UpD70MAzsOXLn5uItG/3uhV7MbBGmS
q1a9VJwfSva7L04iZLrle/MOImRuy34aZxb+QkBZhHQ=
-----END CERTIFICATE-----
