Certificate:
    Data:
        Version: 1 (0x0)
        Serial Number:
            9b:27:d7:e8:d1:ba:07:fe
        Signature Algorithm: md5WithRSAEncryption
        Issuer: C=DE, ST=Saarland, O=MPI-SWS, OU=Distributed Systems Group, CN=Andreas Haeberlen/emailAddress=democa@octarine.de
        Validity
            Not Before: Apr 20 20:46:58 2015 GMT
            Not After : Apr 19 20:46:58 2016 GMT
        Subject: C=DE, ST=Saarland, O=MPI-SWS, OU=Distributed Systems Group, CN=7e3d6b35f242dfafd75cdedbd944820f14c8ffdf/emailAddress=node0038@octarine.de
        Subject Public Key Info:
            Public Key Algorithm: rsaEncryption
            RSA Public Key: (1024 bit)
                Modulus (1024 bit):
                    00:f9:97:9e:d2:14:70:38:ca:1b:e5:23:61:f1:53:
                    3c:32:cd:10:01:2d:80:81:21:f6:0f:e0:f2:7f:6f:
                    c8:09:a3:79:a2:ee:a9:fa:4c:57:e2:11:34:e8:bf:
                    e6:16:83:db:50:d4:3f:42:b6:b7:1f:c6:53:f3:1e:
                    ec:53:5e:a0:76:d3:6a:77:e2:99:e4:15:a9:3c:73:
                    bd:c7:a4:63:3d:40:1b:6b:fd:f0:d5:d4:29:8c:6a:
                    36:0a:04:e6:a4:e4:8c:74:7f:4a:73:18:ef:8f:ad:
                    c6:01:12:38:04:18:69:96:fa:3e:fc:a2:a1:75:34:
                    91:c1:0c:f2:aa:7b:7f:33:13
                Exponent: 65537 (0x10001)
    Signature Algorithm: md5WithRSAEncryption
        05:6f:20:bf:54:f9:3d:9b:ee:00:76:1a:59:ac:31:75:1d:f1:
        9b:fb:57:73:79:9f:ca:09:a4:6a:55:60:8b:3d:7d:64:01:8d:
        8b:68:77:a9:15:a3:55:85:28:6d:07:1b:45:bb:44:68:c6:a2:
        a8:0c:9a:fc:54:70:e6:a0:79:a3:24:ea:e6:4f:7e:dd:7e:d6:
        79:97:ea:ce:72:69:ef:57:f1:ed:7e:02:9d:b4:8c:cc:ce:b6:
        49:c0:08:31:72:7e:20:51:70:38:bc:1f:25:75:fb:88:eb:45:
        88:b5:b7:12:fd:87:70:65:a6:35:c1:58:34:55:7c:10:8b:3f:
        14:fe
-----BEGIN CERTIFICATE-----
MIICvDCCAiUCCQCbJ9fo0boH/jANBgkqhkiG9w0BAQQFADCBlTELMAkGA1UEBhMC
REUxETAPBgNVBAgTCFNhYXJsYW5kMRAwDgYDVQQKEwdNUEktU1dTMSIwIAYDVQQL
ExlEaXN0cmlidXRlZCBTeXN0ZW1zIEdyb3VwMRowGAYDVQQDExFBbmRyZWFzIEhh
ZWJlcmxlbjEhMB8GCSqGSIb3DQEJARYSZGVtb2NhQG9jdGFyaW5lLmRlMB4XDTE1
MDQyMDIwNDY1OFoXDTE2MDQxOTIwNDY1OFowga4xCzAJBgNVBAYTAkRFMREwDwYD
VQQIEwhTYWFybGFuZDEQMA4GA1UEChMHTVBJLVNXUzEiMCAGA1UECxMZRGlzdHJp
YnV0ZWQgU3lzdGVtcyBHcm91cDExMC8GA1UEAxMoN2UzZDZiMzVmMjQyZGZhZmQ3
NWNkZWRiZDk0NDgyMGYxNGM4ZmZkZjEjMCEGCSqGSIb3DQEJARYUbm9kZTAwMzhA
b2N0YXJpbmUuZGUwgZ8wDQYJKoZIhvcNAQEBBQADgY0AMIGJAoGBAPmXntIUcDjK
G+UjYfFTPDLNEAEtgIEh9g/g8n9vyAmjeaLuqfpMV+IRNOi/5haD21DUP0K2tx/G
U/Me7FNeoHbTanfimeQVqTxzvcekYz1AG2v98NXUKYxqNgoE5qTkjHR/SnMY74+t
xgESOAQYaZb6PvyioXU0kcEM8qp7fzMTAgMBAAEwDQYJKoZIhvcNAQEEBQADgYEA
BW8gv1T5PZvuAHYaWawxdR3xm/tXc3mfygmkalVgiz19ZAGNi2h3qRWjVYUobQcb
RbtEaMaiqAya/FRw5qB5oyTq5k9+3X7WeZfqznJp71fx7X4CnbSMzM62ScAIMXJ+
IFFwOLwfJXX7iOtFiLW3Ev2HcGWmNcFYNFV8EIs/FP4=
-----END CERTIFICATE-----
