Certificate:
    Data:
        Version: 1 (0x0)
        Serial Number:
            9b:27:d7:e8:d1:ba:0b:9a
        Signature Algorithm: md5WithRSAEncryption
        Issuer: C=DE, ST=Saarland, O=MPI-SWS, OU=Distributed Systems Group, CN=Andreas Haeberlen/emailAddress=democa@octarine.de
        Validity
            Not Before: Apr 20 20:47:40 2015 GMT
            Not After : Apr 19 20:47:40 2016 GMT
        Subject: C=DE, ST=Saarland, O=MPI-SWS, OU=Distributed Systems Group, CN=c5e65e2edcdbb8db3b764ca320de088cd6235513/emailAddress=node0962@octarine.de
        Subject Public Key Info:
            Public Key Algorithm: rsaEncryption
            RSA Public Key: (1024 bit)
                Modulus (1024 bit):
                    00:d4:db:8d:0a:03:ff:a3:c3:2b:67:75:f9:0c:30:
                    be:9c:2a:5a:c8:7d:96:f6:00:49:65:ab:04:bd:d3:
                    6a:95:ca:a8:3e:74:e8:5b:91:ab:cc:de:72:9e:6a:
                    43:fa:a2:2f:cf:71:d8:7b:c1:0b:15:07:6e:58:b7:
                    d2:30:4e:d1:18:cd:32:db:3a:bf:fa:eb:48:25:5c:
                    18:78:c6:c4:6e:5b:9b:61:4c:0f:6c:f6:fc:76:91:
                    ae:d0:0e:4d:2d:e5:8b:b0:e7:3d:8e:ab:a0:d0:a4:
                    d0:b5:48:07:16:d5:77:4c:29:f0:bb:c1:11:b0:36:
                    f0:96:22:63:b1:8e:58:64:2d
                Exponent: 65537 (0x10001)
    Signature Algorithm: md5WithRSAEncryption
        8a:49:06:cb:a7:5f:ab:9f:41:7f:fa:d7:27:a0:09:59:26:17:
        2c:f8:0a:cb:ab:9b:20:12:0b:91:9c:25:bf:6a:c3:a8:22:53:
        b2:95:2c:ad:c2:21:70:6f:f3:5a:4d:7e:61:c6:c4:fb:86:df:
        a7:ba:fd:85:82:d3:23:50:1a:c8:28:bc:7c:14:f6:1b:0d:85:
        c7:8e:82:d0:5a:b8:5a:87:ed:6f:a0:c5:81:e2:f7:91:2e:d8:
        a0:da:83:5c:d5:7e:e7:45:fa:79:bd:7a:72:23:74:93:9e:92:
        87:e3:04:7d:8d:52:c4:a2:3a:ac:2f:86:14:e2:bc:c2:b2:63:
        18:81
-----BEGIN CERTIFICATE-----
MIICvDCCAiUCCQCbJ9fo0boLmjANBgkqhkiG9w0BAQQFADCBlTELMAkGA1UEBhMC
REUxETAPBgNVBAgTCFNhYXJsYW5kMRAwDgYDVQQKEwdNUEktU1dTMSIwIAYDVQQL
ExlEaXN0cmlidXRlZCBTeXN0ZW1zIEdyb3VwMRowGAYDVQQDExFBbmRyZWFzIEhh
ZWJlcmxlbjEhMB8GCSqGSIb3DQEJARYSZGVtb2NhQG9jdGFyaW5lLmRlMB4XDTE1
MDQyMDIwNDc0MFoXDTE2MDQxOTIwNDc0MFowga4xCzAJBgNVBAYTAkRFMREwDwYD
VQQIEwhTYWFybGFuZDEQMA4GA1UEChMHTVBJLVNXUzEiMCAGA1UECxMZRGlzdHJp
YnV0ZWQgU3lzdGVtcyBHcm91cDExMC8GA1UEAxMoYzVlNjVlMmVkY2RiYjhkYjNi
NzY0Y2EzMjBkZTA4OGNkNjIzNTUxMzEjMCEGCSqGSIb3DQEJARYUbm9kZTA5NjJA
b2N0YXJpbmUuZGUwgZ8wDQYJKoZIhvcNAQEBBQADgY0AMIGJAoGBANTbjQoD/6PD
K2d1+QwwvpwqWsh9lvYASWWrBL3TapXKqD506FuRq8zecp5qQ/qiL89x2HvBCxUH
bli30jBO0RjNMts6v/rrSCVcGHjGxG5bm2FMD2z2/HaRrtAOTS3li7DnPY6roNCk
0LVIBxbVd0wp8LvBEbA28JYiY7GOWGQtAgMBAAEwDQYJKoZIhvcNAQEEBQADgYEA
ikkGy6dfq59Bf/rXJ6AJWSYXLPgKy6ubIBILkZwlv2rDqCJTspUsrcIhcG/zWk1+
YcbE+4bfp7r9hYLTI1AayCi8fBT2Gw2Fx46C0Fq4Woftb6DFgeL3kS7YoNqDXNV+
50X6eb16ciN0k56Sh+MEfY1SxKI6rC+GFOK8wrJjGIE=
-----END CERTIFICATE-----
