Certificate:
    Data:
        Version: 1 (0x0)
        Serial Number:
            9b:27:d7:e8:d1:ba:0b:70
        Signature Algorithm: md5WithRSAEncryption
        Issuer: C=DE, ST=Saarland, O=MPI-SWS, OU=Distributed Systems Group, CN=Andreas Haeberlen/emailAddress=democa@octarine.de
        Validity
            Not Before: Apr 20 20:47:38 2015 GMT
            Not After : Apr 19 20:47:38 2016 GMT
        Subject: C=DE, ST=Saarland, O=MPI-SWS, OU=Distributed Systems Group, CN=31be9d011e8c91813276a855f18aafce07c95db7/emailAddress=node0920@octarine.de
        Subject Public Key Info:
            Public Key Algorithm: rsaEncryption
            RSA Public Key: (1024 bit)
                Modulus (1024 bit):
                    00:c0:20:30:ad:97:8f:22:67:ec:43:36:02:26:4a:
                    a8:c1:e3:77:bb:75:32:35:a0:83:cb:69:29:11:96:
                    0c:3c:a4:ad:a2:e4:29:85:5b:78:ee:dd:34:ea:21:
                    cf:73:71:9e:06:fd:92:86:70:c7:4d:d8:f2:40:4b:
                    3a:ac:46:84:42:39:b3:aa:eb:3b:2f:13:12:4b:b0:
                    ad:3d:f0:cd:a8:89:3d:32:42:5f:c5:f5:2f:39:e2:
                    92:c1:0d:ee:da:3d:6b:3f:f9:3c:66:54:69:98:c3:
                    fd:19:4a:9d:f0:da:0b:c1:58:4a:13:ea:c3:2f:07:
                    29:cc:25:94:08:86:52:90:c5
                Exponent: 65537 (0x10001)
    Signature Algorithm: md5WithRSAEncryption
        1b:a4:75:a9:2d:f6:36:30:83:48:06:81:75:f4:50:25:c3:b8:
        87:94:83:7c:b1:b1:9d:6a:a7:1f:e1:d4:07:3b:0e:ac:a0:ff:
        0d:9d:b4:c5:f0:c7:8e:f9:a2:54:e6:f4:62:97:2c:ac:3e:a4:
        dd:a2:fc:5d:23:e8:15:bc:2a:f4:f8:0a:19:58:0f:f2:04:c7:
        5c:49:75:c3:58:87:f5:f8:6c:6b:45:d6:ec:9d:0d:d6:0c:b2:
        7a:ba:fc:fb:0e:20:68:7a:cf:22:22:e8:ba:c8:5f:3a:fd:ee:
        45:00:0d:71:8d:c7:98:cb:c6:ca:26:2e:05:df:58:45:28:9e:
        35:53
-----BEGIN CERTIFICATE-----
MIICvDCCAiUCCQCbJ9fo0boLcDANBgkqhkiG9w0BAQQFADCBlTELMAkGA1UEBhMC
REUxETAPBgNVBAgTCFNhYXJsYW5kMRAwDgYDVQQKEwdNUEktU1dTMSIwIAYDVQQL
ExlEaXN0cmlidXRlZCBTeXN0ZW1zIEdyb3VwMRowGAYDVQQDExFBbmRyZWFzIEhh
ZWJlcmxlbjEhMB8GCSqGSIb3DQEJARYSZGVtb2NhQG9jdGFyaW5lLmRlMB4XDTE1
MDQyMDIwNDczOFoXDTE2MDQxOTIwNDczOFowga4xCzAJBgNVBAYTAkRFMREwDwYD
VQQIEwhTYWFybGFuZDEQMA4GA1UEChMHTVBJLVNXUzEiMCAGA1UECxMZRGlzdHJp
YnV0ZWQgU3lzdGVtcyBHcm91cDExMC8GA1UEAxMoMzFiZTlkMDExZThjOTE4MTMy
NzZhODU1ZjE4YWFmY2UwN2M5NWRiNzEjMCEGCSqGSIb3DQEJARYUbm9kZTA5MjBA
b2N0YXJpbmUuZGUwgZ8wDQYJKoZIhvcNAQEBBQADgY0AMIGJAoGBAMAgMK2XjyJn
7EM2AiZKqMHjd7t1MjWgg8tpKRGWDDykraLkKYVbeO7dNOohz3Nxngb9koZwx03Y
8kBLOqxGhEI5s6rrOy8TEkuwrT3wzaiJPTJCX8X1LzniksEN7to9az/5PGZUaZjD
/RlKnfDaC8FYShPqwy8HKcwllAiGUpDFAgMBAAEwDQYJKoZIhvcNAQEEBQADgYEA
G6R1qS32NjCDSAaBdfRQJcO4h5SDfLGxnWqnH+HUBzsOrKD/DZ20xfDHjvmiVOb0
YpcsrD6k3aL8XSPoFbwq9PgKGVgP8gTHXEl1w1iH9fhsa0XW7J0N1gyyerr8+w4g
aHrPIiLoushfOv3uRQANcY3HmMvGyiYuBd9YRSieNVM=
-----END CERTIFICATE-----
