Certificate:
    Data:
        Version: 1 (0x0)
        Serial Number:
            9b:27:d7:e8:d1:ba:08:2f
        Signature Algorithm: md5WithRSAEncryption
        Issuer: C=DE, ST=Saarland, O=MPI-SWS, OU=Distributed Systems Group, CN=Andreas Haeberlen/emailAddress=democa@octarine.de
        Validity
            Not Before: Apr 20 20:47:00 2015 GMT
            Not After : Apr 19 20:47:00 2016 GMT
        Subject: C=DE, ST=Saarland, O=MPI-SWS, OU=Distributed Systems Group, CN=1a552a672b2f2961a88d475584f675b801d2b3ae/emailAddress=node0087@octarine.de
        Subject Public Key Info:
            Public Key Algorithm: rsaEncryption
            RSA Public Key: (1024 bit)
                Modulus (1024 bit):
                    00:b3:4a:99:fd:7a:44:bb:1b:e3:d3:45:2c:82:e8:
                    d2:71:5a:db:05:f2:11:da:c8:ac:4e:76:a9:9f:3e:
                    6c:cc:40:fe:92:f2:ac:c2:1f:88:01:8f:9c:c4:88:
                    d7:6d:d9:49:0d:a0:f9:0d:16:5e:20:40:95:bd:3a:
                    cc:b5:22:e1:50:57:61:09:7b:93:5d:47:90:9f:5a:
                    9f:64:16:3f:9c:c4:e8:82:bd:8b:6b:d0:b7:fe:36:
                    a7:be:c0:f8:f2:92:e2:27:ee:1c:b6:c7:c2:dc:2a:
                    a4:eb:8a:4d:a9:d3:6a:69:8e:f0:75:32:b2:13:0f:
                    6d:8c:72:ff:8a:37:f5:72:35
                Exponent: 65537 (0x10001)
    Signature Algorithm: md5WithRSAEncryption
        af:02:81:14:73:96:77:0d:ca:0d:99:75:3c:88:02:d1:96:f1:
        00:50:61:8d:71:6a:de:ee:20:d8:33:fa:17:30:83:de:7f:21:
        22:49:79:8a:62:25:84:cf:ae:3f:dc:fe:9b:63:59:fd:67:d7:
        88:10:14:d9:9d:f1:1b:2d:b1:7a:ba:c0:da:3b:72:b7:06:35:
        48:60:37:4d:21:3b:f1:4b:55:11:4f:90:2a:0c:9f:34:c9:2b:
        48:66:56:00:a3:7c:97:ca:ac:f0:8b:97:95:e0:f4:fc:79:f3:
        05:fb:07:c6:51:89:19:cb:7e:02:ef:50:03:4b:80:34:b9:a6:
        08:e1
-----BEGIN CERTIFICATE-----
MIICvDCCAiUCCQCbJ9fo0boILzANBgkqhkiG9w0BAQQFADCBlTELMAkGA1UEBhMC
REUxETAPBgNVBAgTCFNhYXJsYW5kMRAwDgYDVQQKEwdNUEktU1dTMSIwIAYDVQQL
ExlEaXN0cmlidXRlZCBTeXN0ZW1zIEdyb3VwMRowGAYDVQQDExFBbmRyZWFzIEhh
ZWJlcmxlbjEhMB8GCSqGSIb3DQEJARYSZGVtb2NhQG9jdGFyaW5lLmRlMB4XDTE1
MDQyMDIwNDcwMFoXDTE2MDQxOTIwNDcwMFowga4xCzAJBgNVBAYTAkRFMREwDwYD
VQQIEwhTYWFybGFuZDEQMA4GA1UEChMHTVBJLVNXUzEiMCAGA1UECxMZRGlzdHJp
YnV0ZWQgU3lzdGVtcyBHcm91cDExMC8GA1UEAxMoMWE1NTJhNjcyYjJmMjk2MWE4
OGQ0NzU1ODRmNjc1YjgwMWQyYjNhZTEjMCEGCSqGSIb3DQEJARYUbm9kZTAwODdA
b2N0YXJpbmUuZGUwgZ8wDQYJKoZIhvcNAQEBBQADgY0AMIGJAoGBALNKmf16RLsb
49NFLILo0nFa2wXyEdrIrE52qZ8+bMxA/pLyrMIfiAGPnMSI123ZSQ2g+Q0WXiBA
lb06zLUi4VBXYQl7k11HkJ9an2QWP5zE6IK9i2vQt/42p77A+PKS4ifuHLbHwtwq
pOuKTanTammO8HUyshMPbYxy/4o39XI1AgMBAAEwDQYJKoZIhvcNAQEEBQADgYEA
rwKBFHOWdw3KDZl1PIgC0ZbxAFBhjXFq3u4g2DP6FzCD3n8hIkl5imIlhM+uP9z+
m2NZ/WfXiBAU2Z3xGy2xerrA2jtytwY1SGA3TSE78UtVEU+QKgyfNMkrSGZWAKN8
l8qs8IuXleD0/HnzBfsHxlGJGct+Au9QA0uANLmmCOE=
-----END CERTIFICATE-----
