Certificate:
    Data:
        Version: 1 (0x0)
        Serial Number:
            9b:27:d7:e8:d1:ba:09:d2
        Signature Algorithm: md5WithRSAEncryption
        Issuer: C=DE, ST=Saarland, O=MPI-SWS, OU=Distributed Systems Group, CN=Andreas Haeberlen/emailAddress=democa@octarine.de
        Validity
            Not Before: Apr 20 20:47:19 2015 GMT
            Not After : Apr 19 20:47:19 2016 GMT
        Subject: C=DE, ST=Saarland, O=MPI-SWS, OU=Distributed Systems Group, CN=278ae3df25eb981adb830d8d98a2cf1e7a95e651/emailAddress=node0506@octarine.de
        Subject Public Key Info:
            Public Key Algorithm: rsaEncryption
            RSA Public Key: (1024 bit)
                Modulus (1024 bit):
                    00:ae:46:0e:a2:83:55:6f:3e:49:6f:fe:84:96:80:
                    23:59:f1:d8:0b:bc:fa:fd:48:aa:ce:03:aa:cd:28:
                    db:35:bb:f8:d8:3e:6f:df:c2:d7:14:24:b3:d3:35:
                    21:22:a9:90:71:c2:b9:01:53:f5:7e:6c:70:f9:6b:
                    00:92:43:77:15:51:91:b5:b6:25:c8:ca:71:68:07:
                    6d:b8:aa:88:1e:04:e1:c7:86:ac:90:79:bf:9c:ff:
                    b1:64:e1:60:a3:bd:63:27:f7:d1:a0:89:82:54:5d:
                    5f:73:d1:0b:4c:b3:89:c9:13:51:6a:e5:1c:ff:49:
                    dd:8b:4c:d8:26:e1:51:58:29
                Exponent: 65537 (0x10001)
    Signature Algorithm: md5WithRSAEncryption
        81:ea:bf:08:3b:41:52:db:77:73:f3:36:6c:4b:b5:b7:97:b9:
        d0:1a:e2:9b:94:f1:64:32:77:8d:18:08:c9:e0:a1:92:db:41:
        e3:1d:0b:40:13:33:f6:5f:51:40:59:54:9e:83:f2:92:29:f5:
        5a:d2:12:cb:e4:e9:57:36:ae:e3:b3:8a:c4:8e:82:7d:88:87:
        b8:9d:59:7e:bd:b1:74:6b:e9:b1:48:0b:21:44:8f:84:32:69:
        83:06:5d:8c:30:3a:73:74:99:07:aa:f9:bb:3e:b3:ed:35:fa:
        29:5a:54:63:13:58:54:5a:ae:bf:eb:de:aa:65:82:2d:c6:63:
        67:fa
-----BEGIN CERTIFICATE-----
MIICvDCCAiUCCQCbJ9fo0boJ0jANBgkqhkiG9w0BAQQFADCBlTELMAkGA1UEBhMC
REUxETAPBgNVBAgTCFNhYXJsYW5kMRAwDgYDVQQKEwdNUEktU1dTMSIwIAYDVQQL
ExlEaXN0cmlidXRlZCBTeXN0ZW1zIEdyb3VwMRowGAYDVQQDExFBbmRyZWFzIEhh
ZWJlcmxlbjEhMB8GCSqGSIb3DQEJARYSZGVtb2NhQG9jdGFyaW5lLmRlMB4XDTE1
MDQyMDIwNDcxOVoXDTE2MDQxOTIwNDcxOVowga4xCzAJBgNVBAYTAkRFMREwDwYD
VQQIEwhTYWFybGFuZDEQMA4GA1UEChMHTVBJLVNXUzEiMCAGA1UECxMZRGlzdHJp
YnV0ZWQgU3lzdGVtcyBHcm91cDExMC8GA1UEAxMoMjc4YWUzZGYyNWViOTgxYWRi
ODMwZDhkOThhMmNmMWU3YTk1ZTY1MTEjMCEGCSqGSIb3DQEJARYUbm9kZTA1MDZA
b2N0YXJpbmUuZGUwgZ8wDQYJKoZIhvcNAQEBBQADgY0AMIGJAoGBAK5GDqKDVW8+
SW/+hJaAI1nx2Au8+v1Iqs4Dqs0o2zW7+Ng+b9/C1xQks9M1ISKpkHHCuQFT9X5s
cPlrAJJDdxVRkbW2JcjKcWgHbbiqiB4E4ceGrJB5v5z/sWThYKO9Yyf30aCJglRd
X3PRC0yzickTUWrlHP9J3YtM2CbhUVgpAgMBAAEwDQYJKoZIhvcNAQEEBQADgYEA
geq/CDtBUtt3c/M2bEu1t5e50Brim5TxZDJ3jRgIyeChkttB4x0LQBMz9l9RQFlU
noPykin1WtISy+TpVzau47OKxI6CfYiHuJ1Zfr2xdGvpsUgLIUSPhDJpgwZdjDA6
c3SZB6r5uz6z7TX6KVpUYxNYVFquv+veqmWCLcZjZ/o=
-----END CERTIFICATE-----
