Certificate:
    Data:
        Version: 1 (0x0)
        Serial Number:
            9b:27:d7:e8:d1:ba:09:67
        Signature Algorithm: md5WithRSAEncryption
        Issuer: C=DE, ST=Saarland, O=MPI-SWS, OU=Distributed Systems Group, CN=Andreas Haeberlen/emailAddress=democa@octarine.de
        Validity
            Not Before: Apr 20 20:47:14 2015 GMT
            Not After : Apr 19 20:47:14 2016 GMT
        Subject: C=DE, ST=Saarland, O=MPI-SWS, OU=Distributed Systems Group, CN=7e92e60f08f44485215e7275ae9569bd8507c06c/emailAddress=node0399@octarine.de
        Subject Public Key Info:
            Public Key Algorithm: rsaEncryption
            RSA Public Key: (1024 bit)
                Modulus (1024 bit):
                    00:a8:29:bc:f5:fa:d1:15:b3:9e:ef:c5:6e:cb:9d:
                    63:7a:6b:c4:68:f6:79:61:0b:35:dc:f5:d3:f0:f4:
                    5b:0d:09:55:5d:6d:6a:56:9f:a9:c7:1b:bb:2d:f0:
                    79:a5:29:0d:7e:ba:6e:28:4a:ba:7f:66:37:e4:d4:
                    49:6e:0a:30:a9:a3:73:64:46:9e:58:83:12:ca:2b:
                    28:96:a1:0c:8a:5e:ff:11:db:55:79:13:7c:8c:7d:
                    39:1e:12:b0:30:37:f7:77:5a:99:43:97:f2:f3:62:
                    38:20:b3:0e:44:a2:00:d2:9a:fc:ab:47:6c:18:8c:
                    a9:4d:53:e1:22:82:f2:6a:2d
                Exponent: 65537 (0x10001)
    Signature Algorithm: md5WithRSAEncryption
        bd:82:1e:89:da:21:ae:4b:87:6a:54:9a:db:c8:b7:8c:ea:de:
        00:e2:1b:bb:64:b3:58:83:fd:37:b8:56:82:6e:51:62:55:9f:
        8c:fc:d7:79:35:53:01:7f:33:30:cc:1f:d8:fa:8f:da:99:26:
        c7:3e:3a:d2:39:80:10:7c:c1:55:7f:d4:b9:91:61:1f:05:00:
        80:f7:08:7d:74:2e:91:8a:ad:21:c5:83:53:51:9f:8e:1c:75:
        d6:c6:03:b6:ca:0c:74:df:34:4a:18:8d:3b:08:14:70:92:d8:
        3f:20:7a:cb:5e:d4:42:65:7c:da:40:11:e3:b7:18:7e:90:94:
        6f:a9
-----BEGIN CERTIFICATE-----
MIICvDCCAiUCCQCbJ9fo0boJZzANBgkqhkiG9w0BAQQFADCBlTELMAkGA1UEBhMC
REUxETAPBgNVBAgTCFNhYXJsYW5kMRAwDgYDVQQKEwdNUEktU1dTMSIwIAYDVQQL
ExlEaXN0cmlidXRlZCBTeXN0ZW1zIEdyb3VwMRowGAYDVQQDExFBbmRyZWFzIEhh
ZWJlcmxlbjEhMB8GCSqGSIb3DQEJARYSZGVtb2NhQG9jdGFyaW5lLmRlMB4XDTE1
MDQyMDIwNDcxNFoXDTE2MDQxOTIwNDcxNFowga4xCzAJBgNVBAYTAkRFMREwDwYD
VQQIEwhTYWFybGFuZDEQMA4GA1UEChMHTVBJLVNXUzEiMCAGA1UECxMZRGlzdHJp
YnV0ZWQgU3lzdGVtcyBHcm91cDExMC8GA1UEAxMoN2U5MmU2MGYwOGY0NDQ4NTIx
NWU3Mjc1YWU5NTY5YmQ4NTA3YzA2YzEjMCEGCSqGSIb3DQEJARYUbm9kZTAzOTlA
b2N0YXJpbmUuZGUwgZ8wDQYJKoZIhvcNAQEBBQADgY0AMIGJAoGBAKgpvPX60RWz
nu/FbsudY3prxGj2eWELNdz10/D0Ww0JVV1talafqccbuy3weaUpDX66bihKun9m
N+TUSW4KMKmjc2RGnliDEsorKJahDIpe/xHbVXkTfIx9OR4SsDA393damUOX8vNi
OCCzDkSiANKa/KtHbBiMqU1T4SKC8motAgMBAAEwDQYJKoZIhvcNAQEEBQADgYEA
vYIeidohrkuHalSa28i3jOreAOIbu2SzWIP9N7hWgm5RYlWfjPzXeTVTAX8zMMwf
2PqP2pkmxz460jmAEHzBVX/UuZFhHwUAgPcIfXQukYqtIcWDU1Gfjhx11sYDtsoM
dN80ShiNOwgUcJLYPyB6y17UQmV82kAR47cYfpCUb6k=
-----END CERTIFICATE-----
