Certificate:
    Data:
        Version: 1 (0x0)
        Serial Number:
            9b:27:d7:e8:d1:ba:09:f5
        Signature Algorithm: md5WithRSAEncryption
        Issuer: C=DE, ST=Saarland, O=MPI-SWS, OU=Distributed Systems Group, CN=Andreas Haeberlen/emailAddress=democa@octarine.de
        Validity
            Not Before: Apr 20 20:47:20 2015 GMT
            Not After : Apr 19 20:47:20 2016 GMT
        Subject: C=DE, ST=Saarland, O=MPI-SWS, OU=Distributed Systems Group, CN=04c68f6ac52009201b70fbf5d9427718bde3d4e9/emailAddress=node0541@octarine.de
        Subject Public Key Info:
            Public Key Algorithm: rsaEncryption
            RSA Public Key: (1024 bit)
                Modulus (1024 bit):
                    00:c1:24:8a:33:a0:6f:e2:9e:42:fa:31:7c:3c:83:
                    ef:8b:6b:99:2b:49:f7:f8:78:0b:72:e0:45:d6:f6:
                    a3:d8:fc:a7:5e:39:70:34:51:fb:e4:09:fc:a7:82:
                    ff:32:ca:14:1c:31:cd:9f:5c:9f:eb:5e:9a:7f:06:
                    66:fa:e0:51:38:92:1e:1b:a9:2d:03:ef:b4:b7:6c:
                    ca:f3:22:5f:78:dd:6c:5b:0f:e8:d4:f9:04:49:84:
                    32:44:ef:19:00:24:b6:24:b0:d6:0b:f1:f5:15:00:
                    5f:5c:b3:7e:96:13:72:72:9b:bc:51:ed:2d:c7:4d:
                    42:8d:fb:92:39:5a:1e:f7:37
                Exponent: 65537 (0x10001)
    Signature Algorithm: md5WithRSAEncryption
        3d:00:07:d1:4e:3f:5b:f0:0a:2e:d8:e9:79:54:69:37:d2:63:
        75:69:2a:cf:d5:7c:92:69:18:c7:10:1f:0d:9c:a7:58:1c:1a:
        67:b5:1a:70:5e:9c:97:37:cc:f5:5c:dd:2e:2a:f0:64:cb:99:
        ef:ca:4f:08:b4:e1:7d:6a:de:d4:e6:b1:44:ad:a5:5a:8c:42:
        fc:29:18:92:9c:c7:9c:ec:5f:9c:16:98:77:44:6b:ec:db:5a:
        24:66:5b:67:61:ca:22:84:a9:4c:5b:55:24:9a:48:17:bc:5c:
        64:fe:f3:25:4c:14:d3:cd:0b:65:c8:9a:3e:de:20:d9:27:a1:
        e0:6e
-----BEGIN CERTIFICATE-----
MIICvDCCAiUCCQCbJ9fo0boJ9TANBgkqhkiG9w0BAQQFADCBlTELMAkGA1UEBhMC
REUxETAPBgNVBAgTCFNhYXJsYW5kMRAwDgYDVQQKEwdNUEktU1dTMSIwIAYDVQQL
ExlEaXN0cmlidXRlZCBTeXN0ZW1zIEdyb3VwMRowGAYDVQQDExFBbmRyZWFzIEhh
ZWJlcmxlbjEhMB8GCSqGSIb3DQEJARYSZGVtb2NhQG9jdGFyaW5lLmRlMB4XDTE1
MDQyMDIwNDcyMFoXDTE2MDQxOTIwNDcyMFowga4xCzAJBgNVBAYTAkRFMREwDwYD
VQQIEwhTYWFybGFuZDEQMA4GA1UEChMHTVBJLVNXUzEiMCAGA1UECxMZRGlzdHJp
YnV0ZWQgU3lzdGVtcyBHcm91cDExMC8GA1UEAxMoMDRjNjhmNmFjNTIwMDkyMDFi
NzBmYmY1ZDk0Mjc3MThiZGUzZDRlOTEjMCEGCSqGSIb3DQEJARYUbm9kZTA1NDFA
b2N0YXJpbmUuZGUwgZ8wDQYJKoZIhvcNAQEBBQADgY0AMIGJAoGBAMEkijOgb+Ke
QvoxfDyD74trmStJ9/h4C3LgRdb2o9j8p145cDRR++QJ/KeC/zLKFBwxzZ9cn+te
mn8GZvrgUTiSHhupLQPvtLdsyvMiX3jdbFsP6NT5BEmEMkTvGQAktiSw1gvx9RUA
X1yzfpYTcnKbvFHtLcdNQo37kjlaHvc3AgMBAAEwDQYJKoZIhvcNAQEEBQADgYEA
PQAH0U4/W/AKLtjpeVRpN9JjdWkqz9V8kmkYxxAfDZynWBwaZ7UacF6clzfM9Vzd
LirwZMuZ78pPCLThfWre1OaxRK2lWoxC/CkYkpzHnOxfnBaYd0Rr7NtaJGZbZ2HK
IoSpTFtVJJpIF7xcZP7zJUwU080LZciaPt4g2Seh4G4=
-----END CERTIFICATE-----
