Certificate:
    Data:
        Version: 1 (0x0)
        Serial Number:
            9b:27:d7:e8:d1:ba:09:3c
        Signature Algorithm: md5WithRSAEncryption
        Issuer: C=DE, ST=Saarland, O=MPI-SWS, OU=Distributed Systems Group, CN=Andreas Haeberlen/emailAddress=democa@octarine.de
        Validity
            Not Before: Apr 20 20:47:12 2015 GMT
            Not After : Apr 19 20:47:12 2016 GMT
        Subject: C=DE, ST=Saarland, O=MPI-SWS, OU=Distributed Systems Group, CN=35dbcd4dd8c1daf0869154c1757b728b75642b10/emailAddress=node0356@octarine.de
        Subject Public Key Info:
            Public Key Algorithm: rsaEncryption
            RSA Public Key: (1024 bit)
                Modulus (1024 bit):
                    00:a4:41:16:e8:1a:91:54:d7:80:ee:3a:3c:09:b2:
                    a7:e6:50:bc:e3:d4:09:5a:06:13:b6:a1:02:57:d2:
                    f7:2e:fe:a7:bc:38:7a:23:81:f2:d0:1f:ab:8c:ed:
                    73:eb:01:39:3b:e9:b8:23:b0:57:68:b3:21:4f:a0:
                    ae:f1:ba:7f:dc:b2:4c:0b:4a:11:61:04:3e:6d:02:
                    c6:91:7d:bc:1c:9a:c7:61:ea:f6:33:23:56:5f:8d:
                    01:ed:75:5b:cd:1a:a8:5b:e4:c4:c5:1a:1d:dc:7e:
                    12:39:9a:47:4d:40:46:cc:db:9e:ee:65:07:31:17:
                    e4:8a:89:9c:a6:36:64:b6:c3
                Exponent: 65537 (0x10001)
    Signature Algorithm: md5WithRSAEncryption
        77:e3:09:db:aa:aa:cb:3e:16:d7:0c:94:03:25:50:b5:76:2a:
        55:c2:f9:e2:aa:be:3d:c9:6f:05:a0:f7:a9:14:dd:e2:e8:03:
        a4:db:6d:6d:f3:e5:62:29:64:2a:99:e8:45:50:bf:e9:a8:a2:
        f2:1b:46:75:c8:74:cf:4e:13:21:d4:62:e1:81:02:3a:14:ee:
        6e:51:38:33:e8:ac:b9:11:3c:29:c4:7a:cf:4d:05:5a:b7:77:
        1b:8e:fa:9b:63:5c:2e:5d:d7:3d:24:43:53:0c:80:f3:4d:fb:
        a8:17:ff:19:fe:b0:36:26:7e:3a:1f:73:e0:2d:62:02:19:c5:
        31:39
-----BEGIN CERTIFICATE-----
MIICvDCCAiUCCQCbJ9fo0boJPDANBgkqhkiG9w0BAQQFADCBlTELMAkGA1UEBhMC
REUxETAPBgNVBAgTCFNhYXJsYW5kMRAwDgYDVQQKEwdNUEktU1dTMSIwIAYDVQQL
ExlEaXN0cmlidXRlZCBTeXN0ZW1zIEdyb3VwMRowGAYDVQQDExFBbmRyZWFzIEhh
ZWJlcmxlbjEhMB8GCSqGSIb3DQEJARYSZGVtb2NhQG9jdGFyaW5lLmRlMB4XDTE1
MDQyMDIwNDcxMloXDTE2MDQxOTIwNDcxMlowga4xCzAJBgNVBAYTAkRFMREwDwYD
VQQIEwhTYWFybGFuZDEQMA4GA1UEChMHTVBJLVNXUzEiMCAGA1UECxMZRGlzdHJp
YnV0ZWQgU3lzdGVtcyBHcm91cDExMC8GA1UEAxMoMzVkYmNkNGRkOGMxZGFmMDg2
OTE1NGMxNzU3YjcyOGI3NTY0MmIxMDEjMCEGCSqGSIb3DQEJARYUbm9kZTAzNTZA
b2N0YXJpbmUuZGUwgZ8wDQYJKoZIhvcNAQEBBQADgY0AMIGJAoGBAKRBFugakVTX
gO46PAmyp+ZQvOPUCVoGE7ahAlfS9y7+p7w4eiOB8tAfq4ztc+sBOTvpuCOwV2iz
IU+grvG6f9yyTAtKEWEEPm0CxpF9vByax2Hq9jMjVl+NAe11W80aqFvkxMUaHdx+
EjmaR01ARszbnu5lBzEX5IqJnKY2ZLbDAgMBAAEwDQYJKoZIhvcNAQEEBQADgYEA
d+MJ26qqyz4W1wyUAyVQtXYqVcL54qq+PclvBaD3qRTd4ugDpNttbfPlYilkKpno
RVC/6aii8htGdch0z04TIdRi4YECOhTublE4M+isuRE8KcR6z00FWrd3G476m2Nc
Ll3XPSRDUwyA8037qBf/Gf6wNiZ+Oh9z4C1iAhnFMTk=
-----END CERTIFICATE-----
