Certificate:
    Data:
        Version: 1 (0x0)
        Serial Number:
            9b:27:d7:e8:d1:ba:08:1e
        Signature Algorithm: md5WithRSAEncryption
        Issuer: C=DE, ST=Saarland, O=MPI-SWS, OU=Distributed Systems Group, CN=Andreas Haeberlen/emailAddress=democa@octarine.de
        Validity
            Not Before: Apr 20 20:47:00 2015 GMT
            Not After : Apr 19 20:47:00 2016 GMT
        Subject: C=DE, ST=Saarland, O=MPI-SWS, OU=Distributed Systems Group, CN=cff28513c4391f01ab7135ced64a89948871d84a/emailAddress=node0070@octarine.de
        Subject Public Key Info:
            Public Key Algorithm: rsaEncryption
            RSA Public Key: (1024 bit)
                Modulus (1024 bit):
                    00:eb:1d:b8:73:59:9a:c8:98:22:71:28:0a:82:4e:
                    f9:c1:21:31:83:57:ff:36:18:34:8f:39:d8:59:cd:
                    ff:5d:b3:d6:f4:94:df:ea:b9:60:4e:8c:ad:4a:b3:
                    d4:38:26:ef:97:af:8b:c2:b5:b3:ad:c1:25:bd:84:
                    f7:d6:2b:f7:bd:31:6d:21:6e:56:a4:b8:8c:c5:2b:
                    6f:fd:fa:c0:ec:2a:3c:08:bc:54:4d:15:ad:33:57:
                    9f:66:ce:3a:71:d9:2a:9d:48:a9:b1:b6:b5:57:44:
                    5e:7a:38:08:d0:e8:d0:3d:ad:2d:81:58:98:72:07:
                    32:11:df:02:b0:ad:ea:fd:ab
                Exponent: 65537 (0x10001)
    Signature Algorithm: md5WithRSAEncryption
        22:5d:18:4a:af:99:ab:b2:83:df:ec:70:1b:e8:dc:52:26:65:
        74:d6:e6:32:50:72:01:0f:61:ef:a3:94:67:77:02:9a:96:a6:
        cf:ab:00:3b:10:3e:70:0a:83:d2:7a:86:dd:f7:7d:b2:e2:50:
        28:3c:aa:5e:8f:21:02:3a:58:70:e1:3a:06:76:72:41:00:77:
        85:49:65:b0:43:ab:02:be:f9:de:83:3b:6a:ea:16:7a:45:5c:
        bd:ac:7f:80:b5:89:54:2b:26:57:9e:8a:1e:05:a7:94:92:c8:
        e6:17:39:ab:56:00:2c:59:80:59:9e:2a:1d:31:1a:b4:26:1d:
        91:58
-----BEGIN CERTIFICATE-----
MIICvDCCAiUCCQCbJ9fo0boIHjANBgkqhkiG9w0BAQQFADCBlTELMAkGA1UEBhMC
REUxETAPBgNVBAgTCFNhYXJsYW5kMRAwDgYDVQQKEwdNUEktU1dTMSIwIAYDVQQL
ExlEaXN0cmlidXRlZCBTeXN0ZW1zIEdyb3VwMRowGAYDVQQDExFBbmRyZWFzIEhh
ZWJlcmxlbjEhMB8GCSqGSIb3DQEJARYSZGVtb2NhQG9jdGFyaW5lLmRlMB4XDTE1
MDQyMDIwNDcwMFoXDTE2MDQxOTIwNDcwMFowga4xCzAJBgNVBAYTAkRFMREwDwYD
VQQIEwhTYWFybGFuZDEQMA4GA1UEChMHTVBJLVNXUzEiMCAGA1UECxMZRGlzdHJp
YnV0ZWQgU3lzdGVtcyBHcm91cDExMC8GA1UEAxMoY2ZmMjg1MTNjNDM5MWYwMWFi
NzEzNWNlZDY0YTg5OTQ4ODcxZDg0YTEjMCEGCSqGSIb3DQEJARYUbm9kZTAwNzBA
b2N0YXJpbmUuZGUwgZ8wDQYJKoZIhvcNAQEBBQADgY0AMIGJAoGBAOsduHNZmsiY
InEoCoJO+cEhMYNX/zYYNI852FnN/12z1vSU3+q5YE6MrUqz1Dgm75evi8K1s63B
Jb2E99Yr970xbSFuVqS4jMUrb/36wOwqPAi8VE0VrTNXn2bOOnHZKp1IqbG2tVdE
Xno4CNDo0D2tLYFYmHIHMhHfArCt6v2rAgMBAAEwDQYJKoZIhvcNAQEEBQADgYEA
Il0YSq+Zq7KD3+xwG+jcUiZldNbmMlByAQ9h76OUZ3cCmpamz6sAOxA+cAqD0nqG
3fd9suJQKDyqXo8hAjpYcOE6BnZyQQB3hUllsEOrAr753oM7auoWekVcvax/gLWJ
VCsmV56KHgWnlJLI5hc5q1YALFmAWZ4qHTEatCYdkVg=
-----END CERTIFICATE-----
