Certificate:
    Data:
        Version: 1 (0x0)
        Serial Number:
            9b:27:d7:e8:d1:ba:09:a6
        Signature Algorithm: md5WithRSAEncryption
        Issuer: C=DE, ST=Saarland, O=MPI-SWS, OU=Distributed Systems Group, CN=Andreas Haeberlen/emailAddress=democa@octarine.de
        Validity
            Not Before: Apr 20 20:47:17 2015 GMT
            Not After : Apr 19 20:47:17 2016 GMT
        Subject: C=DE, ST=Saarland, O=MPI-SWS, OU=Distributed Systems Group, CN=f6ee4a1597e1e0d71f945f92ce5fa399977d183a/emailAddress=node0462@octarine.de
        Subject Public Key Info:
            Public Key Algorithm: rsaEncryption
            RSA Public Key: (1024 bit)
                Modulus (1024 bit):
                    00:e4:2d:59:66:9d:99:6b:28:39:03:58:c8:7a:d8:
                    8f:37:bc:6b:da:32:bb:f9:9f:7e:89:1f:e4:0c:e2:
                    41:30:41:5a:7a:93:52:34:f5:a4:00:08:16:16:4e:
                    42:e1:7f:48:b3:79:59:c4:6f:70:62:28:9b:fd:27:
                    da:22:4d:aa:a3:d0:b0:fb:84:38:94:03:49:3a:c9:
                    3c:8e:2d:99:9e:1d:e4:ad:9d:5a:ea:47:67:96:a7:
                    88:3c:b4:4f:a5:a6:9f:b2:57:14:7a:38:39:0a:e6:
                    8b:b9:2e:45:48:3b:c5:46:b8:ba:d3:03:b6:8d:88:
                    76:cc:a8:6c:9e:27:44:61:c3
                Exponent: 65537 (0x10001)
    Signature Algorithm: md5WithRSAEncryption
        5a:df:06:bc:6c:88:f5:df:15:d3:f2:c1:9f:8b:3a:b4:42:ed:
        53:b8:6b:9a:78:76:e2:dd:58:28:52:52:2c:85:36:38:01:0e:
        5c:c1:9c:89:69:fc:86:2e:b3:50:8f:69:32:1f:e3:4b:43:9a:
        28:7a:0e:6d:e1:19:65:e1:e0:23:1f:4e:56:47:37:6b:2b:e5:
        82:4b:21:6b:91:31:8d:34:32:a2:14:d4:ca:3d:f5:2c:b2:7a:
        ec:b4:65:16:e7:ee:ec:a8:94:14:c0:b6:d4:f7:b1:76:9e:ab:
        2a:48:26:0b:b5:cc:ab:3e:cc:4e:85:28:96:ab:f7:16:ae:ad:
        f0:5e
-----BEGIN CERTIFICATE-----
MIICvDCCAiUCCQCbJ9fo0boJpjANBgkqhkiG9w0BAQQFADCBlTELMAkGA1UEBhMC
REUxETAPBgNVBAgTCFNhYXJsYW5kMRAwDgYDVQQKEwdNUEktU1dTMSIwIAYDVQQL
ExlEaXN0cmlidXRlZCBTeXN0ZW1zIEdyb3VwMRowGAYDVQQDExFBbmRyZWFzIEhh
ZWJlcmxlbjEhMB8GCSqGSIb3DQEJARYSZGVtb2NhQG9jdGFyaW5lLmRlMB4XDTE1
MDQyMDIwNDcxN1oXDTE2MDQxOTIwNDcxN1owga4xCzAJBgNVBAYTAkRFMREwDwYD
VQQIEwhTYWFybGFuZDEQMA4GA1UEChMHTVBJLVNXUzEiMCAGA1UECxMZRGlzdHJp
YnV0ZWQgU3lzdGVtcyBHcm91cDExMC8GA1UEAxMoZjZlZTRhMTU5N2UxZTBkNzFm
OTQ1ZjkyY2U1ZmEzOTk5NzdkMTgzYTEjMCEGCSqGSIb3DQEJARYUbm9kZTA0NjJA
b2N0YXJpbmUuZGUwgZ8wDQYJKoZIhvcNAQEBBQADgY0AMIGJAoGBAOQtWWadmWso
OQNYyHrYjze8a9oyu/mffokf5AziQTBBWnqTUjT1pAAIFhZOQuF/SLN5WcRvcGIo
m/0n2iJNqqPQsPuEOJQDSTrJPI4tmZ4d5K2dWupHZ5aniDy0T6Wmn7JXFHo4OQrm
i7kuRUg7xUa4utMDto2IdsyobJ4nRGHDAgMBAAEwDQYJKoZIhvcNAQEEBQADgYEA
Wt8GvGyI9d8V0/LBn4s6tELtU7hrmnh24t1YKFJSLIU2OAEOXMGciWn8hi6zUI9p
Mh/jS0OaKHoObeEZZeHgIx9OVkc3ayvlgksha5ExjTQyohTUyj31LLJ67LRlFufu
7KiUFMC21Pexdp6rKkgmC7XMqz7MToUolqv3Fq6t8F4=
-----END CERTIFICATE-----
