Certificate:
    Data:
        Version: 1 (0x0)
        Serial Number:
            9b:27:d7:e8:d1:ba:08:32
        Signature Algorithm: md5WithRSAEncryption
        Issuer: C=DE, ST=Saarland, O=MPI-SWS, OU=Distributed Systems Group, CN=Andreas Haeberlen/emailAddress=democa@octarine.de
        Validity
            Not Before: Apr 20 20:47:00 2015 GMT
            Not After : Apr 19 20:47:00 2016 GMT
        Subject: C=DE, ST=Saarland, O=MPI-SWS, OU=Distributed Systems Group, CN=9cbfb02f2edb15a973978d287a7aadc49835865a/emailAddress=node0090@octarine.de
        Subject Public Key Info:
            Public Key Algorithm: rsaEncryption
            RSA Public Key: (1024 bit)
                Modulus (1024 bit):
                    00:c9:2d:3d:e3:28:f6:8b:09:dd:e9:14:c5:44:03:
                    7b:17:f7:a2:c0:3c:1a:cb:f6:ed:8b:36:d8:c0:58:
                    19:e2:61:1e:8e:47:dc:bb:46:36:04:7c:39:5d:1f:
                    4d:3d:dc:6d:5a:c6:b6:67:af:11:d0:66:48:44:e7:
                    ec:97:f9:cc:52:c5:3a:2d:b0:9c:38:02:2e:5b:fa:
                    6b:4a:1e:07:86:6e:05:db:da:d3:c7:fa:a1:d5:04:
                    d5:5b:1f:7a:40:6c:24:b6:87:b8:b3:a9:2d:0d:70:
                    4f:c7:21:d9:a1:ec:9f:53:3d:b6:9c:8e:dd:e0:d7:
                    b1:f1:5e:73:b3:06:e1:8c:e1
                Exponent: 65537 (0x10001)
    Signature Algorithm: md5WithRSAEncryption
        30:b7:bf:b9:56:84:9c:6e:23:7a:37:40:91:4c:2c:0d:d5:00:
        ab:13:97:b1:48:fe:3b:cb:3c:9b:64:99:41:9c:b7:be:a9:1a:
        84:19:86:e3:86:27:c8:48:35:ad:9d:af:9d:4d:91:cb:63:e9:
        be:63:cb:d5:e6:7b:52:8c:2c:d1:07:2f:45:d0:60:7c:31:05:
        d0:82:3c:65:27:ff:f2:38:17:02:78:64:20:94:03:48:d8:23:
        9d:4f:84:c5:f9:4c:04:53:f9:f1:c2:08:4a:0e:9e:0e:6b:69:
        7f:76:3e:5e:dc:f9:97:17:a7:de:a3:79:50:da:e8:68:15:7a:
        31:2d
-----BEGIN CERTIFICATE-----
MIICvDCCAiUCCQCbJ9fo0boIMjANBgkqhkiG9w0BAQQFADCBlTELMAkGA1UEBhMC
REUxETAPBgNVBAgTCFNhYXJsYW5kMRAwDgYDVQQKEwdNUEktU1dTMSIwIAYDVQQL
ExlEaXN0cmlidXRlZCBTeXN0ZW1zIEdyb3VwMRowGAYDVQQDExFBbmRyZWFzIEhh
ZWJlcmxlbjEhMB8GCSqGSIb3DQEJARYSZGVtb2NhQG9jdGFyaW5lLmRlMB4XDTE1
MDQyMDIwNDcwMFoXDTE2MDQxOTIwNDcwMFowga4xCzAJBgNVBAYTAkRFMREwDwYD
VQQIEwhTYWFybGFuZDEQMA4GA1UEChMHTVBJLVNXUzEiMCAGA1UECxMZRGlzdHJp
YnV0ZWQgU3lzdGVtcyBHcm91cDExMC8GA1UEAxMoOWNiZmIwMmYyZWRiMTVhOTcz
OTc4ZDI4N2E3YWFkYzQ5ODM1ODY1YTEjMCEGCSqGSIb3DQEJARYUbm9kZTAwOTBA
b2N0YXJpbmUuZGUwgZ8wDQYJKoZIhvcNAQEBBQADgY0AMIGJAoGBAMktPeMo9osJ
3ekUxUQDexf3osA8Gsv27Ys22MBYGeJhHo5H3LtGNgR8OV0fTT3cbVrGtmevEdBm
SETn7Jf5zFLFOi2wnDgCLlv6a0oeB4ZuBdva08f6odUE1VsfekBsJLaHuLOpLQ1w
T8ch2aHsn1M9tpyO3eDXsfFec7MG4YzhAgMBAAEwDQYJKoZIhvcNAQEEBQADgYEA
MLe/uVaEnG4jejdAkUwsDdUAqxOXsUj+O8s8m2SZQZy3vqkahBmG44YnyEg1rZ2v
nU2Ry2PpvmPL1eZ7Uows0QcvRdBgfDEF0II8ZSf/8jgXAnhkIJQDSNgjnU+ExflM
BFP58cIISg6eDmtpf3Y+Xtz5lxen3qN5UNroaBV6MS0=
-----END CERTIFICATE-----
