Certificate:
    Data:
        Version: 1 (0x0)
        Serial Number:
            9b:27:d7:e8:d1:ba:0a:5f
        Signature Algorithm: md5WithRSAEncryption
        Issuer: C=DE, ST=Saarland, O=MPI-SWS, OU=Distributed Systems Group, CN=Andreas Haeberlen/emailAddress=democa@octarine.de
        Validity
            Not Before: Apr 20 20:47:25 2015 GMT
            Not After : Apr 19 20:47:25 2016 GMT
        Subject: C=DE, ST=Saarland, O=MPI-SWS, OU=Distributed Systems Group, CN=047d5e7614e266d9e4d0e5783185f730cad2948a/emailAddress=node0647@octarine.de
        Subject Public Key Info:
            Public Key Algorithm: rsaEncryption
            RSA Public Key: (1024 bit)
                Modulus (1024 bit):
                    00:c4:6b:f2:f7:c0:74:a1:11:f9:d9:ab:84:29:25:
                    e9:af:64:c2:4f:41:d9:4d:60:ca:79:60:84:65:67:
                    da:cc:85:2a:77:76:90:9a:51:cd:3e:19:5c:00:11:
                    02:b5:0f:4d:a3:1e:bb:3c:f9:f7:6c:59:95:47:e4:
                    26:87:5e:81:21:d1:51:81:1b:2b:4c:8c:aa:29:0c:
                    d5:e2:ac:dd:dd:59:b1:21:f1:5e:3c:26:84:d4:4b:
                    35:9d:e0:4a:be:18:ad:c1:fd:0e:e5:d3:3c:44:f6:
                    f6:67:54:10:0e:8c:77:8d:1c:69:4a:81:c1:17:1f:
                    9f:ba:d6:2a:48:e0:b9:14:07
                Exponent: 65537 (0x10001)
    Signature Algorithm: md5WithRSAEncryption
        25:86:b1:8a:43:2b:66:56:09:82:c6:43:0e:a5:45:19:b2:ba:
        0b:95:08:1f:64:a4:76:e0:b0:8b:90:79:0b:f8:f3:45:a4:fe:
        1c:6a:d8:d0:8d:f0:e1:61:82:83:90:ec:b7:51:ae:8b:ed:f9:
        9c:9f:a6:b6:a5:f5:cd:73:5f:21:e1:c2:24:89:a7:8c:c9:19:
        a1:41:57:1c:be:f8:86:8c:be:d6:be:75:c9:d1:cc:52:5a:b6:
        29:71:0f:7f:d7:48:47:8a:a6:1e:be:64:25:cb:98:b2:22:3a:
        d6:40:a9:4f:2f:3f:9a:cd:44:62:14:0a:7a:59:35:1d:07:7a:
        ba:a1
-----BEGIN CERTIFICATE-----
MIICvDCCAiUCCQCbJ9fo0boKXzANBgkqhkiG9w0BAQQFADCBlTELMAkGA1UEBhMC
REUxETAPBgNVBAgTCFNhYXJsYW5kMRAwDgYDVQQKEwdNUEktU1dTMSIwIAYDVQQL
ExlEaXN0cmlidXRlZCBTeXN0ZW1zIEdyb3VwMRowGAYDVQQDExFBbmRyZWFzIEhh
ZWJlcmxlbjEhMB8GCSqGSIb3DQEJARYSZGVtb2NhQG9jdGFyaW5lLmRlMB4XDTE1
MDQyMDIwNDcyNVoXDTE2MDQxOTIwNDcyNVowga4xCzAJBgNVBAYTAkRFMREwDwYD
VQQIEwhTYWFybGFuZDEQMA4GA1UEChMHTVBJLVNXUzEiMCAGA1UECxMZRGlzdHJp
YnV0ZWQgU3lzdGVtcyBHcm91cDExMC8GA1UEAxMoMDQ3ZDVlNzYxNGUyNjZkOWU0
ZDBlNTc4MzE4NWY3MzBjYWQyOTQ4YTEjMCEGCSqGSIb3DQEJARYUbm9kZTA2NDdA
b2N0YXJpbmUuZGUwgZ8wDQYJKoZIhvcNAQEBBQADgY0AMIGJAoGBAMRr8vfAdKER
+dmrhCkl6a9kwk9B2U1gynlghGVn2syFKnd2kJpRzT4ZXAARArUPTaMeuzz592xZ
lUfkJodegSHRUYEbK0yMqikM1eKs3d1ZsSHxXjwmhNRLNZ3gSr4YrcH9DuXTPET2
9mdUEA6Md40caUqBwRcfn7rWKkjguRQHAgMBAAEwDQYJKoZIhvcNAQEEBQADgYEA
JYaxikMrZlYJgsZDDqVFGbK6C5UIH2SkduCwi5B5C/jzRaT+HGrY0I3w4WGCg5Ds
t1Gui+35nJ+mtqX1zXNfIeHCJImnjMkZoUFXHL74hoy+1r51ydHMUlq2KXEPf9dI
R4qmHr5kJcuYsiI61kCpTy8/ms1EYhQKelk1HQd6uqE=
-----END CERTIFICATE-----
