Certificate:
    Data:
        Version: 1 (0x0)
        Serial Number:
            9b:27:d7:e8:d1:ba:08:16
        Signature Algorithm: md5WithRSAEncryption
        Issuer: C=DE, ST=Saarland, O=MPI-SWS, OU=Distributed Systems Group, CN=Andreas Haeberlen/emailAddress=democa@octarine.de
        Validity
            Not Before: Apr 20 20:46:59 2015 GMT
            Not After : Apr 19 20:46:59 2016 GMT
        Subject: C=DE, ST=Saarland, O=MPI-SWS, OU=Distributed Systems Group, CN=3d2c43f296da9a1204315de506981ad4801c30fc/emailAddress=node0062@octarine.de
        Subject Public Key Info:
            Public Key Algorithm: rsaEncryption
            RSA Public Key: (1024 bit)
                Modulus (1024 bit):
                    00:a5:df:05:51:e0:9d:23:da:a4:fa:5c:10:86:e1:
                    2e:6c:9c:ea:e3:0a:99:8a:4a:70:d9:b5:38:e4:fe:
                    80:78:8f:cb:60:bc:14:76:bd:af:be:15:93:05:98:
                    8c:2e:b9:8e:c1:fc:25:91:4a:7d:8e:08:e8:9e:e7:
                    b3:6d:97:4c:f2:91:b8:15:eb:80:f4:ea:71:91:86:
                    96:38:c5:55:12:47:88:c0:fb:7d:72:0b:72:fc:f2:
                    18:39:0c:9d:7f:a2:27:ad:f2:7b:1a:9b:60:e1:ca:
                    a6:14:c6:02:68:b8:04:ec:b2:2c:0c:67:f0:77:af:
                    2b:86:de:30:ce:6d:ab:16:c5
                Exponent: 65537 (0x10001)
    Signature Algorithm: md5WithRSAEncryption
        b9:ff:92:13:04:2c:f7:da:5a:db:4a:dc:d7:ea:6b:a1:3f:b7:
        54:9f:1c:d9:41:c6:7a:e7:e5:39:92:78:7e:82:46:0d:02:91:
        d9:bd:6f:24:20:80:6e:26:41:c7:8a:b4:90:57:11:4e:39:86:
        41:dd:1d:52:59:1b:a3:8c:e5:51:d6:1d:2b:7d:8b:f2:7f:cf:
        2a:06:82:2f:21:d3:fc:bc:95:8e:bc:d5:2f:14:54:a0:2e:d4:
        77:bd:6b:b3:8a:9e:fe:4e:7b:06:ff:7b:09:b2:94:d1:a8:48:
        3e:34:95:7b:e6:4d:9d:d3:cf:97:3e:5b:73:65:53:07:36:b5:
        7a:95
-----BEGIN CERTIFICATE-----
MIICvDCCAiUCCQCbJ9fo0boIFjANBgkqhkiG9w0BAQQFADCBlTELMAkGA1UEBhMC
REUxETAPBgNVBAgTCFNhYXJsYW5kMRAwDgYDVQQKEwdNUEktU1dTMSIwIAYDVQQL
ExlEaXN0cmlidXRlZCBTeXN0ZW1zIEdyb3VwMRowGAYDVQQDExFBbmRyZWFzIEhh
ZWJlcmxlbjEhMB8GCSqGSIb3DQEJARYSZGVtb2NhQG9jdGFyaW5lLmRlMB4XDTE1
MDQyMDIwNDY1OVoXDTE2MDQxOTIwNDY1OVowga4xCzAJBgNVBAYTAkRFMREwDwYD
VQQIEwhTYWFybGFuZDEQMA4GA1UEChMHTVBJLVNXUzEiMCAGA1UECxMZRGlzdHJp
YnV0ZWQgU3lzdGVtcyBHcm91cDExMC8GA1UEAxMoM2QyYzQzZjI5NmRhOWExMjA0
MzE1ZGU1MDY5ODFhZDQ4MDFjMzBmYzEjMCEGCSqGSIb3DQEJARYUbm9kZTAwNjJA
b2N0YXJpbmUuZGUwgZ8wDQYJKoZIhvcNAQEBBQADgY0AMIGJAoGBAKXfBVHgnSPa
pPpcEIbhLmyc6uMKmYpKcNm1OOT+gHiPy2C8FHa9r74VkwWYjC65jsH8JZFKfY4I
6J7ns22XTPKRuBXrgPTqcZGGljjFVRJHiMD7fXILcvzyGDkMnX+iJ63yexqbYOHK
phTGAmi4BOyyLAxn8HevK4beMM5tqxbFAgMBAAEwDQYJKoZIhvcNAQEEBQADgYEA
uf+SEwQs99pa20rc1+proT+3VJ8c2UHGeuflOZJ4foJGDQKR2b1vJCCAbiZBx4q0
kFcRTjmGQd0dUlkbo4zlUdYdK32L8n/PKgaCLyHT/LyVjrzVLxRUoC7Ud71rs4qe
/k57Bv97CbKU0ahIPjSVe+ZNndPPlz5bc2VTBza1epU=
-----END CERTIFICATE-----
