Certificate:
    Data:
        Version: 1 (0x0)
        Serial Number:
            9b:27:d7:e8:d1:ba:09:01
        Signature Algorithm: md5WithRSAEncryption
        Issuer: C=DE, ST=Saarland, O=MPI-SWS, OU=Distributed Systems Group, CN=Andreas Haeberlen/emailAddress=democa@octarine.de
        Validity
            Not Before: Apr 20 20:47:09 2015 GMT
            Not After : Apr 19 20:47:09 2016 GMT
        Subject: C=DE, ST=Saarland, O=MPI-SWS, OU=Distributed Systems Group, CN=c49fb5701747fa5b9d21bacc32362edf37efc6fd/emailAddress=node0297@octarine.de
        Subject Public Key Info:
            Public Key Algorithm: rsaEncryption
            RSA Public Key: (1024 bit)
                Modulus (1024 bit):
                    00:99:05:e9:c6:15:b4:67:0a:46:3d:11:91:b5:88:
                    74:d8:a2:95:2a:a2:44:e6:ae:3b:99:0f:3b:9b:bc:
                    ae:e1:87:7f:d4:b3:49:2b:5d:d0:19:aa:9b:6a:4d:
                    1b:fa:1f:16:0d:ac:c1:01:4c:8f:df:4c:2e:cd:d1:
                    58:16:88:a4:47:06:57:5b:5c:1f:f2:ab:33:2a:66:
                    ce:f7:07:f3:37:00:fa:6a:18:ba:58:42:ae:f3:dd:
                    f1:a4:64:c5:57:55:23:23:b1:10:f3:21:25:bb:f6:
                    de:d4:2e:8d:9f:54:93:65:44:b0:4b:d0:6b:f4:44:
                    56:4a:f2:2b:cd:56:69:f7:69
                Exponent: 65537 (0x10001)
    Signature Algorithm: md5WithRSAEncryption
        40:5e:54:54:85:73:04:1f:0f:72:a5:00:da:c8:2e:f1:0c:79:
        19:bf:ce:eb:5e:6c:b2:d3:a2:f2:c4:01:d6:ce:9f:91:7b:83:
        d5:67:65:fb:c9:f4:a3:35:fb:9b:9b:71:08:b3:4e:41:8a:21:
        1b:6e:d2:c1:15:84:1b:2e:61:c3:65:26:4b:cd:72:35:38:29:
        db:98:d6:d4:35:95:6d:53:72:c2:51:95:2d:b9:32:f2:3f:d7:
        fe:45:cb:f0:57:4d:a6:b7:32:1a:65:a6:90:3c:97:ae:d4:7d:
        90:b3:fa:28:62:e9:aa:d6:46:d1:63:00:ff:4a:94:ce:9d:87:
        3c:ce
-----BEGIN CERTIFICATE-----
MIICvDCCAiUCCQCbJ9fo0boJATANBgkqhkiG9w0BAQQFADCBlTELMAkGA1UEBhMC
REUxETAPBgNVBAgTCFNhYXJsYW5kMRAwDgYDVQQKEwdNUEktU1dTMSIwIAYDVQQL
ExlEaXN0cmlidXRlZCBTeXN0ZW1zIEdyb3VwMRowGAYDVQQDExFBbmRyZWFzIEhh
ZWJlcmxlbjEhMB8GCSqGSIb3DQEJARYSZGVtb2NhQG9jdGFyaW5lLmRlMB4XDTE1
MDQyMDIwNDcwOVoXDTE2MDQxOTIwNDcwOVowga4xCzAJBgNVBAYTAkRFMREwDwYD
VQQIEwhTYWFybGFuZDEQMA4GA1UEChMHTVBJLVNXUzEiMCAGA1UECxMZRGlzdHJp
YnV0ZWQgU3lzdGVtcyBHcm91cDExMC8GA1UEAxMoYzQ5ZmI1NzAxNzQ3ZmE1Yjlk
MjFiYWNjMzIzNjJlZGYzN2VmYzZmZDEjMCEGCSqGSIb3DQEJARYUbm9kZTAyOTdA
b2N0YXJpbmUuZGUwgZ8wDQYJKoZIhvcNAQEBBQADgY0AMIGJAoGBAJkF6cYVtGcK
Rj0RkbWIdNiilSqiROauO5kPO5u8ruGHf9SzSStd0Bmqm2pNG/ofFg2swQFMj99M
Ls3RWBaIpEcGV1tcH/KrMypmzvcH8zcA+moYulhCrvPd8aRkxVdVIyOxEPMhJbv2
3tQujZ9Uk2VEsEvQa/REVkryK81WafdpAgMBAAEwDQYJKoZIhvcNAQEEBQADgYEA
QF5UVIVzBB8PcqUA2sgu8Qx5Gb/O615sstOi8sQB1s6fkXuD1Wdl+8n0ozX7m5tx
CLNOQYohG27SwRWEGy5hw2UmS81yNTgp25jW1DWVbVNywlGVLbky8j/X/kXL8FdN
prcyGmWmkDyXrtR9kLP6KGLpqtZG0WMA/0qUzp2HPM4=
-----END CERTIFICATE-----
