Certificate:
    Data:
        Version: 1 (0x0)
        Serial Number:
            9b:27:d7:e8:d1:ba:0a:03
        Signature Algorithm: md5WithRSAEncryption
        Issuer: C=DE, ST=Saarland, O=MPI-SWS, OU=Distributed Systems Group, CN=Andreas Haeberlen/emailAddress=democa@octarine.de
        Validity
            Not Before: Apr 20 20:47:21 2015 GMT
            Not After : Apr 19 20:47:21 2016 GMT
        Subject: C=DE, ST=Saarland, O=MPI-SWS, OU=Distributed Systems Group, CN=2225318d30dcdcdfa1fe81ad79f58b8bda00b9ef/emailAddress=node0555@octarine.de
        Subject Public Key Info:
            Public Key Algorithm: rsaEncryption
            RSA Public Key: (1024 bit)
                Modulus (1024 bit):
                    00:b1:72:95:c0:20:0b:bc:6d:81:c4:91:ef:a7:0b:
                    e6:aa:ea:72:61:06:49:b2:23:7a:ad:33:78:66:60:
                    7f:97:28:96:75:a8:4e:04:1d:11:42:77:cc:57:4f:
                    9f:85:a0:33:bf:da:95:51:d3:92:ea:71:d2:c1:32:
                    ce:2e:bc:c7:ef:31:46:44:b8:98:a2:be:ea:00:c0:
                    f4:4a:e0:d0:3b:23:92:f2:62:b7:ac:43:dc:51:fa:
                    41:13:3e:af:69:a7:19:46:12:73:c1:aa:d3:71:ff:
                    57:ee:d0:b8:18:ab:70:cf:1e:cb:f8:5a:14:b8:97:
                    f5:cf:8b:56:0c:30:7a:70:45
                Exponent: 65537 (0x10001)
    Signature Algorithm: md5WithRSAEncryption
        b6:6c:d4:72:38:25:c2:cc:05:43:d6:d9:63:56:68:93:02:87:
        a7:87:3b:98:0b:6d:78:1a:25:fa:f6:6c:09:b0:02:1a:c2:ec:
        87:1d:3a:1f:98:ce:c2:90:b9:8e:7d:05:dc:46:89:23:4b:6d:
        d9:40:4b:1b:7c:37:c9:94:85:47:01:60:6c:28:e4:ed:bd:0c:
        53:b0:3e:6c:d3:1c:3f:bb:0e:ab:03:a8:5f:69:01:83:3f:52:
        4d:dc:fb:80:ee:93:e2:fe:f2:a5:72:70:3a:ba:7f:38:bf:af:
        a7:69:58:5c:bd:ca:3f:ff:4d:2f:7a:bc:70:d6:47:5c:1d:fc:
        2f:95
-----BEGIN CERTIFICATE-----
MIICvDCCAiUCCQCbJ9fo0boKAzANBgkqhkiG9w0BAQQFADCBlTELMAkGA1UEBhMC
REUxETAPBgNVBAgTCFNhYXJsYW5kMRAwDgYDVQQKEwdNUEktU1dTMSIwIAYDVQQL
ExlEaXN0cmlidXRlZCBTeXN0ZW1zIEdyb3VwMRowGAYDVQQDExFBbmRyZWFzIEhh
ZWJlcmxlbjEhMB8GCSqGSIb3DQEJARYSZGVtb2NhQG9jdGFyaW5lLmRlMB4XDTE1
MDQyMDIwNDcyMVoXDTE2MDQxOTIwNDcyMVowga4xCzAJBgNVBAYTAkRFMREwDwYD
VQQIEwhTYWFybGFuZDEQMA4GA1UEChMHTVBJLVNXUzEiMCAGA1UECxMZRGlzdHJp
YnV0ZWQgU3lzdGVtcyBHcm91cDExMC8GA1UEAxMoMjIyNTMxOGQzMGRjZGNkZmEx
ZmU4MWFkNzlmNThiOGJkYTAwYjllZjEjMCEGCSqGSIb3DQEJARYUbm9kZTA1NTVA
b2N0YXJpbmUuZGUwgZ8wDQYJKoZIhvcNAQEBBQADgY0AMIGJAoGBALFylcAgC7xt
gcSR76cL5qrqcmEGSbIjeq0zeGZgf5colnWoTgQdEUJ3zFdPn4WgM7/alVHTkupx
0sEyzi68x+8xRkS4mKK+6gDA9Erg0DsjkvJit6xD3FH6QRM+r2mnGUYSc8Gq03H/
V+7QuBircM8ey/haFLiX9c+LVgwwenBFAgMBAAEwDQYJKoZIhvcNAQEEBQADgYEA
tmzUcjglwswFQ9bZY1ZokwKHp4c7mAtteBol+vZsCbACGsLshx06H5jOwpC5jn0F
3EaJI0tt2UBLG3w3yZSFRwFgbCjk7b0MU7A+bNMcP7sOqwOoX2kBgz9STdz7gO6T
4v7ypXJwOrp/OL+vp2lYXL3KP/9NL3q8cNZHXB38L5U=
-----END CERTIFICATE-----
