Certificate:
    Data:
        Version: 1 (0x0)
        Serial Number:
            9b:27:d7:e8:d1:ba:09:5d
        Signature Algorithm: md5WithRSAEncryption
        Issuer: C=DE, ST=Saarland, O=MPI-SWS, OU=Distributed Systems Group, CN=Andreas Haeberlen/emailAddress=democa@octarine.de
        Validity
            Not Before: Apr 20 20:47:13 2015 GMT
            Not After : Apr 19 20:47:13 2016 GMT
        Subject: C=DE, ST=Saarland, O=MPI-SWS, OU=Distributed Systems Group, CN=5c694915741ab140a15cc42da3fb0ee5b4f0d165/emailAddress=node0389@octarine.de
        Subject Public Key Info:
            Public Key Algorithm: rsaEncryption
            RSA Public Key: (1024 bit)
                Modulus (1024 bit):
                    00:e6:43:59:03:86:59:8f:50:80:2f:c8:c8:09:00:
                    72:42:51:6e:c0:73:54:4d:12:5b:c4:e2:83:80:48:
                    56:4f:eb:f3:14:de:69:44:68:49:9c:86:8b:d1:b6:
                    3b:d0:0c:6c:f8:0d:24:cc:2b:05:bc:b4:3e:20:8c:
                    75:c1:a9:f4:58:09:ce:26:4e:39:70:e1:bf:ae:17:
                    4c:77:7f:6b:cd:45:34:de:3b:47:ba:85:d0:06:60:
                    9a:99:e3:98:30:88:c8:8e:4c:62:37:7a:2e:21:a7:
                    0b:38:17:e9:a9:e4:48:18:b8:f3:2f:83:d0:5c:4e:
                    bf:a5:f9:79:e6:75:47:8e:31
                Exponent: 65537 (0x10001)
    Signature Algorithm: md5WithRSAEncryption
        3b:cd:c5:d5:1e:09:8e:b8:f4:b7:f4:e6:c3:30:41:a1:0e:b6:
        27:c6:68:0a:39:e8:b4:cb:45:a8:ed:e3:e2:2f:3f:58:35:6d:
        37:06:0d:ac:f0:e6:ec:6a:22:dd:82:c9:30:60:6d:72:e1:37:
        c4:7a:05:ce:bb:13:3d:e8:05:24:f1:d0:53:a6:4d:b9:36:e6:
        41:f9:a7:58:88:c6:d1:c8:19:2d:e2:55:4d:5c:94:12:19:d2:
        ab:15:6f:db:64:2c:8a:31:a2:47:04:ca:c0:bf:3e:ab:84:66:
        06:e0:63:c5:1a:5f:e6:00:18:5c:5c:e0:17:08:42:e3:12:f3:
        11:a3
-----BEGIN CERTIFICATE-----
MIICvDCCAiUCCQCbJ9fo0boJXTANBgkqhkiG9w0BAQQFADCBlTELMAkGA1UEBhMC
REUxETAPBgNVBAgTCFNhYXJsYW5kMRAwDgYDVQQKEwdNUEktU1dTMSIwIAYDVQQL
ExlEaXN0cmlidXRlZCBTeXN0ZW1zIEdyb3VwMRowGAYDVQQDExFBbmRyZWFzIEhh
ZWJlcmxlbjEhMB8GCSqGSIb3DQEJARYSZGVtb2NhQG9jdGFyaW5lLmRlMB4XDTE1
MDQyMDIwNDcxM1oXDTE2MDQxOTIwNDcxM1owga4xCzAJBgNVBAYTAkRFMREwDwYD
VQQIEwhTYWFybGFuZDEQMA4GA1UEChMHTVBJLVNXUzEiMCAGA1UECxMZRGlzdHJp
YnV0ZWQgU3lzdGVtcyBHcm91cDExMC8GA1UEAxMoNWM2OTQ5MTU3NDFhYjE0MGEx
NWNjNDJkYTNmYjBlZTViNGYwZDE2NTEjMCEGCSqGSIb3DQEJARYUbm9kZTAzODlA
b2N0YXJpbmUuZGUwgZ8wDQYJKoZIhvcNAQEBBQADgY0AMIGJAoGBAOZDWQOGWY9Q
gC/IyAkAckJRbsBzVE0SW8Tig4BIVk/r8xTeaURoSZyGi9G2O9AMbPgNJMwrBby0
PiCMdcGp9FgJziZOOXDhv64XTHd/a81FNN47R7qF0AZgmpnjmDCIyI5MYjd6LiGn
CzgX6ankSBi48y+D0FxOv6X5eeZ1R44xAgMBAAEwDQYJKoZIhvcNAQEEBQADgYEA
O83F1R4Jjrj0t/TmwzBBoQ62J8ZoCjnotMtFqO3j4i8/WDVtNwYNrPDm7Goi3YLJ
MGBtcuE3xHoFzrsTPegFJPHQU6ZNuTbmQfmnWIjG0cgZLeJVTVyUEhnSqxVv22Qs
ijGiRwTKwL8+q4RmBuBjxRpf5gAYXFzgFwhC4xLzEaM=
-----END CERTIFICATE-----
