Certificate:
    Data:
        Version: 1 (0x0)
        Serial Number:
            9b:27:d7:e8:d1:ba:09:49
        Signature Algorithm: md5WithRSAEncryption
        Issuer: C=DE, ST=Saarland, O=MPI-SWS, OU=Distributed Systems Group, CN=Andreas Haeberlen/emailAddress=democa@octarine.de
        Validity
            Not Before: Apr 20 20:47:12 2015 GMT
            Not After : Apr 19 20:47:12 2016 GMT
        Subject: C=DE, ST=Saarland, O=MPI-SWS, OU=Distributed Systems Group, CN=252d45b75c6215c32635efe3bbb42134661acc11/emailAddress=node0369@octarine.de
        Subject Public Key Info:
            Public Key Algorithm: rsaEncryption
            RSA Public Key: (1024 bit)
                Modulus (1024 bit):
                    00:a6:24:11:ab:37:38:1a:0c:79:9a:f4:c8:eb:a4:
                    22:91:f5:cf:b3:98:6e:2b:70:13:bc:e0:37:96:46:
                    e2:7f:d0:06:0e:eb:ac:2a:84:43:19:0b:c0:05:1c:
                    43:f8:28:d4:de:7d:e8:92:1e:ac:0d:2d:38:de:77:
                    13:2b:79:bc:77:96:20:1b:d3:aa:2b:ac:68:fe:02:
                    bf:18:18:9f:18:f8:64:f1:1d:ad:9a:37:6f:f3:a8:
                    0d:00:ed:ae:52:3e:59:46:77:a9:92:63:7e:a0:a5:
                    61:31:a5:d8:61:12:f6:08:67:3c:01:42:38:36:ac:
                    b9:f7:e8:04:9c:a7:1d:c2:eb
                Exponent: 65537 (0x10001)
    Signature Algorithm: md5WithRSAEncryption
        3d:1e:fa:26:40:46:27:76:ab:10:20:1e:a6:33:57:09:f5:3a:
        33:66:61:c4:6a:c5:89:61:2c:09:3e:9c:c5:90:dc:30:a7:ab:
        03:84:f4:d1:8f:f6:65:22:df:fd:79:9b:a0:df:5f:b7:ce:47:
        8c:a7:36:37:71:d3:31:af:9f:b9:a2:ee:38:75:b9:cf:ed:66:
        02:e9:53:8e:af:83:0f:e7:cc:b1:36:76:96:cd:aa:ce:e9:f5:
        5c:e3:7e:89:9b:4c:9b:16:d4:22:0c:3e:31:bb:9c:cd:fc:c4:
        21:3e:b4:8b:93:ae:7e:3f:4c:7b:6d:1a:17:27:cf:42:eb:c8:
        3c:39
-----BEGIN CERTIFICATE-----
MIICvDCCAiUCCQCbJ9fo0boJSTANBgkqhkiG9w0BAQQFADCBlTELMAkGA1UEBhMC
REUxETAPBgNVBAgTCFNhYXJsYW5kMRAwDgYDVQQKEwdNUEktU1dTMSIwIAYDVQQL
ExlEaXN0cmlidXRlZCBTeXN0ZW1zIEdyb3VwMRowGAYDVQQDExFBbmRyZWFzIEhh
ZWJlcmxlbjEhMB8GCSqGSIb3DQEJARYSZGVtb2NhQG9jdGFyaW5lLmRlMB4XDTE1
MDQyMDIwNDcxMloXDTE2MDQxOTIwNDcxMlowga4xCzAJBgNVBAYTAkRFMREwDwYD
VQQIEwhTYWFybGFuZDEQMA4GA1UEChMHTVBJLVNXUzEiMCAGA1UECxMZRGlzdHJp
YnV0ZWQgU3lzdGVtcyBHcm91cDExMC8GA1UEAxMoMjUyZDQ1Yjc1YzYyMTVjMzI2
MzVlZmUzYmJiNDIxMzQ2NjFhY2MxMTEjMCEGCSqGSIb3DQEJARYUbm9kZTAzNjlA
b2N0YXJpbmUuZGUwgZ8wDQYJKoZIhvcNAQEBBQADgY0AMIGJAoGBAKYkEas3OBoM
eZr0yOukIpH1z7OYbitwE7zgN5ZG4n/QBg7rrCqEQxkLwAUcQ/go1N596JIerA0t
ON53Eyt5vHeWIBvTqiusaP4CvxgYnxj4ZPEdrZo3b/OoDQDtrlI+WUZ3qZJjfqCl
YTGl2GES9ghnPAFCODasuffoBJynHcLrAgMBAAEwDQYJKoZIhvcNAQEEBQADgYEA
PR76JkBGJ3arECAepjNXCfU6M2ZhxGrFiWEsCT6cxZDcMKerA4T00Y/2ZSLf/Xmb
oN9ft85HjKc2N3HTMa+fuaLuOHW5z+1mAulTjq+DD+fMsTZ2ls2qzun1XON+iZtM
mxbUIgw+MbuczfzEIT60i5Oufj9Me20aFyfPQuvIPDk=
-----END CERTIFICATE-----
