Certificate:
    Data:
        Version: 1 (0x0)
        Serial Number:
            9b:27:d7:e8:d1:ba:09:98
        Signature Algorithm: md5WithRSAEncryption
        Issuer: C=DE, ST=Saarland, O=MPI-SWS, OU=Distributed Systems Group, CN=Andreas Haeberlen/emailAddress=democa@octarine.de
        Validity
            Not Before: Apr 20 20:47:16 2015 GMT
            Not After : Apr 19 20:47:16 2016 GMT
        Subject: C=DE, ST=Saarland, O=MPI-SWS, OU=Distributed Systems Group, CN=4615206a3165c49d07d074914e54a04e66496a3a/emailAddress=node0448@octarine.de
        Subject Public Key Info:
            Public Key Algorithm: rsaEncryption
            RSA Public Key: (1024 bit)
                Modulus (1024 bit):
                    00:af:c6:21:e3:63:ab:b0:76:71:ad:ec:28:87:23:
                    cc:a8:73:23:1e:27:fe:79:f4:6c:de:c9:4b:6f:0d:
                    82:5a:9d:30:33:2d:c4:10:00:a1:d5:01:b4:5c:73:
                    1c:66:fb:59:6a:b2:c0:be:42:f9:7f:a1:ea:ba:cb:
                    8f:b8:30:21:84:f5:23:f1:f0:be:ae:61:a8:fc:e0:
                    bd:4a:cd:21:19:e3:d3:c6:77:92:99:24:ba:b7:55:
                    9b:21:e6:63:05:01:4f:ca:00:1c:d4:2e:f5:3e:29:
                    b2:7f:ee:5c:66:39:60:b8:d0:9a:ef:60:87:08:59:
                    3b:d1:28:2b:1d:0c:4c:55:5f
                Exponent: 65537 (0x10001)
    Signature Algorithm: md5WithRSAEncryption
        19:44:1c:25:53:87:6e:08:06:14:1f:54:5f:55:19:48:87:d3:
        1a:92:b8:71:c5:db:ad:ab:8e:eb:03:91:07:2e:f2:24:bb:53:
        e9:81:cd:78:ab:f8:57:e3:0d:dc:db:c4:2b:67:6e:37:62:3b:
        f9:ff:61:53:3e:73:57:45:d9:2d:47:dc:8b:f0:b7:ef:92:5f:
        e9:f4:d1:dc:06:f7:52:9c:79:8f:57:8a:03:bb:b3:1e:18:d2:
        1b:65:00:c4:81:4e:14:54:ab:36:3a:68:42:89:0a:d5:0f:95:
        c1:21:cb:b2:9d:e0:78:b7:a9:08:b4:08:6f:0c:07:c1:cd:47:
        f9:8d
-----BEGIN CERTIFICATE-----
MIICvDCCAiUCCQCbJ9fo0boJmDANBgkqhkiG9w0BAQQFADCBlTELMAkGA1UEBhMC
REUxETAPBgNVBAgTCFNhYXJsYW5kMRAwDgYDVQQKEwdNUEktU1dTMSIwIAYDVQQL
ExlEaXN0cmlidXRlZCBTeXN0ZW1zIEdyb3VwMRowGAYDVQQDExFBbmRyZWFzIEhh
ZWJlcmxlbjEhMB8GCSqGSIb3DQEJARYSZGVtb2NhQG9jdGFyaW5lLmRlMB4XDTE1
MDQyMDIwNDcxNloXDTE2MDQxOTIwNDcxNlowga4xCzAJBgNVBAYTAkRFMREwDwYD
VQQIEwhTYWFybGFuZDEQMA4GA1UEChMHTVBJLVNXUzEiMCAGA1UECxMZRGlzdHJp
YnV0ZWQgU3lzdGVtcyBHcm91cDExMC8GA1UEAxMoNDYxNTIwNmEzMTY1YzQ5ZDA3
ZDA3NDkxNGU1NGEwNGU2NjQ5NmEzYTEjMCEGCSqGSIb3DQEJARYUbm9kZTA0NDhA
b2N0YXJpbmUuZGUwgZ8wDQYJKoZIhvcNAQEBBQADgY0AMIGJAoGBAK/GIeNjq7B2
ca3sKIcjzKhzIx4n/nn0bN7JS28NglqdMDMtxBAAodUBtFxzHGb7WWqywL5C+X+h
6rrLj7gwIYT1I/Hwvq5hqPzgvUrNIRnj08Z3kpkkurdVmyHmYwUBT8oAHNQu9T4p
sn/uXGY5YLjQmu9ghwhZO9EoKx0MTFVfAgMBAAEwDQYJKoZIhvcNAQEEBQADgYEA
GUQcJVOHbggGFB9UX1UZSIfTGpK4ccXbrauO6wORBy7yJLtT6YHNeKv4V+MN3NvE
K2duN2I7+f9hUz5zV0XZLUfci/C375Jf6fTR3Ab3Upx5j1eKA7uzHhjSG2UAxIFO
FFSrNjpoQokK1Q+VwSHLsp3geLepCLQIbwwHwc1H+Y0=
-----END CERTIFICATE-----
