Certificate:
    Data:
        Version: 1 (0x0)
        Serial Number:
            9b:27:d7:e8:d1:ba:0a:2e
        Signature Algorithm: md5WithRSAEncryption
        Issuer: C=DE, ST=Saarland, O=MPI-SWS, OU=Distributed Systems Group, CN=Andreas Haeberlen/emailAddress=democa@octarine.de
        Validity
            Not Before: Apr 20 20:47:23 2015 GMT
            Not After : Apr 19 20:47:23 2016 GMT
        Subject: C=DE, ST=Saarland, O=MPI-SWS, OU=Distributed Systems Group, CN=ca68e39eb0ff0d1fc4380c425f9757a220a044ff/emailAddress=node0598@octarine.de
        Subject Public Key Info:
            Public Key Algorithm: rsaEncryption
            RSA Public Key: (1024 bit)
                Modulus (1024 bit):
                    00:af:ad:91:64:72:bb:b6:a8:19:83:8d:05:c3:f4:
                    ae:c0:30:61:fc:7b:1f:4a:73:28:f8:a4:9e:34:2b:
                    87:62:9f:45:b6:fb:c7:a1:44:9c:8b:82:1e:16:95:
                    b2:2e:66:63:f8:02:ed:a1:21:7c:27:5c:a4:98:bf:
                    07:ac:18:4c:e7:66:64:a5:2a:e8:49:ef:68:5a:6d:
                    89:72:ae:e1:6d:29:0d:12:25:5d:6f:1f:8c:28:df:
                    dd:e5:f7:14:c3:5e:8a:c5:51:e1:3f:3a:1c:31:b9:
                    92:29:e3:c4:7a:6c:22:cd:ff:07:a9:b0:4e:f8:7a:
                    c9:f9:45:69:e1:e4:36:9a:8d
                Exponent: 65537 (0x10001)
    Signature Algorithm: md5WithRSAEncryption
        ad:3b:06:67:f3:f3:cc:b6:f0:2e:cc:a3:e6:40:25:a3:48:14:
        b1:6f:d9:ef:9b:e9:df:01:33:5e:31:90:2a:77:49:da:6f:55:
        c4:29:dd:d5:30:cd:f0:2f:c2:21:22:c3:c5:d3:2a:e7:61:7a:
        df:2c:b4:ec:e2:a5:0d:da:ad:f7:22:ff:8c:4e:05:6b:fb:28:
        18:60:49:f7:33:6e:76:71:a4:9f:7d:dd:a5:ba:42:21:e5:cf:
        72:84:41:56:69:ea:2f:b8:de:60:06:bb:d1:59:8b:38:cd:9d:
        c3:53:61:b9:d5:bb:2d:ad:69:5c:15:12:5d:a9:12:e5:03:0e:
        aa:28
-----BEGIN CERTIFICATE-----
MIICvDCCAiUCCQCbJ9fo0boKLjANBgkqhkiG9w0BAQQFADCBlTELMAkGA1UEBhMC
REUxETAPBgNVBAgTCFNhYXJsYW5kMRAwDgYDVQQKEwdNUEktU1dTMSIwIAYDVQQL
ExlEaXN0cmlidXRlZCBTeXN0ZW1zIEdyb3VwMRowGAYDVQQDExFBbmRyZWFzIEhh
ZWJlcmxlbjEhMB8GCSqGSIb3DQEJARYSZGVtb2NhQG9jdGFyaW5lLmRlMB4XDTE1
MDQyMDIwNDcyM1oXDTE2MDQxOTIwNDcyM1owga4xCzAJBgNVBAYTAkRFMREwDwYD
VQQIEwhTYWFybGFuZDEQMA4GA1UEChMHTVBJLVNXUzEiMCAGA1UECxMZRGlzdHJp
YnV0ZWQgU3lzdGVtcyBHcm91cDExMC8GA1UEAxMoY2E2OGUzOWViMGZmMGQxZmM0
MzgwYzQyNWY5NzU3YTIyMGEwNDRmZjEjMCEGCSqGSIb3DQEJARYUbm9kZTA1OThA
b2N0YXJpbmUuZGUwgZ8wDQYJKoZIhvcNAQEBBQADgY0AMIGJAoGBAK+tkWRyu7ao
GYONBcP0rsAwYfx7H0pzKPiknjQrh2KfRbb7x6FEnIuCHhaVsi5mY/gC7aEhfCdc
pJi/B6wYTOdmZKUq6EnvaFptiXKu4W0pDRIlXW8fjCjf3eX3FMNeisVR4T86HDG5
kinjxHpsIs3/B6mwTvh6yflFaeHkNpqNAgMBAAEwDQYJKoZIhvcNAQEEBQADgYEA
rTsGZ/PzzLbwLsyj5kAlo0gUsW/Z75vp3wEzXjGQKndJ2m9VxCnd1TDN8C/CISLD
xdMq52F63yy07OKlDdqt9yL/jE4Fa/soGGBJ9zNudnGkn33dpbpCIeXPcoRBVmnq
L7jeYAa70VmLOM2dw1NhudW7La1pXBUSXakS5QMOqig=
-----END CERTIFICATE-----
