Certificate:
    Data:
        Version: 1 (0x0)
        Serial Number:
            9b:27:d7:e8:d1:ba:0a:82
        Signature Algorithm: md5WithRSAEncryption
        Issuer: C=DE, ST=Saarland, O=MPI-SWS, OU=Distributed Systems Group, CN=Andreas Haeberlen/emailAddress=democa@octarine.de
        Validity
            Not Before: Apr 20 20:47:27 2015 GMT
            Not After : Apr 19 20:47:27 2016 GMT
        Subject: C=DE, ST=Saarland, O=MPI-SWS, OU=Distributed Systems Group, CN=822b1da6e772ddd947126d4684321ea91d42bf99/emailAddress=node0682@octarine.de
        Subject Public Key Info:
            Public Key Algorithm: rsaEncryption
            RSA Public Key: (1024 bit)
                Modulus (1024 bit):
                    00:b2:c5:24:1a:ce:74:c8:bf:1f:79:bc:21:4c:0b:
                    70:8e:21:78:e6:cf:4c:ef:e2:76:06:b2:3d:0c:35:
                    e1:65:60:27:20:9e:59:db:86:8b:39:32:83:dc:69:
                    ec:9b:8e:36:95:e8:5c:ca:22:1d:57:5a:78:0d:ac:
                    8c:41:c4:38:52:59:f9:43:78:04:4c:62:35:13:8f:
                    66:b4:df:c3:ef:2e:ba:c3:11:23:21:11:31:f0:cc:
                    50:f1:31:82:b4:1a:d2:e7:49:aa:ad:4e:02:f7:50:
                    ca:78:30:cf:ab:a8:d0:d0:f5:a2:4a:f2:59:f6:2c:
                    4d:fb:60:1e:75:47:6e:13:c7
                Exponent: 65537 (0x10001)
    Signature Algorithm: md5WithRSAEncryption
        22:38:00:c4:0b:79:56:4f:c5:ac:7b:c7:b2:52:50:69:2b:47:
        c9:40:7b:32:ed:2b:e7:cd:bc:39:24:5a:09:92:19:e0:d4:fb:
        e2:b6:1a:24:fa:89:75:6a:d0:8a:69:14:77:bf:fd:e7:a5:e6:
        dd:4c:ef:e0:a6:93:37:17:fd:1e:cf:7a:9e:e7:11:2c:0e:4c:
        0f:bc:f2:11:ed:16:57:97:b4:db:31:56:e3:54:07:ae:03:46:
        fe:be:20:a1:46:3d:33:13:a5:55:e4:97:73:71:06:94:15:8d:
        ec:da:b6:56:b0:57:45:86:9c:7a:38:58:58:33:55:c2:38:50:
        ad:b2
-----BEGIN CERTIFICATE-----
MIICvDCCAiUCCQCbJ9fo0boKgjANBgkqhkiG9w0BAQQFADCBlTELMAkGA1UEBhMC
REUxETAPBgNVBAgTCFNhYXJsYW5kMRAwDgYDVQQKEwdNUEktU1dTMSIwIAYDVQQL
ExlEaXN0cmlidXRlZCBTeXN0ZW1zIEdyb3VwMRowGAYDVQQDExFBbmRyZWFzIEhh
ZWJlcmxlbjEhMB8GCSqGSIb3DQEJARYSZGVtb2NhQG9jdGFyaW5lLmRlMB4XDTE1
MDQyMDIwNDcyN1oXDTE2MDQxOTIwNDcyN1owga4xCzAJBgNVBAYTAkRFMREwDwYD
VQQIEwhTYWFybGFuZDEQMA4GA1UEChMHTVBJLVNXUzEiMCAGA1UECxMZRGlzdHJp
YnV0ZWQgU3lzdGVtcyBHcm91cDExMC8GA1UEAxMoODIyYjFkYTZlNzcyZGRkOTQ3
MTI2ZDQ2ODQzMjFlYTkxZDQyYmY5OTEjMCEGCSqGSIb3DQEJARYUbm9kZTA2ODJA
b2N0YXJpbmUuZGUwgZ8wDQYJKoZIhvcNAQEBBQADgY0AMIGJAoGBALLFJBrOdMi/
H3m8IUwLcI4heObPTO/idgayPQw14WVgJyCeWduGizkyg9xp7JuONpXoXMoiHVda
eA2sjEHEOFJZ+UN4BExiNROPZrTfw+8uusMRIyERMfDMUPExgrQa0udJqq1OAvdQ
yngwz6uo0ND1okryWfYsTftgHnVHbhPHAgMBAAEwDQYJKoZIhvcNAQEEBQADgYEA
IjgAxAt5Vk/FrHvHslJQaStHyUB7Mu0r5828OSRaCZIZ4NT74rYaJPqJdWrQimkU
d7/956Xm3Uzv4KaTNxf9Hs96nucRLA5MD7zyEe0WV5e02zFW41QHrgNG/r4goUY9
MxOlVeSXc3EGlBWN7Nq2VrBXRYacejhYWDNVwjhQrbI=
-----END CERTIFICATE-----
