Certificate:
    Data:
        Version: 1 (0x0)
        Serial Number:
            9b:27:d7:e8:d1:ba:0b:52
        Signature Algorithm: md5WithRSAEncryption
        Issuer: C=DE, ST=Saarland, O=MPI-SWS, OU=Distributed Systems Group, CN=Andreas Haeberlen/emailAddress=democa@octarine.de
        Validity
            Not Before: Apr 20 20:47:36 2015 GMT
            Not After : Apr 19 20:47:36 2016 GMT
        Subject: C=DE, ST=Saarland, O=MPI-SWS, OU=Distributed Systems Group, CN=2ed6556ef807c4fbdf739564afb33055f2c48227/emailAddress=node0890@octarine.de
        Subject Public Key Info:
            Public Key Algorithm: rsaEncryption
            RSA Public Key: (1024 bit)
                Modulus (1024 bit):
                    00:c7:b2:a1:07:f0:b8:ea:d9:92:08:47:e4:b5:9c:
                    25:4e:fc:ed:5a:f5:d4:68:4a:29:e2:f4:08:fe:27:
                    01:86:04:d2:57:6c:6d:ff:20:9d:3c:4c:60:2c:25:
                    ae:a9:de:67:ca:63:5c:42:09:d2:28:ab:0e:6a:84:
                    41:ae:98:2b:b0:3e:9f:d6:c6:e2:8c:7a:20:61:4c:
                    70:1f:50:a0:d6:40:87:4b:90:d8:fc:ee:9f:de:cf:
                    5a:67:0d:01:0c:43:1d:16:98:8f:f8:9a:aa:63:38:
                    d5:b7:16:25:30:23:70:01:47:34:ac:fc:ad:45:45:
                    3e:84:9d:cb:a6:d1:26:3e:db
                Exponent: 65537 (0x10001)
    Signature Algorithm: md5WithRSAEncryption
        13:48:53:45:b3:4f:03:c7:01:b5:41:16:ba:aa:ca:1e:16:51:
        de:5f:3e:95:d0:75:7a:d5:10:8d:8e:5f:91:59:b6:01:85:ba:
        1f:c9:3a:bf:c4:4e:f3:25:42:a9:80:30:81:1f:07:59:5a:81:
        6c:cd:c3:12:d3:3a:c1:6b:b7:49:ac:e4:17:24:76:97:ef:a5:
        67:34:c0:15:2d:48:2d:35:93:93:89:4a:60:6d:59:ce:b7:78:
        db:80:3d:4c:26:63:49:78:0b:d4:9c:a3:4b:b4:93:81:7b:ad:
        0c:14:d2:94:bb:36:a3:6a:09:b4:60:30:3c:79:ce:ab:7f:cd:
        e4:d4
-----BEGIN CERTIFICATE-----
MIICvDCCAiUCCQCbJ9fo0boLUjANBgkqhkiG9w0BAQQFADCBlTELMAkGA1UEBhMC
REUxETAPBgNVBAgTCFNhYXJsYW5kMRAwDgYDVQQKEwdNUEktU1dTMSIwIAYDVQQL
ExlEaXN0cmlidXRlZCBTeXN0ZW1zIEdyb3VwMRowGAYDVQQDExFBbmRyZWFzIEhh
ZWJlcmxlbjEhMB8GCSqGSIb3DQEJARYSZGVtb2NhQG9jdGFyaW5lLmRlMB4XDTE1
MDQyMDIwNDczNloXDTE2MDQxOTIwNDczNlowga4xCzAJBgNVBAYTAkRFMREwDwYD
VQQIEwhTYWFybGFuZDEQMA4GA1UEChMHTVBJLVNXUzEiMCAGA1UECxMZRGlzdHJp
YnV0ZWQgU3lzdGVtcyBHcm91cDExMC8GA1UEAxMoMmVkNjU1NmVmODA3YzRmYmRm
NzM5NTY0YWZiMzMwNTVmMmM0ODIyNzEjMCEGCSqGSIb3DQEJARYUbm9kZTA4OTBA
b2N0YXJpbmUuZGUwgZ8wDQYJKoZIhvcNAQEBBQADgY0AMIGJAoGBAMeyoQfwuOrZ
kghH5LWcJU787Vr11GhKKeL0CP4nAYYE0ldsbf8gnTxMYCwlrqneZ8pjXEIJ0iir
DmqEQa6YK7A+n9bG4ox6IGFMcB9QoNZAh0uQ2Pzun97PWmcNAQxDHRaYj/iaqmM4
1bcWJTAjcAFHNKz8rUVFPoSdy6bRJj7bAgMBAAEwDQYJKoZIhvcNAQEEBQADgYEA
E0hTRbNPA8cBtUEWuqrKHhZR3l8+ldB1etUQjY5fkVm2AYW6H8k6v8RO8yVCqYAw
gR8HWVqBbM3DEtM6wWu3SazkFyR2l++lZzTAFS1ILTWTk4lKYG1Zzrd424A9TCZj
SXgL1JyjS7STgXutDBTSlLs2o2oJtGAwPHnOq3/N5NQ=
-----END CERTIFICATE-----
