Certificate:
    Data:
        Version: 1 (0x0)
        Serial Number:
            9b:27:d7:e8:d1:ba:08:89
        Signature Algorithm: md5WithRSAEncryption
        Issuer: C=DE, ST=Saarland, O=MPI-SWS, OU=Distributed Systems Group, CN=Andreas Haeberlen/emailAddress=democa@octarine.de
        Validity
            Not Before: Apr 20 20:47:04 2015 GMT
            Not After : Apr 19 20:47:04 2016 GMT
        Subject: C=DE, ST=Saarland, O=MPI-SWS, OU=Distributed Systems Group, CN=ceb9571b8808d10e6c5cccba8e3d51a1f5b4ddf6/emailAddress=node0177@octarine.de
        Subject Public Key Info:
            Public Key Algorithm: rsaEncryption
            RSA Public Key: (1024 bit)
                Modulus (1024 bit):
                    00:e2:b6:c9:ec:72:85:04:59:47:0c:17:2f:42:bf:
                    b5:63:e9:4e:a6:7b:00:b4:eb:10:bf:57:a4:5c:42:
                    18:0f:f6:00:51:63:9f:01:cb:5e:fe:3a:b0:58:31:
                    d4:a9:7e:9b:11:da:f7:f5:08:c6:1b:ea:e3:92:f6:
                    0f:71:cc:e7:38:53:01:0a:39:7a:f2:20:49:15:75:
                    44:f6:41:ee:ab:ee:c2:8f:7f:32:e7:df:14:59:e1:
                    f7:55:81:20:92:d7:64:7f:b7:51:b4:f1:c7:a3:a5:
                    5c:9e:5e:1b:78:6d:c7:99:98:03:9c:eb:00:b7:fd:
                    4c:cc:d8:9d:56:13:d7:e6:b7
                Exponent: 65537 (0x10001)
    Signature Algorithm: md5WithRSAEncryption
        1d:65:8c:2c:66:5d:77:ac:94:20:77:77:77:0b:4c:ac:23:f7:
        fa:a1:16:91:bb:59:80:80:7b:a5:3e:6d:5c:12:85:eb:a1:d2:
        6a:50:01:35:04:ee:3b:12:6f:2c:d6:38:cb:80:25:af:b8:53:
        a8:f1:f5:33:60:cc:29:fa:df:9c:64:8f:bb:b2:3e:b4:4c:7b:
        e9:47:5e:29:0d:33:93:36:37:c1:9e:9b:24:20:2a:86:de:31:
        40:f3:1b:f2:b5:5b:4c:d8:f8:6d:82:be:67:fd:4e:66:24:46:
        c5:ef:7a:c2:86:e6:18:98:42:b5:cf:5c:12:98:42:1f:71:e0:
        47:73
-----BEGIN CERTIFICATE-----
MIICvDCCAiUCCQCbJ9fo0boIiTANBgkqhkiG9w0BAQQFADCBlTELMAkGA1UEBhMC
REUxETAPBgNVBAgTCFNhYXJsYW5kMRAwDgYDVQQKEwdNUEktU1dTMSIwIAYDVQQL
ExlEaXN0cmlidXRlZCBTeXN0ZW1zIEdyb3VwMRowGAYDVQQDExFBbmRyZWFzIEhh
ZWJlcmxlbjEhMB8GCSqGSIb3DQEJARYSZGVtb2NhQG9jdGFyaW5lLmRlMB4XDTE1
MDQyMDIwNDcwNFoXDTE2MDQxOTIwNDcwNFowga4xCzAJBgNVBAYTAkRFMREwDwYD
VQQIEwhTYWFybGFuZDEQMA4GA1UEChMHTVBJLVNXUzEiMCAGA1UECxMZRGlzdHJp
YnV0ZWQgU3lzdGVtcyBHcm91cDExMC8GA1UEAxMoY2ViOTU3MWI4ODA4ZDEwZTZj
NWNjY2JhOGUzZDUxYTFmNWI0ZGRmNjEjMCEGCSqGSIb3DQEJARYUbm9kZTAxNzdA
b2N0YXJpbmUuZGUwgZ8wDQYJKoZIhvcNAQEBBQADgY0AMIGJAoGBAOK2yexyhQRZ
RwwXL0K/tWPpTqZ7ALTrEL9XpFxCGA/2AFFjnwHLXv46sFgx1Kl+mxHa9/UIxhvq
45L2D3HM5zhTAQo5evIgSRV1RPZB7qvuwo9/MuffFFnh91WBIJLXZH+3UbTxx6Ol
XJ5eG3htx5mYA5zrALf9TMzYnVYT1+a3AgMBAAEwDQYJKoZIhvcNAQEEBQADgYEA
HWWMLGZdd6yUIHd3dwtMrCP3+qEWkbtZgIB7pT5tXBKF66HSalABNQTuOxJvLNY4
y4Alr7hTqPH1M2DMKfrfnGSPu7I+tEx76UdeKQ0zkzY3wZ6bJCAqht4xQPMb8rVb
TNj4bYK+Z/1OZiRGxe96wobmGJhCtc9cEphCH3HgR3M=
-----END CERTIFICATE-----
