Certificate:
    Data:
        Version: 1 (0x0)
        Serial Number:
            9b:27:d7:e8:d1:ba:09:76
        Signature Algorithm: md5WithRSAEncryption
        Issuer: C=DE, ST=Saarland, O=MPI-SWS, OU=Distributed Systems Group, CN=Andreas Haeberlen/emailAddress=democa@octarine.de
        Validity
            Not Before: Apr 20 20:47:15 2015 GMT
            Not After : Apr 19 20:47:15 2016 GMT
        Subject: C=DE, ST=Saarland, O=MPI-SWS, OU=Distributed Systems Group, CN=54f3324c00848056320220f04f60cbd1fc53ea0e/emailAddress=node0414@octarine.de
        Subject Public Key Info:
            Public Key Algorithm: rsaEncryption
            RSA Public Key: (1024 bit)
                Modulus (1024 bit):
                    00:bb:12:f9:3a:dd:ca:26:39:10:4b:67:d8:75:1f:
                    21:5f:0d:51:3d:ba:60:f8:d2:36:6d:c6:3e:45:0c:
                    ab:c8:bc:48:fb:fe:11:db:16:94:8d:27:9b:28:2c:
                    74:3b:b8:64:95:78:42:c2:55:6d:0e:81:9e:cb:1d:
                    c6:4e:22:4a:86:39:aa:ec:99:ed:35:a4:35:19:91:
                    f2:7c:f3:95:cc:57:5d:69:9c:f5:e9:b5:1d:80:4a:
                    c3:92:d0:4f:d8:93:5b:fe:37:05:7c:bd:e9:27:07:
                    dc:cb:bb:b4:c4:20:06:56:0f:38:a1:8f:7c:c2:1b:
                    7d:78:5e:91:e7:a4:17:51:df
                Exponent: 65537 (0x10001)
    Signature Algorithm: md5WithRSAEncryption
        13:52:5f:49:91:a2:ee:2c:ec:c2:68:0d:70:b5:da:5b:9f:a1:
        3c:a8:86:92:99:9d:94:89:a9:3a:98:19:dd:e2:c9:bd:54:82:
        5f:a2:02:68:20:8c:35:46:e4:ee:3b:5a:b8:92:1d:c4:c3:b3:
        ce:30:c8:d1:d6:ac:9d:75:75:c6:9a:ca:df:88:8a:5b:e8:5e:
        77:a7:f8:03:92:b6:a0:fa:0a:b8:68:07:db:25:93:6d:78:49:
        55:e7:3b:02:4a:3c:c3:a2:e9:57:6d:9e:3a:ab:48:44:f4:b8:
        24:e9:37:ea:d3:30:79:6f:7b:41:35:f4:49:71:43:a4:05:71:
        59:ac
-----BEGIN CERTIFICATE-----
MIICvDCCAiUCCQCbJ9fo0boJdjANBgkqhkiG9w0BAQQFADCBlTELMAkGA1UEBhMC
REUxETAPBgNVBAgTCFNhYXJsYW5kMRAwDgYDVQQKEwdNUEktU1dTMSIwIAYDVQQL
ExlEaXN0cmlidXRlZCBTeXN0ZW1zIEdyb3VwMRowGAYDVQQDExFBbmRyZWFzIEhh
ZWJlcmxlbjEhMB8GCSqGSIb3DQEJARYSZGVtb2NhQG9jdGFyaW5lLmRlMB4XDTE1
MDQyMDIwNDcxNVoXDTE2MDQxOTIwNDcxNVowga4xCzAJBgNVBAYTAkRFMREwDwYD
VQQIEwhTYWFybGFuZDEQMA4GA1UEChMHTVBJLVNXUzEiMCAGA1UECxMZRGlzdHJp
YnV0ZWQgU3lzdGVtcyBHcm91cDExMC8GA1UEAxMoNTRmMzMyNGMwMDg0ODA1NjMy
MDIyMGYwNGY2MGNiZDFmYzUzZWEwZTEjMCEGCSqGSIb3DQEJARYUbm9kZTA0MTRA
b2N0YXJpbmUuZGUwgZ8wDQYJKoZIhvcNAQEBBQADgY0AMIGJAoGBALsS+TrdyiY5
EEtn2HUfIV8NUT26YPjSNm3GPkUMq8i8SPv+EdsWlI0nmygsdDu4ZJV4QsJVbQ6B
nssdxk4iSoY5quyZ7TWkNRmR8nzzlcxXXWmc9em1HYBKw5LQT9iTW/43BXy96ScH
3Mu7tMQgBlYPOKGPfMIbfXhekeekF1HfAgMBAAEwDQYJKoZIhvcNAQEEBQADgYEA
E1JfSZGi7izswmgNcLXaW5+hPKiGkpmdlImpOpgZ3eLJvVSCX6ICaCCMNUbk7jta
uJIdxMOzzjDI0dasnXV1xprK34iKW+hed6f4A5K2oPoKuGgH2yWTbXhJVec7Ako8
w6LpV22eOqtIRPS4JOk36tMweW97QTX0SXFDpAVxWaw=
-----END CERTIFICATE-----
