Certificate:
    Data:
        Version: 1 (0x0)
        Serial Number:
            9b:27:d7:e8:d1:ba:09:8e
        Signature Algorithm: md5WithRSAEncryption
        Issuer: C=DE, ST=Saarland, O=MPI-SWS, OU=Distributed Systems Group, CN=Andreas Haeberlen/emailAddress=democa@octarine.de
        Validity
            Not Before: Apr 20 20:47:16 2015 GMT
            Not After : Apr 19 20:47:16 2016 GMT
        Subject: C=DE, ST=Saarland, O=MPI-SWS, OU=Distributed Systems Group, CN=d922aedbe10e210fc01049b17dc187a60d9bb66a/emailAddress=node0438@octarine.de
        Subject Public Key Info:
            Public Key Algorithm: rsaEncryption
            RSA Public Key: (1024 bit)
                Modulus (1024 bit):
                    00:ae:fc:4d:86:30:59:df:c1:50:fa:63:ec:d8:d7:
                    dc:d7:03:76:11:b5:8e:c3:1c:b8:49:bc:a8:78:c1:
                    3c:b6:d0:9a:81:3d:69:5e:a2:27:17:1d:cd:34:8c:
                    54:56:5c:3b:dd:96:33:a9:94:c5:56:35:cc:dd:31:
                    56:75:f0:43:06:03:06:c4:95:41:49:d7:9f:33:bf:
                    ea:0b:d3:e7:3f:5d:89:dd:be:c7:0f:8d:7a:6a:1e:
                    52:cf:ff:28:93:4f:34:eb:89:cb:b3:86:13:67:f7:
                    7a:6c:8c:19:08:3f:9d:96:8c:0c:2b:53:94:83:0f:
                    a4:87:46:75:e1:94:6a:d4:2b
                Exponent: 65537 (0x10001)
    Signature Algorithm: md5WithRSAEncryption
        08:fa:1d:e8:c5:04:c2:35:9f:d3:26:2d:a9:6e:41:17:40:68:
        fe:59:fd:af:6b:ed:16:a6:07:e4:23:31:a4:51:59:61:0a:3f:
        65:51:18:84:90:09:0c:76:c9:80:39:3b:51:af:cb:5d:fe:67:
        c9:fb:5d:95:8e:6f:28:a9:96:01:c8:4d:dd:7c:a4:1d:1b:51:
        7e:a9:10:0f:5c:48:f2:4e:c8:c7:60:1f:a6:35:bf:7f:c3:34:
        7e:ff:3a:0d:d9:4e:da:d1:17:e9:3e:52:43:9b:f5:bd:8a:4e:
        15:fc:47:5f:34:71:9b:3b:56:87:62:0e:8a:a1:76:7a:eb:e8:
        ce:f8
-----BEGIN CERTIFICATE-----
MIICvDCCAiUCCQCbJ9fo0boJjjANBgkqhkiG9w0BAQQFADCBlTELMAkGA1UEBhMC
REUxETAPBgNVBAgTCFNhYXJsYW5kMRAwDgYDVQQKEwdNUEktU1dTMSIwIAYDVQQL
ExlEaXN0cmlidXRlZCBTeXN0ZW1zIEdyb3VwMRowGAYDVQQDExFBbmRyZWFzIEhh
ZWJlcmxlbjEhMB8GCSqGSIb3DQEJARYSZGVtb2NhQG9jdGFyaW5lLmRlMB4XDTE1
MDQyMDIwNDcxNloXDTE2MDQxOTIwNDcxNlowga4xCzAJBgNVBAYTAkRFMREwDwYD
VQQIEwhTYWFybGFuZDEQMA4GA1UEChMHTVBJLVNXUzEiMCAGA1UECxMZRGlzdHJp
YnV0ZWQgU3lzdGVtcyBHcm91cDExMC8GA1UEAxMoZDkyMmFlZGJlMTBlMjEwZmMw
MTA0OWIxN2RjMTg3YTYwZDliYjY2YTEjMCEGCSqGSIb3DQEJARYUbm9kZTA0MzhA
b2N0YXJpbmUuZGUwgZ8wDQYJKoZIhvcNAQEBBQADgY0AMIGJAoGBAK78TYYwWd/B
UPpj7NjX3NcDdhG1jsMcuEm8qHjBPLbQmoE9aV6iJxcdzTSMVFZcO92WM6mUxVY1
zN0xVnXwQwYDBsSVQUnXnzO/6gvT5z9did2+xw+NemoeUs//KJNPNOuJy7OGE2f3
emyMGQg/nZaMDCtTlIMPpIdGdeGUatQrAgMBAAEwDQYJKoZIhvcNAQEEBQADgYEA
CPod6MUEwjWf0yYtqW5BF0Bo/ln9r2vtFqYH5CMxpFFZYQo/ZVEYhJAJDHbJgDk7
Ua/LXf5nyftdlY5vKKmWAchN3XykHRtRfqkQD1xI8k7Ix2AfpjW/f8M0fv86DdlO
2tEX6T5SQ5v1vYpOFfxHXzRxmztWh2IOiqF2euvozvg=
-----END CERTIFICATE-----
