Certificate:
    Data:
        Version: 1 (0x0)
        Serial Number:
            9b:27:d7:e8:d1:ba:08:e4
        Signature Algorithm: md5WithRSAEncryption
        Issuer: C=DE, ST=Saarland, O=MPI-SWS, OU=Distributed Systems Group, CN=Andreas Haeberlen/emailAddress=democa@octarine.de
        Validity
            Not Before: Apr 20 20:47:08 2015 GMT
            Not After : Apr 19 20:47:08 2016 GMT
        Subject: C=DE, ST=Saarland, O=MPI-SWS, OU=Distributed Systems Group, CN=f44ed0366647f7e4a2f64b64496ce0fd53c24f8b/emailAddress=node0268@octarine.de
        Subject Public Key Info:
            Public Key Algorithm: rsaEncryption
            RSA Public Key: (1024 bit)
                Modulus (1024 bit):
                    00:b5:ff:a9:a6:76:35:47:8c:a8:46:ad:67:e7:f2:
                    77:88:2c:82:9b:0a:43:88:65:5a:98:69:83:df:00:
                    6a:84:9c:db:07:6b:70:cb:95:02:3e:ad:85:9d:7d:
                    54:ec:2d:88:65:8f:f7:4f:b8:11:83:25:b2:96:2a:
                    dc:bc:d8:52:c1:d7:67:bd:56:95:69:7f:8a:7c:be:
                    54:23:41:ec:30:95:23:7d:27:30:24:7a:6b:58:4a:
                    ee:f8:ad:f2:76:ef:83:b2:ae:c6:fe:55:43:9e:c9:
                    79:85:2c:41:99:5c:08:15:d3:8c:a4:f1:a6:80:e6:
                    27:e5:23:2f:de:c5:e3:0d:d3
                Exponent: 65537 (0x10001)
    Signature Algorithm: md5WithRSAEncryption
        cc:22:91:d2:4a:37:13:a9:b3:cf:8b:06:99:7a:b2:fc:e5:1f:
        2e:ef:59:28:31:91:c6:70:53:9e:b2:9b:9c:5a:2b:0c:df:b7:
        c1:dd:38:23:6b:27:45:c5:ee:1f:57:ea:8b:f1:8f:bf:38:17:
        29:14:c3:a1:31:35:64:52:c1:f6:c7:1f:b2:b8:65:da:d0:4c:
        5f:15:2e:33:7a:cb:cf:cd:26:7b:f7:33:a0:ed:04:84:f5:0c:
        79:34:ec:66:c9:36:2c:a9:c0:e0:48:5d:3c:e5:79:8b:17:9b:
        ef:79:37:28:d2:30:8c:9d:eb:74:d8:b1:43:f4:a4:ae:81:13:
        6d:58
-----BEGIN CERTIFICATE-----
MIICvDCCAiUCCQCbJ9fo0boI5DANBgkqhkiG9w0BAQQFADCBlTELMAkGA1UEBhMC
REUxETAPBgNVBAgTCFNhYXJsYW5kMRAwDgYDVQQKEwdNUEktU1dTMSIwIAYDVQQL
ExlEaXN0cmlidXRlZCBTeXN0ZW1zIEdyb3VwMRowGAYDVQQDExFBbmRyZWFzIEhh
ZWJlcmxlbjEhMB8GCSqGSIb3DQEJARYSZGVtb2NhQG9jdGFyaW5lLmRlMB4XDTE1
MDQyMDIwNDcwOFoXDTE2MDQxOTIwNDcwOFowga4xCzAJBgNVBAYTAkRFMREwDwYD
VQQIEwhTYWFybGFuZDEQMA4GA1UEChMHTVBJLVNXUzEiMCAGA1UECxMZRGlzdHJp
YnV0ZWQgU3lzdGVtcyBHcm91cDExMC8GA1UEAxMoZjQ0ZWQwMzY2NjQ3ZjdlNGEy
ZjY0YjY0NDk2Y2UwZmQ1M2MyNGY4YjEjMCEGCSqGSIb3DQEJARYUbm9kZTAyNjhA
b2N0YXJpbmUuZGUwgZ8wDQYJKoZIhvcNAQEBBQADgY0AMIGJAoGBALX/qaZ2NUeM
qEatZ+fyd4gsgpsKQ4hlWphpg98AaoSc2wdrcMuVAj6thZ19VOwtiGWP90+4EYMl
spYq3LzYUsHXZ71WlWl/iny+VCNB7DCVI30nMCR6a1hK7vit8nbvg7Kuxv5VQ57J
eYUsQZlcCBXTjKTxpoDmJ+UjL97F4w3TAgMBAAEwDQYJKoZIhvcNAQEEBQADgYEA
zCKR0ko3E6mzz4sGmXqy/OUfLu9ZKDGRxnBTnrKbnForDN+3wd04I2snRcXuH1fq
i/GPvzgXKRTDoTE1ZFLB9scfsrhl2tBMXxUuM3rLz80me/czoO0EhPUMeTTsZsk2
LKnA4EhdPOV5ixeb73k3KNIwjJ3rdNixQ/SkroETbVg=
-----END CERTIFICATE-----
