Certificate:
    Data:
        Version: 1 (0x0)
        Serial Number:
            9b:27:d7:e8:d1:ba:0b:58
        Signature Algorithm: md5WithRSAEncryption
        Issuer: C=DE, ST=Saarland, O=MPI-SWS, OU=Distributed Systems Group, CN=Andreas Haeberlen/emailAddress=democa@octarine.de
        Validity
            Not Before: Apr 20 20:47:37 2015 GMT
            Not After : Apr 19 20:47:37 2016 GMT
        Subject: C=DE, ST=Saarland, O=MPI-SWS, OU=Distributed Systems Group, CN=c74a574e2857427cd033c5b80ca850817cbd40c6/emailAddress=node0896@octarine.de
        Subject Public Key Info:
            Public Key Algorithm: rsaEncryption
            RSA Public Key: (1024 bit)
                Modulus (1024 bit):
                    00:ad:66:74:cb:e1:de:5a:bc:04:ac:a9:79:dd:50:
                    18:31:f5:1c:f5:54:52:36:4a:ba:24:7b:1f:13:3b:
                    d2:3e:9a:e6:3d:87:e4:bf:1a:da:cf:7c:a6:0f:0e:
                    65:0e:9e:61:5e:27:19:3e:81:ca:8f:0d:ad:d9:10:
                    6c:04:16:58:83:0a:f9:76:13:35:c4:da:13:0e:65:
                    bf:a5:de:56:ef:dc:1a:3e:3e:1d:af:81:ce:96:31:
                    38:3d:70:e9:e4:64:cf:2c:e5:05:5f:53:a5:d9:7b:
                    13:d6:c7:a2:0f:32:1d:6e:4f:d4:6a:ae:9b:ca:f4:
                    15:28:e7:89:9c:ca:a2:d8:15
                Exponent: 65537 (0x10001)
    Signature Algorithm: md5WithRSAEncryption
        b2:78:0d:4a:f2:97:03:48:c1:c6:99:3b:5d:c3:f4:26:9f:19:
        a5:8f:12:30:f1:9d:d2:97:49:bd:1d:11:85:94:3c:a2:fc:eb:
        e5:b9:36:0e:a7:f2:57:0a:47:c9:04:4f:0e:e3:d5:9e:82:7d:
        83:f9:1b:33:9d:ee:29:ef:03:25:76:c1:9f:a7:8c:ab:aa:2f:
        88:b2:f4:d7:4c:a8:91:62:43:9e:51:52:fb:48:8b:70:b6:a0:
        65:08:60:bd:2e:29:91:0d:b1:cc:ab:08:0f:66:08:f2:6f:86:
        5b:5f:39:62:45:fb:a9:39:de:24:d0:81:54:25:65:79:54:32:
        91:c2
-----BEGIN CERTIFICATE-----
MIICvDCCAiUCCQCbJ9fo0boLWDANBgkqhkiG9w0BAQQFADCBlTELMAkGA1UEBhMC
REUxETAPBgNVBAgTCFNhYXJsYW5kMRAwDgYDVQQKEwdNUEktU1dTMSIwIAYDVQQL
ExlEaXN0cmlidXRlZCBTeXN0ZW1zIEdyb3VwMRowGAYDVQQDExFBbmRyZWFzIEhh
ZWJlcmxlbjEhMB8GCSqGSIb3DQEJARYSZGVtb2NhQG9jdGFyaW5lLmRlMB4XDTE1
MDQyMDIwNDczN1oXDTE2MDQxOTIwNDczN1owga4xCzAJBgNVBAYTAkRFMREwDwYD
VQQIEwhTYWFybGFuZDEQMA4GA1UEChMHTVBJLVNXUzEiMCAGA1UECxMZRGlzdHJp
YnV0ZWQgU3lzdGVtcyBHcm91cDExMC8GA1UEAxMoYzc0YTU3NGUyODU3NDI3Y2Qw
MzNjNWI4MGNhODUwODE3Y2JkNDBjNjEjMCEGCSqGSIb3DQEJARYUbm9kZTA4OTZA
b2N0YXJpbmUuZGUwgZ8wDQYJKoZIhvcNAQEBBQADgY0AMIGJAoGBAK1mdMvh3lq8
BKyped1QGDH1HPVUUjZKuiR7HxM70j6a5j2H5L8a2s98pg8OZQ6eYV4nGT6Byo8N
rdkQbAQWWIMK+XYTNcTaEw5lv6XeVu/cGj4+Ha+BzpYxOD1w6eRkzyzlBV9Tpdl7
E9bHog8yHW5P1Gqum8r0FSjniZzKotgVAgMBAAEwDQYJKoZIhvcNAQEEBQADgYEA
sngNSvKXA0jBxpk7XcP0Jp8ZpY8SMPGd0pdJvR0RhZQ8ovzr5bk2DqfyVwpHyQRP
DuPVnoJ9g/kbM53uKe8DJXbBn6eMq6oviLL010yokWJDnlFS+0iLcLagZQhgvS4p
kQ2xzKsID2YI8m+GW185YkX7qTneJNCBVCVleVQykcI=
-----END CERTIFICATE-----
