Certificate:
    Data:
        Version: 1 (0x0)
        Serial Number:
            9b:27:d7:e8:d1:ba:09:f4
        Signature Algorithm: md5WithRSAEncryption
        Issuer: C=DE, ST=Saarland, O=MPI-SWS, OU=Distributed Systems Group, CN=Andreas Haeberlen/emailAddress=democa@octarine.de
        Validity
            Not Before: Apr 20 20:47:20 2015 GMT
            Not After : Apr 19 20:47:20 2016 GMT
        Subject: C=DE, ST=Saarland, O=MPI-SWS, OU=Distributed Systems Group, CN=13fa8234a22d633f2cf74a720796e33f62ae4e2e/emailAddress=node0540@octarine.de
        Subject Public Key Info:
            Public Key Algorithm: rsaEncryption
            RSA Public Key: (1024 bit)
                Modulus (1024 bit):
                    00:9a:4a:3c:a3:51:49:b4:e2:47:22:13:17:e2:49:
                    68:19:00:7c:3d:35:5c:3e:36:71:44:d8:5b:4a:0d:
                    f1:c9:6e:6f:59:4c:e2:59:cc:b2:37:b1:89:a6:ff:
                    63:ee:d1:e7:8e:ea:36:5d:37:ee:27:0b:22:46:dc:
                    ab:00:5d:15:24:b9:d8:97:37:71:cd:3b:d9:d5:0b:
                    cb:96:9e:51:a1:ec:79:7c:9c:46:41:12:49:e3:db:
                    5d:75:35:99:b2:59:32:a7:d9:25:d2:3a:72:4f:83:
                    0f:56:b2:95:95:a9:5c:d8:eb:69:3a:b6:e9:98:21:
                    ba:dc:a0:7e:74:5a:a3:77:7f
                Exponent: 65537 (0x10001)
    Signature Algorithm: md5WithRSAEncryption
        82:93:43:28:10:eb:94:e9:0d:20:e2:42:b7:5b:0b:8b:ed:03:
        0d:5f:61:b9:1f:32:31:d5:d6:f2:2b:11:b4:bd:43:b8:71:26:
        5f:fb:bb:da:d8:bc:92:2d:d4:85:bd:91:49:ed:95:72:36:a2:
        2d:2c:63:49:d7:a3:99:ca:ff:76:97:b3:ba:49:4d:aa:ff:39:
        75:44:62:07:ee:75:13:21:52:7a:2f:48:97:54:bc:a3:f6:b6:
        10:31:08:fa:b6:d0:8f:e0:79:20:3e:28:7a:71:5e:5c:ce:2d:
        e9:66:ce:66:c4:b3:18:17:da:1e:55:c5:0d:66:63:82:bc:42:
        70:e3
-----BEGIN CERTIFICATE-----
MIICvDCCAiUCCQCbJ9fo0boJ9DANBgkqhkiG9w0BAQQFADCBlTELMAkGA1UEBhMC
REUxETAPBgNVBAgTCFNhYXJsYW5kMRAwDgYDVQQKEwdNUEktU1dTMSIwIAYDVQQL
ExlEaXN0cmlidXRlZCBTeXN0ZW1zIEdyb3VwMRowGAYDVQQDExFBbmRyZWFzIEhh
ZWJlcmxlbjEhMB8GCSqGSIb3DQEJARYSZGVtb2NhQG9jdGFyaW5lLmRlMB4XDTE1
MDQyMDIwNDcyMFoXDTE2MDQxOTIwNDcyMFowga4xCzAJBgNVBAYTAkRFMREwDwYD
VQQIEwhTYWFybGFuZDEQMA4GA1UEChMHTVBJLVNXUzEiMCAGA1UECxMZRGlzdHJp
YnV0ZWQgU3lzdGVtcyBHcm91cDExMC8GA1UEAxMoMTNmYTgyMzRhMjJkNjMzZjJj
Zjc0YTcyMDc5NmUzM2Y2MmFlNGUyZTEjMCEGCSqGSIb3DQEJARYUbm9kZTA1NDBA
b2N0YXJpbmUuZGUwgZ8wDQYJKoZIhvcNAQEBBQADgY0AMIGJAoGBAJpKPKNRSbTi
RyITF+JJaBkAfD01XD42cUTYW0oN8club1lM4lnMsjexiab/Y+7R547qNl037icL
IkbcqwBdFSS52Jc3cc072dULy5aeUaHseXycRkESSePbXXU1mbJZMqfZJdI6ck+D
D1aylZWpXNjraTq26ZghutygfnRao3d/AgMBAAEwDQYJKoZIhvcNAQEEBQADgYEA
gpNDKBDrlOkNIOJCt1sLi+0DDV9huR8yMdXW8isRtL1DuHEmX/u72ti8ki3Uhb2R
Se2VcjaiLSxjSdejmcr/dpezuklNqv85dURiB+51EyFSei9Il1S8o/a2EDEI+rbQ
j+B5ID4oenFeXM4t6WbOZsSzGBfaHlXFDWZjgrxCcOM=
-----END CERTIFICATE-----
