Certificate:
    Data:
        Version: 1 (0x0)
        Serial Number:
            9b:27:d7:e8:d1:ba:0b:2e
        Signature Algorithm: md5WithRSAEncryption
        Issuer: C=DE, ST=Saarland, O=MPI-SWS, OU=Distributed Systems Group, CN=Andreas Haeberlen/emailAddress=democa@octarine.de
        Validity
            Not Before: Apr 20 20:47:34 2015 GMT
            Not After : Apr 19 20:47:34 2016 GMT
        Subject: C=DE, ST=Saarland, O=MPI-SWS, OU=Distributed Systems Group, CN=ea0533a1681975f512fcb2a188567015a2ae54fb/emailAddress=node0854@octarine.de
        Subject Public Key Info:
            Public Key Algorithm: rsaEncryption
            RSA Public Key: (1024 bit)
                Modulus (1024 bit):
                    00:bb:36:09:b9:8e:eb:9e:0e:14:e2:20:3c:17:40:
                    9d:49:46:07:b5:15:79:eb:7a:ee:13:d7:f9:ea:a5:
                    82:3f:25:c6:1b:5d:56:da:3f:88:6c:40:6d:1c:bb:
                    f0:6e:5f:00:86:50:fb:9d:a3:cd:af:66:c1:1b:1b:
                    25:04:5a:23:12:38:6c:5e:e1:ef:94:e8:88:90:27:
                    22:9c:09:75:68:8d:60:42:1b:f2:ac:0c:ab:96:40:
                    cb:8a:16:70:41:ca:6f:a9:6a:3e:c1:ae:08:64:4f:
                    24:8e:6d:ba:9c:f0:6d:91:9e:0e:13:e8:81:e4:a1:
                    12:a4:39:5a:65:42:ea:b8:01
                Exponent: 65537 (0x10001)
    Signature Algorithm: md5WithRSAEncryption
        3a:19:c4:07:8d:82:37:cf:61:af:07:c3:ca:5a:a1:98:1c:d5:
        41:d7:d7:b6:bc:35:b9:85:48:0b:11:a5:76:a7:d5:1c:80:9a:
        59:96:fa:88:6c:3b:f8:6a:99:a9:e6:76:1d:71:f8:0a:54:1b:
        7d:4a:95:05:af:0d:13:52:7e:f1:8d:39:fc:fd:4b:0a:95:e0:
        40:d9:10:7b:de:8b:53:4f:77:d8:d5:96:8e:8f:3c:f7:83:93:
        62:4f:7a:2d:c9:e1:39:81:97:dc:3f:b6:62:42:bd:ff:37:f5:
        eb:ab:21:3d:d4:f2:a9:d7:62:41:47:ec:e7:58:15:ad:07:a6:
        d0:37
-----BEGIN CERTIFICATE-----
MIICvDCCAiUCCQCbJ9fo0boLLjANBgkqhkiG9w0BAQQFADCBlTELMAkGA1UEBhMC
REUxETAPBgNVBAgTCFNhYXJsYW5kMRAwDgYDVQQKEwdNUEktU1dTMSIwIAYDVQQL
ExlEaXN0cmlidXRlZCBTeXN0ZW1zIEdyb3VwMRowGAYDVQQDExFBbmRyZWFzIEhh
ZWJlcmxlbjEhMB8GCSqGSIb3DQEJARYSZGVtb2NhQG9jdGFyaW5lLmRlMB4XDTE1
MDQyMDIwNDczNFoXDTE2MDQxOTIwNDczNFowga4xCzAJBgNVBAYTAkRFMREwDwYD
VQQIEwhTYWFybGFuZDEQMA4GA1UEChMHTVBJLVNXUzEiMCAGA1UECxMZRGlzdHJp
YnV0ZWQgU3lzdGVtcyBHcm91cDExMC8GA1UEAxMoZWEwNTMzYTE2ODE5NzVmNTEy
ZmNiMmExODg1NjcwMTVhMmFlNTRmYjEjMCEGCSqGSIb3DQEJARYUbm9kZTA4NTRA
b2N0YXJpbmUuZGUwgZ8wDQYJKoZIhvcNAQEBBQADgY0AMIGJAoGBALs2CbmO654O
FOIgPBdAnUlGB7UVeet67hPX+eqlgj8lxhtdVto/iGxAbRy78G5fAIZQ+52jza9m
wRsbJQRaIxI4bF7h75ToiJAnIpwJdWiNYEIb8qwMq5ZAy4oWcEHKb6lqPsGuCGRP
JI5tupzwbZGeDhPogeShEqQ5WmVC6rgBAgMBAAEwDQYJKoZIhvcNAQEEBQADgYEA
OhnEB42CN89hrwfDylqhmBzVQdfXtrw1uYVICxGldqfVHICaWZb6iGw7+GqZqeZ2
HXH4ClQbfUqVBa8NE1J+8Y05/P1LCpXgQNkQe96LU0932NWWjo8894OTYk96Lcnh
OYGX3D+2YkK9/zf166shPdTyqddiQUfs51gVrQem0Dc=
-----END CERTIFICATE-----
