Certificate:
    Data:
        Version: 1 (0x0)
        Serial Number:
            9b:27:d7:e8:d1:ba:08:cf
        Signature Algorithm: md5WithRSAEncryption
        Issuer: C=DE, ST=Saarland, O=MPI-SWS, OU=Distributed Systems Group, CN=Andreas Haeberlen/emailAddress=democa@octarine.de
        Validity
            Not Before: Apr 20 20:47:07 2015 GMT
            Not After : Apr 19 20:47:07 2016 GMT
        Subject: C=DE, ST=Saarland, O=MPI-SWS, OU=Distributed Systems Group, CN=295b4633ee917914bff083a6dddd3e967e1b45f3/emailAddress=node0247@octarine.de
        Subject Public Key Info:
            Public Key Algorithm: rsaEncryption
            RSA Public Key: (1024 bit)
                Modulus (1024 bit):
                    00:ac:7e:77:8e:fb:99:88:09:76:47:97:b1:0c:11:
                    1c:33:32:eb:a9:7e:85:fe:74:03:64:1a:81:35:b9:
                    3e:6a:7d:14:65:2a:4f:9a:e7:95:b8:f0:0f:52:d0:
                    36:e2:25:72:80:01:b0:8f:f3:08:df:bb:f9:d6:82:
                    f0:a1:d2:25:a0:9c:ce:73:fa:68:e4:b2:9f:e7:3f:
                    0a:cb:e8:6f:09:3d:db:5e:c2:c6:16:41:50:cc:56:
                    d3:a4:aa:d0:0e:06:ba:55:42:93:14:f7:11:5c:85:
                    ea:90:c3:f6:4c:d3:d1:45:0c:10:d5:cb:96:e7:58:
                    d3:5c:43:0a:bc:a9:1a:91:1f
                Exponent: 65537 (0x10001)
    Signature Algorithm: md5WithRSAEncryption
        a3:bc:fb:02:95:3c:a3:ab:6c:fb:d2:0c:3d:bb:10:f0:05:d9:
        8b:84:3c:31:dd:e4:de:00:a1:61:03:b9:b9:ed:12:1e:86:b5:
        e3:41:62:78:64:44:60:c1:73:84:8d:b2:1e:34:e8:e9:cb:4b:
        ac:34:8e:53:bd:88:f8:b6:f1:99:27:8c:9c:3d:3a:53:9b:d1:
        db:47:6a:1d:17:88:ea:84:b9:b7:ac:af:76:a1:5c:a8:d1:99:
        d6:af:77:10:aa:b7:7b:c2:39:f0:68:e4:3c:06:5a:32:2e:37:
        72:60:4f:20:fb:a7:c0:2a:de:e5:92:91:22:43:c2:4b:ec:cf:
        20:57
-----BEGIN CERTIFICATE-----
MIICvDCCAiUCCQCbJ9fo0boIzzANBgkqhkiG9w0BAQQFADCBlTELMAkGA1UEBhMC
REUxETAPBgNVBAgTCFNhYXJsYW5kMRAwDgYDVQQKEwdNUEktU1dTMSIwIAYDVQQL
ExlEaXN0cmlidXRlZCBTeXN0ZW1zIEdyb3VwMRowGAYDVQQDExFBbmRyZWFzIEhh
ZWJlcmxlbjEhMB8GCSqGSIb3DQEJARYSZGVtb2NhQG9jdGFyaW5lLmRlMB4XDTE1
MDQyMDIwNDcwN1oXDTE2MDQxOTIwNDcwN1owga4xCzAJBgNVBAYTAkRFMREwDwYD
VQQIEwhTYWFybGFuZDEQMA4GA1UEChMHTVBJLVNXUzEiMCAGA1UECxMZRGlzdHJp
YnV0ZWQgU3lzdGVtcyBHcm91cDExMC8GA1UEAxMoMjk1YjQ2MzNlZTkxNzkxNGJm
ZjA4M2E2ZGRkZDNlOTY3ZTFiNDVmMzEjMCEGCSqGSIb3DQEJARYUbm9kZTAyNDdA
b2N0YXJpbmUuZGUwgZ8wDQYJKoZIhvcNAQEBBQADgY0AMIGJAoGBAKx+d477mYgJ
dkeXsQwRHDMy66l+hf50A2QagTW5Pmp9FGUqT5rnlbjwD1LQNuIlcoABsI/zCN+7
+daC8KHSJaCcznP6aOSyn+c/Csvobwk9217CxhZBUMxW06Sq0A4GulVCkxT3EVyF
6pDD9kzT0UUMENXLludY01xDCrypGpEfAgMBAAEwDQYJKoZIhvcNAQEEBQADgYEA
o7z7ApU8o6ts+9IMPbsQ8AXZi4Q8Md3k3gChYQO5ue0SHoa140FieGREYMFzhI2y
HjTo6ctLrDSOU72I+LbxmSeMnD06U5vR20dqHReI6oS5t6yvdqFcqNGZ1q93EKq3
e8I58GjkPAZaMi43cmBPIPunwCre5ZKRIkPCS+zPIFc=
-----END CERTIFICATE-----
