Certificate:
    Data:
        Version: 1 (0x0)
        Serial Number:
            9b:27:d7:e8:d1:ba:07:ee
        Signature Algorithm: md5WithRSAEncryption
        Issuer: C=DE, ST=Saarland, O=MPI-SWS, OU=Distributed Systems Group, CN=Andreas Haeberlen/emailAddress=democa@octarine.de
        Validity
            Not Before: Apr 20 20:46:58 2015 GMT
            Not After : Apr 19 20:46:58 2016 GMT
        Subject: C=DE, ST=Saarland, O=MPI-SWS, OU=Distributed Systems Group, CN=4ccae2bd06f119c10cddd3893419f8245ef30a00/emailAddress=node0022@octarine.de
        Subject Public Key Info:
            Public Key Algorithm: rsaEncryption
            RSA Public Key: (1024 bit)
                Modulus (1024 bit):
                    00:c1:0a:26:ea:ba:3a:0d:e6:8c:7d:9f:56:b1:e0:
                    e3:d5:43:5b:6f:7e:1f:92:70:7b:10:74:49:32:39:
                    b7:28:c3:a5:83:48:4e:8e:05:1c:79:09:79:ec:ef:
                    87:1c:3a:83:a0:f6:f4:d6:20:36:c7:c7:21:a0:b2:
                    3a:75:1b:d8:ee:e9:5f:0d:0f:ec:dd:e7:3d:bd:e8:
                    ec:65:cc:11:94:ef:19:b3:76:2a:6a:c5:ba:c8:a7:
                    69:b6:4d:da:f6:c2:d5:18:af:0e:03:97:09:95:90:
                    17:65:87:8b:dc:40:a0:05:c0:25:b9:35:87:65:8f:
                    d0:19:30:8b:0a:90:19:89:67
                Exponent: 65537 (0x10001)
    Signature Algorithm: md5WithRSAEncryption
        09:83:f4:86:68:f4:b9:04:32:6b:23:32:d3:f0:a6:d9:60:6a:
        e4:25:12:7a:c0:49:b8:ce:3b:6d:27:12:e5:9d:3f:c1:eb:c9:
        86:d6:ae:97:97:eb:11:3d:64:1c:11:78:0d:ff:72:06:d1:b4:
        fa:f5:bd:60:01:86:91:c1:15:10:cf:3e:28:b0:11:0f:92:7e:
        95:aa:09:1c:53:7f:32:84:b0:9a:4c:78:40:e5:5c:7f:9a:96:
        19:49:da:64:65:f0:6e:90:3d:63:62:da:4b:59:5f:bf:4a:b3:
        ac:2e:b0:1d:14:22:9e:b7:a3:d6:c0:bd:24:04:db:4f:27:78:
        69:bf
-----BEGIN CERTIFICATE-----
MIICvDCCAiUCCQCbJ9fo0boH7jANBgkqhkiG9w0BAQQFADCBlTELMAkGA1UEBhMC
REUxETAPBgNVBAgTCFNhYXJsYW5kMRAwDgYDVQQKEwdNUEktU1dTMSIwIAYDVQQL
ExlEaXN0cmlidXRlZCBTeXN0ZW1zIEdyb3VwMRowGAYDVQQDExFBbmRyZWFzIEhh
ZWJlcmxlbjEhMB8GCSqGSIb3DQEJARYSZGVtb2NhQG9jdGFyaW5lLmRlMB4XDTE1
MDQyMDIwNDY1OFoXDTE2MDQxOTIwNDY1OFowga4xCzAJBgNVBAYTAkRFMREwDwYD
VQQIEwhTYWFybGFuZDEQMA4GA1UEChMHTVBJLVNXUzEiMCAGA1UECxMZRGlzdHJp
YnV0ZWQgU3lzdGVtcyBHcm91cDExMC8GA1UEAxMoNGNjYWUyYmQwNmYxMTljMTBj
ZGRkMzg5MzQxOWY4MjQ1ZWYzMGEwMDEjMCEGCSqGSIb3DQEJARYUbm9kZTAwMjJA
b2N0YXJpbmUuZGUwgZ8wDQYJKoZIhvcNAQEBBQADgY0AMIGJAoGBAMEKJuq6Og3m
jH2fVrHg49VDW29+H5JwexB0STI5tyjDpYNITo4FHHkJeezvhxw6g6D29NYgNsfH
IaCyOnUb2O7pXw0P7N3nPb3o7GXMEZTvGbN2KmrFusinabZN2vbC1RivDgOXCZWQ
F2WHi9xAoAXAJbk1h2WP0BkwiwqQGYlnAgMBAAEwDQYJKoZIhvcNAQEEBQADgYEA
CYP0hmj0uQQyayMy0/Cm2WBq5CUSesBJuM47bScS5Z0/wevJhtaul5frET1kHBF4
Df9yBtG0+vW9YAGGkcEVEM8+KLARD5J+laoJHFN/MoSwmkx4QOVcf5qWGUnaZGXw
bpA9Y2LaS1lfv0qzrC6wHRQinrej1sC9JATbTyd4ab8=
-----END CERTIFICATE-----
