Certificate:
    Data:
        Version: 1 (0x0)
        Serial Number:
            9b:27:d7:e8:d1:ba:08:a9
        Signature Algorithm: md5WithRSAEncryption
        Issuer: C=DE, ST=Saarland, O=MPI-SWS, OU=Distributed Systems Group, CN=Andreas Haeberlen/emailAddress=democa@octarine.de
        Validity
            Not Before: Apr 20 20:47:06 2015 GMT
            Not After : Apr 19 20:47:06 2016 GMT
        Subject: C=DE, ST=Saarland, O=MPI-SWS, OU=Distributed Systems Group, CN=6275093f6b1ae7b111b522fc12a7e5e475a8ee85/emailAddress=node0209@octarine.de
        Subject Public Key Info:
            Public Key Algorithm: rsaEncryption
            RSA Public Key: (1024 bit)
                Modulus (1024 bit):
                    00:dc:38:65:c9:56:1d:4a:aa:19:60:2b:dd:b0:58:
                    06:b6:a2:f5:cb:d7:e1:9e:5a:fb:64:aa:98:7e:b7:
                    94:94:fa:24:26:5a:b9:c9:1d:83:59:34:51:9d:d5:
                    c9:c4:47:23:c0:0e:f0:3e:1b:7a:ca:08:38:cf:32:
                    6a:bf:e8:2e:4e:f8:59:a4:0f:f4:42:3a:e3:6a:b7:
                    9c:db:75:29:91:b6:f4:69:45:c8:37:da:97:ae:18:
                    16:df:f3:1f:a4:8e:03:bf:a5:ce:3b:35:fd:40:a8:
                    8c:32:8f:9d:fe:fa:22:20:b9:13:e1:e6:a7:33:bb:
                    a1:3f:48:19:30:ac:22:f7:df
                Exponent: 65537 (0x10001)
    Signature Algorithm: md5WithRSAEncryption
        a1:4f:ce:91:76:02:3c:e4:e1:0f:63:b2:3c:5b:19:4f:ad:ef:
        66:40:c0:73:85:90:1c:c6:17:fb:51:9c:31:b9:9f:34:23:cd:
        0d:14:3f:a6:f0:f2:da:fd:f2:6e:30:76:1b:c2:ca:dd:f4:d4:
        92:b7:3a:dd:31:32:b3:80:fc:a3:69:3b:28:fb:87:a1:c5:b7:
        85:d4:b7:5e:ec:31:76:0a:f4:2e:04:43:25:e7:dd:3c:f2:4d:
        e2:6a:f2:56:9a:34:0d:c5:63:8c:c6:79:e1:cb:fe:06:fd:70:
        85:e6:21:8f:38:4f:c5:1e:bf:ed:27:a1:03:20:75:94:7e:7c:
        ab:c5
-----BEGIN CERTIFICATE-----
MIICvDCCAiUCCQCbJ9fo0boIqTANBgkqhkiG9w0BAQQFADCBlTELMAkGA1UEBhMC
REUxETAPBgNVBAgTCFNhYXJsYW5kMRAwDgYDVQQKEwdNUEktU1dTMSIwIAYDVQQL
ExlEaXN0cmlidXRlZCBTeXN0ZW1zIEdyb3VwMRowGAYDVQQDExFBbmRyZWFzIEhh
ZWJlcmxlbjEhMB8GCSqGSIb3DQEJARYSZGVtb2NhQG9jdGFyaW5lLmRlMB4XDTE1
MDQyMDIwNDcwNloXDTE2MDQxOTIwNDcwNlowga4xCzAJBgNVBAYTAkRFMREwDwYD
VQQIEwhTYWFybGFuZDEQMA4GA1UEChMHTVBJLVNXUzEiMCAGA1UECxMZRGlzdHJp
YnV0ZWQgU3lzdGVtcyBHcm91cDExMC8GA1UEAxMoNjI3NTA5M2Y2YjFhZTdiMTEx
YjUyMmZjMTJhN2U1ZTQ3NWE4ZWU4NTEjMCEGCSqGSIb3DQEJARYUbm9kZTAyMDlA
b2N0YXJpbmUuZGUwgZ8wDQYJKoZIhvcNAQEBBQADgY0AMIGJAoGBANw4ZclWHUqq
GWAr3bBYBrai9cvX4Z5a+2SqmH63lJT6JCZauckdg1k0UZ3VycRHI8AO8D4besoI
OM8yar/oLk74WaQP9EI642q3nNt1KZG29GlFyDfal64YFt/zH6SOA7+lzjs1/UCo
jDKPnf76IiC5E+HmpzO7oT9IGTCsIvffAgMBAAEwDQYJKoZIhvcNAQEEBQADgYEA
oU/OkXYCPOThD2OyPFsZT63vZkDAc4WQHMYX+1GcMbmfNCPNDRQ/pvDy2v3ybjB2
G8LK3fTUkrc63TEys4D8o2k7KPuHocW3hdS3Xuwxdgr0LgRDJefdPPJN4mryVpo0
DcVjjMZ54cv+Bv1wheYhjzhPxR6/7SehAyB1lH58q8U=
-----END CERTIFICATE-----
