Certificate:
    Data:
        Version: 1 (0x0)
        Serial Number:
            9b:27:d7:e8:d1:ba:08:9b
        Signature Algorithm: md5WithRSAEncryption
        Issuer: C=DE, ST=Saarland, O=MPI-SWS, OU=Distributed Systems Group, CN=Andreas Haeberlen/emailAddress=democa@octarine.de
        Validity
            Not Before: Apr 20 20:47:05 2015 GMT
            Not After : Apr 19 20:47:05 2016 GMT
        Subject: C=DE, ST=Saarland, O=MPI-SWS, OU=Distributed Systems Group, CN=95f8a96bf396d7702508691e896f368cb8552b12/emailAddress=node0195@octarine.de
        Subject Public Key Info:
            Public Key Algorithm: rsaEncryption
            RSA Public Key: (1024 bit)
                Modulus (1024 bit):
                    00:b3:af:bf:68:06:45:52:65:92:ad:04:fe:6f:39:
                    32:e8:b4:d3:a2:79:91:6d:19:67:1d:1c:60:d4:e9:
                    11:42:20:fa:15:7f:3a:7c:cc:65:0d:79:29:2b:57:
                    09:09:ee:53:26:1d:d0:fc:40:53:4e:9f:e4:6d:a2:
                    40:aa:e6:77:f7:5b:6d:2c:2f:45:cf:b0:02:50:a0:
                    34:ca:31:6f:9e:44:d5:9b:04:1f:2b:80:f7:ad:76:
                    28:40:82:4e:94:47:5e:0a:a2:5a:ad:6f:34:ca:09:
                    d6:01:ec:ba:f1:a0:9f:e9:24:c0:79:2b:16:3a:de:
                    9e:41:da:29:8d:17:6d:17:e7
                Exponent: 65537 (0x10001)
    Signature Algorithm: md5WithRSAEncryption
        95:5b:52:8c:ab:ab:4b:15:20:c1:19:87:69:bf:60:a6:ba:15:
        5a:d9:fa:6a:4f:2d:80:d8:94:01:f9:d6:a9:00:8a:62:72:3f:
        20:06:10:58:f7:41:57:85:3d:72:6e:1d:21:be:bb:71:9e:85:
        b2:e6:69:92:73:24:fb:63:de:29:e9:61:ee:22:e4:c2:38:7c:
        db:fe:47:4c:21:d5:79:78:f9:f0:9f:9b:2a:cf:00:29:52:55:
        3c:aa:fb:5e:aa:26:95:91:bc:d0:b3:a5:e3:fb:88:d2:ef:b2:
        14:e6:72:e9:7d:dd:6f:bd:7a:dc:48:75:57:16:97:75:3f:77:
        37:6d
-----BEGIN CERTIFICATE-----
MIICvDCCAiUCCQCbJ9fo0boImzANBgkqhkiG9w0BAQQFADCBlTELMAkGA1UEBhMC
REUxETAPBgNVBAgTCFNhYXJsYW5kMRAwDgYDVQQKEwdNUEktU1dTMSIwIAYDVQQL
ExlEaXN0cmlidXRlZCBTeXN0ZW1zIEdyb3VwMRowGAYDVQQDExFBbmRyZWFzIEhh
ZWJlcmxlbjEhMB8GCSqGSIb3DQEJARYSZGVtb2NhQG9jdGFyaW5lLmRlMB4XDTE1
MDQyMDIwNDcwNVoXDTE2MDQxOTIwNDcwNVowga4xCzAJBgNVBAYTAkRFMREwDwYD
VQQIEwhTYWFybGFuZDEQMA4GA1UEChMHTVBJLVNXUzEiMCAGA1UECxMZRGlzdHJp
YnV0ZWQgU3lzdGVtcyBHcm91cDExMC8GA1UEAxMoOTVmOGE5NmJmMzk2ZDc3MDI1
MDg2OTFlODk2ZjM2OGNiODU1MmIxMjEjMCEGCSqGSIb3DQEJARYUbm9kZTAxOTVA
b2N0YXJpbmUuZGUwgZ8wDQYJKoZIhvcNAQEBBQADgY0AMIGJAoGBALOvv2gGRVJl
kq0E/m85Mui006J5kW0ZZx0cYNTpEUIg+hV/OnzMZQ15KStXCQnuUyYd0PxAU06f
5G2iQKrmd/dbbSwvRc+wAlCgNMoxb55E1ZsEHyuA9612KECCTpRHXgqiWq1vNMoJ
1gHsuvGgn+kkwHkrFjrenkHaKY0XbRfnAgMBAAEwDQYJKoZIhvcNAQEEBQADgYEA
lVtSjKurSxUgwRmHab9gproVWtn6ak8tgNiUAfnWqQCKYnI/IAYQWPdBV4U9cm4d
Ib67cZ6FsuZpknMk+2PeKelh7iLkwjh82/5HTCHVeXj58J+bKs8AKVJVPKr7Xqom
lZG80LOl4/uI0u+yFOZy6X3db7163Eh1VxaXdT93N20=
-----END CERTIFICATE-----
