Certificate:
    Data:
        Version: 1 (0x0)
        Serial Number:
            9b:27:d7:e8:d1:ba:0a:5b
        Signature Algorithm: md5WithRSAEncryption
        Issuer: C=DE, ST=Saarland, O=MPI-SWS, OU=Distributed Systems Group, CN=Andreas Haeberlen/emailAddress=democa@octarine.de
        Validity
            Not Before: Apr 20 20:47:25 2015 GMT
            Not After : Apr 19 20:47:25 2016 GMT
        Subject: C=DE, ST=Saarland, O=MPI-SWS, OU=Distributed Systems Group, CN=6ca7921776e658c0f71e36f4eeec44bb152a731f/emailAddress=node0643@octarine.de
        Subject Public Key Info:
            Public Key Algorithm: rsaEncryption
            RSA Public Key: (1024 bit)
                Modulus (1024 bit):
                    00:e3:c5:8e:0d:b5:a9:4a:ea:0d:41:13:47:d2:a2:
                    32:43:c2:99:b9:8d:02:f4:e5:5a:a5:93:90:14:68:
                    e8:b4:6a:4a:89:ac:7a:00:7c:85:3a:29:a6:e1:c8:
                    31:ae:ad:a2:91:80:e8:50:10:57:4b:25:b6:a8:48:
                    b3:63:e5:f3:31:13:63:24:46:04:d9:8c:8f:2d:92:
                    0d:69:45:9d:de:79:f3:a0:19:ef:4f:7e:71:81:0e:
                    fc:62:da:26:cd:e1:bd:df:eb:0f:58:72:bd:72:69:
                    97:de:8c:c5:78:7b:be:51:e3:a5:1a:ea:27:73:96:
                    b9:88:76:be:2e:97:9d:63:4d
                Exponent: 65537 (0x10001)
    Signature Algorithm: md5WithRSAEncryption
        46:4b:cd:09:71:80:70:ba:01:b5:76:30:5d:a8:0b:31:ad:88:
        1f:70:d7:57:08:2a:69:a3:c4:c9:4d:fb:ab:af:73:62:e3:07:
        50:26:5c:ce:dc:4b:b2:50:50:55:8a:ca:40:5e:9f:ee:fa:96:
        47:96:e9:ba:20:4d:83:58:f2:c8:29:9b:e9:d7:da:93:e1:ea:
        60:fd:f7:f7:1d:b7:0a:ed:67:99:2a:33:68:8e:d8:89:73:94:
        bd:f0:65:00:62:74:63:26:b3:de:bf:6d:a4:c6:54:2f:59:88:
        f4:7f:1b:a0:06:15:4a:b8:d1:d3:ed:94:aa:af:b5:c5:95:7e:
        98:e6
-----BEGIN CERTIFICATE-----
MIICvDCCAiUCCQCbJ9fo0boKWzANBgkqhkiG9w0BAQQFADCBlTELMAkGA1UEBhMC
REUxETAPBgNVBAgTCFNhYXJsYW5kMRAwDgYDVQQKEwdNUEktU1dTMSIwIAYDVQQL
ExlEaXN0cmlidXRlZCBTeXN0ZW1zIEdyb3VwMRowGAYDVQQDExFBbmRyZWFzIEhh
ZWJlcmxlbjEhMB8GCSqGSIb3DQEJARYSZGVtb2NhQG9jdGFyaW5lLmRlMB4XDTE1
MDQyMDIwNDcyNVoXDTE2MDQxOTIwNDcyNVowga4xCzAJBgNVBAYTAkRFMREwDwYD
VQQIEwhTYWFybGFuZDEQMA4GA1UEChMHTVBJLVNXUzEiMCAGA1UECxMZRGlzdHJp
YnV0ZWQgU3lzdGVtcyBHcm91cDExMC8GA1UEAxMoNmNhNzkyMTc3NmU2NThjMGY3
MWUzNmY0ZWVlYzQ0YmIxNTJhNzMxZjEjMCEGCSqGSIb3DQEJARYUbm9kZTA2NDNA
b2N0YXJpbmUuZGUwgZ8wDQYJKoZIhvcNAQEBBQADgY0AMIGJAoGBAOPFjg21qUrq
DUETR9KiMkPCmbmNAvTlWqWTkBRo6LRqSomsegB8hToppuHIMa6topGA6FAQV0sl
tqhIs2Pl8zETYyRGBNmMjy2SDWlFnd5586AZ709+cYEO/GLaJs3hvd/rD1hyvXJp
l96MxXh7vlHjpRrqJ3OWuYh2vi6XnWNNAgMBAAEwDQYJKoZIhvcNAQEEBQADgYEA
RkvNCXGAcLoBtXYwXagLMa2IH3DXVwgqaaPEyU37q69zYuMHUCZcztxLslBQVYrK
QF6f7vqWR5bpuiBNg1jyyCmb6dfak+HqYP339x23Cu1nmSozaI7YiXOUvfBlAGJ0
Yyaz3r9tpMZUL1mI9H8boAYVSrjR0+2Uqq+1xZV+mOY=
-----END CERTIFICATE-----
