Certificate:
    Data:
        Version: 1 (0x0)
        Serial Number:
            9b:27:d7:e8:d1:ba:07:ed
        Signature Algorithm: md5WithRSAEncryption
        Issuer: C=DE, ST=Saarland, O=MPI-SWS, OU=Distributed Systems Group, CN=Andreas Haeberlen/emailAddress=democa@octarine.de
        Validity
            Not Before: Apr 20 20:46:58 2015 GMT
            Not After : Apr 19 20:46:58 2016 GMT
        Subject: C=DE, ST=Saarland, O=MPI-SWS, OU=Distributed Systems Group, CN=fa90b7ee29536260eeb21b9b07fbc16bcfc86a68/emailAddress=node0021@octarine.de
        Subject Public Key Info:
            Public Key Algorithm: rsaEncryption
            RSA Public Key: (1024 bit)
                Modulus (1024 bit):
                    00:de:b0:7e:b3:6c:c2:05:f0:7b:fa:84:ea:7d:b9:
                    97:77:ae:12:d2:3e:42:c4:ca:ff:e2:6c:8a:86:fc:
                    66:31:b9:fe:7d:76:33:26:af:81:e7:0e:9b:1f:9a:
                    45:7a:d0:80:b9:18:d7:c4:77:f6:61:25:0d:4d:c4:
                    b7:73:53:9d:37:76:92:4b:d7:ad:ab:af:f7:62:bf:
                    ff:62:d6:78:bf:5d:d5:40:6e:49:15:49:be:4c:26:
                    c3:8d:b9:2a:06:7a:51:34:7d:12:b5:be:96:a7:f7:
                    f2:97:85:5c:d1:a5:40:e5:c4:d4:6e:86:cc:93:c0:
                    94:11:2e:a5:7c:1d:5c:70:6d
                Exponent: 65537 (0x10001)
    Signature Algorithm: md5WithRSAEncryption
        7e:fe:1c:40:85:12:64:a6:6e:4d:10:80:28:0b:9e:41:39:6e:
        4d:30:64:67:4c:8a:2a:ab:8d:92:9b:6b:35:ce:79:5e:6b:e2:
        ad:c3:c6:81:6a:38:61:dc:95:72:78:9d:84:7a:a6:57:42:87:
        77:07:6b:7a:bd:7a:1f:76:4f:2e:fd:50:7a:67:b8:6c:be:8b:
        28:18:7d:41:11:89:8e:dc:c1:06:3e:bf:5b:a1:c7:8e:91:86:
        cb:ac:e9:d4:d8:09:c0:83:d1:94:23:32:bf:b5:8d:90:b4:96:
        dd:e2:39:84:f7:8b:fa:06:ee:e2:30:ae:53:9c:97:32:a7:c1:
        dd:6f
-----BEGIN CERTIFICATE-----
MIICvDCCAiUCCQCbJ9fo0boH7TANBgkqhkiG9w0BAQQFADCBlTELMAkGA1UEBhMC
REUxETAPBgNVBAgTCFNhYXJsYW5kMRAwDgYDVQQKEwdNUEktU1dTMSIwIAYDVQQL
ExlEaXN0cmlidXRlZCBTeXN0ZW1zIEdyb3VwMRowGAYDVQQDExFBbmRyZWFzIEhh
ZWJlcmxlbjEhMB8GCSqGSIb3DQEJARYSZGVtb2NhQG9jdGFyaW5lLmRlMB4XDTE1
MDQyMDIwNDY1OFoXDTE2MDQxOTIwNDY1OFowga4xCzAJBgNVBAYTAkRFMREwDwYD
VQQIEwhTYWFybGFuZDEQMA4GA1UEChMHTVBJLVNXUzEiMCAGA1UECxMZRGlzdHJp
YnV0ZWQgU3lzdGVtcyBHcm91cDExMC8GA1UEAxMoZmE5MGI3ZWUyOTUzNjI2MGVl
YjIxYjliMDdmYmMxNmJjZmM4NmE2ODEjMCEGCSqGSIb3DQEJARYUbm9kZTAwMjFA
b2N0YXJpbmUuZGUwgZ8wDQYJKoZIhvcNAQEBBQADgY0AMIGJAoGBAN6wfrNswgXw
e/qE6n25l3euEtI+QsTK/+Jsiob8ZjG5/n12MyavgecOmx+aRXrQgLkY18R39mEl
DU3Et3NTnTd2kkvXrauv92K//2LWeL9d1UBuSRVJvkwmw425KgZ6UTR9ErW+lqf3
8peFXNGlQOXE1G6GzJPAlBEupXwdXHBtAgMBAAEwDQYJKoZIhvcNAQEEBQADgYEA
fv4cQIUSZKZuTRCAKAueQTluTTBkZ0yKKquNkptrNc55XmvircPGgWo4YdyVcnid
hHqmV0KHdwdrer16H3ZPLv1Qeme4bL6LKBh9QRGJjtzBBj6/W6HHjpGGy6zp1NgJ
wIPRlCMyv7WNkLSW3eI5hPeL+gbu4jCuU5yXMqfB3W8=
-----END CERTIFICATE-----
