Certificate:
    Data:
        Version: 1 (0x0)
        Serial Number:
            9b:27:d7:e8:d1:ba:0a:7e
        Signature Algorithm: md5WithRSAEncryption
        Issuer: C=DE, ST=Saarland, O=MPI-SWS, OU=Distributed Systems Group, CN=Andreas Haeberlen/emailAddress=democa@octarine.de
        Validity
            Not Before: Apr 20 20:47:26 2015 GMT
            Not After : Apr 19 20:47:26 2016 GMT
        Subject: C=DE, ST=Saarland, O=MPI-SWS, OU=Distributed Systems Group, CN=b1f422423b3c303a10b13fbb6b3d9975a69d9efd/emailAddress=node0678@octarine.de
        Subject Public Key Info:
            Public Key Algorithm: rsaEncryption
            RSA Public Key: (1024 bit)
                Modulus (1024 bit):
                    00:a4:f1:98:ab:e9:e6:30:8e:ab:42:ac:3e:fc:6a:
                    af:60:3a:09:e8:bf:f8:5e:ff:09:76:8f:de:e3:12:
                    40:05:70:d8:3d:47:ea:fd:24:17:db:0f:62:a8:28:
                    85:74:b9:e2:f9:e0:4c:ea:35:9f:fe:84:51:5c:bb:
                    0e:d7:52:ac:7a:9f:7a:35:e4:a1:a8:bf:aa:e3:d7:
                    d9:d0:a3:87:67:c2:34:a1:c2:bf:01:78:89:78:1b:
                    95:40:17:14:1b:8e:f8:ea:8a:9e:75:26:c4:30:b7:
                    e8:53:32:93:b0:f0:8d:a6:fb:62:d0:c2:43:e4:47:
                    64:dc:e9:74:30:7d:2b:c9:75
                Exponent: 65537 (0x10001)
    Signature Algorithm: md5WithRSAEncryption
        c2:b8:3e:19:4e:40:38:97:f8:2a:8a:03:18:33:65:7f:81:b6:
        34:2c:cf:dc:4a:77:40:32:ac:af:c1:ac:28:74:a9:c5:82:5f:
        c5:5f:69:63:61:10:7c:f8:bf:84:6a:8c:02:e8:36:fa:e6:d6:
        dd:4c:2c:36:7e:bd:c0:2d:1b:c0:98:f3:da:49:18:78:5a:97:
        48:e9:27:d9:d3:07:5c:85:76:31:0f:8d:41:cb:81:2f:34:3c:
        a8:72:35:05:c2:79:fe:50:20:5f:62:20:1d:a5:5f:e7:e6:e4:
        51:26:d3:81:26:00:7e:7c:74:98:d9:d8:63:91:89:11:84:e3:
        93:c1
-----BEGIN CERTIFICATE-----
MIICvDCCAiUCCQCbJ9fo0boKfjANBgkqhkiG9w0BAQQFADCBlTELMAkGA1UEBhMC
REUxETAPBgNVBAgTCFNhYXJsYW5kMRAwDgYDVQQKEwdNUEktU1dTMSIwIAYDVQQL
ExlEaXN0cmlidXRlZCBTeXN0ZW1zIEdyb3VwMRowGAYDVQQDExFBbmRyZWFzIEhh
ZWJlcmxlbjEhMB8GCSqGSIb3DQEJARYSZGVtb2NhQG9jdGFyaW5lLmRlMB4XDTE1
MDQyMDIwNDcyNloXDTE2MDQxOTIwNDcyNlowga4xCzAJBgNVBAYTAkRFMREwDwYD
VQQIEwhTYWFybGFuZDEQMA4GA1UEChMHTVBJLVNXUzEiMCAGA1UECxMZRGlzdHJp
YnV0ZWQgU3lzdGVtcyBHcm91cDExMC8GA1UEAxMoYjFmNDIyNDIzYjNjMzAzYTEw
YjEzZmJiNmIzZDk5NzVhNjlkOWVmZDEjMCEGCSqGSIb3DQEJARYUbm9kZTA2NzhA
b2N0YXJpbmUuZGUwgZ8wDQYJKoZIhvcNAQEBBQADgY0AMIGJAoGBAKTxmKvp5jCO
q0KsPvxqr2A6Cei/+F7/CXaP3uMSQAVw2D1H6v0kF9sPYqgohXS54vngTOo1n/6E
UVy7DtdSrHqfejXkoai/quPX2dCjh2fCNKHCvwF4iXgblUAXFBuO+OqKnnUmxDC3
6FMyk7Dwjab7YtDCQ+RHZNzpdDB9K8l1AgMBAAEwDQYJKoZIhvcNAQEEBQADgYEA
wrg+GU5AOJf4KooDGDNlf4G2NCzP3Ep3QDKsr8GsKHSpxYJfxV9pY2EQfPi/hGqM
Aug2+ubW3UwsNn69wC0bwJjz2kkYeFqXSOkn2dMHXIV2MQ+NQcuBLzQ8qHI1BcJ5
/lAgX2IgHaVf5+bkUSbTgSYAfnx0mNnYY5GJEYTjk8E=
-----END CERTIFICATE-----
