Certificate:
    Data:
        Version: 1 (0x0)
        Serial Number:
            9b:27:d7:e8:d1:ba:0b:60
        Signature Algorithm: md5WithRSAEncryption
        Issuer: C=DE, ST=Saarland, O=MPI-SWS, OU=Distributed Systems Group, CN=Andreas Haeberlen/emailAddress=democa@octarine.de
        Validity
            Not Before: Apr 20 20:47:37 2015 GMT
            Not After : Apr 19 20:47:37 2016 GMT
        Subject: C=DE, ST=Saarland, O=MPI-SWS, OU=Distributed Systems Group, CN=2080361c2fae9392b9a631544629969b72bb9c7c/emailAddress=node0904@octarine.de
        Subject Public Key Info:
            Public Key Algorithm: rsaEncryption
            RSA Public Key: (1024 bit)
                Modulus (1024 bit):
                    00:bf:f2:34:12:32:4e:f5:b6:7f:0a:28:a4:de:6a:
                    ee:5d:00:87:21:7f:b8:44:54:97:58:54:44:9a:3b:
                    5b:a2:1c:99:0f:01:d3:54:42:ec:3b:e7:07:b4:12:
                    c2:e3:07:13:cc:f4:2a:a0:ed:20:cb:8c:bb:03:c5:
                    b6:0e:e7:02:50:c7:37:4e:7b:aa:fb:95:56:03:ed:
                    7d:a2:fa:f3:f0:b8:96:48:2b:4e:e8:cb:e3:f2:75:
                    16:1b:e9:14:02:17:e5:d9:59:b0:fc:28:4d:3f:3c:
                    39:ab:9a:a5:82:ce:0f:2a:85:de:36:fd:48:be:e3:
                    28:0e:78:60:9f:b1:fe:82:ab
                Exponent: 65537 (0x10001)
    Signature Algorithm: md5WithRSAEncryption
        4f:2a:ac:53:72:c6:16:b6:92:79:c1:44:94:71:41:f8:30:18:
        48:bd:df:61:9b:06:d5:f0:46:3b:0e:f5:f7:bc:b5:96:f5:20:
        fb:ef:6a:48:a6:cf:01:3c:78:7f:9f:bb:b3:4f:1b:2a:81:d1:
        35:8f:60:46:90:04:2b:04:43:56:a0:c6:2f:f7:4f:69:17:fd:
        f1:e8:b4:66:aa:3c:ce:c4:2c:cf:48:60:b3:00:5e:54:04:83:
        20:86:a3:17:6b:30:fe:52:57:64:12:3c:9c:66:78:1a:9f:e6:
        dd:a3:17:13:47:f0:7f:59:36:72:38:1b:cc:dd:e1:60:09:10:
        46:fc
-----BEGIN CERTIFICATE-----
MIICvDCCAiUCCQCbJ9fo0boLYDANBgkqhkiG9w0BAQQFADCBlTELMAkGA1UEBhMC
REUxETAPBgNVBAgTCFNhYXJsYW5kMRAwDgYDVQQKEwdNUEktU1dTMSIwIAYDVQQL
ExlEaXN0cmlidXRlZCBTeXN0ZW1zIEdyb3VwMRowGAYDVQQDExFBbmRyZWFzIEhh
ZWJlcmxlbjEhMB8GCSqGSIb3DQEJARYSZGVtb2NhQG9jdGFyaW5lLmRlMB4XDTE1
MDQyMDIwNDczN1oXDTE2MDQxOTIwNDczN1owga4xCzAJBgNVBAYTAkRFMREwDwYD
VQQIEwhTYWFybGFuZDEQMA4GA1UEChMHTVBJLVNXUzEiMCAGA1UECxMZRGlzdHJp
YnV0ZWQgU3lzdGVtcyBHcm91cDExMC8GA1UEAxMoMjA4MDM2MWMyZmFlOTM5MmI5
YTYzMTU0NDYyOTk2OWI3MmJiOWM3YzEjMCEGCSqGSIb3DQEJARYUbm9kZTA5MDRA
b2N0YXJpbmUuZGUwgZ8wDQYJKoZIhvcNAQEBBQADgY0AMIGJAoGBAL/yNBIyTvW2
fwoopN5q7l0AhyF/uERUl1hURJo7W6IcmQ8B01RC7DvnB7QSwuMHE8z0KqDtIMuM
uwPFtg7nAlDHN057qvuVVgPtfaL68/C4lkgrTujL4/J1FhvpFAIX5dlZsPwoTT88
OauapYLODyqF3jb9SL7jKA54YJ+x/oKrAgMBAAEwDQYJKoZIhvcNAQEEBQADgYEA
TyqsU3LGFraSecFElHFB+DAYSL3fYZsG1fBGOw7197y1lvUg++9qSKbPATx4f5+7
s08bKoHRNY9gRpAEKwRDVqDGL/dPaRf98ei0Zqo8zsQsz0hgswBeVASDIIajF2sw
/lJXZBI8nGZ4Gp/m3aMXE0fwf1k2cjgbzN3hYAkQRvw=
-----END CERTIFICATE-----
