Certificate:
    Data:
        Version: 1 (0x0)
        Serial Number:
            9b:27:d7:e8:d1:ba:09:e5
        Signature Algorithm: md5WithRSAEncryption
        Issuer: C=DE, ST=Saarland, O=MPI-SWS, OU=Distributed Systems Group, CN=Andreas Haeberlen/emailAddress=democa@octarine.de
        Validity
            Not Before: Apr 20 20:47:20 2015 GMT
            Not After : Apr 19 20:47:20 2016 GMT
        Subject: C=DE, ST=Saarland, O=MPI-SWS, OU=Distributed Systems Group, CN=001da1802ac8015d6122c9c90971ae6ae788909b/emailAddress=node0525@octarine.de
        Subject Public Key Info:
            Public Key Algorithm: rsaEncryption
            RSA Public Key: (1024 bit)
                Modulus (1024 bit):
                    00:cb:69:3b:3e:b8:a5:b9:85:12:17:70:8e:7f:a1:
                    47:a3:0f:34:15:fc:67:87:3f:c0:53:f1:6a:6f:33:
                    20:3e:e0:b4:10:ba:86:42:61:16:4c:a9:e7:ce:31:
                    d5:27:2e:e1:f0:98:50:91:74:6a:ab:f7:7d:17:3c:
                    55:c3:24:85:c7:40:19:10:b5:23:d7:b9:54:3b:8d:
                    82:fc:67:55:f7:4f:c2:23:b7:6b:0e:e7:13:eb:e4:
                    8f:60:ca:ee:d9:87:02:f6:20:73:f1:0f:c9:25:39:
                    3c:ad:60:5d:cd:20:cc:a5:60:fa:f3:84:dc:0e:20:
                    65:6d:b6:da:26:df:e2:68:8f
                Exponent: 65537 (0x10001)
    Signature Algorithm: md5WithRSAEncryption
        6e:66:c3:da:84:6b:36:c0:96:ec:4a:b0:6d:49:14:6c:5b:cc:
        17:0c:ac:06:12:3e:fb:5b:5f:50:63:ef:11:f6:61:f9:27:95:
        0e:c1:a5:41:f9:30:25:98:0d:38:30:9e:38:db:d1:f9:f2:ce:
        3d:b0:7c:93:2d:46:69:dc:9b:69:dd:2d:8a:0b:63:61:7c:2c:
        a8:e3:c8:e8:86:41:c6:25:53:8b:55:8e:7a:23:66:72:4b:98:
        85:e2:79:78:69:b1:de:67:b2:c4:90:c3:fd:c2:30:a8:37:cd:
        58:14:9e:1a:3e:e4:d5:7a:ef:8d:a0:c0:12:3e:34:29:d1:02:
        6b:d6
-----BEGIN CERTIFICATE-----
MIICvDCCAiUCCQCbJ9fo0boJ5TANBgkqhkiG9w0BAQQFADCBlTELMAkGA1UEBhMC
REUxETAPBgNVBAgTCFNhYXJsYW5kMRAwDgYDVQQKEwdNUEktU1dTMSIwIAYDVQQL
ExlEaXN0cmlidXRlZCBTeXN0ZW1zIEdyb3VwMRowGAYDVQQDExFBbmRyZWFzIEhh
ZWJlcmxlbjEhMB8GCSqGSIb3DQEJARYSZGVtb2NhQG9jdGFyaW5lLmRlMB4XDTE1
MDQyMDIwNDcyMFoXDTE2MDQxOTIwNDcyMFowga4xCzAJBgNVBAYTAkRFMREwDwYD
VQQIEwhTYWFybGFuZDEQMA4GA1UEChMHTVBJLVNXUzEiMCAGA1UECxMZRGlzdHJp
YnV0ZWQgU3lzdGVtcyBHcm91cDExMC8GA1UEAxMoMDAxZGExODAyYWM4MDE1ZDYx
MjJjOWM5MDk3MWFlNmFlNzg4OTA5YjEjMCEGCSqGSIb3DQEJARYUbm9kZTA1MjVA
b2N0YXJpbmUuZGUwgZ8wDQYJKoZIhvcNAQEBBQADgY0AMIGJAoGBAMtpOz64pbmF
Ehdwjn+hR6MPNBX8Z4c/wFPxam8zID7gtBC6hkJhFkyp584x1Scu4fCYUJF0aqv3
fRc8VcMkhcdAGRC1I9e5VDuNgvxnVfdPwiO3aw7nE+vkj2DK7tmHAvYgc/EPySU5
PK1gXc0gzKVg+vOE3A4gZW222ibf4miPAgMBAAEwDQYJKoZIhvcNAQEEBQADgYEA
bmbD2oRrNsCW7EqwbUkUbFvMFwysBhI++1tfUGPvEfZh+SeVDsGlQfkwJZgNODCe
ONvR+fLOPbB8ky1Gadybad0tigtjYXwsqOPI6IZBxiVTi1WOeiNmckuYheJ5eGmx
3meyxJDD/cIwqDfNWBSeGj7k1XrvjaDAEj40KdECa9Y=
-----END CERTIFICATE-----
