Certificate:
    Data:
        Version: 1 (0x0)
        Serial Number:
            9b:27:d7:e8:d1:ba:08:23
        Signature Algorithm: md5WithRSAEncryption
        Issuer: C=DE, ST=Saarland, O=MPI-SWS, OU=Distributed Systems Group, CN=Andreas Haeberlen/emailAddress=democa@octarine.de
        Validity
            Not Before: Apr 20 20:47:00 2015 GMT
            Not After : Apr 19 20:47:00 2016 GMT
        Subject: C=DE, ST=Saarland, O=MPI-SWS, OU=Distributed Systems Group, CN=4f4f000c7ba58b7ff75c1f296be826965e56e536/emailAddress=node0075@octarine.de
        Subject Public Key Info:
            Public Key Algorithm: rsaEncryption
            RSA Public Key: (1024 bit)
                Modulus (1024 bit):
                    00:be:17:16:9f:f0:11:a8:8e:d4:7d:3f:d3:3a:12:
                    9c:a9:aa:a0:8a:a4:21:d8:b9:5c:d3:a6:88:b6:0a:
                    d3:0c:46:3b:1c:9c:97:cc:00:72:29:9d:48:f4:30:
                    ab:38:ce:eb:8d:5c:7f:0f:23:55:73:ab:2a:8c:0a:
                    f0:bc:5f:60:61:00:8d:95:cb:49:18:d5:34:4e:ea:
                    42:13:a0:dc:00:1c:88:08:6b:db:bb:e7:9c:0e:9b:
                    8c:85:34:d5:e2:41:48:a8:8e:a1:f9:b5:35:4e:db:
                    82:06:a8:f3:1a:d6:16:d9:62:ff:4b:23:c2:a7:a6:
                    f6:15:0d:8f:cb:db:8f:a3:75
                Exponent: 65537 (0x10001)
    Signature Algorithm: md5WithRSAEncryption
        a9:b3:ac:34:34:4c:70:ec:49:17:16:22:05:25:15:d2:6a:ec:
        c4:d3:0e:d6:34:58:51:fb:39:63:bd:ff:a3:48:63:16:79:0a:
        49:28:5b:e7:68:61:86:bc:93:4d:64:ed:27:8b:a3:06:14:ad:
        a5:1d:b1:45:25:b8:13:01:61:71:1b:f9:de:54:0c:70:4e:6c:
        7f:8b:fe:0d:6b:f8:bd:4f:c4:36:91:a2:5a:42:24:1f:dd:4c:
        83:6f:8a:67:f9:de:53:60:d2:a2:d0:7a:de:82:b8:5f:b8:42:
        b4:a1:ff:ac:df:66:12:4c:e4:ee:60:c8:52:e3:4e:09:25:65:
        9c:5d
-----BEGIN CERTIFICATE-----
MIICvDCCAiUCCQCbJ9fo0boIIzANBgkqhkiG9w0BAQQFADCBlTELMAkGA1UEBhMC
REUxETAPBgNVBAgTCFNhYXJsYW5kMRAwDgYDVQQKEwdNUEktU1dTMSIwIAYDVQQL
ExlEaXN0cmlidXRlZCBTeXN0ZW1zIEdyb3VwMRowGAYDVQQDExFBbmRyZWFzIEhh
ZWJlcmxlbjEhMB8GCSqGSIb3DQEJARYSZGVtb2NhQG9jdGFyaW5lLmRlMB4XDTE1
MDQyMDIwNDcwMFoXDTE2MDQxOTIwNDcwMFowga4xCzAJBgNVBAYTAkRFMREwDwYD
VQQIEwhTYWFybGFuZDEQMA4GA1UEChMHTVBJLVNXUzEiMCAGA1UECxMZRGlzdHJp
YnV0ZWQgU3lzdGVtcyBHcm91cDExMC8GA1UEAxMoNGY0ZjAwMGM3YmE1OGI3ZmY3
NWMxZjI5NmJlODI2OTY1ZTU2ZTUzNjEjMCEGCSqGSIb3DQEJARYUbm9kZTAwNzVA
b2N0YXJpbmUuZGUwgZ8wDQYJKoZIhvcNAQEBBQADgY0AMIGJAoGBAL4XFp/wEaiO
1H0/0zoSnKmqoIqkIdi5XNOmiLYK0wxGOxycl8wAcimdSPQwqzjO641cfw8jVXOr
KowK8LxfYGEAjZXLSRjVNE7qQhOg3AAciAhr27vnnA6bjIU01eJBSKiOofm1NU7b
ggao8xrWFtli/0sjwqem9hUNj8vbj6N1AgMBAAEwDQYJKoZIhvcNAQEEBQADgYEA
qbOsNDRMcOxJFxYiBSUV0mrsxNMO1jRYUfs5Y73/o0hjFnkKSShb52hhhryTTWTt
J4ujBhStpR2xRSW4EwFhcRv53lQMcE5sf4v+DWv4vU/ENpGiWkIkH91Mg2+KZ/ne
U2DSotB63oK4X7hCtKH/rN9mEkzk7mDIUuNOCSVlnF0=
-----END CERTIFICATE-----
