Certificate:
    Data:
        Version: 1 (0x0)
        Serial Number:
            9b:27:d7:e8:d1:ba:08:94
        Signature Algorithm: md5WithRSAEncryption
        Issuer: C=DE, ST=Saarland, O=MPI-SWS, OU=Distributed Systems Group, CN=Andreas Haeberlen/emailAddress=democa@octarine.de
        Validity
            Not Before: Apr 20 20:47:05 2015 GMT
            Not After : Apr 19 20:47:05 2016 GMT
        Subject: C=DE, ST=Saarland, O=MPI-SWS, OU=Distributed Systems Group, CN=87e7238421b6da5e1cb267ad5e9bba131fb33485/emailAddress=node0188@octarine.de
        Subject Public Key Info:
            Public Key Algorithm: rsaEncryption
            RSA Public Key: (1024 bit)
                Modulus (1024 bit):
                    00:c1:c9:93:a9:0e:11:bf:08:ca:1a:36:c5:dd:86:
                    82:67:d8:b4:4a:87:ad:9c:73:01:61:6c:70:3a:da:
                    dd:24:81:58:dc:3e:0e:64:23:67:56:30:c9:7f:3e:
                    6b:a8:f0:f4:68:28:ce:bf:6b:bd:85:f8:84:42:f3:
                    d4:60:5b:a0:d9:bd:8c:af:92:7f:46:0d:4a:94:e5:
                    97:1a:19:b9:36:ca:a8:46:06:73:18:c0:ed:7a:ca:
                    54:d7:e3:2c:8a:81:c9:a7:e6:37:85:b2:af:89:3e:
                    8b:34:24:30:25:df:79:e6:6b:5a:12:e5:04:0a:c3:
                    cc:14:c2:85:10:42:7c:32:19
                Exponent: 65537 (0x10001)
    Signature Algorithm: md5WithRSAEncryption
        4f:67:d7:5d:bc:66:ce:d5:cc:b9:da:a0:ca:ec:aa:11:cb:66:
        ea:b1:f4:20:e1:e9:1f:2d:f3:05:da:e2:78:4a:3d:3b:99:28:
        db:bb:62:d8:41:73:36:9e:f0:b6:00:2f:a5:27:3f:6b:31:1a:
        7f:c6:50:f9:b8:06:6b:17:63:ed:64:18:35:53:a2:b8:1b:06:
        96:a9:bb:c2:9e:3c:0d:0c:f7:81:8c:53:97:a6:65:3d:35:fa:
        8f:d7:97:81:b1:53:93:00:5c:87:82:aa:79:89:1b:3f:c5:7e:
        d8:d5:5a:c2:68:b6:cf:8a:9b:ff:fe:4d:3b:5a:19:15:87:39:
        07:a6
-----BEGIN CERTIFICATE-----
MIICvDCCAiUCCQCbJ9fo0boIlDANBgkqhkiG9w0BAQQFADCBlTELMAkGA1UEBhMC
REUxETAPBgNVBAgTCFNhYXJsYW5kMRAwDgYDVQQKEwdNUEktU1dTMSIwIAYDVQQL
ExlEaXN0cmlidXRlZCBTeXN0ZW1zIEdyb3VwMRowGAYDVQQDExFBbmRyZWFzIEhh
ZWJlcmxlbjEhMB8GCSqGSIb3DQEJARYSZGVtb2NhQG9jdGFyaW5lLmRlMB4XDTE1
MDQyMDIwNDcwNVoXDTE2MDQxOTIwNDcwNVowga4xCzAJBgNVBAYTAkRFMREwDwYD
VQQIEwhTYWFybGFuZDEQMA4GA1UEChMHTVBJLVNXUzEiMCAGA1UECxMZRGlzdHJp
YnV0ZWQgU3lzdGVtcyBHcm91cDExMC8GA1UEAxMoODdlNzIzODQyMWI2ZGE1ZTFj
YjI2N2FkNWU5YmJhMTMxZmIzMzQ4NTEjMCEGCSqGSIb3DQEJARYUbm9kZTAxODhA
b2N0YXJpbmUuZGUwgZ8wDQYJKoZIhvcNAQEBBQADgY0AMIGJAoGBAMHJk6kOEb8I
yho2xd2GgmfYtEqHrZxzAWFscDra3SSBWNw+DmQjZ1YwyX8+a6jw9Ggozr9rvYX4
hELz1GBboNm9jK+Sf0YNSpTllxoZuTbKqEYGcxjA7XrKVNfjLIqByafmN4Wyr4k+
izQkMCXfeeZrWhLlBArDzBTChRBCfDIZAgMBAAEwDQYJKoZIhvcNAQEEBQADgYEA
T2fXXbxmztXMudqgyuyqEctm6rH0IOHpHy3zBdrieEo9O5ko27ti2EFzNp7wtgAv
pSc/azEaf8ZQ+bgGaxdj7WQYNVOiuBsGlqm7wp48DQz3gYxTl6ZlPTX6j9eXgbFT
kwBch4KqeYkbP8V+2NVawmi2z4qb//5NO1oZFYc5B6Y=
-----END CERTIFICATE-----
