Certificate:
    Data:
        Version: 1 (0x0)
        Serial Number:
            9b:27:d7:e8:d1:ba:09:78
        Signature Algorithm: md5WithRSAEncryption
        Issuer: C=DE, ST=Saarland, O=MPI-SWS, OU=Distributed Systems Group, CN=Andreas Haeberlen/emailAddress=democa@octarine.de
        Validity
            Not Before: Apr 20 20:47:15 2015 GMT
            Not After : Apr 19 20:47:15 2016 GMT
        Subject: C=DE, ST=Saarland, O=MPI-SWS, OU=Distributed Systems Group, CN=ffcada9bf95f62ff42716e83838b79969517fa2f/emailAddress=node0416@octarine.de
        Subject Public Key Info:
            Public Key Algorithm: rsaEncryption
            RSA Public Key: (1024 bit)
                Modulus (1024 bit):
                    00:d9:1b:b5:e8:e8:e0:f5:6d:79:0f:e8:17:5f:e5:
                    bb:d9:c3:a1:3b:21:43:c4:50:06:93:0d:18:d3:62:
                    b0:61:60:d6:b3:c5:97:58:92:93:c9:06:bd:98:fc:
                    d0:19:90:7a:c9:bd:f5:f7:74:2c:61:bf:e6:ce:cd:
                    3b:d6:01:84:15:9f:fb:a4:34:ce:66:0b:52:d8:60:
                    fe:b9:1d:a5:a3:84:44:28:c0:4d:91:a7:67:c8:38:
                    23:c8:4e:36:47:9e:ee:5f:08:aa:1c:7f:14:ef:5c:
                    7d:6e:ac:6e:84:b4:c4:e8:f6:34:ff:12:62:c3:5c:
                    3f:9d:0c:46:f3:27:7d:ce:ad
                Exponent: 65537 (0x10001)
    Signature Algorithm: md5WithRSAEncryption
        4a:63:56:49:36:09:15:fe:f0:29:72:25:3a:5a:43:04:d0:1d:
        43:e4:42:cc:ac:1f:f5:9c:89:1e:48:25:11:fd:ae:05:62:7c:
        90:81:9d:36:4d:2e:a2:ea:86:2a:e2:1f:40:2d:82:7c:6c:85:
        d7:a4:f7:23:9c:91:f5:18:bd:62:51:fb:e7:b1:3b:58:30:bc:
        6b:ed:2d:e7:db:4a:85:a9:f3:26:bb:66:40:5e:0b:0c:d0:ef:
        2d:b9:d4:08:32:1f:a3:da:11:35:d3:60:25:5e:0b:0e:b7:ac:
        99:2f:be:50:0d:99:81:ba:41:0b:31:97:ed:82:b1:d8:dd:ea:
        54:4e
-----BEGIN CERTIFICATE-----
MIICvDCCAiUCCQCbJ9fo0boJeDANBgkqhkiG9w0BAQQFADCBlTELMAkGA1UEBhMC
REUxETAPBgNVBAgTCFNhYXJsYW5kMRAwDgYDVQQKEwdNUEktU1dTMSIwIAYDVQQL
ExlEaXN0cmlidXRlZCBTeXN0ZW1zIEdyb3VwMRowGAYDVQQDExFBbmRyZWFzIEhh
ZWJlcmxlbjEhMB8GCSqGSIb3DQEJARYSZGVtb2NhQG9jdGFyaW5lLmRlMB4XDTE1
MDQyMDIwNDcxNVoXDTE2MDQxOTIwNDcxNVowga4xCzAJBgNVBAYTAkRFMREwDwYD
VQQIEwhTYWFybGFuZDEQMA4GA1UEChMHTVBJLVNXUzEiMCAGA1UECxMZRGlzdHJp
YnV0ZWQgU3lzdGVtcyBHcm91cDExMC8GA1UEAxMoZmZjYWRhOWJmOTVmNjJmZjQy
NzE2ZTgzODM4Yjc5OTY5NTE3ZmEyZjEjMCEGCSqGSIb3DQEJARYUbm9kZTA0MTZA
b2N0YXJpbmUuZGUwgZ8wDQYJKoZIhvcNAQEBBQADgY0AMIGJAoGBANkbtejo4PVt
eQ/oF1/lu9nDoTshQ8RQBpMNGNNisGFg1rPFl1iSk8kGvZj80BmQesm99fd0LGG/
5s7NO9YBhBWf+6Q0zmYLUthg/rkdpaOERCjATZGnZ8g4I8hONkee7l8Iqhx/FO9c
fW6sboS0xOj2NP8SYsNcP50MRvMnfc6tAgMBAAEwDQYJKoZIhvcNAQEEBQADgYEA
SmNWSTYJFf7wKXIlOlpDBNAdQ+RCzKwf9ZyJHkglEf2uBWJ8kIGdNk0uouqGKuIf
QC2CfGyF16T3I5yR9Ri9YlH757E7WDC8a+0t59tKhanzJrtmQF4LDNDvLbnUCDIf
o9oRNdNgJV4LDresmS++UA2ZgbpBCzGX7YKx2N3qVE4=
-----END CERTIFICATE-----
