Certificate:
    Data:
        Version: 1 (0x0)
        Serial Number:
            9b:27:d7:e8:d1:ba:0b:b4
        Signature Algorithm: md5WithRSAEncryption
        Issuer: C=DE, ST=Saarland, O=MPI-SWS, OU=Distributed Systems Group, CN=Andreas Haeberlen/emailAddress=democa@octarine.de
        Validity
            Not Before: Apr 20 20:47:41 2015 GMT
            Not After : Apr 19 20:47:41 2016 GMT
        Subject: C=DE, ST=Saarland, O=MPI-SWS, OU=Distributed Systems Group, CN=2a3c20dac980b4e37a99c90cc931fc817ce9db49/emailAddress=node0988@octarine.de
        Subject Public Key Info:
            Public Key Algorithm: rsaEncryption
            RSA Public Key: (1024 bit)
                Modulus (1024 bit):
                    00:d3:39:d5:e9:6c:06:6d:6d:f9:64:cd:3b:55:09:
                    16:0b:dc:81:ea:49:fd:85:e9:dc:4c:ae:65:7f:c4:
                    c3:75:1c:92:2b:bd:22:74:eb:c2:10:e3:4f:b1:34:
                    e4:f9:52:80:f3:41:73:bc:60:24:e6:ac:79:c3:a5:
                    92:a4:41:f8:99:a3:31:99:8c:b3:f4:12:14:b3:d8:
                    82:12:6d:0b:46:30:06:20:7b:ab:4f:a5:0a:f3:50:
                    3e:7d:75:31:1a:38:3c:99:20:35:12:30:2e:09:fb:
                    17:21:73:de:20:97:c1:bf:9c:78:12:0d:66:5e:8e:
                    77:49:7a:b1:a6:c1:d8:4c:27
                Exponent: 65537 (0x10001)
    Signature Algorithm: md5WithRSAEncryption
        06:bf:72:9b:2d:7e:e4:12:ee:53:c1:53:7d:db:29:1f:56:04:
        4f:50:4c:03:df:01:ec:9f:6b:24:4c:24:f4:39:c4:51:4c:14:
        42:f8:56:b6:e2:90:8b:00:20:fe:56:7a:3b:cb:82:aa:d9:75:
        bb:f3:1a:17:5d:a8:6a:bc:81:b9:f6:c2:86:e3:93:e9:4d:1a:
        8c:a5:69:75:a5:ca:94:4f:b5:85:e1:a5:80:fe:a8:37:26:c1:
        54:92:da:02:bf:ae:83:79:d2:03:f3:2a:73:8e:a9:88:f3:78:
        f9:06:db:14:21:9b:ed:82:79:fa:00:da:7e:87:fc:ac:29:70:
        8e:e5
-----BEGIN CERTIFICATE-----
MIICvDCCAiUCCQCbJ9fo0boLtDANBgkqhkiG9w0BAQQFADCBlTELMAkGA1UEBhMC
REUxETAPBgNVBAgTCFNhYXJsYW5kMRAwDgYDVQQKEwdNUEktU1dTMSIwIAYDVQQL
ExlEaXN0cmlidXRlZCBTeXN0ZW1zIEdyb3VwMRowGAYDVQQDExFBbmRyZWFzIEhh
ZWJlcmxlbjEhMB8GCSqGSIb3DQEJARYSZGVtb2NhQG9jdGFyaW5lLmRlMB4XDTE1
MDQyMDIwNDc0MVoXDTE2MDQxOTIwNDc0MVowga4xCzAJBgNVBAYTAkRFMREwDwYD
VQQIEwhTYWFybGFuZDEQMA4GA1UEChMHTVBJLVNXUzEiMCAGA1UECxMZRGlzdHJp
YnV0ZWQgU3lzdGVtcyBHcm91cDExMC8GA1UEAxMoMmEzYzIwZGFjOTgwYjRlMzdh
OTljOTBjYzkzMWZjODE3Y2U5ZGI0OTEjMCEGCSqGSIb3DQEJARYUbm9kZTA5ODhA
b2N0YXJpbmUuZGUwgZ8wDQYJKoZIhvcNAQEBBQADgY0AMIGJAoGBANM51elsBm1t
+WTNO1UJFgvcgepJ/YXp3EyuZX/Ew3Uckiu9InTrwhDjT7E05PlSgPNBc7xgJOas
ecOlkqRB+JmjMZmMs/QSFLPYghJtC0YwBiB7q0+lCvNQPn11MRo4PJkgNRIwLgn7
FyFz3iCXwb+ceBINZl6Od0l6sabB2EwnAgMBAAEwDQYJKoZIhvcNAQEEBQADgYEA
Br9ymy1+5BLuU8FTfdspH1YET1BMA98B7J9rJEwk9DnEUUwUQvhWtuKQiwAg/lZ6
O8uCqtl1u/MaF12oaryBufbChuOT6U0ajKVpdaXKlE+1heGlgP6oNybBVJLaAr+u
g3nSA/Mqc46piPN4+QbbFCGb7YJ5+gDafof8rClwjuU=
-----END CERTIFICATE-----
