Certificate:
    Data:
        Version: 1 (0x0)
        Serial Number:
            9b:27:d7:e8:d1:ba:09:d4
        Signature Algorithm: md5WithRSAEncryption
        Issuer: C=DE, ST=Saarland, O=MPI-SWS, OU=Distributed Systems Group, CN=Andreas Haeberlen/emailAddress=democa@octarine.de
        Validity
            Not Before: Apr 20 20:47:19 2015 GMT
            Not After : Apr 19 20:47:19 2016 GMT
        Subject: C=DE, ST=Saarland, O=MPI-SWS, OU=Distributed Systems Group, CN=1dc7346168d8b71aa163548ff158b5ac3746bb82/emailAddress=node0508@octarine.de
        Subject Public Key Info:
            Public Key Algorithm: rsaEncryption
            RSA Public Key: (1024 bit)
                Modulus (1024 bit):
                    00:c7:c1:d5:14:86:c7:cd:8e:81:05:14:cd:33:fb:
                    20:88:5f:13:da:3c:e8:2e:59:06:11:23:f1:bd:91:
                    0e:f8:f2:25:c8:ee:36:af:d2:8e:da:ee:47:8f:52:
                    bc:60:48:91:5f:0a:d2:e9:f7:a6:70:83:a2:07:b8:
                    b4:e0:84:83:bf:17:aa:5b:17:09:f5:1c:59:9a:ff:
                    81:2c:c0:eb:09:04:a9:2b:ba:7a:c7:c9:2c:5b:70:
                    b5:fb:fd:97:d3:c4:10:62:73:99:13:5b:88:60:02:
                    b8:e0:5c:50:4f:9b:73:c8:11:95:0f:2b:c0:c3:b3:
                    fe:35:05:24:64:e7:3d:b1:2d
                Exponent: 65537 (0x10001)
    Signature Algorithm: md5WithRSAEncryption
        43:54:c7:28:5d:b0:79:c5:cc:4f:3e:18:4e:1e:54:c7:09:ce:
        26:84:22:0b:fc:cb:96:ff:25:18:ca:40:eb:a7:8f:65:db:e0:
        67:6a:52:2f:a9:1b:78:d8:65:12:dd:30:22:9d:93:97:73:7f:
        6b:02:df:e5:97:f1:fd:9e:d0:79:d8:99:dc:2b:33:1a:a7:ab:
        29:ed:21:99:a5:a6:4e:ce:2c:6e:ad:a1:17:96:30:a4:df:db:
        b9:26:46:f2:f2:dc:9d:d7:bb:62:94:25:19:0a:e8:d1:c9:8f:
        21:e5:04:b5:2d:a7:9e:17:2a:34:c7:00:63:ea:75:8e:2a:df:
        db:e4
-----BEGIN CERTIFICATE-----
MIICvDCCAiUCCQCbJ9fo0boJ1DANBgkqhkiG9w0BAQQFADCBlTELMAkGA1UEBhMC
REUxETAPBgNVBAgTCFNhYXJsYW5kMRAwDgYDVQQKEwdNUEktU1dTMSIwIAYDVQQL
ExlEaXN0cmlidXRlZCBTeXN0ZW1zIEdyb3VwMRowGAYDVQQDExFBbmRyZWFzIEhh
ZWJlcmxlbjEhMB8GCSqGSIb3DQEJARYSZGVtb2NhQG9jdGFyaW5lLmRlMB4XDTE1
MDQyMDIwNDcxOVoXDTE2MDQxOTIwNDcxOVowga4xCzAJBgNVBAYTAkRFMREwDwYD
VQQIEwhTYWFybGFuZDEQMA4GA1UEChMHTVBJLVNXUzEiMCAGA1UECxMZRGlzdHJp
YnV0ZWQgU3lzdGVtcyBHcm91cDExMC8GA1UEAxMoMWRjNzM0NjE2OGQ4YjcxYWEx
NjM1NDhmZjE1OGI1YWMzNzQ2YmI4MjEjMCEGCSqGSIb3DQEJARYUbm9kZTA1MDhA
b2N0YXJpbmUuZGUwgZ8wDQYJKoZIhvcNAQEBBQADgY0AMIGJAoGBAMfB1RSGx82O
gQUUzTP7IIhfE9o86C5ZBhEj8b2RDvjyJcjuNq/SjtruR49SvGBIkV8K0un3pnCD
oge4tOCEg78XqlsXCfUcWZr/gSzA6wkEqSu6esfJLFtwtfv9l9PEEGJzmRNbiGAC
uOBcUE+bc8gRlQ8rwMOz/jUFJGTnPbEtAgMBAAEwDQYJKoZIhvcNAQEEBQADgYEA
Q1THKF2wecXMTz4YTh5UxwnOJoQiC/zLlv8lGMpA66ePZdvgZ2pSL6kbeNhlEt0w
Ip2Tl3N/awLf5Zfx/Z7QediZ3CszGqerKe0hmaWmTs4sbq2hF5YwpN/buSZG8vLc
nde7YpQlGQro0cmPIeUEtS2nnhcqNMcAY+p1jirf2+Q=
-----END CERTIFICATE-----
