Certificate:
    Data:
        Version: 1 (0x0)
        Serial Number:
            9b:27:d7:e8:d1:ba:0b:5f
        Signature Algorithm: md5WithRSAEncryption
        Issuer: C=DE, ST=Saarland, O=MPI-SWS, OU=Distributed Systems Group, CN=Andreas Haeberlen/emailAddress=democa@octarine.de
        Validity
            Not Before: Apr 20 20:47:37 2015 GMT
            Not After : Apr 19 20:47:37 2016 GMT
        Subject: C=DE, ST=Saarland, O=MPI-SWS, OU=Distributed Systems Group, CN=35b2d106cfc8d3d19bedb99b87f7ba7e031d4240/emailAddress=node0903@octarine.de
        Subject Public Key Info:
            Public Key Algorithm: rsaEncryption
            RSA Public Key: (1024 bit)
                Modulus (1024 bit):
                    00:99:96:fc:95:e5:ae:02:56:0e:bf:e3:41:30:0c:
                    69:97:41:07:48:2b:2f:19:43:5a:71:2e:16:e6:4b:
                    21:24:70:07:4c:36:fc:10:d1:48:76:4b:fe:86:85:
                    f8:59:20:06:ef:19:e8:53:ea:d8:bb:c8:d1:b6:42:
                    d5:ce:ea:49:39:fb:a1:09:93:41:51:ef:88:24:bc:
                    34:65:90:db:2b:5d:6f:72:90:93:58:96:29:e5:8f:
                    8a:19:31:27:06:ee:36:07:a3:c6:e8:0b:f8:fe:fb:
                    3c:d1:24:2c:23:df:b7:26:9e:17:f1:c9:93:51:cd:
                    f7:37:15:83:19:cb:f9:78:69
                Exponent: 65537 (0x10001)
    Signature Algorithm: md5WithRSAEncryption
        70:48:7e:b7:3e:9d:9f:04:d9:b2:12:7d:98:35:a4:49:22:30:
        de:99:3d:bc:de:54:12:6d:f3:fc:37:ce:c2:33:79:c2:6f:57:
        ca:68:e1:86:96:5a:09:60:dd:cc:2c:ef:87:13:5a:e3:dd:a8:
        1d:f1:39:ce:b3:6c:e0:6f:4a:54:7f:f6:8e:76:f8:c7:2d:81:
        e0:8b:ad:31:a6:96:fa:87:68:59:43:90:6f:9a:86:7a:c2:97:
        08:a9:c5:3c:ee:b2:c9:7d:a6:2c:51:94:6c:1c:25:d0:85:3a:
        38:08:7c:ea:23:de:2c:17:93:04:3b:7d:55:42:18:5e:0c:1f:
        52:e4
-----BEGIN CERTIFICATE-----
MIICvDCCAiUCCQCbJ9fo0boLXzANBgkqhkiG9w0BAQQFADCBlTELMAkGA1UEBhMC
REUxETAPBgNVBAgTCFNhYXJsYW5kMRAwDgYDVQQKEwdNUEktU1dTMSIwIAYDVQQL
ExlEaXN0cmlidXRlZCBTeXN0ZW1zIEdyb3VwMRowGAYDVQQDExFBbmRyZWFzIEhh
ZWJlcmxlbjEhMB8GCSqGSIb3DQEJARYSZGVtb2NhQG9jdGFyaW5lLmRlMB4XDTE1
MDQyMDIwNDczN1oXDTE2MDQxOTIwNDczN1owga4xCzAJBgNVBAYTAkRFMREwDwYD
VQQIEwhTYWFybGFuZDEQMA4GA1UEChMHTVBJLVNXUzEiMCAGA1UECxMZRGlzdHJp
YnV0ZWQgU3lzdGVtcyBHcm91cDExMC8GA1UEAxMoMzViMmQxMDZjZmM4ZDNkMTli
ZWRiOTliODdmN2JhN2UwMzFkNDI0MDEjMCEGCSqGSIb3DQEJARYUbm9kZTA5MDNA
b2N0YXJpbmUuZGUwgZ8wDQYJKoZIhvcNAQEBBQADgY0AMIGJAoGBAJmW/JXlrgJW
Dr/jQTAMaZdBB0grLxlDWnEuFuZLISRwB0w2/BDRSHZL/oaF+FkgBu8Z6FPq2LvI
0bZC1c7qSTn7oQmTQVHviCS8NGWQ2ytdb3KQk1iWKeWPihkxJwbuNgejxugL+P77
PNEkLCPftyaeF/HJk1HN9zcVgxnL+XhpAgMBAAEwDQYJKoZIhvcNAQEEBQADgYEA
cEh+tz6dnwTZshJ9mDWkSSIw3pk9vN5UEm3z/DfOwjN5wm9XymjhhpZaCWDdzCzv
hxNa492oHfE5zrNs4G9KVH/2jnb4xy2B4IutMaaW+odoWUOQb5qGesKXCKnFPO6y
yX2mLFGUbBwl0IU6OAh86iPeLBeTBDt9VUIYXgwfUuQ=
-----END CERTIFICATE-----
