Certificate:
    Data:
        Version: 1 (0x0)
        Serial Number:
            9b:27:d7:e8:d1:ba:0b:13
        Signature Algorithm: md5WithRSAEncryption
        Issuer: C=DE, ST=Saarland, O=MPI-SWS, OU=Distributed Systems Group, CN=Andreas Haeberlen/emailAddress=democa@octarine.de
        Validity
            Not Before: Apr 20 20:47:33 2015 GMT
            Not After : Apr 19 20:47:33 2016 GMT
        Subject: C=DE, ST=Saarland, O=MPI-SWS, OU=Distributed Systems Group, CN=7614f1ed0e00277e326c6f752b6f8310a2494264/emailAddress=node0827@octarine.de
        Subject Public Key Info:
            Public Key Algorithm: rsaEncryption
            RSA Public Key: (1024 bit)
                Modulus (1024 bit):
                    00:bf:62:3c:8d:6d:ea:3f:c2:bf:42:01:08:a2:84:
                    5c:dc:08:5b:77:8f:91:19:e8:49:c8:bb:98:9f:c6:
                    b8:e7:3e:f7:bb:93:69:49:ae:36:22:fc:b9:33:46:
                    de:b9:b3:7e:9e:cf:6e:52:34:98:06:b0:48:29:92:
                    56:37:f2:c3:4f:73:cb:d3:28:60:15:46:07:df:de:
                    bd:b3:6f:54:4c:14:8e:19:d2:57:b1:9c:29:d3:3a:
                    e4:fc:cd:5a:ae:d4:e5:03:33:12:ab:82:ea:13:08:
                    13:a5:a1:f0:5e:34:51:91:06:f9:1e:7e:b8:dd:dd:
                    55:3b:3b:df:1a:0a:89:c8:65
                Exponent: 65537 (0x10001)
    Signature Algorithm: md5WithRSAEncryption
        8a:1d:44:5d:5f:df:89:d2:c8:bd:c0:d7:f3:6b:8c:54:fd:9d:
        76:fc:f7:db:0e:a7:81:7c:e3:23:53:49:75:40:3e:12:fa:2d:
        c5:54:c4:8a:0c:09:fc:45:1f:e2:15:53:a3:f2:1b:14:54:84:
        62:49:e1:83:7f:33:b2:95:a8:30:f4:75:52:a4:4a:75:41:5c:
        0c:0b:f8:8d:f0:27:b8:3e:c7:4b:ba:64:72:1a:fe:ac:23:2e:
        15:c9:23:ef:f2:76:04:ea:6d:6f:89:38:bd:3f:49:3d:4c:83:
        87:03:36:ab:d6:b4:e6:71:04:5e:1a:44:4e:89:28:22:31:21:
        22:fa
-----BEGIN CERTIFICATE-----
MIICvDCCAiUCCQCbJ9fo0boLEzANBgkqhkiG9w0BAQQFADCBlTELMAkGA1UEBhMC
REUxETAPBgNVBAgTCFNhYXJsYW5kMRAwDgYDVQQKEwdNUEktU1dTMSIwIAYDVQQL
ExlEaXN0cmlidXRlZCBTeXN0ZW1zIEdyb3VwMRowGAYDVQQDExFBbmRyZWFzIEhh
ZWJlcmxlbjEhMB8GCSqGSIb3DQEJARYSZGVtb2NhQG9jdGFyaW5lLmRlMB4XDTE1
MDQyMDIwNDczM1oXDTE2MDQxOTIwNDczM1owga4xCzAJBgNVBAYTAkRFMREwDwYD
VQQIEwhTYWFybGFuZDEQMA4GA1UEChMHTVBJLVNXUzEiMCAGA1UECxMZRGlzdHJp
YnV0ZWQgU3lzdGVtcyBHcm91cDExMC8GA1UEAxMoNzYxNGYxZWQwZTAwMjc3ZTMy
NmM2Zjc1MmI2ZjgzMTBhMjQ5NDI2NDEjMCEGCSqGSIb3DQEJARYUbm9kZTA4MjdA
b2N0YXJpbmUuZGUwgZ8wDQYJKoZIhvcNAQEBBQADgY0AMIGJAoGBAL9iPI1t6j/C
v0IBCKKEXNwIW3ePkRnoSci7mJ/GuOc+97uTaUmuNiL8uTNG3rmzfp7PblI0mAaw
SCmSVjfyw09zy9MoYBVGB9/evbNvVEwUjhnSV7GcKdM65PzNWq7U5QMzEquC6hMI
E6Wh8F40UZEG+R5+uN3dVTs73xoKichlAgMBAAEwDQYJKoZIhvcNAQEEBQADgYEA
ih1EXV/fidLIvcDX82uMVP2ddvz32w6ngXzjI1NJdUA+EvotxVTEigwJ/EUf4hVT
o/IbFFSEYknhg38zspWoMPR1UqRKdUFcDAv4jfAnuD7HS7pkchr+rCMuFckj7/J2
BOptb4k4vT9JPUyDhwM2q9a05nEEXhpETokoIjEhIvo=
-----END CERTIFICATE-----
