Certificate:
    Data:
        Version: 1 (0x0)
        Serial Number:
            9b:27:d7:e8:d1:ba:0b:10
        Signature Algorithm: md5WithRSAEncryption
        Issuer: C=DE, ST=Saarland, O=MPI-SWS, OU=Distributed Systems Group, CN=Andreas Haeberlen/emailAddress=democa@octarine.de
        Validity
            Not Before: Apr 20 20:47:33 2015 GMT
            Not After : Apr 19 20:47:33 2016 GMT
        Subject: C=DE, ST=Saarland, O=MPI-SWS, OU=Distributed Systems Group, CN=dbe34bc45a3678d2540ef15962a44de18c5d811d/emailAddress=node0824@octarine.de
        Subject Public Key Info:
            Public Key Algorithm: rsaEncryption
            RSA Public Key: (1024 bit)
                Modulus (1024 bit):
                    00:a7:0e:be:f7:1c:16:dc:5a:fc:7b:b1:c9:91:99:
                    54:8e:ab:62:8c:15:73:e6:28:ba:23:fb:b8:0f:61:
                    a0:46:0b:58:95:1f:8d:a1:3f:94:fb:7e:53:4c:38:
                    ec:5a:73:e7:8a:d7:46:93:c1:7d:fa:50:ef:7e:a9:
                    4b:f7:15:a3:dd:1f:c6:9d:aa:f4:38:3e:8c:9f:6c:
                    e4:ef:40:5c:0c:d6:3d:f7:4b:82:8f:cd:ad:11:5b:
                    20:64:ac:f8:0c:f1:b9:39:67:c2:17:72:3a:a6:bf:
                    00:24:ec:d4:6a:4d:85:85:ee:9f:f0:8f:17:b9:dd:
                    38:7d:3b:aa:a0:7a:82:35:d7
                Exponent: 65537 (0x10001)
    Signature Algorithm: md5WithRSAEncryption
        97:aa:90:b2:8e:1f:be:79:1c:66:b9:87:f4:3f:84:35:f8:15:
        d9:94:3f:4d:2c:61:08:48:4d:17:78:0a:2f:ce:78:f4:a3:3e:
        68:cc:42:df:79:13:58:5f:2d:60:a8:35:72:79:01:9c:c5:cd:
        b7:e9:d8:fd:b3:69:0c:3b:75:40:dd:1f:85:85:e4:15:d1:b3:
        b5:f4:5b:f3:93:38:1c:08:32:91:5b:16:2e:01:cc:d7:21:6b:
        50:5a:38:72:f2:12:c5:cc:40:e8:02:21:e2:18:90:c1:07:35:
        47:21:9a:ef:21:4a:e8:0a:2d:05:22:cd:1d:fe:b7:ee:e0:0f:
        48:78
-----BEGIN CERTIFICATE-----
MIICvDCCAiUCCQCbJ9fo0boLEDANBgkqhkiG9w0BAQQFADCBlTELMAkGA1UEBhMC
REUxETAPBgNVBAgTCFNhYXJsYW5kMRAwDgYDVQQKEwdNUEktU1dTMSIwIAYDVQQL
ExlEaXN0cmlidXRlZCBTeXN0ZW1zIEdyb3VwMRowGAYDVQQDExFBbmRyZWFzIEhh
ZWJlcmxlbjEhMB8GCSqGSIb3DQEJARYSZGVtb2NhQG9jdGFyaW5lLmRlMB4XDTE1
MDQyMDIwNDczM1oXDTE2MDQxOTIwNDczM1owga4xCzAJBgNVBAYTAkRFMREwDwYD
VQQIEwhTYWFybGFuZDEQMA4GA1UEChMHTVBJLVNXUzEiMCAGA1UECxMZRGlzdHJp
YnV0ZWQgU3lzdGVtcyBHcm91cDExMC8GA1UEAxMoZGJlMzRiYzQ1YTM2NzhkMjU0
MGVmMTU5NjJhNDRkZTE4YzVkODExZDEjMCEGCSqGSIb3DQEJARYUbm9kZTA4MjRA
b2N0YXJpbmUuZGUwgZ8wDQYJKoZIhvcNAQEBBQADgY0AMIGJAoGBAKcOvvccFtxa
/HuxyZGZVI6rYowVc+YouiP7uA9hoEYLWJUfjaE/lPt+U0w47Fpz54rXRpPBffpQ
736pS/cVo90fxp2q9Dg+jJ9s5O9AXAzWPfdLgo/NrRFbIGSs+AzxuTlnwhdyOqa/
ACTs1GpNhYXun/CPF7ndOH07qqB6gjXXAgMBAAEwDQYJKoZIhvcNAQEEBQADgYEA
l6qQso4fvnkcZrmH9D+ENfgV2ZQ/TSxhCEhNF3gKL8549KM+aMxC33kTWF8tYKg1
cnkBnMXNt+nY/bNpDDt1QN0fhYXkFdGztfRb85M4HAgykVsWLgHM1yFrUFo4cvIS
xcxA6AIh4hiQwQc1RyGa7yFK6AotBSLNHf637uAPSHg=
-----END CERTIFICATE-----
