Certificate:
    Data:
        Version: 1 (0x0)
        Serial Number:
            9b:27:d7:e8:d1:ba:09:91
        Signature Algorithm: md5WithRSAEncryption
        Issuer: C=DE, ST=Saarland, O=MPI-SWS, OU=Distributed Systems Group, CN=Andreas Haeberlen/emailAddress=democa@octarine.de
        Validity
            Not Before: Apr 20 20:47:16 2015 GMT
            Not After : Apr 19 20:47:16 2016 GMT
        Subject: C=DE, ST=Saarland, O=MPI-SWS, OU=Distributed Systems Group, CN=8b99ce140ba714adf064f70bd8668de098a56ba7/emailAddress=node0441@octarine.de
        Subject Public Key Info:
            Public Key Algorithm: rsaEncryption
            RSA Public Key: (1024 bit)
                Modulus (1024 bit):
                    00:e0:4f:3a:ee:c1:82:cb:84:ec:e4:37:e4:a8:ad:
                    2e:ff:70:ec:d2:45:4e:3a:d5:15:55:2e:56:9c:ca:
                    e6:5c:70:52:5b:02:a8:6f:42:2e:6a:13:36:64:0c:
                    a4:50:5b:27:3d:ae:06:55:69:44:1e:0f:a6:3e:3a:
                    3c:36:9f:76:51:6f:52:65:5e:9e:50:8c:21:d6:ca:
                    65:65:9a:63:da:f0:42:de:5e:1d:f7:49:f5:63:ba:
                    71:39:ed:43:63:32:02:33:f2:03:99:a1:c7:ac:16:
                    e4:cc:e5:be:8c:17:30:dc:8c:60:05:6a:14:83:47:
                    cd:e5:e7:cc:bb:ac:df:7c:4b
                Exponent: 65537 (0x10001)
    Signature Algorithm: md5WithRSAEncryption
        3b:33:51:a0:31:63:27:13:4c:e9:0f:e0:5f:57:8b:d3:9f:11:
        b7:c1:c8:ac:61:71:34:5e:73:1a:c0:56:cd:c2:d3:5a:a9:40:
        0f:ac:6e:66:46:a8:12:56:33:5b:05:21:33:1a:b8:f7:a0:11:
        0e:05:52:46:68:67:59:da:cc:e9:ba:e7:63:05:aa:03:f1:64:
        36:ee:d7:31:25:69:e0:62:e4:72:b1:08:7d:5b:27:95:b6:52:
        70:cc:23:c3:d8:4c:98:06:cd:2a:b2:3c:74:86:4f:d7:10:05:
        df:a8:76:51:29:ff:c8:8e:d2:f1:63:32:47:1a:d6:cf:68:fb:
        9a:9c
-----BEGIN CERTIFICATE-----
MIICvDCCAiUCCQCbJ9fo0boJkTANBgkqhkiG9w0BAQQFADCBlTELMAkGA1UEBhMC
REUxETAPBgNVBAgTCFNhYXJsYW5kMRAwDgYDVQQKEwdNUEktU1dTMSIwIAYDVQQL
ExlEaXN0cmlidXRlZCBTeXN0ZW1zIEdyb3VwMRowGAYDVQQDExFBbmRyZWFzIEhh
ZWJlcmxlbjEhMB8GCSqGSIb3DQEJARYSZGVtb2NhQG9jdGFyaW5lLmRlMB4XDTE1
MDQyMDIwNDcxNloXDTE2MDQxOTIwNDcxNlowga4xCzAJBgNVBAYTAkRFMREwDwYD
VQQIEwhTYWFybGFuZDEQMA4GA1UEChMHTVBJLVNXUzEiMCAGA1UECxMZRGlzdHJp
YnV0ZWQgU3lzdGVtcyBHcm91cDExMC8GA1UEAxMoOGI5OWNlMTQwYmE3MTRhZGYw
NjRmNzBiZDg2NjhkZTA5OGE1NmJhNzEjMCEGCSqGSIb3DQEJARYUbm9kZTA0NDFA
b2N0YXJpbmUuZGUwgZ8wDQYJKoZIhvcNAQEBBQADgY0AMIGJAoGBAOBPOu7BgsuE
7OQ35KitLv9w7NJFTjrVFVUuVpzK5lxwUlsCqG9CLmoTNmQMpFBbJz2uBlVpRB4P
pj46PDafdlFvUmVenlCMIdbKZWWaY9rwQt5eHfdJ9WO6cTntQ2MyAjPyA5mhx6wW
5MzlvowXMNyMYAVqFINHzeXnzLus33xLAgMBAAEwDQYJKoZIhvcNAQEEBQADgYEA
OzNRoDFjJxNM6Q/gX1eL058Rt8HIrGFxNF5zGsBWzcLTWqlAD6xuZkaoElYzWwUh
Mxq496ARDgVSRmhnWdrM6brnYwWqA/FkNu7XMSVp4GLkcrEIfVsnlbZScMwjw9hM
mAbNKrI8dIZP1xAF36h2USn/yI7S8WMyRxrWz2j7mpw=
-----END CERTIFICATE-----
