Certificate:
    Data:
        Version: 1 (0x0)
        Serial Number:
            9b:27:d7:e8:d1:ba:0a:d1
        Signature Algorithm: md5WithRSAEncryption
        Issuer: C=DE, ST=Saarland, O=MPI-SWS, OU=Distributed Systems Group, CN=Andreas Haeberlen/emailAddress=democa@octarine.de
        Validity
            Not Before: Apr 20 20:47:30 2015 GMT
            Not After : Apr 19 20:47:30 2016 GMT
        Subject: C=DE, ST=Saarland, O=MPI-SWS, OU=Distributed Systems Group, CN=b86beb9f3ab2861cbc9435bf4cc3a296b019bb8e/emailAddress=node0761@octarine.de
        Subject Public Key Info:
            Public Key Algorithm: rsaEncryption
            RSA Public Key: (1024 bit)
                Modulus (1024 bit):
                    00:ea:5b:e2:97:cb:e2:c1:2b:fe:08:b7:14:3c:c7:
                    80:01:b2:ba:da:1e:6c:9d:39:49:98:62:74:ba:44:
                    78:9f:9a:35:c4:f1:12:a0:d9:d1:22:b5:1b:ee:95:
                    3c:65:a3:76:b8:e4:87:d4:91:de:b4:f3:59:ec:d7:
                    2e:df:c3:d6:87:a8:53:e0:cd:e2:ed:67:ee:84:a2:
                    2b:72:86:a2:02:3c:9d:80:7a:68:3b:c1:57:65:74:
                    f6:0d:a3:9d:c3:c1:f5:43:df:df:a4:e8:24:3b:a5:
                    44:28:2e:99:14:33:1c:87:47:a9:49:5e:9c:81:a9:
                    cf:0b:93:9f:b5:ad:1c:3a:61
                Exponent: 65537 (0x10001)
    Signature Algorithm: md5WithRSAEncryption
        79:3f:df:fb:f9:a7:3a:d4:9f:bf:d3:f8:c1:2c:57:7e:0c:18:
        be:9f:54:a9:09:83:32:17:46:67:b0:42:fc:ea:de:c0:6b:fb:
        e5:87:eb:f5:4c:74:ca:2e:ee:e7:a3:00:7e:ff:0c:87:97:db:
        21:10:c5:17:64:50:ea:40:39:ce:b2:7b:cb:fe:24:9c:72:bc:
        67:79:45:b2:f3:ed:18:1a:06:da:0c:2f:b7:42:b3:a6:2c:31:
        f0:63:93:0b:15:4e:33:6d:c1:bb:42:30:e8:af:6f:01:04:75:
        03:f4:5a:d8:94:c9:d7:59:75:db:56:29:57:e6:db:89:ad:5d:
        23:1d
-----BEGIN CERTIFICATE-----
MIICvDCCAiUCCQCbJ9fo0boK0TANBgkqhkiG9w0BAQQFADCBlTELMAkGA1UEBhMC
REUxETAPBgNVBAgTCFNhYXJsYW5kMRAwDgYDVQQKEwdNUEktU1dTMSIwIAYDVQQL
ExlEaXN0cmlidXRlZCBTeXN0ZW1zIEdyb3VwMRowGAYDVQQDExFBbmRyZWFzIEhh
ZWJlcmxlbjEhMB8GCSqGSIb3DQEJARYSZGVtb2NhQG9jdGFyaW5lLmRlMB4XDTE1
MDQyMDIwNDczMFoXDTE2MDQxOTIwNDczMFowga4xCzAJBgNVBAYTAkRFMREwDwYD
VQQIEwhTYWFybGFuZDEQMA4GA1UEChMHTVBJLVNXUzEiMCAGA1UECxMZRGlzdHJp
YnV0ZWQgU3lzdGVtcyBHcm91cDExMC8GA1UEAxMoYjg2YmViOWYzYWIyODYxY2Jj
OTQzNWJmNGNjM2EyOTZiMDE5YmI4ZTEjMCEGCSqGSIb3DQEJARYUbm9kZTA3NjFA
b2N0YXJpbmUuZGUwgZ8wDQYJKoZIhvcNAQEBBQADgY0AMIGJAoGBAOpb4pfL4sEr
/gi3FDzHgAGyutoebJ05SZhidLpEeJ+aNcTxEqDZ0SK1G+6VPGWjdrjkh9SR3rTz
WezXLt/D1oeoU+DN4u1n7oSiK3KGogI8nYB6aDvBV2V09g2jncPB9UPf36ToJDul
RCgumRQzHIdHqUlenIGpzwuTn7WtHDphAgMBAAEwDQYJKoZIhvcNAQEEBQADgYEA
eT/f+/mnOtSfv9P4wSxXfgwYvp9UqQmDMhdGZ7BC/OrewGv75Yfr9Ux0yi7u56MA
fv8Mh5fbIRDFF2RQ6kA5zrJ7y/4knHK8Z3lFsvPtGBoG2gwvt0Kzpiwx8GOTCxVO
M23Bu0Iw6K9vAQR1A/Ra2JTJ11l121YpV+bbia1dIx0=
-----END CERTIFICATE-----
