Certificate:
    Data:
        Version: 1 (0x0)
        Serial Number:
            9b:27:d7:e8:d1:ba:08:de
        Signature Algorithm: md5WithRSAEncryption
        Issuer: C=DE, ST=Saarland, O=MPI-SWS, OU=Distributed Systems Group, CN=Andreas Haeberlen/emailAddress=democa@octarine.de
        Validity
            Not Before: Apr 20 20:47:08 2015 GMT
            Not After : Apr 19 20:47:08 2016 GMT
        Subject: C=DE, ST=Saarland, O=MPI-SWS, OU=Distributed Systems Group, CN=bd976f40fed2ff7a9c222f8e7a7496444ecad1bd/emailAddress=node0262@octarine.de
        Subject Public Key Info:
            Public Key Algorithm: rsaEncryption
            RSA Public Key: (1024 bit)
                Modulus (1024 bit):
                    00:c4:aa:a2:f9:bd:0d:00:d9:fc:64:96:b1:95:75:
                    08:57:9d:e3:f5:c4:92:00:6f:b5:64:be:bc:fa:5e:
                    eb:07:bd:d5:a7:60:64:f6:01:51:0b:42:b3:20:f2:
                    d2:0b:4d:0e:41:96:e0:49:3d:29:49:ce:ba:4e:55:
                    05:19:62:d3:db:c5:df:c3:26:a9:9f:df:fe:07:31:
                    f3:68:76:26:72:27:b8:9e:1c:e1:50:91:78:d8:3b:
                    04:2b:f5:93:72:b7:30:35:8e:25:3b:52:06:b6:43:
                    2b:a6:79:82:9b:7a:f3:5a:10:6c:3d:83:34:f9:fc:
                    15:c1:bf:6b:d0:cb:d4:19:43
                Exponent: 65537 (0x10001)
    Signature Algorithm: md5WithRSAEncryption
        5e:74:c6:74:65:e5:10:8a:43:22:24:d3:70:06:9d:b8:1a:14:
        65:99:9c:73:80:c4:d1:cd:4e:bb:49:b5:06:b9:41:11:9e:46:
        5e:a4:b0:94:bd:74:ad:1d:2e:10:23:18:9a:66:e8:d4:2c:93:
        8b:30:5c:22:6f:01:6d:b5:69:17:1c:04:a3:44:3f:ab:0e:1a:
        36:6f:07:7d:a8:d5:a2:2f:ec:90:da:8a:92:eb:d2:e8:4f:10:
        af:bb:fa:46:bf:8a:f2:6d:42:14:44:f8:91:af:a3:96:db:4c:
        1f:53:90:53:b5:3a:c5:35:f1:77:25:a1:dd:98:54:fd:79:e5:
        6d:40
-----BEGIN CERTIFICATE-----
MIICvDCCAiUCCQCbJ9fo0boI3jANBgkqhkiG9w0BAQQFADCBlTELMAkGA1UEBhMC
REUxETAPBgNVBAgTCFNhYXJsYW5kMRAwDgYDVQQKEwdNUEktU1dTMSIwIAYDVQQL
ExlEaXN0cmlidXRlZCBTeXN0ZW1zIEdyb3VwMRowGAYDVQQDExFBbmRyZWFzIEhh
ZWJlcmxlbjEhMB8GCSqGSIb3DQEJARYSZGVtb2NhQG9jdGFyaW5lLmRlMB4XDTE1
MDQyMDIwNDcwOFoXDTE2MDQxOTIwNDcwOFowga4xCzAJBgNVBAYTAkRFMREwDwYD
VQQIEwhTYWFybGFuZDEQMA4GA1UEChMHTVBJLVNXUzEiMCAGA1UECxMZRGlzdHJp
YnV0ZWQgU3lzdGVtcyBHcm91cDExMC8GA1UEAxMoYmQ5NzZmNDBmZWQyZmY3YTlj
MjIyZjhlN2E3NDk2NDQ0ZWNhZDFiZDEjMCEGCSqGSIb3DQEJARYUbm9kZTAyNjJA
b2N0YXJpbmUuZGUwgZ8wDQYJKoZIhvcNAQEBBQADgY0AMIGJAoGBAMSqovm9DQDZ
/GSWsZV1CFed4/XEkgBvtWS+vPpe6we91adgZPYBUQtCsyDy0gtNDkGW4Ek9KUnO
uk5VBRli09vF38MmqZ/f/gcx82h2JnInuJ4c4VCReNg7BCv1k3K3MDWOJTtSBrZD
K6Z5gpt681oQbD2DNPn8FcG/a9DL1BlDAgMBAAEwDQYJKoZIhvcNAQEEBQADgYEA
XnTGdGXlEIpDIiTTcAaduBoUZZmcc4DE0c1Ou0m1BrlBEZ5GXqSwlL10rR0uECMY
mmbo1CyTizBcIm8BbbVpFxwEo0Q/qw4aNm8HfajVoi/skNqKkuvS6E8Qr7v6Rr+K
8m1CFET4ka+jlttMH1OQU7U6xTXxdyWh3ZhU/XnlbUA=
-----END CERTIFICATE-----
