Certificate:
    Data:
        Version: 1 (0x0)
        Serial Number:
            9b:27:d7:e8:d1:ba:0a:3d
        Signature Algorithm: md5WithRSAEncryption
        Issuer: C=DE, ST=Saarland, O=MPI-SWS, OU=Distributed Systems Group, CN=Andreas Haeberlen/emailAddress=democa@octarine.de
        Validity
            Not Before: Apr 20 20:47:24 2015 GMT
            Not After : Apr 19 20:47:24 2016 GMT
        Subject: C=DE, ST=Saarland, O=MPI-SWS, OU=Distributed Systems Group, CN=707c798314076d107f66f9fefba89c10c8d32663/emailAddress=node0613@octarine.de
        Subject Public Key Info:
            Public Key Algorithm: rsaEncryption
            RSA Public Key: (1024 bit)
                Modulus (1024 bit):
                    00:ac:ef:e5:a4:7f:a1:bd:f8:cf:6b:8b:df:68:c9:
                    e5:fb:31:1d:85:12:10:9a:d5:cb:72:5d:6d:b2:15:
                    0c:fd:30:86:d8:7e:64:93:7d:96:7f:3c:96:56:91:
                    fb:8d:e0:ae:10:d2:83:c0:90:3e:4b:31:9a:35:40:
                    a9:0d:19:13:f6:6f:dc:e7:8b:14:f1:40:a1:f3:b0:
                    f2:6a:e9:73:49:f7:2c:42:36:7c:1c:56:f9:68:0e:
                    6f:97:d3:66:ed:30:1f:04:31:b3:ae:3c:89:dc:ec:
                    b0:cb:b4:d5:9e:76:45:ca:11:a0:70:4a:70:fe:01:
                    ef:19:fa:1d:62:df:5a:07:eb
                Exponent: 65537 (0x10001)
    Signature Algorithm: md5WithRSAEncryption
        76:94:d1:60:d0:bd:25:6e:de:21:c9:bd:42:00:d5:e8:40:e2:
        e8:60:c9:70:75:e2:54:26:59:3a:be:0e:de:a2:2d:0e:f1:cb:
        e2:dd:25:89:2d:9e:e9:1c:94:79:04:ec:63:97:e0:f1:a4:0f:
        30:ed:36:e2:9e:3a:17:5f:b1:cf:35:e9:d3:2e:31:db:46:f0:
        b1:01:b9:79:11:86:e8:93:37:4b:44:9d:c5:ec:a8:7a:7c:ce:
        96:d8:18:0b:49:0a:00:a8:e2:4a:67:75:90:96:45:89:c4:bb:
        42:98:a5:d2:e7:3e:67:87:38:44:ac:b0:74:5c:fa:0c:d5:cc:
        e6:9f
-----BEGIN CERTIFICATE-----
MIICvDCCAiUCCQCbJ9fo0boKPTANBgkqhkiG9w0BAQQFADCBlTELMAkGA1UEBhMC
REUxETAPBgNVBAgTCFNhYXJsYW5kMRAwDgYDVQQKEwdNUEktU1dTMSIwIAYDVQQL
ExlEaXN0cmlidXRlZCBTeXN0ZW1zIEdyb3VwMRowGAYDVQQDExFBbmRyZWFzIEhh
ZWJlcmxlbjEhMB8GCSqGSIb3DQEJARYSZGVtb2NhQG9jdGFyaW5lLmRlMB4XDTE1
MDQyMDIwNDcyNFoXDTE2MDQxOTIwNDcyNFowga4xCzAJBgNVBAYTAkRFMREwDwYD
VQQIEwhTYWFybGFuZDEQMA4GA1UEChMHTVBJLVNXUzEiMCAGA1UECxMZRGlzdHJp
YnV0ZWQgU3lzdGVtcyBHcm91cDExMC8GA1UEAxMoNzA3Yzc5ODMxNDA3NmQxMDdm
NjZmOWZlZmJhODljMTBjOGQzMjY2MzEjMCEGCSqGSIb3DQEJARYUbm9kZTA2MTNA
b2N0YXJpbmUuZGUwgZ8wDQYJKoZIhvcNAQEBBQADgY0AMIGJAoGBAKzv5aR/ob34
z2uL32jJ5fsxHYUSEJrVy3JdbbIVDP0whth+ZJN9ln88llaR+43grhDSg8CQPksx
mjVAqQ0ZE/Zv3OeLFPFAofOw8mrpc0n3LEI2fBxW+WgOb5fTZu0wHwQxs648idzs
sMu01Z52RcoRoHBKcP4B7xn6HWLfWgfrAgMBAAEwDQYJKoZIhvcNAQEEBQADgYEA
dpTRYNC9JW7eIcm9QgDV6EDi6GDJcHXiVCZZOr4O3qItDvHL4t0liS2e6RyUeQTs
Y5fg8aQPMO024p46F1+xzzXp0y4x20bwsQG5eRGG6JM3S0SdxeyoenzOltgYC0kK
AKjiSmd1kJZFicS7Qpil0uc+Z4c4RKywdFz6DNXM5p8=
-----END CERTIFICATE-----
