Certificate:
    Data:
        Version: 1 (0x0)
        Serial Number:
            9b:27:d7:e8:d1:ba:08:e6
        Signature Algorithm: md5WithRSAEncryption
        Issuer: C=DE, ST=Saarland, O=MPI-SWS, OU=Distributed Systems Group, CN=Andreas Haeberlen/emailAddress=democa@octarine.de
        Validity
            Not Before: Apr 20 20:47:08 2015 GMT
            Not After : Apr 19 20:47:08 2016 GMT
        Subject: C=DE, ST=Saarland, O=MPI-SWS, OU=Distributed Systems Group, CN=d76233c851b97c209dd51581016b49a1004430c9/emailAddress=node0270@octarine.de
        Subject Public Key Info:
            Public Key Algorithm: rsaEncryption
            RSA Public Key: (1024 bit)
                Modulus (1024 bit):
                    00:e2:f9:b4:80:d5:9d:78:cc:05:8b:1b:ba:ff:79:
                    b1:24:df:30:c6:cf:9c:9b:c4:52:44:c6:08:f0:20:
                    90:b3:ef:9a:ca:3f:db:38:69:dd:2f:65:62:5f:3d:
                    10:d9:f0:47:e4:f1:20:b4:14:9f:75:4e:10:cd:bb:
                    31:67:d1:82:ba:ae:04:de:b3:fe:a7:66:8b:88:fd:
                    23:12:00:c1:a7:81:ad:b9:a0:1f:58:4a:32:d2:fd:
                    8c:62:ad:61:f5:b1:17:61:fa:61:7a:e4:7e:a1:ca:
                    9e:1b:50:18:cb:7f:2f:a7:92:0c:54:80:ba:fe:90:
                    9a:8b:ef:e2:9e:1b:23:6a:17
                Exponent: 65537 (0x10001)
    Signature Algorithm: md5WithRSAEncryption
        6d:5d:b8:96:a2:d9:d1:ee:8d:ed:d2:9d:ea:38:84:0a:c5:8e:
        92:f7:d2:41:6f:44:c7:70:3c:b5:e8:8f:44:d5:42:22:61:f0:
        3d:25:fa:1b:f6:44:cd:71:76:86:ee:d2:51:b7:fa:86:e0:44:
        0b:b7:07:aa:c8:3c:ae:dd:ed:a5:ad:dc:79:60:b9:63:b8:ca:
        da:06:72:53:52:9d:de:67:dd:60:48:5f:97:1b:63:47:64:a0:
        2f:3b:0e:79:23:80:76:08:ed:24:3d:14:4d:99:e7:f1:96:7c:
        5f:41:6f:b8:fd:56:b8:7e:92:36:bc:eb:ea:65:67:c1:1b:06:
        ac:2f
-----BEGIN CERTIFICATE-----
MIICvDCCAiUCCQCbJ9fo0boI5jANBgkqhkiG9w0BAQQFADCBlTELMAkGA1UEBhMC
REUxETAPBgNVBAgTCFNhYXJsYW5kMRAwDgYDVQQKEwdNUEktU1dTMSIwIAYDVQQL
ExlEaXN0cmlidXRlZCBTeXN0ZW1zIEdyb3VwMRowGAYDVQQDExFBbmRyZWFzIEhh
ZWJlcmxlbjEhMB8GCSqGSIb3DQEJARYSZGVtb2NhQG9jdGFyaW5lLmRlMB4XDTE1
MDQyMDIwNDcwOFoXDTE2MDQxOTIwNDcwOFowga4xCzAJBgNVBAYTAkRFMREwDwYD
VQQIEwhTYWFybGFuZDEQMA4GA1UEChMHTVBJLVNXUzEiMCAGA1UECxMZRGlzdHJp
YnV0ZWQgU3lzdGVtcyBHcm91cDExMC8GA1UEAxMoZDc2MjMzYzg1MWI5N2MyMDlk
ZDUxNTgxMDE2YjQ5YTEwMDQ0MzBjOTEjMCEGCSqGSIb3DQEJARYUbm9kZTAyNzBA
b2N0YXJpbmUuZGUwgZ8wDQYJKoZIhvcNAQEBBQADgY0AMIGJAoGBAOL5tIDVnXjM
BYsbuv95sSTfMMbPnJvEUkTGCPAgkLPvmso/2zhp3S9lYl89ENnwR+TxILQUn3VO
EM27MWfRgrquBN6z/qdmi4j9IxIAwaeBrbmgH1hKMtL9jGKtYfWxF2H6YXrkfqHK
nhtQGMt/L6eSDFSAuv6Qmovv4p4bI2oXAgMBAAEwDQYJKoZIhvcNAQEEBQADgYEA
bV24lqLZ0e6N7dKd6jiECsWOkvfSQW9Ex3A8teiPRNVCImHwPSX6G/ZEzXF2hu7S
Ubf6huBEC7cHqsg8rt3tpa3ceWC5Y7jK2gZyU1Kd3mfdYEhflxtjR2SgLzsOeSOA
dgjtJD0UTZnn8ZZ8X0FvuP1WuH6SNrzr6mVnwRsGrC8=
-----END CERTIFICATE-----
