Certificate:
    Data:
        Version: 1 (0x0)
        Serial Number:
            9b:27:d7:e8:d1:ba:08:bc
        Signature Algorithm: md5WithRSAEncryption
        Issuer: C=DE, ST=Saarland, O=MPI-SWS, OU=Distributed Systems Group, CN=Andreas Haeberlen/emailAddress=democa@octarine.de
        Validity
            Not Before: Apr 20 20:47:07 2015 GMT
            Not After : Apr 19 20:47:07 2016 GMT
        Subject: C=DE, ST=Saarland, O=MPI-SWS, OU=Distributed Systems Group, CN=27c7d475a0b6b10bf546c3b0cdff19230ebe333d/emailAddress=node0228@octarine.de
        Subject Public Key Info:
            Public Key Algorithm: rsaEncryption
            RSA Public Key: (1024 bit)
                Modulus (1024 bit):
                    00:bd:04:62:03:56:56:cf:03:12:85:83:66:08:b3:
                    6d:6e:8f:99:7d:fa:82:bb:14:b5:91:77:00:3f:ac:
                    da:78:2c:e3:4a:8a:25:27:ca:57:94:5d:75:bf:06:
                    cf:52:e6:12:39:40:22:7b:29:5a:95:31:fa:9e:cc:
                    2e:ca:14:f7:fb:5f:fc:ec:6c:d0:c3:d2:58:f3:0d:
                    7d:59:22:54:10:3f:81:02:c0:b2:5d:d4:b5:73:0d:
                    01:c3:a1:f8:19:a2:b4:2a:ca:f9:2c:40:ac:47:5e:
                    e5:82:0d:3e:41:84:4f:9d:40:68:82:dc:9c:9c:c4:
                    b6:07:f2:aa:6e:53:0c:2a:1d
                Exponent: 65537 (0x10001)
    Signature Algorithm: md5WithRSAEncryption
        a0:e6:bf:94:3c:eb:30:50:db:4e:de:75:6d:5d:70:d4:01:df:
        da:18:47:da:c0:77:52:dc:10:aa:4e:e4:e7:a7:94:e2:c1:2a:
        1a:31:5e:07:a2:db:eb:99:ad:4c:ea:65:31:b0:00:c5:38:a6:
        e5:32:d2:d0:be:0e:f1:cc:e7:fc:5d:e9:7a:ce:df:f1:67:00:
        6a:cd:da:4e:46:89:d2:2d:7b:dd:e3:91:48:b6:3b:79:f2:f1:
        7b:fc:b9:76:58:fc:9b:01:bb:7d:a7:e9:78:13:72:ea:e5:a4:
        56:ba:4f:2d:92:f1:2b:37:6a:9b:e9:45:60:bd:77:aa:20:ea:
        42:a0
-----BEGIN CERTIFICATE-----
MIICvDCCAiUCCQCbJ9fo0boIvDANBgkqhkiG9w0BAQQFADCBlTELMAkGA1UEBhMC
REUxETAPBgNVBAgTCFNhYXJsYW5kMRAwDgYDVQQKEwdNUEktU1dTMSIwIAYDVQQL
ExlEaXN0cmlidXRlZCBTeXN0ZW1zIEdyb3VwMRowGAYDVQQDExFBbmRyZWFzIEhh
ZWJlcmxlbjEhMB8GCSqGSIb3DQEJARYSZGVtb2NhQG9jdGFyaW5lLmRlMB4XDTE1
MDQyMDIwNDcwN1oXDTE2MDQxOTIwNDcwN1owga4xCzAJBgNVBAYTAkRFMREwDwYD
VQQIEwhTYWFybGFuZDEQMA4GA1UEChMHTVBJLVNXUzEiMCAGA1UECxMZRGlzdHJp
YnV0ZWQgU3lzdGVtcyBHcm91cDExMC8GA1UEAxMoMjdjN2Q0NzVhMGI2YjEwYmY1
NDZjM2IwY2RmZjE5MjMwZWJlMzMzZDEjMCEGCSqGSIb3DQEJARYUbm9kZTAyMjhA
b2N0YXJpbmUuZGUwgZ8wDQYJKoZIhvcNAQEBBQADgY0AMIGJAoGBAL0EYgNWVs8D
EoWDZgizbW6PmX36grsUtZF3AD+s2ngs40qKJSfKV5Rddb8Gz1LmEjlAInspWpUx
+p7MLsoU9/tf/Oxs0MPSWPMNfVkiVBA/gQLAsl3UtXMNAcOh+BmitCrK+SxArEde
5YINPkGET51AaILcnJzEtgfyqm5TDCodAgMBAAEwDQYJKoZIhvcNAQEEBQADgYEA
oOa/lDzrMFDbTt51bV1w1AHf2hhH2sB3UtwQqk7k56eU4sEqGjFeB6Lb65mtTOpl
MbAAxTim5TLS0L4O8czn/F3pes7f8WcAas3aTkaJ0i173eORSLY7efLxe/y5dlj8
mwG7fafpeBNy6uWkVrpPLZLxKzdqm+lFYL13qiDqQqA=
-----END CERTIFICATE-----
