Certificate:
    Data:
        Version: 1 (0x0)
        Serial Number:
            9b:27:d7:e8:d1:ba:09:6a
        Signature Algorithm: md5WithRSAEncryption
        Issuer: C=DE, ST=Saarland, O=MPI-SWS, OU=Distributed Systems Group, CN=Andreas Haeberlen/emailAddress=democa@octarine.de
        Validity
            Not Before: Apr 20 20:47:14 2015 GMT
            Not After : Apr 19 20:47:14 2016 GMT
        Subject: C=DE, ST=Saarland, O=MPI-SWS, OU=Distributed Systems Group, CN=1bb041b41192cebef610efbfbaae4275e2633174/emailAddress=node0402@octarine.de
        Subject Public Key Info:
            Public Key Algorithm: rsaEncryption
            RSA Public Key: (1024 bit)
                Modulus (1024 bit):
                    00:d1:15:82:83:a2:f3:64:19:4f:c4:66:c6:4e:ff:
                    86:b0:af:b9:e6:82:09:6b:53:64:04:1b:66:0a:e8:
                    78:47:63:e2:53:e8:e1:aa:f8:69:a7:04:3b:0b:47:
                    cf:51:66:0d:cc:38:02:c1:ed:27:db:6b:af:76:07:
                    b5:d2:4e:23:fa:04:10:41:b5:a8:a2:af:db:23:93:
                    52:c5:86:32:b5:65:7c:10:80:dd:46:7d:46:56:ed:
                    8f:6d:44:dd:a0:d3:d1:6a:93:6e:f0:d3:84:55:14:
                    68:43:72:ff:5b:b1:66:b5:3b:92:df:33:1a:4b:52:
                    53:c0:61:86:bb:90:b3:d9:47
                Exponent: 65537 (0x10001)
    Signature Algorithm: md5WithRSAEncryption
        12:b5:49:2b:1e:ce:ad:33:95:5c:8b:9c:cb:84:da:73:3a:0c:
        2c:6e:a7:cd:da:88:0f:b1:14:24:14:ee:56:74:55:5e:d8:33:
        9f:3b:62:68:82:7a:b4:6b:26:1f:42:ea:fd:e8:86:7e:fa:85:
        8f:f8:81:a1:d4:4b:80:9b:1e:f9:c1:d5:78:21:1e:3b:e0:e5:
        6f:7d:81:f9:fc:6e:17:ef:cb:2d:4a:1e:90:60:c4:92:0f:76:
        05:5d:b8:d6:a2:d7:87:a8:0c:c6:e2:56:59:03:7b:eb:69:dc:
        b2:28:0d:04:1c:af:4f:e6:53:f9:39:dc:0b:57:c3:38:74:21:
        cb:f1
-----BEGIN CERTIFICATE-----
MIICvDCCAiUCCQCbJ9fo0boJajANBgkqhkiG9w0BAQQFADCBlTELMAkGA1UEBhMC
REUxETAPBgNVBAgTCFNhYXJsYW5kMRAwDgYDVQQKEwdNUEktU1dTMSIwIAYDVQQL
ExlEaXN0cmlidXRlZCBTeXN0ZW1zIEdyb3VwMRowGAYDVQQDExFBbmRyZWFzIEhh
ZWJlcmxlbjEhMB8GCSqGSIb3DQEJARYSZGVtb2NhQG9jdGFyaW5lLmRlMB4XDTE1
MDQyMDIwNDcxNFoXDTE2MDQxOTIwNDcxNFowga4xCzAJBgNVBAYTAkRFMREwDwYD
VQQIEwhTYWFybGFuZDEQMA4GA1UEChMHTVBJLVNXUzEiMCAGA1UECxMZRGlzdHJp
YnV0ZWQgU3lzdGVtcyBHcm91cDExMC8GA1UEAxMoMWJiMDQxYjQxMTkyY2ViZWY2
MTBlZmJmYmFhZTQyNzVlMjYzMzE3NDEjMCEGCSqGSIb3DQEJARYUbm9kZTA0MDJA
b2N0YXJpbmUuZGUwgZ8wDQYJKoZIhvcNAQEBBQADgY0AMIGJAoGBANEVgoOi82QZ
T8Rmxk7/hrCvueaCCWtTZAQbZgroeEdj4lPo4ar4aacEOwtHz1FmDcw4AsHtJ9tr
r3YHtdJOI/oEEEG1qKKv2yOTUsWGMrVlfBCA3UZ9Rlbtj21E3aDT0WqTbvDThFUU
aENy/1uxZrU7kt8zGktSU8BhhruQs9lHAgMBAAEwDQYJKoZIhvcNAQEEBQADgYEA
ErVJKx7OrTOVXIucy4TaczoMLG6nzdqID7EUJBTuVnRVXtgznztiaIJ6tGsmH0Lq
/eiGfvqFj/iBodRLgJse+cHVeCEeO+Dlb32B+fxuF+/LLUoekGDEkg92BV241qLX
h6gMxuJWWQN762ncsigNBByvT+ZT+TncC1fDOHQhy/E=
-----END CERTIFICATE-----
