Certificate:
    Data:
        Version: 1 (0x0)
        Serial Number:
            9b:27:d7:e8:d1:ba:08:7d
        Signature Algorithm: md5WithRSAEncryption
        Issuer: C=DE, ST=Saarland, O=MPI-SWS, OU=Distributed Systems Group, CN=Andreas Haeberlen/emailAddress=democa@octarine.de
        Validity
            Not Before: Apr 20 20:47:04 2015 GMT
            Not After : Apr 19 20:47:04 2016 GMT
        Subject: C=DE, ST=Saarland, O=MPI-SWS, OU=Distributed Systems Group, CN=328725caa30ca38eb359370da1d23f9722e57af1/emailAddress=node0165@octarine.de
        Subject Public Key Info:
            Public Key Algorithm: rsaEncryption
            RSA Public Key: (1024 bit)
                Modulus (1024 bit):
                    00:cf:17:20:40:23:14:d3:14:88:98:6c:98:55:97:
                    5b:d1:4f:69:2f:92:b8:a5:50:15:ee:68:b2:54:7a:
                    d2:b0:c2:08:9d:5c:b0:f2:b9:06:80:0e:6a:eb:d8:
                    1a:67:96:22:2f:c7:2a:67:0c:48:23:cf:12:88:1b:
                    e1:8a:13:cc:78:40:97:2d:fc:44:eb:f0:d7:29:aa:
                    ee:44:32:65:67:2e:31:37:bd:c9:95:75:5b:e8:f6:
                    d8:ed:3a:ca:8e:4d:b2:9c:ec:0c:f0:ef:31:1c:ce:
                    c2:58:59:42:5a:b8:ce:ad:98:b5:13:e8:d3:f3:a9:
                    35:c8:70:0f:9e:bb:df:24:8b
                Exponent: 65537 (0x10001)
    Signature Algorithm: md5WithRSAEncryption
        4a:64:7c:f3:06:2c:f8:a5:d6:5a:69:1e:b3:c9:bc:dd:3b:ca:
        ef:44:65:9a:61:48:b3:2b:c4:76:c8:ac:6f:0e:93:a2:71:34:
        86:43:bd:62:ae:e0:d4:13:67:94:a5:fd:d4:67:28:07:b2:af:
        76:bb:98:32:7b:19:82:77:d7:a4:e3:bd:a7:9f:ca:9c:6f:f3:
        6b:af:01:63:f3:32:69:cb:b1:dd:d8:a6:dc:b7:ad:00:10:a0:
        da:d1:bb:50:67:22:a0:13:67:cc:3f:4a:30:e2:eb:d9:98:cf:
        93:31:aa:0c:4b:59:55:d4:6e:57:18:85:14:8d:69:c6:d7:14:
        7f:cc
-----BEGIN CERTIFICATE-----
MIICvDCCAiUCCQCbJ9fo0boIfTANBgkqhkiG9w0BAQQFADCBlTELMAkGA1UEBhMC
REUxETAPBgNVBAgTCFNhYXJsYW5kMRAwDgYDVQQKEwdNUEktU1dTMSIwIAYDVQQL
ExlEaXN0cmlidXRlZCBTeXN0ZW1zIEdyb3VwMRowGAYDVQQDExFBbmRyZWFzIEhh
ZWJlcmxlbjEhMB8GCSqGSIb3DQEJARYSZGVtb2NhQG9jdGFyaW5lLmRlMB4XDTE1
MDQyMDIwNDcwNFoXDTE2MDQxOTIwNDcwNFowga4xCzAJBgNVBAYTAkRFMREwDwYD
VQQIEwhTYWFybGFuZDEQMA4GA1UEChMHTVBJLVNXUzEiMCAGA1UECxMZRGlzdHJp
YnV0ZWQgU3lzdGVtcyBHcm91cDExMC8GA1UEAxMoMzI4NzI1Y2FhMzBjYTM4ZWIz
NTkzNzBkYTFkMjNmOTcyMmU1N2FmMTEjMCEGCSqGSIb3DQEJARYUbm9kZTAxNjVA
b2N0YXJpbmUuZGUwgZ8wDQYJKoZIhvcNAQEBBQADgY0AMIGJAoGBAM8XIEAjFNMU
iJhsmFWXW9FPaS+SuKVQFe5oslR60rDCCJ1csPK5BoAOauvYGmeWIi/HKmcMSCPP
Eogb4YoTzHhAly38ROvw1ymq7kQyZWcuMTe9yZV1W+j22O06yo5NspzsDPDvMRzO
wlhZQlq4zq2YtRPo0/OpNchwD5673ySLAgMBAAEwDQYJKoZIhvcNAQEEBQADgYEA
SmR88wYs+KXWWmkes8m83TvK70RlmmFIsyvEdsisbw6TonE0hkO9Yq7g1BNnlKX9
1GcoB7KvdruYMnsZgnfXpOO9p5/KnG/za68BY/Myacux3dim3LetABCg2tG7UGci
oBNnzD9KMOLr2ZjPkzGqDEtZVdRuVxiFFI1pxtcUf8w=
-----END CERTIFICATE-----
