Certificate:
    Data:
        Version: 1 (0x0)
        Serial Number:
            9b:27:d7:e8:d1:ba:0a:8c
        Signature Algorithm: md5WithRSAEncryption
        Issuer: C=DE, ST=Saarland, O=MPI-SWS, OU=Distributed Systems Group, CN=Andreas Haeberlen/emailAddress=democa@octarine.de
        Validity
            Not Before: Apr 20 20:47:27 2015 GMT
            Not After : Apr 19 20:47:27 2016 GMT
        Subject: C=DE, ST=Saarland, O=MPI-SWS, OU=Distributed Systems Group, CN=dfe37ec9d7716b80f1b9ee13ec497625619e057d/emailAddress=node0692@octarine.de
        Subject Public Key Info:
            Public Key Algorithm: rsaEncryption
            RSA Public Key: (1024 bit)
                Modulus (1024 bit):
                    00:a4:bf:12:87:e6:c4:40:74:f3:48:bc:e0:c0:5b:
                    5b:ae:92:9c:8a:f7:80:62:9c:eb:db:c4:fb:56:c5:
                    45:ac:9f:49:76:9f:dd:c4:12:0f:46:ad:04:3d:b9:
                    39:30:02:e4:1c:3a:59:78:c8:04:fb:0c:b5:d0:25:
                    69:5a:f4:df:d5:09:fb:d1:0a:30:87:14:35:25:61:
                    90:a7:16:46:8f:f5:45:9e:f7:92:3f:dc:39:e4:23:
                    da:cb:f2:2c:1c:00:1e:13:10:9f:b2:47:45:4e:98:
                    2c:37:35:21:79:81:22:a4:bb:4c:16:a4:c8:4c:f8:
                    d0:08:c0:42:1f:a8:2c:dd:93
                Exponent: 65537 (0x10001)
    Signature Algorithm: md5WithRSAEncryption
        c2:39:23:22:cd:33:6f:96:5c:88:de:46:84:96:08:7a:6a:3a:
        35:e0:9d:01:e6:21:eb:45:b1:80:be:d5:05:e6:bd:3f:68:55:
        e9:52:46:ae:2f:a0:15:8b:58:56:9c:fb:8c:5f:98:f9:00:d7:
        64:b9:1f:0e:92:05:9f:de:f3:1c:82:36:45:37:b6:7d:c6:9e:
        34:54:a4:55:37:9d:20:f5:ca:17:e7:3d:fb:d1:9c:0a:57:f2:
        15:c4:85:33:91:14:ac:18:44:c0:57:bb:66:01:6e:1d:6c:d7:
        06:d0:bf:0b:80:39:1d:90:9a:c7:83:e3:50:d4:62:b0:af:50:
        2b:f2
-----BEGIN CERTIFICATE-----
MIICvDCCAiUCCQCbJ9fo0boKjDANBgkqhkiG9w0BAQQFADCBlTELMAkGA1UEBhMC
REUxETAPBgNVBAgTCFNhYXJsYW5kMRAwDgYDVQQKEwdNUEktU1dTMSIwIAYDVQQL
ExlEaXN0cmlidXRlZCBTeXN0ZW1zIEdyb3VwMRowGAYDVQQDExFBbmRyZWFzIEhh
ZWJlcmxlbjEhMB8GCSqGSIb3DQEJARYSZGVtb2NhQG9jdGFyaW5lLmRlMB4XDTE1
MDQyMDIwNDcyN1oXDTE2MDQxOTIwNDcyN1owga4xCzAJBgNVBAYTAkRFMREwDwYD
VQQIEwhTYWFybGFuZDEQMA4GA1UEChMHTVBJLVNXUzEiMCAGA1UECxMZRGlzdHJp
YnV0ZWQgU3lzdGVtcyBHcm91cDExMC8GA1UEAxMoZGZlMzdlYzlkNzcxNmI4MGYx
YjllZTEzZWM0OTc2MjU2MTllMDU3ZDEjMCEGCSqGSIb3DQEJARYUbm9kZTA2OTJA
b2N0YXJpbmUuZGUwgZ8wDQYJKoZIhvcNAQEBBQADgY0AMIGJAoGBAKS/EofmxEB0
80i84MBbW66SnIr3gGKc69vE+1bFRayfSXaf3cQSD0atBD25OTAC5Bw6WXjIBPsM
tdAlaVr039UJ+9EKMIcUNSVhkKcWRo/1RZ73kj/cOeQj2svyLBwAHhMQn7JHRU6Y
LDc1IXmBIqS7TBakyEz40AjAQh+oLN2TAgMBAAEwDQYJKoZIhvcNAQEEBQADgYEA
wjkjIs0zb5ZciN5GhJYIemo6NeCdAeYh60WxgL7VBea9P2hV6VJGri+gFYtYVpz7
jF+Y+QDXZLkfDpIFn97zHII2RTe2fcaeNFSkVTedIPXKF+c9+9GcClfyFcSFM5EU
rBhEwFe7ZgFuHWzXBtC/C4A5HZCax4PjUNRisK9QK/I=
-----END CERTIFICATE-----
