Certificate:
    Data:
        Version: 1 (0x0)
        Serial Number:
            9b:27:d7:e8:d1:ba:09:35
        Signature Algorithm: md5WithRSAEncryption
        Issuer: C=DE, ST=Saarland, O=MPI-SWS, OU=Distributed Systems Group, CN=Andreas Haeberlen/emailAddress=democa@octarine.de
        Validity
            Not Before: Apr 20 20:47:12 2015 GMT
            Not After : Apr 19 20:47:12 2016 GMT
        Subject: C=DE, ST=Saarland, O=MPI-SWS, OU=Distributed Systems Group, CN=3597c4fe43722306e52984987dcd4cd826febfd0/emailAddress=node0349@octarine.de
        Subject Public Key Info:
            Public Key Algorithm: rsaEncryption
            RSA Public Key: (1024 bit)
                Modulus (1024 bit):
                    00:b2:e2:0c:fd:9d:ce:fe:7e:1b:17:58:a9:86:d7:
                    b5:39:cf:b0:de:eb:2b:7e:e9:9e:35:e9:07:80:9b:
                    67:73:54:ff:0d:c9:8e:d3:e3:7c:cc:85:b7:40:ce:
                    40:88:32:3d:19:7c:1e:72:8d:d2:3b:e6:b0:5b:29:
                    86:36:5a:3d:27:22:30:26:3b:40:a8:c9:4f:af:fe:
                    74:b6:b6:76:5a:e6:1a:0d:a6:86:7b:4b:e1:4a:7d:
                    1d:a3:87:ac:ee:2d:fc:9d:41:1d:bc:21:ad:50:7a:
                    e1:13:20:e5:64:0c:0c:e4:a6:24:26:ec:78:e7:3f:
                    10:3b:a6:0d:1c:b4:dd:61:05
                Exponent: 65537 (0x10001)
    Signature Algorithm: md5WithRSAEncryption
        70:77:2b:a3:4b:16:4f:d0:28:a0:25:02:4b:4d:20:22:c4:d6:
        a6:67:c5:92:48:ae:69:57:80:84:1a:72:06:f9:77:3f:75:51:
        3e:b2:7a:d7:11:87:40:07:88:78:f1:4a:e0:8e:fe:b0:fd:aa:
        5c:3a:67:0e:98:c3:8e:38:26:54:b5:a4:18:ab:2e:60:3e:98:
        3b:bc:b6:99:14:15:c3:2f:52:dd:0b:09:6c:42:13:67:82:7c:
        1d:06:d9:4d:44:28:c2:3a:1a:14:df:b7:a0:7d:50:f1:f3:da:
        f3:22:92:30:1f:7a:71:74:a2:44:c6:1d:f0:26:6f:f2:42:8f:
        3f:f6
-----BEGIN CERTIFICATE-----
MIICvDCCAiUCCQCbJ9fo0boJNTANBgkqhkiG9w0BAQQFADCBlTELMAkGA1UEBhMC
REUxETAPBgNVBAgTCFNhYXJsYW5kMRAwDgYDVQQKEwdNUEktU1dTMSIwIAYDVQQL
ExlEaXN0cmlidXRlZCBTeXN0ZW1zIEdyb3VwMRowGAYDVQQDExFBbmRyZWFzIEhh
ZWJlcmxlbjEhMB8GCSqGSIb3DQEJARYSZGVtb2NhQG9jdGFyaW5lLmRlMB4XDTE1
MDQyMDIwNDcxMloXDTE2MDQxOTIwNDcxMlowga4xCzAJBgNVBAYTAkRFMREwDwYD
VQQIEwhTYWFybGFuZDEQMA4GA1UEChMHTVBJLVNXUzEiMCAGA1UECxMZRGlzdHJp
YnV0ZWQgU3lzdGVtcyBHcm91cDExMC8GA1UEAxMoMzU5N2M0ZmU0MzcyMjMwNmU1
Mjk4NDk4N2RjZDRjZDgyNmZlYmZkMDEjMCEGCSqGSIb3DQEJARYUbm9kZTAzNDlA
b2N0YXJpbmUuZGUwgZ8wDQYJKoZIhvcNAQEBBQADgY0AMIGJAoGBALLiDP2dzv5+
GxdYqYbXtTnPsN7rK37pnjXpB4CbZ3NU/w3JjtPjfMyFt0DOQIgyPRl8HnKN0jvm
sFsphjZaPSciMCY7QKjJT6/+dLa2dlrmGg2mhntL4Up9HaOHrO4t/J1BHbwhrVB6
4RMg5WQMDOSmJCbseOc/EDumDRy03WEFAgMBAAEwDQYJKoZIhvcNAQEEBQADgYEA
cHcro0sWT9AooCUCS00gIsTWpmfFkkiuaVeAhBpyBvl3P3VRPrJ61xGHQAeIePFK
4I7+sP2qXDpnDpjDjjgmVLWkGKsuYD6YO7y2mRQVwy9S3QsJbEITZ4J8HQbZTUQo
wjoaFN+3oH1Q8fPa8yKSMB96cXSiRMYd8CZv8kKPP/Y=
-----END CERTIFICATE-----
