Certificate:
    Data:
        Version: 1 (0x0)
        Serial Number:
            9b:27:d7:e8:d1:ba:08:56
        Signature Algorithm: md5WithRSAEncryption
        Issuer: C=DE, ST=Saarland, O=MPI-SWS, OU=Distributed Systems Group, CN=Andreas Haeberlen/emailAddress=democa@octarine.de
        Validity
            Not Before: Apr 20 20:47:02 2015 GMT
            Not After : Apr 19 20:47:02 2016 GMT
        Subject: C=DE, ST=Saarland, O=MPI-SWS, OU=Distributed Systems Group, CN=f3666efb84f4189158ead90908285ea421a8fa47/emailAddress=node0126@octarine.de
        Subject Public Key Info:
            Public Key Algorithm: rsaEncryption
            RSA Public Key: (1024 bit)
                Modulus (1024 bit):
                    00:ae:8d:c5:22:9e:84:cf:81:fa:87:f3:51:3f:1c:
                    b7:d5:05:f7:4e:b1:cf:24:71:4c:09:25:1b:a9:33:
                    c3:0b:e4:61:51:a1:c2:51:e5:51:f2:f6:7a:bc:f2:
                    0f:d5:17:b2:34:c5:c4:7f:5c:2e:76:78:67:56:9b:
                    5c:da:5b:41:0f:fe:76:35:28:fa:e9:0f:ae:65:cf:
                    38:97:e6:7c:f8:d2:d4:fb:8f:40:ae:06:f9:38:a1:
                    82:6d:fa:d0:58:60:80:14:a8:d4:16:f1:49:c7:94:
                    ff:35:21:42:95:56:68:d4:a6:f0:f3:7a:ec:19:2c:
                    8c:8e:67:47:c6:bb:b1:b0:4d
                Exponent: 65537 (0x10001)
    Signature Algorithm: md5WithRSAEncryption
        8b:29:3d:8d:c6:80:17:6f:0f:50:a7:9a:5c:cd:e0:20:df:8a:
        27:57:4a:17:70:b1:ab:50:65:d4:46:7b:aa:fd:d4:a3:ee:6e:
        2f:ab:54:c5:32:fc:d7:96:5c:4b:81:55:c9:c2:a2:ee:88:d5:
        81:16:37:94:b9:0b:51:3d:28:6f:d6:71:53:95:89:3b:4b:0c:
        4c:9b:7f:85:44:5a:a5:ac:c3:8e:65:9c:c3:0e:cb:da:e0:4f:
        f9:cd:ae:b7:99:ca:25:92:3c:5e:6d:e6:eb:99:87:46:62:e5:
        d2:20:bf:88:12:23:e4:a7:b5:31:67:48:9f:ad:ff:4b:69:d5:
        9b:7d
-----BEGIN CERTIFICATE-----
MIICvDCCAiUCCQCbJ9fo0boIVjANBgkqhkiG9w0BAQQFADCBlTELMAkGA1UEBhMC
REUxETAPBgNVBAgTCFNhYXJsYW5kMRAwDgYDVQQKEwdNUEktU1dTMSIwIAYDVQQL
ExlEaXN0cmlidXRlZCBTeXN0ZW1zIEdyb3VwMRowGAYDVQQDExFBbmRyZWFzIEhh
ZWJlcmxlbjEhMB8GCSqGSIb3DQEJARYSZGVtb2NhQG9jdGFyaW5lLmRlMB4XDTE1
MDQyMDIwNDcwMloXDTE2MDQxOTIwNDcwMlowga4xCzAJBgNVBAYTAkRFMREwDwYD
VQQIEwhTYWFybGFuZDEQMA4GA1UEChMHTVBJLVNXUzEiMCAGA1UECxMZRGlzdHJp
YnV0ZWQgU3lzdGVtcyBHcm91cDExMC8GA1UEAxMoZjM2NjZlZmI4NGY0MTg5MTU4
ZWFkOTA5MDgyODVlYTQyMWE4ZmE0NzEjMCEGCSqGSIb3DQEJARYUbm9kZTAxMjZA
b2N0YXJpbmUuZGUwgZ8wDQYJKoZIhvcNAQEBBQADgY0AMIGJAoGBAK6NxSKehM+B
+ofzUT8ct9UF906xzyRxTAklG6kzwwvkYVGhwlHlUfL2erzyD9UXsjTFxH9cLnZ4
Z1abXNpbQQ/+djUo+ukPrmXPOJfmfPjS1PuPQK4G+Tihgm360FhggBSo1BbxSceU
/zUhQpVWaNSm8PN67BksjI5nR8a7sbBNAgMBAAEwDQYJKoZIhvcNAQEEBQADgYEA
iyk9jcaAF28PUKeaXM3gIN+KJ1dKF3Cxq1Bl1EZ7qv3Uo+5uL6tUxTL815ZcS4FV
ycKi7ojVgRY3lLkLUT0ob9ZxU5WJO0sMTJt/hURapazDjmWcww7L2uBP+c2ut5nK
JZI8Xm3m65mHRmLl0iC/iBIj5Ke1MWdIn63/S2nVm30=
-----END CERTIFICATE-----
