Certificate:
    Data:
        Version: 1 (0x0)
        Serial Number:
            9b:27:d7:e8:d1:ba:0b:b9
        Signature Algorithm: md5WithRSAEncryption
        Issuer: C=DE, ST=Saarland, O=MPI-SWS, OU=Distributed Systems Group, CN=Andreas Haeberlen/emailAddress=democa@octarine.de
        Validity
            Not Before: Apr 20 20:47:41 2015 GMT
            Not After : Apr 19 20:47:41 2016 GMT
        Subject: C=DE, ST=Saarland, O=MPI-SWS, OU=Distributed Systems Group, CN=87aa9a2be9d98e3261d9696140d73b9b335cd87c/emailAddress=node0993@octarine.de
        Subject Public Key Info:
            Public Key Algorithm: rsaEncryption
            RSA Public Key: (1024 bit)
                Modulus (1024 bit):
                    00:ae:32:01:7e:ec:44:f2:77:87:bf:7b:f9:cf:3e:
                    14:2c:84:be:83:b5:66:b7:9d:16:51:69:90:ea:e0:
                    80:94:2d:05:33:a7:68:a9:73:58:d9:3b:53:d1:d6:
                    36:11:47:fe:2b:73:5b:80:f8:62:c2:db:ac:82:78:
                    02:a4:84:83:d4:22:4f:d4:3c:8e:08:cb:4e:f2:b4:
                    ef:a5:86:76:af:18:e2:f1:88:a9:1d:2a:a6:09:86:
                    61:55:c6:59:0f:84:4e:75:63:bf:54:53:76:d4:a6:
                    47:0f:04:72:c4:41:58:f8:b2:d8:a9:ff:c8:c2:41:
                    94:3e:85:12:79:bb:1e:db:7f
                Exponent: 65537 (0x10001)
    Signature Algorithm: md5WithRSAEncryption
        bf:0d:ec:42:51:14:02:ab:35:e0:e4:74:90:a6:c6:de:25:c0:
        9c:a0:90:88:3f:9a:5f:75:0d:67:c2:7a:94:35:13:c1:f7:49:
        e9:b4:b7:b4:66:0e:89:09:0b:58:5f:3f:8d:e2:55:6a:c4:37:
        58:3f:8c:7c:0c:89:f1:2e:ba:57:e1:07:0b:e5:7d:b0:11:89:
        c5:ac:4a:81:5a:d8:ce:b7:17:73:d1:91:bb:4d:04:17:2b:cb:
        49:a5:cd:e9:c9:68:ee:cd:af:96:7f:94:50:d3:fb:93:fe:97:
        b8:dd:6a:c1:7b:fa:ff:88:33:bc:e4:e3:c9:3c:1c:a0:26:bf:
        16:6e
-----BEGIN CERTIFICATE-----
MIICvDCCAiUCCQCbJ9fo0boLuTANBgkqhkiG9w0BAQQFADCBlTELMAkGA1UEBhMC
REUxETAPBgNVBAgTCFNhYXJsYW5kMRAwDgYDVQQKEwdNUEktU1dTMSIwIAYDVQQL
ExlEaXN0cmlidXRlZCBTeXN0ZW1zIEdyb3VwMRowGAYDVQQDExFBbmRyZWFzIEhh
ZWJlcmxlbjEhMB8GCSqGSIb3DQEJARYSZGVtb2NhQG9jdGFyaW5lLmRlMB4XDTE1
MDQyMDIwNDc0MVoXDTE2MDQxOTIwNDc0MVowga4xCzAJBgNVBAYTAkRFMREwDwYD
VQQIEwhTYWFybGFuZDEQMA4GA1UEChMHTVBJLVNXUzEiMCAGA1UECxMZRGlzdHJp
YnV0ZWQgU3lzdGVtcyBHcm91cDExMC8GA1UEAxMoODdhYTlhMmJlOWQ5OGUzMjYx
ZDk2OTYxNDBkNzNiOWIzMzVjZDg3YzEjMCEGCSqGSIb3DQEJARYUbm9kZTA5OTNA
b2N0YXJpbmUuZGUwgZ8wDQYJKoZIhvcNAQEBBQADgY0AMIGJAoGBAK4yAX7sRPJ3
h797+c8+FCyEvoO1ZredFlFpkOrggJQtBTOnaKlzWNk7U9HWNhFH/itzW4D4YsLb
rIJ4AqSEg9QiT9Q8jgjLTvK076WGdq8Y4vGIqR0qpgmGYVXGWQ+ETnVjv1RTdtSm
Rw8EcsRBWPiy2Kn/yMJBlD6FEnm7Htt/AgMBAAEwDQYJKoZIhvcNAQEEBQADgYEA
vw3sQlEUAqs14OR0kKbG3iXAnKCQiD+aX3UNZ8J6lDUTwfdJ6bS3tGYOiQkLWF8/
jeJVasQ3WD+MfAyJ8S66V+EHC+V9sBGJxaxKgVrYzrcXc9GRu00EFyvLSaXN6clo
7s2vln+UUNP7k/6XuN1qwXv6/4gzvOTjyTwcoCa/Fm4=
-----END CERTIFICATE-----
