Certificate:
    Data:
        Version: 1 (0x0)
        Serial Number:
            9b:27:d7:e8:d1:ba:08:af
        Signature Algorithm: md5WithRSAEncryption
        Issuer: C=DE, ST=Saarland, O=MPI-SWS, OU=Distributed Systems Group, CN=Andreas Haeberlen/emailAddress=democa@octarine.de
        Validity
            Not Before: Apr 20 20:47:06 2015 GMT
            Not After : Apr 19 20:47:06 2016 GMT
        Subject: C=DE, ST=Saarland, O=MPI-SWS, OU=Distributed Systems Group, CN=bc1da76ec889d9cf82274197a58e8433151cd7a9/emailAddress=node0215@octarine.de
        Subject Public Key Info:
            Public Key Algorithm: rsaEncryption
            RSA Public Key: (1024 bit)
                Modulus (1024 bit):
                    00:ea:1d:bf:e2:6b:34:64:58:f4:b5:d2:4c:7c:10:
                    ae:2b:9f:14:7f:c4:d0:e7:bf:36:48:c3:53:63:9f:
                    41:f3:01:23:c3:8d:ba:9c:18:2d:92:a6:bc:16:b5:
                    f7:0a:17:fc:83:b6:c3:87:46:c8:58:6e:97:87:7d:
                    99:cf:68:45:69:4c:b0:4c:64:66:a4:89:f9:47:ec:
                    2b:cb:3b:17:0e:ef:e4:2e:98:2a:e4:ec:6e:1a:e9:
                    71:59:67:ad:e2:3f:3a:14:66:c0:0c:52:7e:57:07:
                    8f:2c:67:24:e6:03:88:da:96:a0:0c:cb:9e:42:12:
                    58:32:fa:9e:61:11:5c:87:c3
                Exponent: 65537 (0x10001)
    Signature Algorithm: md5WithRSAEncryption
        1a:c9:df:4d:cb:12:75:e5:aa:3f:12:e7:ed:92:ab:70:fa:9a:
        60:a0:d3:bd:00:27:a6:36:ca:a8:58:77:b7:f6:0c:12:56:9b:
        23:bb:20:9f:1c:b2:c3:a4:d4:d1:16:30:9d:af:1a:fa:11:14:
        07:e2:1a:a5:ab:7a:2e:d8:be:87:45:0e:73:ca:35:b1:ba:de:
        d7:e4:28:c3:aa:57:c1:9a:87:a1:08:e8:10:52:2e:12:2a:a4:
        b4:e5:e0:d4:fa:ed:d0:02:0b:5e:60:08:c5:4d:b3:d5:36:57:
        5e:43:1d:bc:a6:0f:52:71:df:c1:ba:eb:6d:18:65:c4:b7:77:
        01:66
-----BEGIN CERTIFICATE-----
MIICvDCCAiUCCQCbJ9fo0boIrzANBgkqhkiG9w0BAQQFADCBlTELMAkGA1UEBhMC
REUxETAPBgNVBAgTCFNhYXJsYW5kMRAwDgYDVQQKEwdNUEktU1dTMSIwIAYDVQQL
ExlEaXN0cmlidXRlZCBTeXN0ZW1zIEdyb3VwMRowGAYDVQQDExFBbmRyZWFzIEhh
ZWJlcmxlbjEhMB8GCSqGSIb3DQEJARYSZGVtb2NhQG9jdGFyaW5lLmRlMB4XDTE1
MDQyMDIwNDcwNloXDTE2MDQxOTIwNDcwNlowga4xCzAJBgNVBAYTAkRFMREwDwYD
VQQIEwhTYWFybGFuZDEQMA4GA1UEChMHTVBJLVNXUzEiMCAGA1UECxMZRGlzdHJp
YnV0ZWQgU3lzdGVtcyBHcm91cDExMC8GA1UEAxMoYmMxZGE3NmVjODg5ZDljZjgy
Mjc0MTk3YTU4ZTg0MzMxNTFjZDdhOTEjMCEGCSqGSIb3DQEJARYUbm9kZTAyMTVA
b2N0YXJpbmUuZGUwgZ8wDQYJKoZIhvcNAQEBBQADgY0AMIGJAoGBAOodv+JrNGRY
9LXSTHwQriufFH/E0Oe/NkjDU2OfQfMBI8ONupwYLZKmvBa19woX/IO2w4dGyFhu
l4d9mc9oRWlMsExkZqSJ+UfsK8s7Fw7v5C6YKuTsbhrpcVlnreI/OhRmwAxSflcH
jyxnJOYDiNqWoAzLnkISWDL6nmERXIfDAgMBAAEwDQYJKoZIhvcNAQEEBQADgYEA
GsnfTcsSdeWqPxLn7ZKrcPqaYKDTvQAnpjbKqFh3t/YMElabI7sgnxyyw6TU0RYw
na8a+hEUB+Iapat6Lti+h0UOc8o1sbre1+Qow6pXwZqHoQjoEFIuEiqktOXg1Prt
0AILXmAIxU2z1TZXXkMdvKYPUnHfwbrrbRhlxLd3AWY=
-----END CERTIFICATE-----
