Certificate:
    Data:
        Version: 1 (0x0)
        Serial Number:
            9b:27:d7:e8:d1:ba:0a:a4
        Signature Algorithm: md5WithRSAEncryption
        Issuer: C=DE, ST=Saarland, O=MPI-SWS, OU=Distributed Systems Group, CN=Andreas Haeberlen/emailAddress=democa@octarine.de
        Validity
            Not Before: Apr 20 20:47:28 2015 GMT
            Not After : Apr 19 20:47:28 2016 GMT
        Subject: C=DE, ST=Saarland, O=MPI-SWS, OU=Distributed Systems Group, CN=defd58e9be1f9f459694520174bc7965753de269/emailAddress=node0716@octarine.de
        Subject Public Key Info:
            Public Key Algorithm: rsaEncryption
            RSA Public Key: (1024 bit)
                Modulus (1024 bit):
                    00:ae:90:dd:a4:de:4c:a4:b7:95:d3:f8:a9:f6:36:
                    58:00:b9:ec:a7:2b:f3:0d:15:a2:95:da:e1:a3:2e:
                    91:f2:27:3c:ca:ef:a1:17:20:7f:19:a7:81:33:af:
                    17:d7:8a:d3:4f:dc:a9:25:a5:f4:af:be:b4:c2:a2:
                    c1:54:ec:13:d9:98:a1:89:20:ff:9a:6b:e6:a1:d9:
                    30:d8:45:0b:b6:38:0e:43:d0:19:0a:3f:0a:95:01:
                    3e:d8:3b:b6:eb:be:5b:c7:fc:69:3c:0c:f0:f4:22:
                    fd:7b:c8:99:d5:a9:1f:31:d1:32:6d:a8:9b:ae:8c:
                    d0:2c:be:35:ec:ad:90:07:41
                Exponent: 65537 (0x10001)
    Signature Algorithm: md5WithRSAEncryption
        84:33:2e:ef:69:dc:83:39:a6:de:d5:65:fe:45:5a:70:b0:da:
        d5:54:91:bd:62:85:fc:08:09:d2:76:9a:7c:47:16:fb:5d:5d:
        94:37:ab:f5:e3:71:dd:9a:1d:16:64:54:5d:95:29:28:a2:65:
        ae:c0:e4:a8:78:2c:35:0e:0c:d7:72:f8:0f:8b:00:7e:91:21:
        b0:72:6a:97:06:25:16:40:f2:26:cc:15:24:a1:3a:68:36:7b:
        d9:39:75:05:56:fd:f8:1c:47:d1:86:53:c8:76:c6:3b:1f:4c:
        71:a7:47:d7:5b:ae:f0:36:c7:29:b9:31:1a:a2:39:bb:2a:e6:
        59:58
-----BEGIN CERTIFICATE-----
MIICvDCCAiUCCQCbJ9fo0boKpDANBgkqhkiG9w0BAQQFADCBlTELMAkGA1UEBhMC
REUxETAPBgNVBAgTCFNhYXJsYW5kMRAwDgYDVQQKEwdNUEktU1dTMSIwIAYDVQQL
ExlEaXN0cmlidXRlZCBTeXN0ZW1zIEdyb3VwMRowGAYDVQQDExFBbmRyZWFzIEhh
ZWJlcmxlbjEhMB8GCSqGSIb3DQEJARYSZGVtb2NhQG9jdGFyaW5lLmRlMB4XDTE1
MDQyMDIwNDcyOFoXDTE2MDQxOTIwNDcyOFowga4xCzAJBgNVBAYTAkRFMREwDwYD
VQQIEwhTYWFybGFuZDEQMA4GA1UEChMHTVBJLVNXUzEiMCAGA1UECxMZRGlzdHJp
YnV0ZWQgU3lzdGVtcyBHcm91cDExMC8GA1UEAxMoZGVmZDU4ZTliZTFmOWY0NTk2
OTQ1MjAxNzRiYzc5NjU3NTNkZTI2OTEjMCEGCSqGSIb3DQEJARYUbm9kZTA3MTZA
b2N0YXJpbmUuZGUwgZ8wDQYJKoZIhvcNAQEBBQADgY0AMIGJAoGBAK6Q3aTeTKS3
ldP4qfY2WAC57Kcr8w0VopXa4aMukfInPMrvoRcgfxmngTOvF9eK00/cqSWl9K++
tMKiwVTsE9mYoYkg/5pr5qHZMNhFC7Y4DkPQGQo/CpUBPtg7tuu+W8f8aTwM8PQi
/XvImdWpHzHRMm2om66M0Cy+NeytkAdBAgMBAAEwDQYJKoZIhvcNAQEEBQADgYEA
hDMu72ncgzmm3tVl/kVacLDa1VSRvWKF/AgJ0naafEcW+11dlDer9eNx3ZodFmRU
XZUpKKJlrsDkqHgsNQ4M13L4D4sAfpEhsHJqlwYlFkDyJswVJKE6aDZ72Tl1BVb9
+BxH0YZTyHbGOx9McadH11uu8DbHKbkxGqI5uyrmWVg=
-----END CERTIFICATE-----
