Certificate:
    Data:
        Version: 1 (0x0)
        Serial Number:
            9b:27:d7:e8:d1:ba:08:ba
        Signature Algorithm: md5WithRSAEncryption
        Issuer: C=DE, ST=Saarland, O=MPI-SWS, OU=Distributed Systems Group, CN=Andreas Haeberlen/emailAddress=democa@octarine.de
        Validity
            Not Before: Apr 20 20:47:06 2015 GMT
            Not After : Apr 19 20:47:06 2016 GMT
        Subject: C=DE, ST=Saarland, O=MPI-SWS, OU=Distributed Systems Group, CN=3637d407b694cf06e5b2b78da2d8c620d58b9825/emailAddress=node0226@octarine.de
        Subject Public Key Info:
            Public Key Algorithm: rsaEncryption
            RSA Public Key: (1024 bit)
                Modulus (1024 bit):
                    00:ab:82:5f:f3:a7:f6:4b:b0:47:31:9b:6f:79:f6:
                    d9:08:1a:bf:b3:23:c0:6f:d0:34:4e:5f:49:43:6e:
                    de:36:af:2d:d4:03:20:c7:6f:46:ba:91:d8:1c:4c:
                    d0:af:03:01:57:a3:e2:e3:96:bb:e0:68:3f:90:c9:
                    f8:86:d9:84:d3:92:0e:04:cb:a4:e7:38:82:d7:9c:
                    44:10:b9:f5:59:b4:db:6a:29:cf:77:eb:4b:48:3f:
                    09:7a:64:10:d0:c1:c8:3d:18:dc:84:45:1e:89:cd:
                    68:17:40:8e:85:38:13:49:33:f7:fe:71:4a:8d:8d:
                    f0:6c:5d:ed:5c:bc:20:3a:51
                Exponent: 65537 (0x10001)
    Signature Algorithm: md5WithRSAEncryption
        50:2c:bc:95:8e:c7:6f:41:63:60:50:1c:36:ad:5e:0e:10:96:
        9b:1f:18:d7:56:2f:fd:78:01:ad:a2:7c:6b:72:19:ae:65:43:
        8f:82:19:aa:e6:ae:b8:97:16:c2:c2:34:77:87:f3:13:90:d5:
        60:35:95:98:ee:71:20:b7:6c:2b:bf:70:35:6c:9b:c6:fa:45:
        98:86:35:1b:3d:3c:fe:f5:bd:af:8c:3a:c0:02:da:8e:ad:3c:
        57:9a:4c:d8:2e:93:35:fb:56:8b:69:63:95:d5:07:4e:c1:6c:
        8a:c3:10:70:61:ba:60:31:7c:06:fc:6d:5a:ef:ea:10:66:95:
        53:9e
-----BEGIN CERTIFICATE-----
MIICvDCCAiUCCQCbJ9fo0boIujANBgkqhkiG9w0BAQQFADCBlTELMAkGA1UEBhMC
REUxETAPBgNVBAgTCFNhYXJsYW5kMRAwDgYDVQQKEwdNUEktU1dTMSIwIAYDVQQL
ExlEaXN0cmlidXRlZCBTeXN0ZW1zIEdyb3VwMRowGAYDVQQDExFBbmRyZWFzIEhh
ZWJlcmxlbjEhMB8GCSqGSIb3DQEJARYSZGVtb2NhQG9jdGFyaW5lLmRlMB4XDTE1
MDQyMDIwNDcwNloXDTE2MDQxOTIwNDcwNlowga4xCzAJBgNVBAYTAkRFMREwDwYD
VQQIEwhTYWFybGFuZDEQMA4GA1UEChMHTVBJLVNXUzEiMCAGA1UECxMZRGlzdHJp
YnV0ZWQgU3lzdGVtcyBHcm91cDExMC8GA1UEAxMoMzYzN2Q0MDdiNjk0Y2YwNmU1
YjJiNzhkYTJkOGM2MjBkNThiOTgyNTEjMCEGCSqGSIb3DQEJARYUbm9kZTAyMjZA
b2N0YXJpbmUuZGUwgZ8wDQYJKoZIhvcNAQEBBQADgY0AMIGJAoGBAKuCX/On9kuw
RzGbb3n22Qgav7MjwG/QNE5fSUNu3javLdQDIMdvRrqR2BxM0K8DAVej4uOWu+Bo
P5DJ+IbZhNOSDgTLpOc4gtecRBC59Vm022opz3frS0g/CXpkENDByD0Y3IRFHonN
aBdAjoU4E0kz9/5xSo2N8Gxd7Vy8IDpRAgMBAAEwDQYJKoZIhvcNAQEEBQADgYEA
UCy8lY7Hb0FjYFAcNq1eDhCWmx8Y11Yv/XgBraJ8a3IZrmVDj4IZquauuJcWwsI0
d4fzE5DVYDWVmO5xILdsK79wNWybxvpFmIY1Gz08/vW9r4w6wALajq08V5pM2C6T
NftWi2ljldUHTsFsisMQcGG6YDF8BvxtWu/qEGaVU54=
-----END CERTIFICATE-----
