Certificate:
    Data:
        Version: 1 (0x0)
        Serial Number:
            9b:27:d7:e8:d1:ba:0b:12
        Signature Algorithm: md5WithRSAEncryption
        Issuer: C=DE, ST=Saarland, O=MPI-SWS, OU=Distributed Systems Group, CN=Andreas Haeberlen/emailAddress=democa@octarine.de
        Validity
            Not Before: Apr 20 20:47:33 2015 GMT
            Not After : Apr 19 20:47:33 2016 GMT
        Subject: C=DE, ST=Saarland, O=MPI-SWS, OU=Distributed Systems Group, CN=2b99298b5b9ec80adf030366ccb7839ae241ccd2/emailAddress=node0826@octarine.de
        Subject Public Key Info:
            Public Key Algorithm: rsaEncryption
            RSA Public Key: (1024 bit)
                Modulus (1024 bit):
                    00:d2:5f:47:9b:d9:ca:a8:d0:a4:22:83:04:42:c9:
                    2d:61:84:48:d0:ea:ba:14:49:3b:34:e4:24:4a:5d:
                    6b:4c:13:cf:c1:86:3c:e6:76:c6:c0:ee:47:4b:36:
                    99:60:41:57:3b:d8:92:94:75:38:4f:cc:e2:ca:cb:
                    69:a8:c9:fb:98:d1:5e:af:12:15:6d:ef:0e:d7:5f:
                    14:da:26:3b:93:75:0e:95:bd:ad:f4:46:fa:bb:28:
                    9e:d2:3b:38:8e:31:08:40:e3:62:ed:87:27:c2:c6:
                    d7:8b:93:d0:d6:c3:d7:21:8c:fc:26:b3:f1:1d:12:
                    31:cd:02:cf:53:8a:31:7d:3f
                Exponent: 65537 (0x10001)
    Signature Algorithm: md5WithRSAEncryption
        04:21:eb:43:fc:0b:dc:ab:aa:5a:27:2a:ca:3c:0d:f3:d0:92:
        c2:b7:b6:95:8a:36:1d:49:48:d5:13:32:5d:a6:7e:c0:a3:91:
        19:25:df:1f:62:84:5f:a8:8a:7b:5c:c3:4e:df:73:50:1c:a4:
        b8:84:ef:54:3a:55:14:b0:3e:fe:3e:10:7b:52:6b:5b:ca:0d:
        e6:e4:7b:5d:28:2c:28:cf:c9:cc:08:0f:4b:e2:92:23:8a:83:
        a3:04:2a:eb:90:10:6d:d4:d6:da:fc:44:cf:76:07:e6:1f:78:
        aa:49:c7:f9:50:25:d0:bd:08:62:a3:ea:b9:e8:5d:bb:76:b4:
        6f:da
-----BEGIN CERTIFICATE-----
MIICvDCCAiUCCQCbJ9fo0boLEjANBgkqhkiG9w0BAQQFADCBlTELMAkGA1UEBhMC
REUxETAPBgNVBAgTCFNhYXJsYW5kMRAwDgYDVQQKEwdNUEktU1dTMSIwIAYDVQQL
ExlEaXN0cmlidXRlZCBTeXN0ZW1zIEdyb3VwMRowGAYDVQQDExFBbmRyZWFzIEhh
ZWJlcmxlbjEhMB8GCSqGSIb3DQEJARYSZGVtb2NhQG9jdGFyaW5lLmRlMB4XDTE1
MDQyMDIwNDczM1oXDTE2MDQxOTIwNDczM1owga4xCzAJBgNVBAYTAkRFMREwDwYD
VQQIEwhTYWFybGFuZDEQMA4GA1UEChMHTVBJLVNXUzEiMCAGA1UECxMZRGlzdHJp
YnV0ZWQgU3lzdGVtcyBHcm91cDExMC8GA1UEAxMoMmI5OTI5OGI1YjllYzgwYWRm
MDMwMzY2Y2NiNzgzOWFlMjQxY2NkMjEjMCEGCSqGSIb3DQEJARYUbm9kZTA4MjZA
b2N0YXJpbmUuZGUwgZ8wDQYJKoZIhvcNAQEBBQADgY0AMIGJAoGBANJfR5vZyqjQ
pCKDBELJLWGESNDquhRJOzTkJEpda0wTz8GGPOZ2xsDuR0s2mWBBVzvYkpR1OE/M
4srLaajJ+5jRXq8SFW3vDtdfFNomO5N1DpW9rfRG+rsontI7OI4xCEDjYu2HJ8LG
14uT0NbD1yGM/Caz8R0SMc0Cz1OKMX0/AgMBAAEwDQYJKoZIhvcNAQEEBQADgYEA
BCHrQ/wL3KuqWicqyjwN89CSwre2lYo2HUlI1RMyXaZ+wKORGSXfH2KEX6iKe1zD
Tt9zUBykuITvVDpVFLA+/j4Qe1JrW8oN5uR7XSgsKM/JzAgPS+KSI4qDowQq65AQ
bdTW2vxEz3YH5h94qknH+VAl0L0IYqPquehdu3a0b9o=
-----END CERTIFICATE-----
