Certificate:
    Data:
        Version: 1 (0x0)
        Serial Number:
            9b:27:d7:e8:d1:ba:0b:7a
        Signature Algorithm: md5WithRSAEncryption
        Issuer: C=DE, ST=Saarland, O=MPI-SWS, OU=Distributed Systems Group, CN=Andreas Haeberlen/emailAddress=democa@octarine.de
        Validity
            Not Before: Apr 20 20:47:38 2015 GMT
            Not After : Apr 19 20:47:38 2016 GMT
        Subject: C=DE, ST=Saarland, O=MPI-SWS, OU=Distributed Systems Group, CN=fe770fa52727421157c1201e67ff21b2f39f3455/emailAddress=node0930@octarine.de
        Subject Public Key Info:
            Public Key Algorithm: rsaEncryption
            RSA Public Key: (1024 bit)
                Modulus (1024 bit):
                    00:9c:4f:91:94:af:8d:bf:e3:16:75:84:48:9a:94:
                    ec:15:03:c1:ff:9a:e3:70:90:c6:fd:82:c2:5e:c1:
                    93:9e:e5:e6:8e:7b:e3:3d:fc:69:40:08:f1:c5:e4:
                    6c:c3:b7:26:ee:b4:53:39:7d:29:48:88:4f:52:05:
                    a3:58:d8:54:fb:21:dc:98:1d:36:00:a4:a7:bf:2f:
                    4e:0a:fe:d0:16:43:66:84:fd:0c:e0:be:72:68:28:
                    cd:0b:34:88:f4:2d:95:5a:74:8d:6e:67:14:49:b4:
                    ff:ef:0a:3c:f6:d4:12:e4:f9:6c:c8:04:9e:c4:7a:
                    49:2d:e9:b6:b2:db:f3:e7:51
                Exponent: 65537 (0x10001)
    Signature Algorithm: md5WithRSAEncryption
        5c:4a:a2:3e:2b:a7:a7:8d:12:99:a3:77:e2:af:41:b4:ed:bb:
        3b:ee:77:33:32:fd:46:32:2f:5a:6d:1f:c0:f8:a8:73:02:de:
        13:8a:83:e5:8d:c3:a4:b7:a4:18:83:fc:08:14:02:d2:0e:bb:
        82:79:ec:d0:c5:6b:3e:52:92:39:a8:58:d3:26:08:f6:86:a9:
        be:5c:2e:65:72:f1:ae:82:e9:6f:9e:67:e0:1b:22:46:8a:46:
        2b:30:83:f0:f7:fd:a1:ef:5b:8d:93:4d:da:f8:6c:56:a5:67:
        cb:f6:26:4f:37:eb:ac:40:c2:7b:8b:9e:5e:ef:05:bb:0d:a6:
        c6:14
-----BEGIN CERTIFICATE-----
MIICvDCCAiUCCQCbJ9fo0boLejANBgkqhkiG9w0BAQQFADCBlTELMAkGA1UEBhMC
REUxETAPBgNVBAgTCFNhYXJsYW5kMRAwDgYDVQQKEwdNUEktU1dTMSIwIAYDVQQL
ExlEaXN0cmlidXRlZCBTeXN0ZW1zIEdyb3VwMRowGAYDVQQDExFBbmRyZWFzIEhh
ZWJlcmxlbjEhMB8GCSqGSIb3DQEJARYSZGVtb2NhQG9jdGFyaW5lLmRlMB4XDTE1
MDQyMDIwNDczOFoXDTE2MDQxOTIwNDczOFowga4xCzAJBgNVBAYTAkRFMREwDwYD
VQQIEwhTYWFybGFuZDEQMA4GA1UEChMHTVBJLVNXUzEiMCAGA1UECxMZRGlzdHJp
YnV0ZWQgU3lzdGVtcyBHcm91cDExMC8GA1UEAxMoZmU3NzBmYTUyNzI3NDIxMTU3
YzEyMDFlNjdmZjIxYjJmMzlmMzQ1NTEjMCEGCSqGSIb3DQEJARYUbm9kZTA5MzBA
b2N0YXJpbmUuZGUwgZ8wDQYJKoZIhvcNAQEBBQADgY0AMIGJAoGBAJxPkZSvjb/j
FnWESJqU7BUDwf+a43CQxv2Cwl7Bk57l5o574z38aUAI8cXkbMO3Ju60Uzl9KUiI
T1IFo1jYVPsh3JgdNgCkp78vTgr+0BZDZoT9DOC+cmgozQs0iPQtlVp0jW5nFEm0
/+8KPPbUEuT5bMgEnsR6SS3ptrLb8+dRAgMBAAEwDQYJKoZIhvcNAQEEBQADgYEA
XEqiPiunp40SmaN34q9BtO27O+53MzL9RjIvWm0fwPiocwLeE4qD5Y3DpLekGIP8
CBQC0g67gnns0MVrPlKSOahY0yYI9oapvlwuZXLxroLpb55n4BsiRopGKzCD8Pf9
oe9bjZNN2vhsVqVny/YmTzfrrEDCe4ueXu8Fuw2mxhQ=
-----END CERTIFICATE-----
