Certificate:
    Data:
        Version: 1 (0x0)
        Serial Number:
            9b:27:d7:e8:d1:ba:09:79
        Signature Algorithm: md5WithRSAEncryption
        Issuer: C=DE, ST=Saarland, O=MPI-SWS, OU=Distributed Systems Group, CN=Andreas Haeberlen/emailAddress=democa@octarine.de
        Validity
            Not Before: Apr 20 20:47:15 2015 GMT
            Not After : Apr 19 20:47:15 2016 GMT
        Subject: C=DE, ST=Saarland, O=MPI-SWS, OU=Distributed Systems Group, CN=48eaadaf010709b9c343dda62bd2601b9053ef3f/emailAddress=node0417@octarine.de
        Subject Public Key Info:
            Public Key Algorithm: rsaEncryption
            RSA Public Key: (1024 bit)
                Modulus (1024 bit):
                    00:c1:0a:74:0d:c2:25:69:c3:79:55:a4:0c:72:f6:
                    a0:4a:c3:3e:9d:82:ac:5f:0f:a2:25:38:54:67:78:
                    24:72:72:dd:9c:19:ae:66:1d:23:6e:7b:fd:df:da:
                    6d:9e:9d:a0:bc:26:ec:3b:73:1b:95:f8:ef:3b:57:
                    25:48:83:97:04:87:39:c8:6c:d4:a6:c5:2f:42:2b:
                    08:b8:91:14:5c:0c:32:d9:3d:f6:98:04:6b:9d:ff:
                    28:e5:0b:2f:f5:e8:10:d5:10:02:86:3b:7b:57:44:
                    de:04:f7:0a:bf:6f:41:be:c0:e5:9f:2e:04:63:1a:
                    f7:91:05:6c:a3:84:5b:76:2d
                Exponent: 65537 (0x10001)
    Signature Algorithm: md5WithRSAEncryption
        97:be:94:f0:b5:40:31:57:17:ef:94:3e:02:17:50:1b:1d:c2:
        03:3b:b0:22:bb:43:88:04:5a:68:05:fc:cb:b5:d0:8b:57:ec:
        32:6d:48:73:6e:98:e3:00:50:fc:c4:ac:8d:cf:ee:44:21:6d:
        73:f5:81:86:2b:66:65:cf:82:85:bf:b4:1b:3c:e0:f1:85:79:
        3a:81:c3:f2:19:bf:af:95:ff:91:fa:57:94:65:ac:c4:b6:f9:
        3d:20:71:76:35:37:05:d9:e2:5c:88:f6:9a:90:fc:23:d8:6c:
        4c:c5:b8:a5:00:db:50:95:87:50:51:fa:19:79:93:12:98:60:
        80:35
-----BEGIN CERTIFICATE-----
MIICvDCCAiUCCQCbJ9fo0boJeTANBgkqhkiG9w0BAQQFADCBlTELMAkGA1UEBhMC
REUxETAPBgNVBAgTCFNhYXJsYW5kMRAwDgYDVQQKEwdNUEktU1dTMSIwIAYDVQQL
ExlEaXN0cmlidXRlZCBTeXN0ZW1zIEdyb3VwMRowGAYDVQQDExFBbmRyZWFzIEhh
ZWJlcmxlbjEhMB8GCSqGSIb3DQEJARYSZGVtb2NhQG9jdGFyaW5lLmRlMB4XDTE1
MDQyMDIwNDcxNVoXDTE2MDQxOTIwNDcxNVowga4xCzAJBgNVBAYTAkRFMREwDwYD
VQQIEwhTYWFybGFuZDEQMA4GA1UEChMHTVBJLVNXUzEiMCAGA1UECxMZRGlzdHJp
YnV0ZWQgU3lzdGVtcyBHcm91cDExMC8GA1UEAxMoNDhlYWFkYWYwMTA3MDliOWMz
NDNkZGE2MmJkMjYwMWI5MDUzZWYzZjEjMCEGCSqGSIb3DQEJARYUbm9kZTA0MTdA
b2N0YXJpbmUuZGUwgZ8wDQYJKoZIhvcNAQEBBQADgY0AMIGJAoGBAMEKdA3CJWnD
eVWkDHL2oErDPp2CrF8PoiU4VGd4JHJy3ZwZrmYdI257/d/abZ6doLwm7DtzG5X4
7ztXJUiDlwSHOchs1KbFL0IrCLiRFFwMMtk99pgEa53/KOULL/XoENUQAoY7e1dE
3gT3Cr9vQb7A5Z8uBGMa95EFbKOEW3YtAgMBAAEwDQYJKoZIhvcNAQEEBQADgYEA
l76U8LVAMVcX75Q+AhdQGx3CAzuwIrtDiARaaAX8y7XQi1fsMm1Ic26Y4wBQ/MSs
jc/uRCFtc/WBhitmZc+Chb+0Gzzg8YV5OoHD8hm/r5X/kfpXlGWsxLb5PSBxdjU3
BdniXIj2mpD8I9hsTMW4pQDbUJWHUFH6GXmTEphggDU=
-----END CERTIFICATE-----
