Certificate:
    Data:
        Version: 1 (0x0)
        Serial Number:
            9b:27:d7:e8:d1:ba:0b:07
        Signature Algorithm: md5WithRSAEncryption
        Issuer: C=DE, ST=Saarland, O=MPI-SWS, OU=Distributed Systems Group, CN=Andreas Haeberlen/emailAddress=democa@octarine.de
        Validity
            Not Before: Apr 20 20:47:33 2015 GMT
            Not After : Apr 19 20:47:33 2016 GMT
        Subject: C=DE, ST=Saarland, O=MPI-SWS, OU=Distributed Systems Group, CN=5339290552c9551986605a31f31b47caaf3c942e/emailAddress=node0815@octarine.de
        Subject Public Key Info:
            Public Key Algorithm: rsaEncryption
            RSA Public Key: (1024 bit)
                Modulus (1024 bit):
                    00:b8:24:9c:17:9d:7a:8d:83:16:82:d4:e3:1e:fe:
                    31:2b:c4:3d:ca:81:c4:6a:46:f6:c3:ed:28:c1:89:
                    8b:5c:76:91:71:4f:2a:68:62:25:27:dd:c0:35:a0:
                    5a:c6:b3:b2:a6:f2:eb:d3:9c:3d:ad:de:e7:f3:62:
                    f8:51:18:2f:95:da:e0:69:21:27:42:47:f5:92:9c:
                    5f:bd:17:7b:93:38:8f:c5:9b:9d:db:52:39:cc:e9:
                    d3:8a:df:4a:2c:0f:ca:ef:00:dd:a1:2a:0c:c3:4a:
                    7b:f6:50:59:14:29:b0:8b:36:c3:58:06:0c:b6:02:
                    fd:f2:4a:68:de:5b:2f:a8:31
                Exponent: 65537 (0x10001)
    Signature Algorithm: md5WithRSAEncryption
        5d:cd:92:c2:ab:3b:ec:af:c8:15:46:77:54:34:48:4a:78:46:
        28:aa:91:29:f4:b0:17:3a:54:2c:0c:f9:0d:8e:0a:3d:2f:b3:
        1b:dd:c3:a8:b3:dd:50:83:4e:36:5a:fd:bb:c5:63:ce:b0:82:
        a9:c0:1c:2b:af:4d:9f:d4:e4:4a:a9:c7:eb:82:41:c9:8b:59:
        49:2c:37:b6:0c:66:da:89:78:87:fa:d3:ea:92:d6:71:ce:a9:
        97:38:cf:5c:88:d1:ed:75:d0:c0:ee:68:e7:08:b7:e5:07:47:
        37:ff:0d:63:85:4c:e8:0a:90:96:60:b7:f2:b4:65:2c:96:c8:
        72:96
-----BEGIN CERTIFICATE-----
MIICvDCCAiUCCQCbJ9fo0boLBzANBgkqhkiG9w0BAQQFADCBlTELMAkGA1UEBhMC
REUxETAPBgNVBAgTCFNhYXJsYW5kMRAwDgYDVQQKEwdNUEktU1dTMSIwIAYDVQQL
ExlEaXN0cmlidXRlZCBTeXN0ZW1zIEdyb3VwMRowGAYDVQQDExFBbmRyZWFzIEhh
ZWJlcmxlbjEhMB8GCSqGSIb3DQEJARYSZGVtb2NhQG9jdGFyaW5lLmRlMB4XDTE1
MDQyMDIwNDczM1oXDTE2MDQxOTIwNDczM1owga4xCzAJBgNVBAYTAkRFMREwDwYD
VQQIEwhTYWFybGFuZDEQMA4GA1UEChMHTVBJLVNXUzEiMCAGA1UECxMZRGlzdHJp
YnV0ZWQgU3lzdGVtcyBHcm91cDExMC8GA1UEAxMoNTMzOTI5MDU1MmM5NTUxOTg2
NjA1YTMxZjMxYjQ3Y2FhZjNjOTQyZTEjMCEGCSqGSIb3DQEJARYUbm9kZTA4MTVA
b2N0YXJpbmUuZGUwgZ8wDQYJKoZIhvcNAQEBBQADgY0AMIGJAoGBALgknBedeo2D
FoLU4x7+MSvEPcqBxGpG9sPtKMGJi1x2kXFPKmhiJSfdwDWgWsazsqby69OcPa3e
5/Ni+FEYL5Xa4GkhJ0JH9ZKcX70Xe5M4j8WbndtSOczp04rfSiwPyu8A3aEqDMNK
e/ZQWRQpsIs2w1gGDLYC/fJKaN5bL6gxAgMBAAEwDQYJKoZIhvcNAQEEBQADgYEA
Xc2Swqs77K/IFUZ3VDRISnhGKKqRKfSwFzpULAz5DY4KPS+zG93DqLPdUINONlr9
u8VjzrCCqcAcK69Nn9TkSqnH64JByYtZSSw3tgxm2ol4h/rT6pLWcc6plzjPXIjR
7XXQwO5o5wi35QdHN/8NY4VM6AqQlmC38rRlLJbIcpY=
-----END CERTIFICATE-----
