Certificate:
    Data:
        Version: 1 (0x0)
        Serial Number:
            9b:27:d7:e8:d1:ba:09:46
        Signature Algorithm: md5WithRSAEncryption
        Issuer: C=DE, ST=Saarland, O=MPI-SWS, OU=Distributed Systems Group, CN=Andreas Haeberlen/emailAddress=democa@octarine.de
        Validity
            Not Before: Apr 20 20:47:12 2015 GMT
            Not After : Apr 19 20:47:12 2016 GMT
        Subject: C=DE, ST=Saarland, O=MPI-SWS, OU=Distributed Systems Group, CN=5f77bb31f9eae6578060318943cd73dd244ef8ff/emailAddress=node0366@octarine.de
        Subject Public Key Info:
            Public Key Algorithm: rsaEncryption
            RSA Public Key: (1024 bit)
                Modulus (1024 bit):
                    00:a9:0e:8b:41:59:95:7b:7b:86:33:9f:a2:31:9f:
                    a9:a6:35:73:9b:e3:c2:f4:dd:ed:ba:d8:2b:fc:a1:
                    15:a4:15:bb:0e:e0:29:e7:9d:12:f3:88:c4:48:7c:
                    c5:47:9b:3c:ce:bc:d9:8f:fb:a8:ce:2c:53:3d:3c:
                    80:fc:42:b5:44:1c:e3:16:e0:98:4b:8c:e6:55:ee:
                    c6:41:cb:f4:13:d7:94:ae:56:cc:61:a1:ec:69:e7:
                    44:ff:f0:01:4e:dd:07:46:1c:f6:e0:30:32:a1:24:
                    64:74:86:b9:4f:c0:aa:24:b7:95:60:5a:03:c0:ad:
                    53:56:59:e7:a3:84:7d:4c:b5
                Exponent: 65537 (0x10001)
    Signature Algorithm: md5WithRSAEncryption
        31:ff:18:3d:76:46:bc:03:e5:36:c5:38:22:5a:5e:f9:17:38:
        fa:61:bf:52:d2:9a:33:8b:ff:8d:ce:21:79:e7:10:5a:70:1e:
        94:a6:87:18:b7:37:09:5a:4b:fe:0d:d3:45:0f:17:ba:a7:75:
        08:24:a4:95:1b:ac:28:59:b7:d7:63:9b:74:51:56:a0:64:ee:
        ff:16:78:9a:73:f9:84:43:e1:f5:6f:8d:d0:ef:48:15:c1:6e:
        2c:43:7d:ee:e4:c5:36:57:e9:99:70:ac:9d:20:39:d9:c5:10:
        bf:3f:90:23:de:85:e3:c0:52:ee:6a:93:b9:51:4d:5f:de:d1:
        0f:8c
-----BEGIN CERTIFICATE-----
MIICvDCCAiUCCQCbJ9fo0boJRjANBgkqhkiG9w0BAQQFADCBlTELMAkGA1UEBhMC
REUxETAPBgNVBAgTCFNhYXJsYW5kMRAwDgYDVQQKEwdNUEktU1dTMSIwIAYDVQQL
ExlEaXN0cmlidXRlZCBTeXN0ZW1zIEdyb3VwMRowGAYDVQQDExFBbmRyZWFzIEhh
ZWJlcmxlbjEhMB8GCSqGSIb3DQEJARYSZGVtb2NhQG9jdGFyaW5lLmRlMB4XDTE1
MDQyMDIwNDcxMloXDTE2MDQxOTIwNDcxMlowga4xCzAJBgNVBAYTAkRFMREwDwYD
VQQIEwhTYWFybGFuZDEQMA4GA1UEChMHTVBJLVNXUzEiMCAGA1UECxMZRGlzdHJp
YnV0ZWQgU3lzdGVtcyBHcm91cDExMC8GA1UEAxMoNWY3N2JiMzFmOWVhZTY1Nzgw
NjAzMTg5NDNjZDczZGQyNDRlZjhmZjEjMCEGCSqGSIb3DQEJARYUbm9kZTAzNjZA
b2N0YXJpbmUuZGUwgZ8wDQYJKoZIhvcNAQEBBQADgY0AMIGJAoGBAKkOi0FZlXt7
hjOfojGfqaY1c5vjwvTd7brYK/yhFaQVuw7gKeedEvOIxEh8xUebPM682Y/7qM4s
Uz08gPxCtUQc4xbgmEuM5lXuxkHL9BPXlK5WzGGh7GnnRP/wAU7dB0Yc9uAwMqEk
ZHSGuU/AqiS3lWBaA8CtU1ZZ56OEfUy1AgMBAAEwDQYJKoZIhvcNAQEEBQADgYEA
Mf8YPXZGvAPlNsU4Ilpe+Rc4+mG/UtKaM4v/jc4heecQWnAelKaHGLc3CVpL/g3T
RQ8Xuqd1CCSklRusKFm312ObdFFWoGTu/xZ4mnP5hEPh9W+N0O9IFcFuLEN97uTF
NlfpmXCsnSA52cUQvz+QI96F48BS7mqTuVFNX97RD4w=
-----END CERTIFICATE-----
