Certificate:
    Data:
        Version: 1 (0x0)
        Serial Number:
            9b:27:d7:e8:d1:ba:09:ef
        Signature Algorithm: md5WithRSAEncryption
        Issuer: C=DE, ST=Saarland, O=MPI-SWS, OU=Distributed Systems Group, CN=Andreas Haeberlen/emailAddress=democa@octarine.de
        Validity
            Not Before: Apr 20 20:47:20 2015 GMT
            Not After : Apr 19 20:47:20 2016 GMT
        Subject: C=DE, ST=Saarland, O=MPI-SWS, OU=Distributed Systems Group, CN=01db05990d83ed2a2fe355e0e09bacebec6e1072/emailAddress=node0535@octarine.de
        Subject Public Key Info:
            Public Key Algorithm: rsaEncryption
            RSA Public Key: (1024 bit)
                Modulus (1024 bit):
                    00:d0:6e:d9:1f:b5:0f:ce:9c:c0:7c:ba:cc:37:fc:
                    5d:72:cb:a1:00:4d:44:d2:54:87:27:6a:b2:e3:bc:
                    a6:21:94:a9:4a:d4:e2:6e:30:4f:72:37:1c:a5:e0:
                    04:52:c7:33:bf:ec:ae:18:c8:b9:25:e8:e2:75:ea:
                    96:be:9b:59:b3:00:e4:bc:79:4d:e4:65:8c:4b:f8:
                    fe:cc:90:ca:bf:12:1b:68:c5:5e:35:ef:14:2f:6f:
                    0e:2a:fd:71:99:33:53:80:ac:1e:d6:e9:38:e7:ad:
                    30:7b:aa:22:f4:2c:23:4f:f1:6c:a6:03:75:27:fd:
                    30:1e:ea:34:60:4c:ca:6f:57
                Exponent: 65537 (0x10001)
    Signature Algorithm: md5WithRSAEncryption
        4b:e0:57:f7:fc:52:a9:b9:b1:d2:8b:cc:c8:57:5b:1c:d1:ea:
        5d:47:b8:9d:90:8c:02:c5:bd:5a:58:59:22:d9:de:3a:38:5f:
        f1:ab:33:de:14:d2:1d:b9:c4:e2:a0:be:ef:6a:d8:02:65:f4:
        49:59:16:06:2f:d8:e2:26:af:2d:4d:ac:ba:20:38:5d:78:f5:
        c6:7e:94:be:15:9a:b7:f1:e3:d8:48:28:58:bc:06:b1:01:fd:
        a4:38:3b:54:a4:cf:a4:cb:ec:6e:85:1d:11:a5:90:35:91:c9:
        cd:11:5b:3d:40:17:e4:ab:50:1b:ef:63:a1:54:ff:21:fb:1b:
        52:7e
-----BEGIN CERTIFICATE-----
MIICvDCCAiUCCQCbJ9fo0boJ7zANBgkqhkiG9w0BAQQFADCBlTELMAkGA1UEBhMC
REUxETAPBgNVBAgTCFNhYXJsYW5kMRAwDgYDVQQKEwdNUEktU1dTMSIwIAYDVQQL
ExlEaXN0cmlidXRlZCBTeXN0ZW1zIEdyb3VwMRowGAYDVQQDExFBbmRyZWFzIEhh
ZWJlcmxlbjEhMB8GCSqGSIb3DQEJARYSZGVtb2NhQG9jdGFyaW5lLmRlMB4XDTE1
MDQyMDIwNDcyMFoXDTE2MDQxOTIwNDcyMFowga4xCzAJBgNVBAYTAkRFMREwDwYD
VQQIEwhTYWFybGFuZDEQMA4GA1UEChMHTVBJLVNXUzEiMCAGA1UECxMZRGlzdHJp
YnV0ZWQgU3lzdGVtcyBHcm91cDExMC8GA1UEAxMoMDFkYjA1OTkwZDgzZWQyYTJm
ZTM1NWUwZTA5YmFjZWJlYzZlMTA3MjEjMCEGCSqGSIb3DQEJARYUbm9kZTA1MzVA
b2N0YXJpbmUuZGUwgZ8wDQYJKoZIhvcNAQEBBQADgY0AMIGJAoGBANBu2R+1D86c
wHy6zDf8XXLLoQBNRNJUhydqsuO8piGUqUrU4m4wT3I3HKXgBFLHM7/srhjIuSXo
4nXqlr6bWbMA5Lx5TeRljEv4/syQyr8SG2jFXjXvFC9vDir9cZkzU4CsHtbpOOet
MHuqIvQsI0/xbKYDdSf9MB7qNGBMym9XAgMBAAEwDQYJKoZIhvcNAQEEBQADgYEA
S+BX9/xSqbmx0ovMyFdbHNHqXUe4nZCMAsW9WlhZItneOjhf8asz3hTSHbnE4qC+
72rYAmX0SVkWBi/Y4iavLU2suiA4XXj1xn6UvhWat/Hj2EgoWLwGsQH9pDg7VKTP
pMvsboUdEaWQNZHJzRFbPUAX5KtQG+9joVT/IfsbUn4=
-----END CERTIFICATE-----
