Certificate:
    Data:
        Version: 1 (0x0)
        Serial Number:
            9b:27:d7:e8:d1:ba:08:b7
        Signature Algorithm: md5WithRSAEncryption
        Issuer: C=DE, ST=Saarland, O=MPI-SWS, OU=Distributed Systems Group, CN=Andreas Haeberlen/emailAddress=democa@octarine.de
        Validity
            Not Before: Apr 20 20:47:06 2015 GMT
            Not After : Apr 19 20:47:06 2016 GMT
        Subject: C=DE, ST=Saarland, O=MPI-SWS, OU=Distributed Systems Group, CN=88855fdc6365b5050414656298bcbf138a9e96b0/emailAddress=node0223@octarine.de
        Subject Public Key Info:
            Public Key Algorithm: rsaEncryption
            RSA Public Key: (1024 bit)
                Modulus (1024 bit):
                    00:ee:d7:a3:de:15:8f:38:0f:ef:ea:3a:fa:48:6c:
                    6b:39:0c:2e:eb:44:7b:ad:62:45:9e:34:60:63:1f:
                    d1:96:58:89:20:3f:c9:36:81:00:38:8b:a0:19:d1:
                    bb:ad:42:14:85:3c:e7:18:72:9e:46:78:13:52:34:
                    d8:25:4a:d7:34:af:0a:6e:73:3d:cc:bb:a0:55:04:
                    5d:54:6a:d6:67:b7:36:18:10:22:1b:b9:37:ca:ed:
                    5b:1a:b4:ae:9a:07:12:7e:a9:19:40:71:fc:91:af:
                    80:0e:46:ca:a4:c7:37:d7:32:29:50:47:02:a3:eb:
                    75:ea:a7:ee:83:d1:bd:66:0d
                Exponent: 65537 (0x10001)
    Signature Algorithm: md5WithRSAEncryption
        2b:2e:42:6e:55:39:f2:37:00:80:33:1d:b6:1f:f9:6f:65:60:
        98:cf:56:17:d9:d7:fe:e3:fa:86:50:07:c4:9c:ae:a3:b1:53:
        d4:e5:61:f0:97:56:06:25:85:11:74:9e:84:1b:87:d9:bf:6f:
        4b:1f:c0:15:04:59:50:1a:9d:fe:b7:ce:b1:cb:93:5e:9b:d7:
        da:6c:57:51:98:35:78:a7:5e:80:6c:ec:db:99:52:c1:5e:25:
        16:26:0c:f4:67:7a:b5:a6:20:45:ef:5d:56:a2:29:8c:a9:7b:
        92:2b:c9:bb:e4:ee:da:8b:00:2e:a3:98:65:c8:7b:c7:15:e5:
        76:1f
-----BEGIN CERTIFICATE-----
MIICvDCCAiUCCQCbJ9fo0boItzANBgkqhkiG9w0BAQQFADCBlTELMAkGA1UEBhMC
REUxETAPBgNVBAgTCFNhYXJsYW5kMRAwDgYDVQQKEwdNUEktU1dTMSIwIAYDVQQL
ExlEaXN0cmlidXRlZCBTeXN0ZW1zIEdyb3VwMRowGAYDVQQDExFBbmRyZWFzIEhh
ZWJlcmxlbjEhMB8GCSqGSIb3DQEJARYSZGVtb2NhQG9jdGFyaW5lLmRlMB4XDTE1
MDQyMDIwNDcwNloXDTE2MDQxOTIwNDcwNlowga4xCzAJBgNVBAYTAkRFMREwDwYD
VQQIEwhTYWFybGFuZDEQMA4GA1UEChMHTVBJLVNXUzEiMCAGA1UECxMZRGlzdHJp
YnV0ZWQgU3lzdGVtcyBHcm91cDExMC8GA1UEAxMoODg4NTVmZGM2MzY1YjUwNTA0
MTQ2NTYyOThiY2JmMTM4YTllOTZiMDEjMCEGCSqGSIb3DQEJARYUbm9kZTAyMjNA
b2N0YXJpbmUuZGUwgZ8wDQYJKoZIhvcNAQEBBQADgY0AMIGJAoGBAO7Xo94VjzgP
7+o6+khsazkMLutEe61iRZ40YGMf0ZZYiSA/yTaBADiLoBnRu61CFIU85xhynkZ4
E1I02CVK1zSvCm5zPcy7oFUEXVRq1me3NhgQIhu5N8rtWxq0rpoHEn6pGUBx/JGv
gA5GyqTHN9cyKVBHAqPrdeqn7oPRvWYNAgMBAAEwDQYJKoZIhvcNAQEEBQADgYEA
Ky5CblU58jcAgDMdth/5b2VgmM9WF9nX/uP6hlAHxJyuo7FT1OVh8JdWBiWFEXSe
hBuH2b9vSx/AFQRZUBqd/rfOscuTXpvX2mxXUZg1eKdegGzs25lSwV4lFiYM9Gd6
taYgRe9dVqIpjKl7kivJu+Tu2osALqOYZch7xxXldh8=
-----END CERTIFICATE-----
