Certificate:
    Data:
        Version: 1 (0x0)
        Serial Number:
            9b:27:d7:e8:d1:ba:0a:40
        Signature Algorithm: md5WithRSAEncryption
        Issuer: C=DE, ST=Saarland, O=MPI-SWS, OU=Distributed Systems Group, CN=Andreas Haeberlen/emailAddress=democa@octarine.de
        Validity
            Not Before: Apr 20 20:47:24 2015 GMT
            Not After : Apr 19 20:47:24 2016 GMT
        Subject: C=DE, ST=Saarland, O=MPI-SWS, OU=Distributed Systems Group, CN=7c160099f2f56b9e00707c408fe4303ad50d6a76/emailAddress=node0616@octarine.de
        Subject Public Key Info:
            Public Key Algorithm: rsaEncryption
            RSA Public Key: (1024 bit)
                Modulus (1024 bit):
                    00:bc:9b:76:54:55:85:8b:67:4e:33:45:d6:ba:c3:
                    27:18:33:a3:94:35:de:82:a9:1e:b3:1c:88:e7:d8:
                    a2:cb:ef:4e:a2:2d:fc:e0:f0:a5:d1:ba:e7:71:e0:
                    7b:34:80:8d:db:1e:31:70:95:f8:d2:f8:7d:c0:bd:
                    29:02:fe:1e:1e:62:a7:2c:ea:e7:c8:d4:e7:ae:c1:
                    5e:12:e2:e6:16:9a:b7:db:b4:4d:b0:12:87:c8:00:
                    bd:79:d7:35:7a:00:10:c0:6a:28:19:5c:99:3b:e6:
                    99:18:5c:a5:bb:81:b6:8c:6c:70:c3:12:a8:bf:fb:
                    1b:14:e9:45:fe:1b:ba:11:37
                Exponent: 65537 (0x10001)
    Signature Algorithm: md5WithRSAEncryption
        09:7d:9d:0a:14:5f:df:2e:c3:02:c6:24:36:4f:ac:e6:53:c3:
        87:09:36:63:38:87:d3:0e:a7:ec:22:17:bd:77:d7:fc:c7:56:
        7a:0c:e0:9b:7e:81:12:f9:db:3a:00:95:d5:cb:de:f5:4d:0f:
        ac:20:51:70:7a:26:a2:db:be:f4:0d:c6:f9:0f:56:e1:21:64:
        c8:55:a0:a0:2a:e6:a9:59:f6:17:c8:9f:94:27:49:80:87:2f:
        14:90:fc:70:3e:11:b8:bc:01:00:06:00:17:5e:f8:34:32:a6:
        39:f1:d8:16:93:ee:79:96:81:70:59:f6:b3:f0:36:c6:d0:23:
        f8:41
-----BEGIN CERTIFICATE-----
MIICvDCCAiUCCQCbJ9fo0boKQDANBgkqhkiG9w0BAQQFADCBlTELMAkGA1UEBhMC
REUxETAPBgNVBAgTCFNhYXJsYW5kMRAwDgYDVQQKEwdNUEktU1dTMSIwIAYDVQQL
ExlEaXN0cmlidXRlZCBTeXN0ZW1zIEdyb3VwMRowGAYDVQQDExFBbmRyZWFzIEhh
ZWJlcmxlbjEhMB8GCSqGSIb3DQEJARYSZGVtb2NhQG9jdGFyaW5lLmRlMB4XDTE1
MDQyMDIwNDcyNFoXDTE2MDQxOTIwNDcyNFowga4xCzAJBgNVBAYTAkRFMREwDwYD
VQQIEwhTYWFybGFuZDEQMA4GA1UEChMHTVBJLVNXUzEiMCAGA1UECxMZRGlzdHJp
YnV0ZWQgU3lzdGVtcyBHcm91cDExMC8GA1UEAxMoN2MxNjAwOTlmMmY1NmI5ZTAw
NzA3YzQwOGZlNDMwM2FkNTBkNmE3NjEjMCEGCSqGSIb3DQEJARYUbm9kZTA2MTZA
b2N0YXJpbmUuZGUwgZ8wDQYJKoZIhvcNAQEBBQADgY0AMIGJAoGBALybdlRVhYtn
TjNF1rrDJxgzo5Q13oKpHrMciOfYosvvTqIt/ODwpdG653HgezSAjdseMXCV+NL4
fcC9KQL+Hh5ipyzq58jU567BXhLi5haat9u0TbASh8gAvXnXNXoAEMBqKBlcmTvm
mRhcpbuBtoxscMMSqL/7GxTpRf4buhE3AgMBAAEwDQYJKoZIhvcNAQEEBQADgYEA
CX2dChRf3y7DAsYkNk+s5lPDhwk2YziH0w6n7CIXvXfX/MdWegzgm36BEvnbOgCV
1cve9U0PrCBRcHomotu+9A3G+Q9W4SFkyFWgoCrmqVn2F8iflCdJgIcvFJD8cD4R
uLwBAAYAF174NDKmOfHYFpPueZaBcFn2s/A2xtAj+EE=
-----END CERTIFICATE-----
