Certificate:
    Data:
        Version: 1 (0x0)
        Serial Number:
            9b:27:d7:e8:d1:ba:0a:9c
        Signature Algorithm: md5WithRSAEncryption
        Issuer: C=DE, ST=Saarland, O=MPI-SWS, OU=Distributed Systems Group, CN=Andreas Haeberlen/emailAddress=democa@octarine.de
        Validity
            Not Before: Apr 20 20:47:28 2015 GMT
            Not After : Apr 19 20:47:28 2016 GMT
        Subject: C=DE, ST=Saarland, O=MPI-SWS, OU=Distributed Systems Group, CN=46943e20ea68bdd34c38307476520ce538976b75/emailAddress=node0708@octarine.de
        Subject Public Key Info:
            Public Key Algorithm: rsaEncryption
            RSA Public Key: (1024 bit)
                Modulus (1024 bit):
                    00:ea:96:7f:4c:a7:83:ca:c6:52:10:96:a2:5e:b9:
                    50:bf:5b:68:90:55:c2:d7:bd:50:fd:12:26:5c:7b:
                    43:87:8b:25:0b:c2:ba:e3:e6:af:ca:92:81:cb:ce:
                    89:7e:c6:5e:55:36:bc:8c:ed:4b:11:35:32:9e:01:
                    f3:74:70:8d:87:77:b9:05:4d:02:74:88:d6:bf:71:
                    ba:1c:e2:55:3a:2c:be:81:58:6d:0a:cc:ba:ef:40:
                    38:84:8c:69:00:f9:91:28:f2:43:df:94:47:5c:12:
                    61:f3:5e:1c:16:22:d3:f9:0e:35:1e:ea:50:f8:88:
                    52:e1:0c:a0:b4:04:c0:da:0f
                Exponent: 65537 (0x10001)
    Signature Algorithm: md5WithRSAEncryption
        26:f7:16:e1:b9:fa:9d:57:39:3b:de:2e:1d:bc:3e:a5:58:f3:
        08:cf:4e:fc:c1:a5:e2:2b:23:6a:0f:2a:d9:fb:1b:ae:60:89:
        bc:75:32:53:f8:16:37:c9:a3:4b:12:81:0a:82:69:b8:bf:1f:
        7f:4c:fc:fd:29:c9:be:3a:cf:a5:5b:6b:26:0e:ca:a6:f8:ac:
        93:ce:90:dc:0f:11:35:f1:ac:9c:bb:2d:a9:da:6e:1d:60:df:
        54:46:a7:bd:0a:ac:f4:66:25:26:b9:7a:99:33:3f:8c:38:3a:
        f3:7a:cd:d0:d3:2f:2a:8c:fc:0a:b6:bd:58:52:d6:09:ee:59:
        1d:bb
-----BEGIN CERTIFICATE-----
MIICvDCCAiUCCQCbJ9fo0boKnDANBgkqhkiG9w0BAQQFADCBlTELMAkGA1UEBhMC
REUxETAPBgNVBAgTCFNhYXJsYW5kMRAwDgYDVQQKEwdNUEktU1dTMSIwIAYDVQQL
ExlEaXN0cmlidXRlZCBTeXN0ZW1zIEdyb3VwMRowGAYDVQQDExFBbmRyZWFzIEhh
ZWJlcmxlbjEhMB8GCSqGSIb3DQEJARYSZGVtb2NhQG9jdGFyaW5lLmRlMB4XDTE1
MDQyMDIwNDcyOFoXDTE2MDQxOTIwNDcyOFowga4xCzAJBgNVBAYTAkRFMREwDwYD
VQQIEwhTYWFybGFuZDEQMA4GA1UEChMHTVBJLVNXUzEiMCAGA1UECxMZRGlzdHJp
YnV0ZWQgU3lzdGVtcyBHcm91cDExMC8GA1UEAxMoNDY5NDNlMjBlYTY4YmRkMzRj
MzgzMDc0NzY1MjBjZTUzODk3NmI3NTEjMCEGCSqGSIb3DQEJARYUbm9kZTA3MDhA
b2N0YXJpbmUuZGUwgZ8wDQYJKoZIhvcNAQEBBQADgY0AMIGJAoGBAOqWf0yng8rG
UhCWol65UL9baJBVwte9UP0SJlx7Q4eLJQvCuuPmr8qSgcvOiX7GXlU2vIztSxE1
Mp4B83RwjYd3uQVNAnSI1r9xuhziVTosvoFYbQrMuu9AOISMaQD5kSjyQ9+UR1wS
YfNeHBYi0/kONR7qUPiIUuEMoLQEwNoPAgMBAAEwDQYJKoZIhvcNAQEEBQADgYEA
JvcW4bn6nVc5O94uHbw+pVjzCM9O/MGl4isjag8q2fsbrmCJvHUyU/gWN8mjSxKB
CoJpuL8ff0z8/SnJvjrPpVtrJg7Kpvisk86Q3A8RNfGsnLstqdpuHWDfVEanvQqs
9GYlJrl6mTM/jDg683rN0NMvKoz8Cra9WFLWCe5ZHbs=
-----END CERTIFICATE-----
