Certificate:
    Data:
        Version: 1 (0x0)
        Serial Number:
            9b:27:d7:e8:d1:ba:08:6f
        Signature Algorithm: md5WithRSAEncryption
        Issuer: C=DE, ST=Saarland, O=MPI-SWS, OU=Distributed Systems Group, CN=Andreas Haeberlen/emailAddress=democa@octarine.de
        Validity
            Not Before: Apr 20 20:47:03 2015 GMT
            Not After : Apr 19 20:47:03 2016 GMT
        Subject: C=DE, ST=Saarland, O=MPI-SWS, OU=Distributed Systems Group, CN=9c57884c54f6716b1d7cc6c0216832cce236b820/emailAddress=node0151@octarine.de
        Subject Public Key Info:
            Public Key Algorithm: rsaEncryption
            RSA Public Key: (1024 bit)
                Modulus (1024 bit):
                    00:e6:24:9f:4c:6e:45:8b:ac:b3:cd:d9:d1:e0:30:
                    f0:90:9e:14:de:5f:22:b1:55:f1:53:d1:52:4d:06:
                    c0:b2:06:4b:ce:00:20:a6:79:36:8c:a1:c4:ad:e0:
                    2d:fb:25:d0:48:d5:97:8b:51:29:0e:c2:4a:ff:6e:
                    09:54:ff:11:88:72:85:24:d7:fa:11:d5:cf:b5:e1:
                    8a:f5:07:56:d4:74:31:64:6b:54:2a:d8:bf:96:dc:
                    39:c0:3b:bf:be:f4:98:1c:59:53:b8:11:ee:c9:72:
                    4e:34:cb:f0:ff:7e:d0:01:b4:0a:45:84:80:b5:48:
                    5c:37:cd:80:f3:ce:81:7b:1f
                Exponent: 65537 (0x10001)
    Signature Algorithm: md5WithRSAEncryption
        8d:63:0a:1f:31:3f:30:e1:2a:96:f3:79:bc:55:0b:ab:bf:9a:
        87:24:44:73:69:9c:22:79:2d:31:f0:a6:f2:ef:6f:05:36:02:
        d8:40:9f:95:37:ce:cc:60:34:89:1c:e3:2a:b0:24:c0:28:e4:
        65:56:52:7f:7f:c7:12:29:65:b8:d1:53:0a:04:3d:79:3f:b9:
        1a:42:95:5b:b6:68:4c:fd:3b:13:ee:2b:66:a7:e1:ab:1a:20:
        d4:50:7b:ae:bc:a7:1d:e3:52:4d:90:be:e3:04:79:3b:58:e2:
        e9:1f:5e:87:55:18:80:d5:a9:f8:ea:ed:5b:f3:bd:a9:cd:81:
        9c:d1
-----BEGIN CERTIFICATE-----
MIICvDCCAiUCCQCbJ9fo0boIbzANBgkqhkiG9w0BAQQFADCBlTELMAkGA1UEBhMC
REUxETAPBgNVBAgTCFNhYXJsYW5kMRAwDgYDVQQKEwdNUEktU1dTMSIwIAYDVQQL
ExlEaXN0cmlidXRlZCBTeXN0ZW1zIEdyb3VwMRowGAYDVQQDExFBbmRyZWFzIEhh
ZWJlcmxlbjEhMB8GCSqGSIb3DQEJARYSZGVtb2NhQG9jdGFyaW5lLmRlMB4XDTE1
MDQyMDIwNDcwM1oXDTE2MDQxOTIwNDcwM1owga4xCzAJBgNVBAYTAkRFMREwDwYD
VQQIEwhTYWFybGFuZDEQMA4GA1UEChMHTVBJLVNXUzEiMCAGA1UECxMZRGlzdHJp
YnV0ZWQgU3lzdGVtcyBHcm91cDExMC8GA1UEAxMoOWM1Nzg4NGM1NGY2NzE2YjFk
N2NjNmMwMjE2ODMyY2NlMjM2YjgyMDEjMCEGCSqGSIb3DQEJARYUbm9kZTAxNTFA
b2N0YXJpbmUuZGUwgZ8wDQYJKoZIhvcNAQEBBQADgY0AMIGJAoGBAOYkn0xuRYus
s83Z0eAw8JCeFN5fIrFV8VPRUk0GwLIGS84AIKZ5NoyhxK3gLfsl0EjVl4tRKQ7C
Sv9uCVT/EYhyhSTX+hHVz7XhivUHVtR0MWRrVCrYv5bcOcA7v770mBxZU7gR7sly
TjTL8P9+0AG0CkWEgLVIXDfNgPPOgXsfAgMBAAEwDQYJKoZIhvcNAQEEBQADgYEA
jWMKHzE/MOEqlvN5vFULq7+ahyREc2mcInktMfCm8u9vBTYC2ECflTfOzGA0iRzj
KrAkwCjkZVZSf3/HEilluNFTCgQ9eT+5GkKVW7ZoTP07E+4rZqfhqxog1FB7rryn
HeNSTZC+4wR5O1ji6R9eh1UYgNWp+OrtW/O9qc2BnNE=
-----END CERTIFICATE-----
