Certificate:
    Data:
        Version: 1 (0x0)
        Serial Number:
            9b:27:d7:e8:d1:ba:08:4a
        Signature Algorithm: md5WithRSAEncryption
        Issuer: C=DE, ST=Saarland, O=MPI-SWS, OU=Distributed Systems Group, CN=Andreas Haeberlen/emailAddress=democa@octarine.de
        Validity
            Not Before: Apr 20 20:47:02 2015 GMT
            Not After : Apr 19 20:47:02 2016 GMT
        Subject: C=DE, ST=Saarland, O=MPI-SWS, OU=Distributed Systems Group, CN=7dbd972a22eceeec4f6c305df704d234fe295448/emailAddress=node0114@octarine.de
        Subject Public Key Info:
            Public Key Algorithm: rsaEncryption
            RSA Public Key: (1024 bit)
                Modulus (1024 bit):
                    00:cf:58:2c:cb:92:75:bb:9b:cd:3c:13:22:39:3f:
                    7d:5d:fe:15:c4:5a:b7:b0:e6:b6:6a:01:c6:ef:c7:
                    5a:90:5a:07:4e:f5:06:e1:47:8f:9b:8a:10:0d:43:
                    c3:90:9f:b0:d5:23:d8:18:8a:14:88:f0:da:61:27:
                    3b:9e:eb:43:04:46:14:d9:e8:db:de:82:d8:c0:5d:
                    d2:47:3a:25:db:e3:38:c0:56:71:1a:97:36:26:eb:
                    4f:59:95:d8:6d:7c:9c:e8:18:9c:ae:ba:ac:98:79:
                    eb:64:2b:f9:8c:5c:8d:3a:c3:8c:65:50:da:ee:cf:
                    c6:31:7f:1f:bc:1e:bb:5e:ff
                Exponent: 65537 (0x10001)
    Signature Algorithm: md5WithRSAEncryption
        90:f9:fd:74:44:59:45:e2:f6:06:47:70:e0:fd:ad:3f:00:e5:
        38:66:de:2a:4a:40:95:c7:ab:d7:96:f5:89:36:09:73:5b:e2:
        d4:80:30:f5:36:ff:9b:31:cd:b2:d7:57:c3:39:18:6d:c3:15:
        dd:88:44:29:5d:b4:bc:62:eb:5f:30:94:b1:bb:72:f7:15:e1:
        36:c5:96:94:c9:b3:bf:8b:89:e0:19:08:ed:c0:00:6b:4b:22:
        36:88:75:85:7b:65:1f:24:eb:0d:a7:97:86:9c:0e:1d:1d:01:
        40:b7:40:55:da:ba:e1:1a:2b:88:a6:70:29:cd:29:d0:62:37:
        72:f4
-----BEGIN CERTIFICATE-----
MIICvDCCAiUCCQCbJ9fo0boISjANBgkqhkiG9w0BAQQFADCBlTELMAkGA1UEBhMC
REUxETAPBgNVBAgTCFNhYXJsYW5kMRAwDgYDVQQKEwdNUEktU1dTMSIwIAYDVQQL
ExlEaXN0cmlidXRlZCBTeXN0ZW1zIEdyb3VwMRowGAYDVQQDExFBbmRyZWFzIEhh
ZWJlcmxlbjEhMB8GCSqGSIb3DQEJARYSZGVtb2NhQG9jdGFyaW5lLmRlMB4XDTE1
MDQyMDIwNDcwMloXDTE2MDQxOTIwNDcwMlowga4xCzAJBgNVBAYTAkRFMREwDwYD
VQQIEwhTYWFybGFuZDEQMA4GA1UEChMHTVBJLVNXUzEiMCAGA1UECxMZRGlzdHJp
YnV0ZWQgU3lzdGVtcyBHcm91cDExMC8GA1UEAxMoN2RiZDk3MmEyMmVjZWVlYzRm
NmMzMDVkZjcwNGQyMzRmZTI5NTQ0ODEjMCEGCSqGSIb3DQEJARYUbm9kZTAxMTRA
b2N0YXJpbmUuZGUwgZ8wDQYJKoZIhvcNAQEBBQADgY0AMIGJAoGBAM9YLMuSdbub
zTwTIjk/fV3+FcRat7DmtmoBxu/HWpBaB071BuFHj5uKEA1Dw5CfsNUj2BiKFIjw
2mEnO57rQwRGFNno296C2MBd0kc6JdvjOMBWcRqXNibrT1mV2G18nOgYnK66rJh5
62Qr+YxcjTrDjGVQ2u7PxjF/H7weu17/AgMBAAEwDQYJKoZIhvcNAQEEBQADgYEA
kPn9dERZReL2Bkdw4P2tPwDlOGbeKkpAlcer15b1iTYJc1vi1IAw9Tb/mzHNstdX
wzkYbcMV3YhEKV20vGLrXzCUsbty9xXhNsWWlMmzv4uJ4BkI7cAAa0siNoh1hXtl
HyTrDaeXhpwOHR0BQLdAVdq64RoriKZwKc0p0GI3cvQ=
-----END CERTIFICATE-----
