Certificate:
    Data:
        Version: 1 (0x0)
        Serial Number:
            9b:27:d7:e8:d1:ba:08:a5
        Signature Algorithm: md5WithRSAEncryption
        Issuer: C=DE, ST=Saarland, O=MPI-SWS, OU=Distributed Systems Group, CN=Andreas Haeberlen/emailAddress=democa@octarine.de
        Validity
            Not Before: Apr 20 20:47:06 2015 GMT
            Not After : Apr 19 20:47:06 2016 GMT
        Subject: C=DE, ST=Saarland, O=MPI-SWS, OU=Distributed Systems Group, CN=4d39f5ed409984a1e438904772303d07a3199f7d/emailAddress=node0205@octarine.de
        Subject Public Key Info:
            Public Key Algorithm: rsaEncryption
            RSA Public Key: (1024 bit)
                Modulus (1024 bit):
                    00:ca:dc:a7:08:05:22:ce:bc:fb:c6:04:bc:64:f5:
                    7b:be:a0:7d:de:68:57:fc:29:d8:f5:a7:9e:09:5a:
                    17:1e:2e:14:a2:d4:ec:01:b2:08:9b:e9:23:7e:b9:
                    25:d7:a9:5a:98:46:ea:96:63:f9:c1:0a:23:fb:d4:
                    83:a3:50:c6:35:66:f5:40:fb:d7:29:10:61:43:39:
                    3d:4e:10:9a:29:c2:f3:34:72:c5:d1:88:87:5b:c7:
                    ec:b4:39:df:bd:35:22:ce:fc:03:42:35:d9:5a:72:
                    9d:4b:1f:43:ae:7b:f7:d2:e7:68:48:90:8c:28:d5:
                    10:0f:e0:18:de:f6:e3:45:75
                Exponent: 65537 (0x10001)
    Signature Algorithm: md5WithRSAEncryption
        30:fc:38:69:fc:71:c5:21:2d:49:b7:fc:b2:30:47:4a:84:06:
        85:52:7d:8c:56:11:ce:8d:fa:ab:58:1c:c5:34:1b:ae:83:ce:
        d2:64:41:46:3c:a2:da:60:0f:cb:66:fe:0d:d9:cc:35:c5:6e:
        e5:e1:3e:37:a0:a3:a6:f8:49:67:5a:a9:a4:64:57:14:04:fa:
        ed:ee:aa:af:aa:74:5b:cf:1d:b2:3e:32:d9:25:0a:ae:2a:50:
        7b:17:02:f8:f0:f9:a3:65:25:8e:8d:f3:4c:4b:f6:fc:fb:09:
        81:bd:f5:53:99:d9:2e:83:d0:65:f3:e3:7d:5b:fa:dc:f4:04:
        b8:02
-----BEGIN CERTIFICATE-----
MIICvDCCAiUCCQCbJ9fo0boIpTANBgkqhkiG9w0BAQQFADCBlTELMAkGA1UEBhMC
REUxETAPBgNVBAgTCFNhYXJsYW5kMRAwDgYDVQQKEwdNUEktU1dTMSIwIAYDVQQL
ExlEaXN0cmlidXRlZCBTeXN0ZW1zIEdyb3VwMRowGAYDVQQDExFBbmRyZWFzIEhh
ZWJlcmxlbjEhMB8GCSqGSIb3DQEJARYSZGVtb2NhQG9jdGFyaW5lLmRlMB4XDTE1
MDQyMDIwNDcwNloXDTE2MDQxOTIwNDcwNlowga4xCzAJBgNVBAYTAkRFMREwDwYD
VQQIEwhTYWFybGFuZDEQMA4GA1UEChMHTVBJLVNXUzEiMCAGA1UECxMZRGlzdHJp
YnV0ZWQgU3lzdGVtcyBHcm91cDExMC8GA1UEAxMoNGQzOWY1ZWQ0MDk5ODRhMWU0
Mzg5MDQ3NzIzMDNkMDdhMzE5OWY3ZDEjMCEGCSqGSIb3DQEJARYUbm9kZTAyMDVA
b2N0YXJpbmUuZGUwgZ8wDQYJKoZIhvcNAQEBBQADgY0AMIGJAoGBAMrcpwgFIs68
+8YEvGT1e76gfd5oV/wp2PWnnglaFx4uFKLU7AGyCJvpI365JdepWphG6pZj+cEK
I/vUg6NQxjVm9UD71ykQYUM5PU4QminC8zRyxdGIh1vH7LQ53701Is78A0I12Vpy
nUsfQ65799LnaEiQjCjVEA/gGN7240V1AgMBAAEwDQYJKoZIhvcNAQEEBQADgYEA
MPw4afxxxSEtSbf8sjBHSoQGhVJ9jFYRzo36q1gcxTQbroPO0mRBRjyi2mAPy2b+
DdnMNcVu5eE+N6CjpvhJZ1qppGRXFAT67e6qr6p0W88dsj4y2SUKripQexcC+PD5
o2Uljo3zTEv2/PsJgb31U5nZLoPQZfPjfVv63PQEuAI=
-----END CERTIFICATE-----
