Certificate:
    Data:
        Version: 1 (0x0)
        Serial Number:
            9b:27:d7:e8:d1:ba:0a:b6
        Signature Algorithm: md5WithRSAEncryption
        Issuer: C=DE, ST=Saarland, O=MPI-SWS, OU=Distributed Systems Group, CN=Andreas Haeberlen/emailAddress=democa@octarine.de
        Validity
            Not Before: Apr 20 20:47:29 2015 GMT
            Not After : Apr 19 20:47:29 2016 GMT
        Subject: C=DE, ST=Saarland, O=MPI-SWS, OU=Distributed Systems Group, CN=9b83fcfe47228403b976df646da72adb66f63e57/emailAddress=node0734@octarine.de
        Subject Public Key Info:
            Public Key Algorithm: rsaEncryption
            RSA Public Key: (1024 bit)
                Modulus (1024 bit):
                    00:d3:53:6e:0f:f9:9f:46:05:32:6f:58:f2:43:24:
                    36:6b:cd:d1:79:f2:29:a4:b0:da:52:32:eb:08:94:
                    b8:7c:82:66:63:b7:44:aa:83:c4:76:4b:2a:13:ab:
                    dc:60:c8:82:a8:14:51:5e:43:aa:6e:26:51:fa:0d:
                    87:3f:7c:2b:36:f6:99:39:27:78:f9:43:f0:12:aa:
                    a4:06:58:e7:8d:bc:3a:c5:cc:bf:33:cd:4a:bf:e9:
                    c0:b8:1b:0d:b6:b6:66:f7:2c:b6:20:a0:ae:4f:29:
                    3b:3f:98:5c:97:2b:42:3a:2a:7d:8c:2e:b3:e3:43:
                    e8:c6:a0:fa:bb:0a:d4:09:63
                Exponent: 65537 (0x10001)
    Signature Algorithm: md5WithRSAEncryption
        90:53:d2:39:10:fb:cc:91:4e:a6:ce:62:e5:a5:b5:99:6a:6d:
        33:77:6f:2e:72:dd:dd:98:48:80:57:9c:f8:68:e7:c6:52:2d:
        5c:d1:56:29:bf:ac:c9:5b:82:27:b7:ef:3d:fe:32:5a:e0:33:
        90:d1:86:80:ef:cf:83:b9:2f:d6:c0:c4:06:6f:e3:b8:c9:83:
        28:86:d5:85:44:88:88:7f:9a:68:48:2c:bc:4a:92:c7:bf:d5:
        bb:a1:3f:29:e3:1d:6f:17:57:cf:27:db:90:8e:af:b3:b1:67:
        bb:5c:72:b4:94:d5:61:d9:1b:21:44:41:eb:fd:41:27:6e:c3:
        12:66
-----BEGIN CERTIFICATE-----
MIICvDCCAiUCCQCbJ9fo0boKtjANBgkqhkiG9w0BAQQFADCBlTELMAkGA1UEBhMC
REUxETAPBgNVBAgTCFNhYXJsYW5kMRAwDgYDVQQKEwdNUEktU1dTMSIwIAYDVQQL
ExlEaXN0cmlidXRlZCBTeXN0ZW1zIEdyb3VwMRowGAYDVQQDExFBbmRyZWFzIEhh
ZWJlcmxlbjEhMB8GCSqGSIb3DQEJARYSZGVtb2NhQG9jdGFyaW5lLmRlMB4XDTE1
MDQyMDIwNDcyOVoXDTE2MDQxOTIwNDcyOVowga4xCzAJBgNVBAYTAkRFMREwDwYD
VQQIEwhTYWFybGFuZDEQMA4GA1UEChMHTVBJLVNXUzEiMCAGA1UECxMZRGlzdHJp
YnV0ZWQgU3lzdGVtcyBHcm91cDExMC8GA1UEAxMoOWI4M2ZjZmU0NzIyODQwM2I5
NzZkZjY0NmRhNzJhZGI2NmY2M2U1NzEjMCEGCSqGSIb3DQEJARYUbm9kZTA3MzRA
b2N0YXJpbmUuZGUwgZ8wDQYJKoZIhvcNAQEBBQADgY0AMIGJAoGBANNTbg/5n0YF
Mm9Y8kMkNmvN0XnyKaSw2lIy6wiUuHyCZmO3RKqDxHZLKhOr3GDIgqgUUV5Dqm4m
UfoNhz98Kzb2mTknePlD8BKqpAZY5428OsXMvzPNSr/pwLgbDba2ZvcstiCgrk8p
Oz+YXJcrQjoqfYwus+ND6Mag+rsK1AljAgMBAAEwDQYJKoZIhvcNAQEEBQADgYEA
kFPSORD7zJFOps5i5aW1mWptM3dvLnLd3ZhIgFec+GjnxlItXNFWKb+syVuCJ7fv
Pf4yWuAzkNGGgO/Pg7kv1sDEBm/juMmDKIbVhUSIiH+aaEgsvEqSx7/Vu6E/KeMd
bxdXzyfbkI6vs7Fnu1xytJTVYdkbIURB6/1BJ27DEmY=
-----END CERTIFICATE-----
