Certificate:
    Data:
        Version: 1 (0x0)
        Serial Number:
            9b:27:d7:e8:d1:ba:09:30
        Signature Algorithm: md5WithRSAEncryption
        Issuer: C=DE, ST=Saarland, O=MPI-SWS, OU=Distributed Systems Group, CN=Andreas Haeberlen/emailAddress=democa@octarine.de
        Validity
            Not Before: Apr 20 20:47:11 2015 GMT
            Not After : Apr 19 20:47:11 2016 GMT
        Subject: C=DE, ST=Saarland, O=MPI-SWS, OU=Distributed Systems Group, CN=ba206be51b634ebf5e817b7888de96150357e4d0/emailAddress=node0344@octarine.de
        Subject Public Key Info:
            Public Key Algorithm: rsaEncryption
            RSA Public Key: (1024 bit)
                Modulus (1024 bit):
                    00:a5:f7:6d:ca:c6:03:95:a8:9e:12:d9:54:3d:6b:
                    85:e4:72:2a:bf:e9:3b:ed:22:50:8a:74:35:35:36:
                    40:4e:3a:c5:75:75:7d:59:20:9b:75:a6:92:9c:b0:
                    26:38:6b:17:aa:4a:5a:59:17:a2:c6:cc:a7:3e:82:
                    f7:0d:9d:22:a3:18:97:85:52:9e:d2:6e:f9:2b:b7:
                    8c:b3:12:84:b7:1a:43:cc:ff:7f:ac:43:78:ed:f0:
                    49:f5:10:7c:03:6c:ec:1f:ac:90:37:6e:c6:d6:84:
                    74:23:48:9a:86:38:28:93:14:cd:89:cd:2f:bc:09:
                    41:a6:d5:70:85:32:6d:2b:b7
                Exponent: 65537 (0x10001)
    Signature Algorithm: md5WithRSAEncryption
        b9:2f:62:aa:0e:89:85:76:49:39:5b:08:f2:92:84:68:55:95:
        5a:aa:b4:4f:1b:a7:fb:54:5c:06:24:34:5f:75:26:17:81:7b:
        3d:45:0a:07:1f:6a:6c:52:b7:3d:f1:85:e1:97:23:21:79:9e:
        6e:71:45:62:85:a6:91:ac:74:7f:d3:c7:2f:33:94:c6:f9:c0:
        00:cc:b5:14:82:b0:49:c7:cd:06:e9:89:88:35:60:93:0e:e1:
        27:67:00:d2:39:7a:21:f8:89:5a:94:35:de:1e:f7:93:12:39:
        f2:f0:ce:fa:a8:ea:2b:e7:3b:f0:31:35:a4:6d:cc:6f:12:39:
        d5:9b
-----BEGIN CERTIFICATE-----
MIICvDCCAiUCCQCbJ9fo0boJMDANBgkqhkiG9w0BAQQFADCBlTELMAkGA1UEBhMC
REUxETAPBgNVBAgTCFNhYXJsYW5kMRAwDgYDVQQKEwdNUEktU1dTMSIwIAYDVQQL
ExlEaXN0cmlidXRlZCBTeXN0ZW1zIEdyb3VwMRowGAYDVQQDExFBbmRyZWFzIEhh
ZWJlcmxlbjEhMB8GCSqGSIb3DQEJARYSZGVtb2NhQG9jdGFyaW5lLmRlMB4XDTE1
MDQyMDIwNDcxMVoXDTE2MDQxOTIwNDcxMVowga4xCzAJBgNVBAYTAkRFMREwDwYD
VQQIEwhTYWFybGFuZDEQMA4GA1UEChMHTVBJLVNXUzEiMCAGA1UECxMZRGlzdHJp
YnV0ZWQgU3lzdGVtcyBHcm91cDExMC8GA1UEAxMoYmEyMDZiZTUxYjYzNGViZjVl
ODE3Yjc4ODhkZTk2MTUwMzU3ZTRkMDEjMCEGCSqGSIb3DQEJARYUbm9kZTAzNDRA
b2N0YXJpbmUuZGUwgZ8wDQYJKoZIhvcNAQEBBQADgY0AMIGJAoGBAKX3bcrGA5Wo
nhLZVD1rheRyKr/pO+0iUIp0NTU2QE46xXV1fVkgm3WmkpywJjhrF6pKWlkXosbM
pz6C9w2dIqMYl4VSntJu+Su3jLMShLcaQ8z/f6xDeO3wSfUQfANs7B+skDduxtaE
dCNImoY4KJMUzYnNL7wJQabVcIUybSu3AgMBAAEwDQYJKoZIhvcNAQEEBQADgYEA
uS9iqg6JhXZJOVsI8pKEaFWVWqq0Txun+1RcBiQ0X3UmF4F7PUUKBx9qbFK3PfGF
4ZcjIXmebnFFYoWmkax0f9PHLzOUxvnAAMy1FIKwScfNBumJiDVgkw7hJ2cA0jl6
IfiJWpQ13h73kxI58vDO+qjqK+c78DE1pG3MbxI51Zs=
-----END CERTIFICATE-----
