Certificate:
    Data:
        Version: 1 (0x0)
        Serial Number:
            9b:27:d7:e8:d1:ba:08:30
        Signature Algorithm: md5WithRSAEncryption
        Issuer: C=DE, ST=Saarland, O=MPI-SWS, OU=Distributed Systems Group, CN=Andreas Haeberlen/emailAddress=democa@octarine.de
        Validity
            Not Before: Apr 20 20:47:00 2015 GMT
            Not After : Apr 19 20:47:00 2016 GMT
        Subject: C=DE, ST=Saarland, O=MPI-SWS, OU=Distributed Systems Group, CN=fdd16330cbe0245b841fac7ad5d8977944ab8eb4/emailAddress=node0088@octarine.de
        Subject Public Key Info:
            Public Key Algorithm: rsaEncryption
            RSA Public Key: (1024 bit)
                Modulus (1024 bit):
                    00:a1:6f:64:a5:b3:61:dd:03:40:5a:53:0c:55:d2:
                    c0:2c:a8:80:59:6f:1a:57:18:e9:65:05:30:50:e7:
                    69:08:92:1e:bf:e2:39:c6:bf:81:bf:e4:42:c6:6e:
                    4c:cc:dc:ad:19:06:2c:f2:aa:52:1a:9c:f9:38:bb:
                    1f:f0:93:84:99:aa:1b:d3:da:84:f6:4f:b7:aa:28:
                    96:64:ab:69:b4:22:5a:20:ae:f2:11:ad:5e:f4:08:
                    24:99:fd:a8:68:0d:bf:cc:22:8b:78:69:e4:88:46:
                    cb:0a:4f:64:6a:51:3d:a7:3e:78:ba:3d:f3:f8:15:
                    54:e9:79:bb:ca:52:7e:e8:a1
                Exponent: 65537 (0x10001)
    Signature Algorithm: md5WithRSAEncryption
        67:6c:88:91:fd:4b:f7:a1:2b:00:3f:0d:b5:22:4a:b1:a2:2e:
        9a:a3:bb:90:47:d4:28:0d:b8:fb:c4:6f:cf:ef:a0:08:8b:15:
        57:ef:78:ad:f5:2a:b3:4a:04:30:c6:40:70:d6:48:d5:ff:a8:
        9a:65:85:c7:fb:0c:da:9c:a7:fb:3f:67:c8:bc:44:d2:d8:b1:
        5e:90:7c:45:ed:6a:e5:42:0a:6a:5d:9f:fb:31:b3:41:21:0d:
        ce:c8:32:f0:63:4b:e4:54:32:70:c5:f6:ff:8d:8b:e8:9d:9a:
        21:fc:fe:26:1f:2e:27:4c:d8:5c:23:11:fb:3a:6e:d2:22:9f:
        e9:e3
-----BEGIN CERTIFICATE-----
MIICvDCCAiUCCQCbJ9fo0boIMDANBgkqhkiG9w0BAQQFADCBlTELMAkGA1UEBhMC
REUxETAPBgNVBAgTCFNhYXJsYW5kMRAwDgYDVQQKEwdNUEktU1dTMSIwIAYDVQQL
ExlEaXN0cmlidXRlZCBTeXN0ZW1zIEdyb3VwMRowGAYDVQQDExFBbmRyZWFzIEhh
ZWJlcmxlbjEhMB8GCSqGSIb3DQEJARYSZGVtb2NhQG9jdGFyaW5lLmRlMB4XDTE1
MDQyMDIwNDcwMFoXDTE2MDQxOTIwNDcwMFowga4xCzAJBgNVBAYTAkRFMREwDwYD
VQQIEwhTYWFybGFuZDEQMA4GA1UEChMHTVBJLVNXUzEiMCAGA1UECxMZRGlzdHJp
YnV0ZWQgU3lzdGVtcyBHcm91cDExMC8GA1UEAxMoZmRkMTYzMzBjYmUwMjQ1Yjg0
MWZhYzdhZDVkODk3Nzk0NGFiOGViNDEjMCEGCSqGSIb3DQEJARYUbm9kZTAwODhA
b2N0YXJpbmUuZGUwgZ8wDQYJKoZIhvcNAQEBBQADgY0AMIGJAoGBAKFvZKWzYd0D
QFpTDFXSwCyogFlvGlcY6WUFMFDnaQiSHr/iOca/gb/kQsZuTMzcrRkGLPKqUhqc
+Ti7H/CThJmqG9PahPZPt6oolmSrabQiWiCu8hGtXvQIJJn9qGgNv8wii3hp5IhG
ywpPZGpRPac+eLo98/gVVOl5u8pSfuihAgMBAAEwDQYJKoZIhvcNAQEEBQADgYEA
Z2yIkf1L96ErAD8NtSJKsaIumqO7kEfUKA24+8Rvz++gCIsVV+94rfUqs0oEMMZA
cNZI1f+ommWFx/sM2pyn+z9nyLxE0tixXpB8Re1q5UIKal2f+zGzQSENzsgy8GNL
5FQycMX2/42L6J2aIfz+Jh8uJ0zYXCMR+zpu0iKf6eM=
-----END CERTIFICATE-----
