Certificate:
    Data:
        Version: 1 (0x0)
        Serial Number:
            9b:27:d7:e8:d1:ba:0b:9d
        Signature Algorithm: md5WithRSAEncryption
        Issuer: C=DE, ST=Saarland, O=MPI-SWS, OU=Distributed Systems Group, CN=Andreas Haeberlen/emailAddress=democa@octarine.de
        Validity
            Not Before: Apr 20 20:47:40 2015 GMT
            Not After : Apr 19 20:47:40 2016 GMT
        Subject: C=DE, ST=Saarland, O=MPI-SWS, OU=Distributed Systems Group, CN=48aacfdc92bbcc3aca839d1153df897d227f14ba/emailAddress=node0965@octarine.de
        Subject Public Key Info:
            Public Key Algorithm: rsaEncryption
            RSA Public Key: (1024 bit)
                Modulus (1024 bit):
                    00:aa:48:c8:4f:78:7d:65:0a:f2:08:83:b4:8f:dc:
                    c9:b3:bc:ad:c8:16:e6:ec:9d:a8:95:06:81:0d:16:
                    8b:74:69:5a:20:5b:5c:c8:01:7e:bd:db:9d:59:1e:
                    82:30:e7:52:4d:24:d2:67:3e:e3:cd:e1:27:f4:cf:
                    02:93:f3:da:76:d6:e9:ac:15:f1:5a:55:6c:de:f6:
                    13:f5:77:cc:70:bd:be:95:48:a8:ed:15:be:d0:53:
                    44:52:2b:ef:5b:23:dc:17:26:cb:ec:9f:24:ec:ae:
                    6a:ce:c9:90:ae:56:05:76:97:6d:47:c9:11:9f:d3:
                    68:da:f5:d1:c0:10:bb:92:93
                Exponent: 65537 (0x10001)
    Signature Algorithm: md5WithRSAEncryption
        91:0a:2b:f5:eb:5a:92:b8:77:1f:0f:a1:65:08:a7:a2:e6:33:
        53:ce:6d:da:01:2b:29:91:f0:e3:04:83:d2:dd:9b:84:f6:5e:
        14:72:c5:0d:9c:81:9f:eb:c0:de:a7:c8:7f:ca:81:ac:20:37:
        7d:55:a8:c8:5e:66:ec:5b:91:d4:de:7f:c7:65:62:d1:85:35:
        39:b3:09:4a:4a:9f:ff:a5:53:a8:a7:f7:71:b6:97:67:c3:6c:
        cf:15:02:9a:6d:8f:41:db:eb:08:92:72:23:97:2f:e1:c2:f7:
        3b:e6:4f:72:f7:9a:45:89:c7:ad:fc:cb:18:9e:b6:34:8d:7b:
        e0:90
-----BEGIN CERTIFICATE-----
MIICvDCCAiUCCQCbJ9fo0boLnTANBgkqhkiG9w0BAQQFADCBlTELMAkGA1UEBhMC
REUxETAPBgNVBAgTCFNhYXJsYW5kMRAwDgYDVQQKEwdNUEktU1dTMSIwIAYDVQQL
ExlEaXN0cmlidXRlZCBTeXN0ZW1zIEdyb3VwMRowGAYDVQQDExFBbmRyZWFzIEhh
ZWJlcmxlbjEhMB8GCSqGSIb3DQEJARYSZGVtb2NhQG9jdGFyaW5lLmRlMB4XDTE1
MDQyMDIwNDc0MFoXDTE2MDQxOTIwNDc0MFowga4xCzAJBgNVBAYTAkRFMREwDwYD
VQQIEwhTYWFybGFuZDEQMA4GA1UEChMHTVBJLVNXUzEiMCAGA1UECxMZRGlzdHJp
YnV0ZWQgU3lzdGVtcyBHcm91cDExMC8GA1UEAxMoNDhhYWNmZGM5MmJiY2MzYWNh
ODM5ZDExNTNkZjg5N2QyMjdmMTRiYTEjMCEGCSqGSIb3DQEJARYUbm9kZTA5NjVA
b2N0YXJpbmUuZGUwgZ8wDQYJKoZIhvcNAQEBBQADgY0AMIGJAoGBAKpIyE94fWUK
8giDtI/cybO8rcgW5uydqJUGgQ0Wi3RpWiBbXMgBfr3bnVkegjDnUk0k0mc+483h
J/TPApPz2nbW6awV8VpVbN72E/V3zHC9vpVIqO0VvtBTRFIr71sj3Bcmy+yfJOyu
as7JkK5WBXaXbUfJEZ/TaNr10cAQu5KTAgMBAAEwDQYJKoZIhvcNAQEEBQADgYEA
kQor9etakrh3Hw+hZQinouYzU85t2gErKZHw4wSD0t2bhPZeFHLFDZyBn+vA3qfI
f8qBrCA3fVWoyF5m7FuR1N5/x2Vi0YU1ObMJSkqf/6VTqKf3cbaXZ8NszxUCmm2P
QdvrCJJyI5cv4cL3O+ZPcveaRYnHrfzLGJ62NI174JA=
-----END CERTIFICATE-----
