Certificate:
    Data:
        Version: 1 (0x0)
        Serial Number:
            9b:27:d7:e8:d1:ba:0b:71
        Signature Algorithm: md5WithRSAEncryption
        Issuer: C=DE, ST=Saarland, O=MPI-SWS, OU=Distributed Systems Group, CN=Andreas Haeberlen/emailAddress=democa@octarine.de
        Validity
            Not Before: Apr 20 20:47:38 2015 GMT
            Not After : Apr 19 20:47:38 2016 GMT
        Subject: C=DE, ST=Saarland, O=MPI-SWS, OU=Distributed Systems Group, CN=b3454c67eee963e6471f6dd75a0b7c23f6833fb1/emailAddress=node0921@octarine.de
        Subject Public Key Info:
            Public Key Algorithm: rsaEncryption
            RSA Public Key: (1024 bit)
                Modulus (1024 bit):
                    00:c4:ba:65:9b:cc:f0:32:86:8c:8b:87:61:01:64:
                    6f:13:dd:47:11:27:0a:e7:80:4a:88:5a:21:c1:97:
                    e1:74:ea:26:7d:99:53:d5:32:ce:7c:87:9e:ef:83:
                    f6:39:77:7b:67:a4:fb:5e:8f:2d:3e:26:44:dc:5a:
                    3b:b9:90:01:60:e5:ce:b4:f1:e6:70:96:6d:f7:18:
                    40:ae:03:17:ae:c9:93:82:f6:d7:32:3b:da:dd:02:
                    fe:61:be:0c:a7:76:7f:1e:9a:99:86:5e:d4:55:08:
                    38:5d:3e:58:d0:da:22:89:f4:58:0d:a8:fd:58:a9:
                    25:a8:2d:9a:1c:e3:fb:87:d1
                Exponent: 65537 (0x10001)
    Signature Algorithm: md5WithRSAEncryption
        45:e5:e5:07:0d:35:3f:86:29:1d:30:1b:45:48:b8:3e:ab:6a:
        4d:e0:86:81:08:f9:ec:17:de:97:7c:9d:5d:34:62:f1:f9:5f:
        25:0d:0d:39:ff:62:bf:6a:a3:86:c5:7c:db:4c:2b:26:b3:19:
        b0:75:94:3d:84:7f:4d:18:7e:11:b1:cd:86:88:b2:b1:59:d8:
        4b:79:46:0c:50:67:96:7c:7e:a2:7d:b4:a4:ff:1c:b9:e4:ea:
        2e:1d:95:bd:e3:e3:df:c3:9a:90:f1:d2:eb:66:33:96:2d:21:
        d1:f7:68:e4:fd:97:7f:58:48:bd:04:58:f5:9e:b2:21:0a:b2:
        1d:91
-----BEGIN CERTIFICATE-----
MIICvDCCAiUCCQCbJ9fo0boLcTANBgkqhkiG9w0BAQQFADCBlTELMAkGA1UEBhMC
REUxETAPBgNVBAgTCFNhYXJsYW5kMRAwDgYDVQQKEwdNUEktU1dTMSIwIAYDVQQL
ExlEaXN0cmlidXRlZCBTeXN0ZW1zIEdyb3VwMRowGAYDVQQDExFBbmRyZWFzIEhh
ZWJlcmxlbjEhMB8GCSqGSIb3DQEJARYSZGVtb2NhQG9jdGFyaW5lLmRlMB4XDTE1
MDQyMDIwNDczOFoXDTE2MDQxOTIwNDczOFowga4xCzAJBgNVBAYTAkRFMREwDwYD
VQQIEwhTYWFybGFuZDEQMA4GA1UEChMHTVBJLVNXUzEiMCAGA1UECxMZRGlzdHJp
YnV0ZWQgU3lzdGVtcyBHcm91cDExMC8GA1UEAxMoYjM0NTRjNjdlZWU5NjNlNjQ3
MWY2ZGQ3NWEwYjdjMjNmNjgzM2ZiMTEjMCEGCSqGSIb3DQEJARYUbm9kZTA5MjFA
b2N0YXJpbmUuZGUwgZ8wDQYJKoZIhvcNAQEBBQADgY0AMIGJAoGBAMS6ZZvM8DKG
jIuHYQFkbxPdRxEnCueASohaIcGX4XTqJn2ZU9UyznyHnu+D9jl3e2ek+16PLT4m
RNxaO7mQAWDlzrTx5nCWbfcYQK4DF67Jk4L21zI72t0C/mG+DKd2fx6amYZe1FUI
OF0+WNDaIon0WA2o/VipJagtmhzj+4fRAgMBAAEwDQYJKoZIhvcNAQEEBQADgYEA
ReXlBw01P4YpHTAbRUi4PqtqTeCGgQj57Bfel3ydXTRi8flfJQ0NOf9iv2qjhsV8
20wrJrMZsHWUPYR/TRh+EbHNhoiysVnYS3lGDFBnlnx+on20pP8cueTqLh2VvePj
38OakPHS62Yzli0h0fdo5P2Xf1hIvQRY9Z6yIQqyHZE=
-----END CERTIFICATE-----
