Certificate:
    Data:
        Version: 1 (0x0)
        Serial Number:
            9b:27:d7:e8:d1:ba:0a:ba
        Signature Algorithm: md5WithRSAEncryption
        Issuer: C=DE, ST=Saarland, O=MPI-SWS, OU=Distributed Systems Group, CN=Andreas Haeberlen/emailAddress=democa@octarine.de
        Validity
            Not Before: Apr 20 20:47:29 2015 GMT
            Not After : Apr 19 20:47:29 2016 GMT
        Subject: C=DE, ST=Saarland, O=MPI-SWS, OU=Distributed Systems Group, CN=fb1592a648721f3686ff9573bb871e819a73c191/emailAddress=node0738@octarine.de
        Subject Public Key Info:
            Public Key Algorithm: rsaEncryption
            RSA Public Key: (1024 bit)
                Modulus (1024 bit):
                    00:c6:b6:25:4c:11:ba:43:91:8b:b1:aa:1f:c7:f5:
                    e8:9b:51:a6:1a:c9:c9:be:7d:9f:fe:37:1d:64:8a:
                    9c:c0:72:16:cb:a6:6a:85:cd:5e:45:47:f6:24:d1:
                    c8:d5:b7:36:c5:c1:b2:db:c5:74:68:75:c5:b7:dd:
                    cc:fa:5a:7a:6d:76:8d:b4:a7:c0:99:a9:02:0d:c8:
                    95:5f:72:5d:16:e4:8e:61:65:c9:1c:2e:4b:a0:79:
                    e8:b9:1c:e8:97:3d:13:37:6e:e1:6d:2a:59:59:51:
                    d3:88:fe:a2:e7:28:46:d2:f0:97:3f:88:c8:30:c0:
                    6a:00:b2:db:f6:b2:0c:79:73
                Exponent: 65537 (0x10001)
    Signature Algorithm: md5WithRSAEncryption
        3f:3c:3f:d4:3f:6f:02:30:40:69:ec:60:c4:88:9e:93:9d:f5:
        aa:51:ce:06:0e:d8:a2:d0:d1:c6:f5:81:62:99:60:18:5a:ac:
        93:60:b8:db:15:bc:eb:f3:13:06:6b:91:e3:93:f3:62:34:94:
        05:8d:0f:1e:a7:65:16:13:21:e6:54:dc:59:d5:ea:6a:50:de:
        c9:d4:40:80:58:a9:d0:6d:82:50:8f:1e:25:8b:f6:b5:a5:ca:
        af:81:24:08:3b:53:bc:98:46:5d:cd:2a:1b:b7:e6:ca:d4:63:
        1a:79:5a:9a:ad:6a:66:f1:88:08:2c:81:b1:cf:0a:46:29:03:
        bd:45
-----BEGIN CERTIFICATE-----
MIICvDCCAiUCCQCbJ9fo0boKujANBgkqhkiG9w0BAQQFADCBlTELMAkGA1UEBhMC
REUxETAPBgNVBAgTCFNhYXJsYW5kMRAwDgYDVQQKEwdNUEktU1dTMSIwIAYDVQQL
ExlEaXN0cmlidXRlZCBTeXN0ZW1zIEdyb3VwMRowGAYDVQQDExFBbmRyZWFzIEhh
ZWJlcmxlbjEhMB8GCSqGSIb3DQEJARYSZGVtb2NhQG9jdGFyaW5lLmRlMB4XDTE1
MDQyMDIwNDcyOVoXDTE2MDQxOTIwNDcyOVowga4xCzAJBgNVBAYTAkRFMREwDwYD
VQQIEwhTYWFybGFuZDEQMA4GA1UEChMHTVBJLVNXUzEiMCAGA1UECxMZRGlzdHJp
YnV0ZWQgU3lzdGVtcyBHcm91cDExMC8GA1UEAxMoZmIxNTkyYTY0ODcyMWYzNjg2
ZmY5NTczYmI4NzFlODE5YTczYzE5MTEjMCEGCSqGSIb3DQEJARYUbm9kZTA3MzhA
b2N0YXJpbmUuZGUwgZ8wDQYJKoZIhvcNAQEBBQADgY0AMIGJAoGBAMa2JUwRukOR
i7GqH8f16JtRphrJyb59n/43HWSKnMByFsumaoXNXkVH9iTRyNW3NsXBstvFdGh1
xbfdzPpaem12jbSnwJmpAg3IlV9yXRbkjmFlyRwuS6B56Lkc6Jc9Ezdu4W0qWVlR
04j+oucoRtLwlz+IyDDAagCy2/ayDHlzAgMBAAEwDQYJKoZIhvcNAQEEBQADgYEA
Pzw/1D9vAjBAaexgxIiek531qlHOBg7YotDRxvWBYplgGFqsk2C42xW86/MTBmuR
45PzYjSUBY0PHqdlFhMh5lTcWdXqalDeydRAgFip0G2CUI8eJYv2taXKr4EkCDtT
vJhGXc0qG7fmytRjGnlamq1qZvGICCyBsc8KRikDvUU=
-----END CERTIFICATE-----
