Certificate:
    Data:
        Version: 1 (0x0)
        Serial Number:
            9b:27:d7:e8:d1:ba:08:f8
        Signature Algorithm: md5WithRSAEncryption
        Issuer: C=DE, ST=Saarland, O=MPI-SWS, OU=Distributed Systems Group, CN=Andreas Haeberlen/emailAddress=democa@octarine.de
        Validity
            Not Before: Apr 20 20:47:09 2015 GMT
            Not After : Apr 19 20:47:09 2016 GMT
        Subject: C=DE, ST=Saarland, O=MPI-SWS, OU=Distributed Systems Group, CN=d8df18bd66d8132fb05cf51ffa4b6464d44ecfb2/emailAddress=node0288@octarine.de
        Subject Public Key Info:
            Public Key Algorithm: rsaEncryption
            RSA Public Key: (1024 bit)
                Modulus (1024 bit):
                    00:d0:40:3f:2d:5b:a2:c7:55:04:1b:74:25:6d:0a:
                    86:ff:5a:ae:9e:ab:03:3b:a7:43:ea:e3:59:95:3c:
                    78:24:49:16:5b:4c:25:ed:37:b6:e6:0a:62:a0:39:
                    93:02:1a:81:18:28:7e:0a:17:50:b9:bc:14:9f:cd:
                    07:49:ea:1f:22:f1:0f:61:d4:2f:30:4b:46:e8:ed:
                    f3:31:50:79:7a:c8:fb:48:fa:fa:fc:7d:40:ef:ac:
                    52:e2:70:4d:6b:60:11:d1:66:88:7e:40:ae:16:82:
                    a7:90:bd:44:35:35:f5:8a:36:79:2d:a8:63:02:36:
                    85:be:e2:be:33:5e:a6:47:55
                Exponent: 65537 (0x10001)
    Signature Algorithm: md5WithRSAEncryption
        93:83:48:1c:f0:ef:34:91:f4:45:0d:3d:65:7e:b1:2b:fa:f6:
        9a:44:6f:15:a9:cc:94:fb:d8:b4:6b:9a:b3:b1:d0:aa:3b:12:
        f7:16:b6:c4:53:b1:1e:16:ad:0d:03:11:c4:fe:37:22:d2:1c:
        a0:e1:a8:e7:52:b2:09:ab:60:e7:0d:44:5f:2d:64:92:0c:ed:
        26:5d:c2:3a:f3:99:07:90:5b:42:bc:f5:11:f5:3b:db:91:41:
        f5:a4:e1:e2:40:93:cd:a6:65:f4:ef:66:51:be:c5:44:b9:57:
        c3:82:a1:0c:c7:ad:dc:f1:f3:15:be:2a:6f:d4:63:a7:cb:fb:
        d6:85
-----BEGIN CERTIFICATE-----
MIICvDCCAiUCCQCbJ9fo0boI+DANBgkqhkiG9w0BAQQFADCBlTELMAkGA1UEBhMC
REUxETAPBgNVBAgTCFNhYXJsYW5kMRAwDgYDVQQKEwdNUEktU1dTMSIwIAYDVQQL
ExlEaXN0cmlidXRlZCBTeXN0ZW1zIEdyb3VwMRowGAYDVQQDExFBbmRyZWFzIEhh
ZWJlcmxlbjEhMB8GCSqGSIb3DQEJARYSZGVtb2NhQG9jdGFyaW5lLmRlMB4XDTE1
MDQyMDIwNDcwOVoXDTE2MDQxOTIwNDcwOVowga4xCzAJBgNVBAYTAkRFMREwDwYD
VQQIEwhTYWFybGFuZDEQMA4GA1UEChMHTVBJLVNXUzEiMCAGA1UECxMZRGlzdHJp
YnV0ZWQgU3lzdGVtcyBHcm91cDExMC8GA1UEAxMoZDhkZjE4YmQ2NmQ4MTMyZmIw
NWNmNTFmZmE0YjY0NjRkNDRlY2ZiMjEjMCEGCSqGSIb3DQEJARYUbm9kZTAyODhA
b2N0YXJpbmUuZGUwgZ8wDQYJKoZIhvcNAQEBBQADgY0AMIGJAoGBANBAPy1bosdV
BBt0JW0Khv9arp6rAzunQ+rjWZU8eCRJFltMJe03tuYKYqA5kwIagRgofgoXULm8
FJ/NB0nqHyLxD2HULzBLRujt8zFQeXrI+0j6+vx9QO+sUuJwTWtgEdFmiH5ArhaC
p5C9RDU19Yo2eS2oYwI2hb7ivjNepkdVAgMBAAEwDQYJKoZIhvcNAQEEBQADgYEA
k4NIHPDvNJH0RQ09ZX6xK/r2mkRvFanMlPvYtGuas7HQqjsS9xa2xFOxHhatDQMR
xP43ItIcoOGo51KyCatg5w1EXy1kkgztJl3COvOZB5BbQrz1EfU725FB9aTh4kCT
zaZl9O9mUb7FRLlXw4KhDMet3PHzFb4qb9Rjp8v71oU=
-----END CERTIFICATE-----
