Certificate:
    Data:
        Version: 1 (0x0)
        Serial Number:
            9b:27:d7:e8:d1:ba:0a:e4
        Signature Algorithm: md5WithRSAEncryption
        Issuer: C=DE, ST=Saarland, O=MPI-SWS, OU=Distributed Systems Group, CN=Andreas Haeberlen/emailAddress=democa@octarine.de
        Validity
            Not Before: Apr 20 20:47:31 2015 GMT
            Not After : Apr 19 20:47:31 2016 GMT
        Subject: C=DE, ST=Saarland, O=MPI-SWS, OU=Distributed Systems Group, CN=06d45450adbc9b14a139f7822d786697d6b2a135/emailAddress=node0780@octarine.de
        Subject Public Key Info:
            Public Key Algorithm: rsaEncryption
            RSA Public Key: (1024 bit)
                Modulus (1024 bit):
                    00:98:bc:35:79:67:53:74:7d:15:9f:b7:25:57:1e:
                    aa:b7:cd:49:62:db:48:57:e2:7c:70:da:32:81:ff:
                    24:4a:61:0e:4d:3a:3d:0f:1e:0c:ee:d1:f1:f0:fd:
                    48:62:14:99:b5:88:d1:37:8d:fa:cd:c1:fb:f2:f7:
                    1a:61:de:94:bd:b5:a2:52:b9:de:bb:33:b8:6e:3b:
                    b8:13:b1:5c:d4:d3:d9:d7:9b:bc:2b:2c:8d:01:3c:
                    78:81:97:13:5f:f5:2b:9d:5f:85:5f:d2:60:e0:6d:
                    32:ec:9c:1e:21:7d:bf:17:7b:bc:4b:d5:cd:b9:01:
                    0f:aa:06:81:e2:c3:b7:78:79
                Exponent: 65537 (0x10001)
    Signature Algorithm: md5WithRSAEncryption
        21:8e:66:12:a6:af:3a:78:1d:0a:36:94:b7:c1:42:24:52:a5:
        af:19:a2:4f:e8:80:68:7a:61:8d:31:f3:83:64:e9:da:db:6e:
        3f:c2:c3:b4:59:4c:77:b2:a6:cb:48:1f:ac:c9:c3:51:11:99:
        4d:da:21:ba:1e:b8:97:6d:b6:0c:9d:21:b0:0c:26:2f:71:9e:
        d5:63:1e:61:7a:cb:39:e6:50:e0:48:52:53:fb:e3:13:e0:00:
        98:b2:96:b2:97:1a:18:3e:39:af:95:e9:3c:2c:04:b9:94:51:
        e8:40:80:04:9c:c4:91:ce:39:2f:9d:95:21:48:ad:10:2f:d2:
        0f:53
-----BEGIN CERTIFICATE-----
MIICvDCCAiUCCQCbJ9fo0boK5DANBgkqhkiG9w0BAQQFADCBlTELMAkGA1UEBhMC
REUxETAPBgNVBAgTCFNhYXJsYW5kMRAwDgYDVQQKEwdNUEktU1dTMSIwIAYDVQQL
ExlEaXN0cmlidXRlZCBTeXN0ZW1zIEdyb3VwMRowGAYDVQQDExFBbmRyZWFzIEhh
ZWJlcmxlbjEhMB8GCSqGSIb3DQEJARYSZGVtb2NhQG9jdGFyaW5lLmRlMB4XDTE1
MDQyMDIwNDczMVoXDTE2MDQxOTIwNDczMVowga4xCzAJBgNVBAYTAkRFMREwDwYD
VQQIEwhTYWFybGFuZDEQMA4GA1UEChMHTVBJLVNXUzEiMCAGA1UECxMZRGlzdHJp
YnV0ZWQgU3lzdGVtcyBHcm91cDExMC8GA1UEAxMoMDZkNDU0NTBhZGJjOWIxNGEx
MzlmNzgyMmQ3ODY2OTdkNmIyYTEzNTEjMCEGCSqGSIb3DQEJARYUbm9kZTA3ODBA
b2N0YXJpbmUuZGUwgZ8wDQYJKoZIhvcNAQEBBQADgY0AMIGJAoGBAJi8NXlnU3R9
FZ+3JVceqrfNSWLbSFfifHDaMoH/JEphDk06PQ8eDO7R8fD9SGIUmbWI0TeN+s3B
+/L3GmHelL21olK53rszuG47uBOxXNTT2debvCssjQE8eIGXE1/1K51fhV/SYOBt
MuycHiF9vxd7vEvVzbkBD6oGgeLDt3h5AgMBAAEwDQYJKoZIhvcNAQEEBQADgYEA
IY5mEqavOngdCjaUt8FCJFKlrxmiT+iAaHphjTHzg2Tp2ttuP8LDtFlMd7Kmy0gf
rMnDURGZTdohuh64l222DJ0hsAwmL3Ge1WMeYXrLOeZQ4EhSU/vjE+AAmLKWspca
GD45r5XpPCwEuZRR6ECABJzEkc45L52VIUitEC/SD1M=
-----END CERTIFICATE-----
