Certificate:
    Data:
        Version: 1 (0x0)
        Serial Number:
            9b:27:d7:e8:d1:ba:0b:68
        Signature Algorithm: md5WithRSAEncryption
        Issuer: C=DE, ST=Saarland, O=MPI-SWS, OU=Distributed Systems Group, CN=Andreas Haeberlen/emailAddress=democa@octarine.de
        Validity
            Not Before: Apr 20 20:47:37 2015 GMT
            Not After : Apr 19 20:47:37 2016 GMT
        Subject: C=DE, ST=Saarland, O=MPI-SWS, OU=Distributed Systems Group, CN=e34c2e4788d50525f590f8be93b4a5c9815bf928/emailAddress=node0912@octarine.de
        Subject Public Key Info:
            Public Key Algorithm: rsaEncryption
            RSA Public Key: (1024 bit)
                Modulus (1024 bit):
                    00:a4:4e:84:ad:12:fc:b3:4d:bf:64:ac:dc:1d:2f:
                    80:69:13:7c:ab:f8:e0:03:1c:b9:41:99:ef:4c:12:
                    72:26:f4:6b:0e:4b:a9:6b:00:07:4d:87:4a:36:a7:
                    8b:85:94:b7:52:17:74:36:3a:e3:7a:4d:46:9b:15:
                    41:b1:77:dc:77:32:12:af:1b:7b:4b:bb:54:61:80:
                    3e:06:b1:b4:38:8c:b7:60:4b:8d:70:fb:4e:4b:bb:
                    b8:de:fb:c3:63:58:9d:be:6e:46:ad:48:7c:85:6f:
                    2f:0f:60:5c:ff:3f:e9:df:d3:66:c8:99:8e:cc:5f:
                    98:1d:cb:30:97:f2:70:a2:fb
                Exponent: 65537 (0x10001)
    Signature Algorithm: md5WithRSAEncryption
        0d:2e:b2:2b:37:c8:53:d1:21:ed:91:56:bf:5e:10:bc:d1:3d:
        ab:38:ae:4e:92:ee:ea:a5:e0:7e:e9:d7:a7:e8:eb:fc:53:7d:
        72:33:c5:44:0c:76:41:31:9d:92:66:3c:40:e8:ba:f9:f8:88:
        a1:bd:14:7e:85:30:66:86:18:ff:24:ef:8b:78:05:9c:b8:dc:
        89:83:5d:04:1d:5f:4d:9b:3a:72:c6:06:5d:8e:7e:6b:e5:0d:
        e9:e1:0f:a8:d8:45:fc:23:0f:f1:43:52:b3:98:d3:9d:94:77:
        b5:98:12:93:97:ce:91:8d:58:4e:b1:8e:2b:4b:19:46:68:4e:
        52:af
-----BEGIN CERTIFICATE-----
MIICvDCCAiUCCQCbJ9fo0boLaDANBgkqhkiG9w0BAQQFADCBlTELMAkGA1UEBhMC
REUxETAPBgNVBAgTCFNhYXJsYW5kMRAwDgYDVQQKEwdNUEktU1dTMSIwIAYDVQQL
ExlEaXN0cmlidXRlZCBTeXN0ZW1zIEdyb3VwMRowGAYDVQQDExFBbmRyZWFzIEhh
ZWJlcmxlbjEhMB8GCSqGSIb3DQEJARYSZGVtb2NhQG9jdGFyaW5lLmRlMB4XDTE1
MDQyMDIwNDczN1oXDTE2MDQxOTIwNDczN1owga4xCzAJBgNVBAYTAkRFMREwDwYD
VQQIEwhTYWFybGFuZDEQMA4GA1UEChMHTVBJLVNXUzEiMCAGA1UECxMZRGlzdHJp
YnV0ZWQgU3lzdGVtcyBHcm91cDExMC8GA1UEAxMoZTM0YzJlNDc4OGQ1MDUyNWY1
OTBmOGJlOTNiNGE1Yzk4MTViZjkyODEjMCEGCSqGSIb3DQEJARYUbm9kZTA5MTJA
b2N0YXJpbmUuZGUwgZ8wDQYJKoZIhvcNAQEBBQADgY0AMIGJAoGBAKROhK0S/LNN
v2Ss3B0vgGkTfKv44AMcuUGZ70wScib0aw5LqWsAB02HSjani4WUt1IXdDY643pN
RpsVQbF33HcyEq8be0u7VGGAPgaxtDiMt2BLjXD7Tku7uN77w2NYnb5uRq1IfIVv
Lw9gXP8/6d/TZsiZjsxfmB3LMJfycKL7AgMBAAEwDQYJKoZIhvcNAQEEBQADgYEA
DS6yKzfIU9Eh7ZFWv14QvNE9qziuTpLu6qXgfunXp+jr/FN9cjPFRAx2QTGdkmY8
QOi6+fiIob0UfoUwZoYY/yTvi3gFnLjciYNdBB1fTZs6csYGXY5+a+UN6eEPqNhF
/CMP8UNSs5jTnZR3tZgSk5fOkY1YTrGOK0sZRmhOUq8=
-----END CERTIFICATE-----
