Certificate:
    Data:
        Version: 1 (0x0)
        Serial Number:
            9b:27:d7:e8:d1:ba:08:19
        Signature Algorithm: md5WithRSAEncryption
        Issuer: C=DE, ST=Saarland, O=MPI-SWS, OU=Distributed Systems Group, CN=Andreas Haeberlen/emailAddress=democa@octarine.de
        Validity
            Not Before: Apr 20 20:46:59 2015 GMT
            Not After : Apr 19 20:46:59 2016 GMT
        Subject: C=DE, ST=Saarland, O=MPI-SWS, OU=Distributed Systems Group, CN=800f93f96d1a49bd120b69c2a90c6eefffe82d29/emailAddress=node0065@octarine.de
        Subject Public Key Info:
            Public Key Algorithm: rsaEncryption
            RSA Public Key: (1024 bit)
                Modulus (1024 bit):
                    00:ce:d0:08:12:76:e4:6e:fd:f1:2d:21:d1:d2:4d:
                    d5:23:0a:e0:0b:a7:d5:c1:90:93:7c:7f:88:bf:dc:
                    d7:d5:82:0e:8b:a0:10:14:6f:43:e3:9f:b5:a1:33:
                    68:12:20:35:20:7b:6a:d7:2a:d5:84:ca:a0:25:e5:
                    36:90:cb:92:84:90:48:a8:b8:ff:b2:31:4a:f8:59:
                    a0:bb:0e:1c:65:f0:ce:82:af:cc:ca:e6:c4:d3:da:
                    df:da:f8:71:53:3f:71:44:f5:dd:16:0c:b9:b7:62:
                    7c:0f:84:32:33:d1:59:ce:8f:84:5f:47:a5:7f:e2:
                    74:78:cb:72:3e:3c:46:42:d9
                Exponent: 65537 (0x10001)
    Signature Algorithm: md5WithRSAEncryption
        14:3d:f5:86:5f:6d:ee:ae:b6:07:77:4f:87:0b:90:b1:2d:5a:
        d4:d2:b6:d5:17:09:fd:54:f2:35:05:f4:38:95:48:d7:17:6c:
        3c:9a:61:e6:10:1d:9e:9a:65:0d:42:09:6a:76:b7:f1:61:8f:
        5c:d9:e8:b0:17:9e:fa:b2:c3:99:87:36:57:97:95:a8:ee:1e:
        03:af:8d:5a:58:3a:96:d6:c0:d5:e3:41:34:44:5f:b4:1d:03:
        03:de:c0:d1:80:7a:a7:0e:09:ee:31:e2:65:15:ba:fb:16:d3:
        7b:f2:73:6e:22:6f:e2:4b:b9:c8:5e:48:9f:f7:d8:2e:6d:b1:
        46:c8
-----BEGIN CERTIFICATE-----
MIICvDCCAiUCCQCbJ9fo0boIGTANBgkqhkiG9w0BAQQFADCBlTELMAkGA1UEBhMC
REUxETAPBgNVBAgTCFNhYXJsYW5kMRAwDgYDVQQKEwdNUEktU1dTMSIwIAYDVQQL
ExlEaXN0cmlidXRlZCBTeXN0ZW1zIEdyb3VwMRowGAYDVQQDExFBbmRyZWFzIEhh
ZWJlcmxlbjEhMB8GCSqGSIb3DQEJARYSZGVtb2NhQG9jdGFyaW5lLmRlMB4XDTE1
MDQyMDIwNDY1OVoXDTE2MDQxOTIwNDY1OVowga4xCzAJBgNVBAYTAkRFMREwDwYD
VQQIEwhTYWFybGFuZDEQMA4GA1UEChMHTVBJLVNXUzEiMCAGA1UECxMZRGlzdHJp
YnV0ZWQgU3lzdGVtcyBHcm91cDExMC8GA1UEAxMoODAwZjkzZjk2ZDFhNDliZDEy
MGI2OWMyYTkwYzZlZWZmZmU4MmQyOTEjMCEGCSqGSIb3DQEJARYUbm9kZTAwNjVA
b2N0YXJpbmUuZGUwgZ8wDQYJKoZIhvcNAQEBBQADgY0AMIGJAoGBAM7QCBJ25G79
8S0h0dJN1SMK4Aun1cGQk3x/iL/c19WCDougEBRvQ+OftaEzaBIgNSB7atcq1YTK
oCXlNpDLkoSQSKi4/7IxSvhZoLsOHGXwzoKvzMrmxNPa39r4cVM/cUT13RYMubdi
fA+EMjPRWc6PhF9HpX/idHjLcj48RkLZAgMBAAEwDQYJKoZIhvcNAQEEBQADgYEA
FD31hl9t7q62B3dPhwuQsS1a1NK21RcJ/VTyNQX0OJVI1xdsPJph5hAdnpplDUIJ
ana38WGPXNnosBee+rLDmYc2V5eVqO4eA6+NWlg6ltbA1eNBNERftB0DA97A0YB6
pw4J7jHiZRW6+xbTe/JzbiJv4ku5yF5In/fYLm2xRsg=
-----END CERTIFICATE-----
