Certificate:
    Data:
        Version: 1 (0x0)
        Serial Number:
            9b:27:d7:e8:d1:ba:08:49
        Signature Algorithm: md5WithRSAEncryption
        Issuer: C=DE, ST=Saarland, O=MPI-SWS, OU=Distributed Systems Group, CN=Andreas Haeberlen/emailAddress=democa@octarine.de
        Validity
            Not Before: Apr 20 20:47:01 2015 GMT
            Not After : Apr 19 20:47:01 2016 GMT
        Subject: C=DE, ST=Saarland, O=MPI-SWS, OU=Distributed Systems Group, CN=f759864f81bd6cb40b039bf2e6198398ae22562e/emailAddress=node0113@octarine.de
        Subject Public Key Info:
            Public Key Algorithm: rsaEncryption
            RSA Public Key: (1024 bit)
                Modulus (1024 bit):
                    00:f9:31:24:f9:4c:7e:b0:09:da:8f:67:ab:bd:c7:
                    98:e9:5d:c6:cf:40:f7:7a:96:b2:08:3f:f0:47:02:
                    dc:0f:ab:44:44:97:83:9c:7e:f6:cc:26:f8:7a:7b:
                    b2:49:8c:72:43:42:a6:5e:a1:0c:a5:f2:0b:13:c4:
                    ce:1f:cd:27:db:08:66:84:9a:4b:09:84:6e:56:22:
                    8e:36:26:fe:88:a7:e4:95:fd:b7:f2:b9:7b:7d:f9:
                    63:64:21:e3:6d:27:1a:03:74:8c:47:c6:be:be:3d:
                    30:0d:1f:71:34:51:bf:42:da:48:8f:28:f6:5d:c7:
                    ad:b6:a1:88:d5:9f:83:67:21
                Exponent: 65537 (0x10001)
    Signature Algorithm: md5WithRSAEncryption
        4e:28:67:07:30:ad:34:f0:7c:49:b0:47:65:04:c6:b2:25:b6:
        f6:05:da:3b:75:e4:e9:7e:c1:fe:58:46:71:63:f1:08:6c:d6:
        e1:fb:00:c4:e0:36:ed:ef:32:43:60:97:ba:29:78:e8:3d:b4:
        7b:b4:a9:28:b2:a3:6d:86:f9:d1:62:f3:0c:a9:78:70:69:f6:
        f5:96:a8:bb:2a:fd:5a:43:8f:d9:b2:98:3e:53:03:dd:41:26:
        b2:85:0a:8b:97:b5:92:59:41:28:a8:c0:97:b8:a2:dd:53:74:
        8e:0d:45:7d:82:d0:a6:48:a2:6e:5d:f1:9a:53:48:dc:55:63:
        f5:c6
-----BEGIN CERTIFICATE-----
MIICvDCCAiUCCQCbJ9fo0boISTANBgkqhkiG9w0BAQQFADCBlTELMAkGA1UEBhMC
REUxETAPBgNVBAgTCFNhYXJsYW5kMRAwDgYDVQQKEwdNUEktU1dTMSIwIAYDVQQL
ExlEaXN0cmlidXRlZCBTeXN0ZW1zIEdyb3VwMRowGAYDVQQDExFBbmRyZWFzIEhh
ZWJlcmxlbjEhMB8GCSqGSIb3DQEJARYSZGVtb2NhQG9jdGFyaW5lLmRlMB4XDTE1
MDQyMDIwNDcwMVoXDTE2MDQxOTIwNDcwMVowga4xCzAJBgNVBAYTAkRFMREwDwYD
VQQIEwhTYWFybGFuZDEQMA4GA1UEChMHTVBJLVNXUzEiMCAGA1UECxMZRGlzdHJp
YnV0ZWQgU3lzdGVtcyBHcm91cDExMC8GA1UEAxMoZjc1OTg2NGY4MWJkNmNiNDBi
MDM5YmYyZTYxOTgzOThhZTIyNTYyZTEjMCEGCSqGSIb3DQEJARYUbm9kZTAxMTNA
b2N0YXJpbmUuZGUwgZ8wDQYJKoZIhvcNAQEBBQADgY0AMIGJAoGBAPkxJPlMfrAJ
2o9nq73HmOldxs9A93qWsgg/8EcC3A+rRESXg5x+9swm+Hp7skmMckNCpl6hDKXy
CxPEzh/NJ9sIZoSaSwmEblYijjYm/oin5JX9t/K5e335Y2Qh420nGgN0jEfGvr49
MA0fcTRRv0LaSI8o9l3HrbahiNWfg2chAgMBAAEwDQYJKoZIhvcNAQEEBQADgYEA
TihnBzCtNPB8SbBHZQTGsiW29gXaO3Xk6X7B/lhGcWPxCGzW4fsAxOA27e8yQ2CX
uil46D20e7SpKLKjbYb50WLzDKl4cGn29Zaouyr9WkOP2bKYPlMD3UEmsoUKi5e1
kllBKKjAl7ii3VN0jg1FfYLQpkiibl3xmlNI3FVj9cY=
-----END CERTIFICATE-----
