Certificate:
    Data:
        Version: 1 (0x0)
        Serial Number:
            9b:27:d7:e8:d1:ba:0a:0d
        Signature Algorithm: md5WithRSAEncryption
        Issuer: C=DE, ST=Saarland, O=MPI-SWS, OU=Distributed Systems Group, CN=Andreas Haeberlen/emailAddress=democa@octarine.de
        Validity
            Not Before: Apr 20 20:47:22 2015 GMT
            Not After : Apr 19 20:47:22 2016 GMT
        Subject: C=DE, ST=Saarland, O=MPI-SWS, OU=Distributed Systems Group, CN=a6fffa6dd76473719953f8cf023e566fd5fcf5ad/emailAddress=node0565@octarine.de
        Subject Public Key Info:
            Public Key Algorithm: rsaEncryption
            RSA Public Key: (1024 bit)
                Modulus (1024 bit):
                    00:a1:59:e0:46:42:0c:c0:6c:95:57:63:56:93:8c:
                    5d:27:fa:9f:90:cb:50:e7:e1:9a:19:55:dc:54:26:
                    a7:a8:4d:6c:45:2e:f9:8f:99:96:5b:6c:e2:2d:84:
                    81:d6:69:0e:b7:37:5c:72:66:6e:0f:84:de:8a:98:
                    e9:4c:6e:64:5f:f9:be:19:ac:82:3d:70:74:71:48:
                    2d:a0:f6:20:f9:2c:bc:1c:d6:8b:34:d5:64:76:57:
                    29:a5:30:a2:31:62:e8:28:cd:0e:e3:2d:32:35:cf:
                    da:4c:d6:0f:c5:d8:e7:42:12:d3:4b:9d:8f:44:a6:
                    5a:c8:16:8f:a0:8d:ae:48:1b
                Exponent: 65537 (0x10001)
    Signature Algorithm: md5WithRSAEncryption
        52:41:cd:b8:97:30:3a:b8:ff:74:e9:9e:16:16:c9:70:58:33:
        36:3a:2e:c1:c0:4a:3c:35:d8:3d:e9:18:a9:a7:50:ea:00:21:
        f7:87:f8:b1:4b:7e:98:b1:1e:83:8d:c6:1a:33:c3:43:1c:f1:
        47:ba:30:27:e6:bd:55:34:d9:fb:a9:e4:01:3f:f3:45:43:05:
        9e:e4:e7:26:ee:9e:77:60:b2:2b:9e:0d:cd:8f:0e:03:f9:f3:
        59:d6:4c:93:94:a4:76:24:32:46:ef:e9:0a:a7:bb:4e:9f:7b:
        97:71:f1:62:ca:cf:45:66:7e:4a:c9:08:87:d5:7a:f9:7e:e3:
        b8:9c
-----BEGIN CERTIFICATE-----
MIICvDCCAiUCCQCbJ9fo0boKDTANBgkqhkiG9w0BAQQFADCBlTELMAkGA1UEBhMC
REUxETAPBgNVBAgTCFNhYXJsYW5kMRAwDgYDVQQKEwdNUEktU1dTMSIwIAYDVQQL
ExlEaXN0cmlidXRlZCBTeXN0ZW1zIEdyb3VwMRowGAYDVQQDExFBbmRyZWFzIEhh
ZWJlcmxlbjEhMB8GCSqGSIb3DQEJARYSZGVtb2NhQG9jdGFyaW5lLmRlMB4XDTE1
MDQyMDIwNDcyMloXDTE2MDQxOTIwNDcyMlowga4xCzAJBgNVBAYTAkRFMREwDwYD
VQQIEwhTYWFybGFuZDEQMA4GA1UEChMHTVBJLVNXUzEiMCAGA1UECxMZRGlzdHJp
YnV0ZWQgU3lzdGVtcyBHcm91cDExMC8GA1UEAxMoYTZmZmZhNmRkNzY0NzM3MTk5
NTNmOGNmMDIzZTU2NmZkNWZjZjVhZDEjMCEGCSqGSIb3DQEJARYUbm9kZTA1NjVA
b2N0YXJpbmUuZGUwgZ8wDQYJKoZIhvcNAQEBBQADgY0AMIGJAoGBAKFZ4EZCDMBs
lVdjVpOMXSf6n5DLUOfhmhlV3FQmp6hNbEUu+Y+Zllts4i2EgdZpDrc3XHJmbg+E
3oqY6UxuZF/5vhmsgj1wdHFILaD2IPksvBzWizTVZHZXKaUwojFi6CjNDuMtMjXP
2kzWD8XY50IS00udj0SmWsgWj6CNrkgbAgMBAAEwDQYJKoZIhvcNAQEEBQADgYEA
UkHNuJcwOrj/dOmeFhbJcFgzNjouwcBKPDXYPekYqadQ6gAh94f4sUt+mLEeg43G
GjPDQxzxR7owJ+a9VTTZ+6nkAT/zRUMFnuTnJu6ed2CyK54NzY8OA/nzWdZMk5Sk
diQyRu/pCqe7Tp97l3HxYsrPRWZ+SskIh9V6+X7juJw=
-----END CERTIFICATE-----
