Certificate:
    Data:
        Version: 1 (0x0)
        Serial Number:
            9b:27:d7:e8:d1:ba:0b:01
        Signature Algorithm: md5WithRSAEncryption
        Issuer: C=DE, ST=Saarland, O=MPI-SWS, OU=Distributed Systems Group, CN=Andreas Haeberlen/emailAddress=democa@octarine.de
        Validity
            Not Before: Apr 20 20:47:32 2015 GMT
            Not After : Apr 19 20:47:32 2016 GMT
        Subject: C=DE, ST=Saarland, O=MPI-SWS, OU=Distributed Systems Group, CN=5fb7d9f4af806e7e1dd2cd18f4b73d29ce0970e2/emailAddress=node0809@octarine.de
        Subject Public Key Info:
            Public Key Algorithm: rsaEncryption
            RSA Public Key: (1024 bit)
                Modulus (1024 bit):
                    00:c0:4a:6d:b1:b3:61:5e:da:18:f6:d1:9f:25:1c:
                    6f:b9:58:83:ae:3a:50:12:08:8a:bb:8a:a4:e5:f7:
                    d1:6d:ed:5e:37:a0:c6:09:12:2f:c2:e2:2f:a2:8c:
                    73:49:35:63:7a:55:7d:a0:64:a7:0c:96:73:56:9f:
                    aa:16:04:6d:63:9a:92:cc:2a:f5:b5:29:3c:b5:72:
                    23:7f:ee:85:08:5c:4f:4b:e3:fa:c6:b7:34:2e:a9:
                    c4:ac:81:9c:47:01:50:04:05:04:ee:1f:ec:87:a4:
                    58:19:00:3a:ca:dc:ce:aa:c3:fc:67:e6:fd:2c:31:
                    4b:01:7e:4a:c5:82:e8:73:33
                Exponent: 65537 (0x10001)
    Signature Algorithm: md5WithRSAEncryption
        0e:7c:5e:ea:38:bd:2f:2b:5a:77:b4:0a:3d:2f:46:e7:40:30:
        82:49:69:58:58:93:e3:c2:cb:e8:a4:34:27:b9:29:0a:0c:a9:
        35:43:90:fd:20:ca:db:27:ec:f2:71:e6:93:78:c4:9f:57:ce:
        81:65:4f:20:6d:67:ee:79:3d:06:74:50:e7:88:63:b8:c4:72:
        38:ee:01:cb:f2:50:c0:36:6e:4f:a5:47:91:9f:2b:9c:8b:8e:
        06:30:58:44:4a:4a:db:d5:19:df:59:fe:a5:02:f6:0b:c0:eb:
        89:68:9e:95:d4:d7:23:13:b5:e1:a5:4e:5f:69:52:1d:1b:cf:
        2d:10
-----BEGIN CERTIFICATE-----
MIICvDCCAiUCCQCbJ9fo0boLATANBgkqhkiG9w0BAQQFADCBlTELMAkGA1UEBhMC
REUxETAPBgNVBAgTCFNhYXJsYW5kMRAwDgYDVQQKEwdNUEktU1dTMSIwIAYDVQQL
ExlEaXN0cmlidXRlZCBTeXN0ZW1zIEdyb3VwMRowGAYDVQQDExFBbmRyZWFzIEhh
ZWJlcmxlbjEhMB8GCSqGSIb3DQEJARYSZGVtb2NhQG9jdGFyaW5lLmRlMB4XDTE1
MDQyMDIwNDczMloXDTE2MDQxOTIwNDczMlowga4xCzAJBgNVBAYTAkRFMREwDwYD
VQQIEwhTYWFybGFuZDEQMA4GA1UEChMHTVBJLVNXUzEiMCAGA1UECxMZRGlzdHJp
YnV0ZWQgU3lzdGVtcyBHcm91cDExMC8GA1UEAxMoNWZiN2Q5ZjRhZjgwNmU3ZTFk
ZDJjZDE4ZjRiNzNkMjljZTA5NzBlMjEjMCEGCSqGSIb3DQEJARYUbm9kZTA4MDlA
b2N0YXJpbmUuZGUwgZ8wDQYJKoZIhvcNAQEBBQADgY0AMIGJAoGBAMBKbbGzYV7a
GPbRnyUcb7lYg646UBIIiruKpOX30W3tXjegxgkSL8LiL6KMc0k1Y3pVfaBkpwyW
c1afqhYEbWOakswq9bUpPLVyI3/uhQhcT0vj+sa3NC6pxKyBnEcBUAQFBO4f7Iek
WBkAOsrczqrD/Gfm/SwxSwF+SsWC6HMzAgMBAAEwDQYJKoZIhvcNAQEEBQADgYEA
Dnxe6ji9Lytad7QKPS9G50AwgklpWFiT48LL6KQ0J7kpCgypNUOQ/SDK2yfs8nHm
k3jEn1fOgWVPIG1n7nk9BnRQ54hjuMRyOO4By/JQwDZuT6VHkZ8rnIuOBjBYREpK
29UZ31n+pQL2C8DriWieldTXIxO14aVOX2lSHRvPLRA=
-----END CERTIFICATE-----
