Certificate:
    Data:
        Version: 1 (0x0)
        Serial Number:
            9b:27:d7:e8:d1:ba:09:86
        Signature Algorithm: md5WithRSAEncryption
        Issuer: C=DE, ST=Saarland, O=MPI-SWS, OU=Distributed Systems Group, CN=Andreas Haeberlen/emailAddress=democa@octarine.de
        Validity
            Not Before: Apr 20 20:47:15 2015 GMT
            Not After : Apr 19 20:47:15 2016 GMT
        Subject: C=DE, ST=Saarland, O=MPI-SWS, OU=Distributed Systems Group, CN=8226e60f12c422877f1c5d432c72631e5444b43c/emailAddress=node0430@octarine.de
        Subject Public Key Info:
            Public Key Algorithm: rsaEncryption
            RSA Public Key: (1024 bit)
                Modulus (1024 bit):
                    00:bb:c3:ba:60:31:ed:18:e6:fe:58:eb:ee:b5:8c:
                    58:95:61:46:75:40:c7:cf:73:93:62:1d:b7:ad:d4:
                    12:26:65:92:74:be:05:98:6a:44:e0:c1:f8:72:53:
                    ae:a2:ef:41:1a:78:1d:a3:eb:0e:53:be:ea:6c:c3:
                    d4:b9:72:70:27:5d:6b:59:92:39:f4:aa:ac:d6:fd:
                    18:aa:d2:bc:ed:f1:15:9f:fd:f0:91:04:4c:12:fc:
                    37:25:82:a1:8b:e8:47:56:76:4c:d2:26:0f:36:32:
                    bb:4b:1c:68:7c:e6:0b:b5:f0:50:c9:0d:21:4b:ac:
                    14:44:74:fb:10:97:dd:77:29
                Exponent: 65537 (0x10001)
    Signature Algorithm: md5WithRSAEncryption
        bb:fa:56:bc:ba:22:e6:58:df:93:f2:c8:72:c7:5f:b3:03:61:
        81:20:ba:3f:69:cb:95:ac:46:45:29:ce:53:71:2d:12:26:93:
        a0:6a:8f:2f:96:30:d5:1f:62:ad:f9:a2:0e:02:70:69:1d:de:
        3a:c7:3b:06:68:57:81:d3:16:88:2d:67:16:bc:fe:30:87:6a:
        6a:2e:5b:7a:24:88:c4:0b:01:0e:85:76:8e:46:68:87:69:26:
        29:06:80:ed:eb:ec:11:c9:9b:e3:b6:3a:61:ef:f9:a6:3c:7e:
        87:27:e0:ed:0a:34:21:ff:3b:e7:8e:5f:13:32:01:2b:5d:14:
        55:fc
-----BEGIN CERTIFICATE-----
MIICvDCCAiUCCQCbJ9fo0boJhjANBgkqhkiG9w0BAQQFADCBlTELMAkGA1UEBhMC
REUxETAPBgNVBAgTCFNhYXJsYW5kMRAwDgYDVQQKEwdNUEktU1dTMSIwIAYDVQQL
ExlEaXN0cmlidXRlZCBTeXN0ZW1zIEdyb3VwMRowGAYDVQQDExFBbmRyZWFzIEhh
ZWJlcmxlbjEhMB8GCSqGSIb3DQEJARYSZGVtb2NhQG9jdGFyaW5lLmRlMB4XDTE1
MDQyMDIwNDcxNVoXDTE2MDQxOTIwNDcxNVowga4xCzAJBgNVBAYTAkRFMREwDwYD
VQQIEwhTYWFybGFuZDEQMA4GA1UEChMHTVBJLVNXUzEiMCAGA1UECxMZRGlzdHJp
YnV0ZWQgU3lzdGVtcyBHcm91cDExMC8GA1UEAxMoODIyNmU2MGYxMmM0MjI4Nzdm
MWM1ZDQzMmM3MjYzMWU1NDQ0YjQzYzEjMCEGCSqGSIb3DQEJARYUbm9kZTA0MzBA
b2N0YXJpbmUuZGUwgZ8wDQYJKoZIhvcNAQEBBQADgY0AMIGJAoGBALvDumAx7Rjm
/ljr7rWMWJVhRnVAx89zk2Idt63UEiZlknS+BZhqRODB+HJTrqLvQRp4HaPrDlO+
6mzD1LlycCdda1mSOfSqrNb9GKrSvO3xFZ/98JEETBL8NyWCoYvoR1Z2TNImDzYy
u0scaHzmC7XwUMkNIUusFER0+xCX3XcpAgMBAAEwDQYJKoZIhvcNAQEEBQADgYEA
u/pWvLoi5ljfk/LIcsdfswNhgSC6P2nLlaxGRSnOU3EtEiaToGqPL5Yw1R9irfmi
DgJwaR3eOsc7BmhXgdMWiC1nFrz+MIdqai5beiSIxAsBDoV2jkZoh2kmKQaA7evs
Ecmb47Y6Ye/5pjx+hyfg7Qo0If87545fEzIBK10UVfw=
-----END CERTIFICATE-----
