Certificate:
    Data:
        Version: 1 (0x0)
        Serial Number:
            9b:27:d7:e8:d1:ba:09:8a
        Signature Algorithm: md5WithRSAEncryption
        Issuer: C=DE, ST=Saarland, O=MPI-SWS, OU=Distributed Systems Group, CN=Andreas Haeberlen/emailAddress=democa@octarine.de
        Validity
            Not Before: Apr 20 20:47:15 2015 GMT
            Not After : Apr 19 20:47:15 2016 GMT
        Subject: C=DE, ST=Saarland, O=MPI-SWS, OU=Distributed Systems Group, CN=ca0881a10bd1e1d27c7594a2b8ddc219d1253c74/emailAddress=node0434@octarine.de
        Subject Public Key Info:
            Public Key Algorithm: rsaEncryption
            RSA Public Key: (1024 bit)
                Modulus (1024 bit):
                    00:de:09:72:36:62:93:a9:39:2f:b0:4a:d1:1e:fa:
                    9a:82:01:ef:56:40:c3:eb:8c:d2:fe:65:07:35:87:
                    a3:42:9d:67:75:51:c5:a8:1f:f5:de:36:aa:c7:ff:
                    71:26:1d:0d:be:71:9b:a4:6d:94:ca:23:f2:34:88:
                    6c:e6:6e:b2:2a:3f:a7:d1:e1:0e:b2:c5:5a:d2:56:
                    61:24:ef:87:c6:ea:32:c8:da:2f:a1:fb:c0:06:3f:
                    58:b1:c2:5a:2f:74:50:cd:73:51:8a:4d:5a:95:28:
                    29:f7:8a:fd:45:82:62:12:4e:c3:17:27:5d:98:23:
                    ee:f7:26:fd:c0:78:5c:ab:59
                Exponent: 65537 (0x10001)
    Signature Algorithm: md5WithRSAEncryption
        6c:f9:ca:5a:bc:f2:16:53:b6:2f:1c:35:38:57:f4:36:6c:f9:
        84:8d:03:a8:c8:0f:35:8e:ae:05:87:c5:86:35:b8:4f:b8:ec:
        60:d2:3f:06:79:49:44:bf:16:38:bc:37:0c:05:29:1a:47:09:
        d7:3b:f4:1b:c0:36:1c:f9:49:d9:00:cd:1f:0e:79:2e:22:77:
        ce:ed:d5:0b:fe:cd:b1:0d:69:1b:9f:01:a5:59:b4:58:4c:a2:
        31:d7:d1:8f:77:27:11:78:28:b0:06:69:9a:10:2a:ed:a1:b2:
        bf:c4:10:e0:6b:74:c6:7f:54:1f:16:dc:1c:fa:4e:d6:ac:4f:
        52:4c
-----BEGIN CERTIFICATE-----
MIICvDCCAiUCCQCbJ9fo0boJijANBgkqhkiG9w0BAQQFADCBlTELMAkGA1UEBhMC
REUxETAPBgNVBAgTCFNhYXJsYW5kMRAwDgYDVQQKEwdNUEktU1dTMSIwIAYDVQQL
ExlEaXN0cmlidXRlZCBTeXN0ZW1zIEdyb3VwMRowGAYDVQQDExFBbmRyZWFzIEhh
ZWJlcmxlbjEhMB8GCSqGSIb3DQEJARYSZGVtb2NhQG9jdGFyaW5lLmRlMB4XDTE1
MDQyMDIwNDcxNVoXDTE2MDQxOTIwNDcxNVowga4xCzAJBgNVBAYTAkRFMREwDwYD
VQQIEwhTYWFybGFuZDEQMA4GA1UEChMHTVBJLVNXUzEiMCAGA1UECxMZRGlzdHJp
YnV0ZWQgU3lzdGVtcyBHcm91cDExMC8GA1UEAxMoY2EwODgxYTEwYmQxZTFkMjdj
NzU5NGEyYjhkZGMyMTlkMTI1M2M3NDEjMCEGCSqGSIb3DQEJARYUbm9kZTA0MzRA
b2N0YXJpbmUuZGUwgZ8wDQYJKoZIhvcNAQEBBQADgY0AMIGJAoGBAN4JcjZik6k5
L7BK0R76moIB71ZAw+uM0v5lBzWHo0KdZ3VRxagf9d42qsf/cSYdDb5xm6RtlMoj
8jSIbOZusio/p9HhDrLFWtJWYSTvh8bqMsjaL6H7wAY/WLHCWi90UM1zUYpNWpUo
KfeK/UWCYhJOwxcnXZgj7vcm/cB4XKtZAgMBAAEwDQYJKoZIhvcNAQEEBQADgYEA
bPnKWrzyFlO2Lxw1OFf0Nmz5hI0DqMgPNY6uBYfFhjW4T7jsYNI/BnlJRL8WOLw3
DAUpGkcJ1zv0G8A2HPlJ2QDNHw55LiJ3zu3VC/7NsQ1pG58BpVm0WEyiMdfRj3cn
EXgosAZpmhAq7aGyv8QQ4Gt0xn9UHxbcHPpO1qxPUkw=
-----END CERTIFICATE-----
