Certificate:
    Data:
        Version: 1 (0x0)
        Serial Number:
            9b:27:d7:e8:d1:ba:0a:bd
        Signature Algorithm: md5WithRSAEncryption
        Issuer: C=DE, ST=Saarland, O=MPI-SWS, OU=Distributed Systems Group, CN=Andreas Haeberlen/emailAddress=democa@octarine.de
        Validity
            Not Before: Apr 20 20:47:30 2015 GMT
            Not After : Apr 19 20:47:30 2016 GMT
        Subject: C=DE, ST=Saarland, O=MPI-SWS, OU=Distributed Systems Group, CN=da497719712eabef0581e2ff6e9c149efe87591c/emailAddress=node0741@octarine.de
        Subject Public Key Info:
            Public Key Algorithm: rsaEncryption
            RSA Public Key: (1024 bit)
                Modulus (1024 bit):
                    00:a2:32:bc:8f:c3:4a:4c:c4:2c:5a:a8:44:f5:08:
                    f1:a0:23:2d:dc:fb:53:1d:ed:91:dd:11:50:b5:20:
                    89:d9:19:0e:19:5e:cb:5f:04:98:7b:35:cd:a0:3b:
                    55:8a:ba:bd:33:35:94:d0:7f:32:ae:d3:7c:5f:42:
                    d6:e8:25:de:70:0f:a7:94:85:a9:5e:e9:39:f0:22:
                    01:40:d0:d2:c8:b8:9d:d8:4c:48:96:c6:b8:ba:2c:
                    b9:0d:8b:88:12:20:75:55:f3:c8:76:05:b3:ee:35:
                    63:f4:47:cf:c3:b4:99:2f:02:38:d5:a4:38:5a:6c:
                    42:81:1a:c6:f9:1b:74:ec:cf
                Exponent: 65537 (0x10001)
    Signature Algorithm: md5WithRSAEncryption
        0a:02:24:81:9d:d3:9e:16:72:fd:ba:7a:e4:27:85:dd:b7:ff:
        fa:fd:ab:52:c2:4a:1a:75:b2:72:dd:4e:d1:df:e6:fb:c1:f6:
        d5:81:b4:62:3e:40:33:f2:a9:76:fa:54:9b:33:8b:78:0c:09:
        43:d3:dc:df:b4:30:8d:3b:30:fe:9f:e7:d3:e1:19:dc:38:5c:
        6a:33:04:15:f8:31:c6:73:96:44:a5:59:08:75:02:50:4a:47:
        e7:e8:ae:2c:97:8d:0f:ef:57:93:35:ea:fd:49:51:f0:77:b9:
        a6:25:5a:ca:c4:aa:a6:5e:9c:8b:99:f5:34:d8:6c:3e:d9:bb:
        97:ed
-----BEGIN CERTIFICATE-----
MIICvDCCAiUCCQCbJ9fo0boKvTANBgkqhkiG9w0BAQQFADCBlTELMAkGA1UEBhMC
REUxETAPBgNVBAgTCFNhYXJsYW5kMRAwDgYDVQQKEwdNUEktU1dTMSIwIAYDVQQL
ExlEaXN0cmlidXRlZCBTeXN0ZW1zIEdyb3VwMRowGAYDVQQDExFBbmRyZWFzIEhh
ZWJlcmxlbjEhMB8GCSqGSIb3DQEJARYSZGVtb2NhQG9jdGFyaW5lLmRlMB4XDTE1
MDQyMDIwNDczMFoXDTE2MDQxOTIwNDczMFowga4xCzAJBgNVBAYTAkRFMREwDwYD
VQQIEwhTYWFybGFuZDEQMA4GA1UEChMHTVBJLVNXUzEiMCAGA1UECxMZRGlzdHJp
YnV0ZWQgU3lzdGVtcyBHcm91cDExMC8GA1UEAxMoZGE0OTc3MTk3MTJlYWJlZjA1
ODFlMmZmNmU5YzE0OWVmZTg3NTkxYzEjMCEGCSqGSIb3DQEJARYUbm9kZTA3NDFA
b2N0YXJpbmUuZGUwgZ8wDQYJKoZIhvcNAQEBBQADgY0AMIGJAoGBAKIyvI/DSkzE
LFqoRPUI8aAjLdz7Ux3tkd0RULUgidkZDhley18EmHs1zaA7VYq6vTM1lNB/Mq7T
fF9C1ugl3nAPp5SFqV7pOfAiAUDQ0si4ndhMSJbGuLosuQ2LiBIgdVXzyHYFs+41
Y/RHz8O0mS8CONWkOFpsQoEaxvkbdOzPAgMBAAEwDQYJKoZIhvcNAQEEBQADgYEA
CgIkgZ3TnhZy/bp65CeF3bf/+v2rUsJKGnWyct1O0d/m+8H21YG0Yj5AM/KpdvpU
mzOLeAwJQ9Pc37QwjTsw/p/n0+EZ3DhcajMEFfgxxnOWRKVZCHUCUEpH5+iuLJeN
D+9XkzXq/UlR8He5piVaysSqpl6ci5n1NNhsPtm7l+0=
-----END CERTIFICATE-----
