Certificate:
    Data:
        Version: 1 (0x0)
        Serial Number:
            9b:27:d7:e8:d1:ba:0b:8f
        Signature Algorithm: md5WithRSAEncryption
        Issuer: C=DE, ST=Saarland, O=MPI-SWS, OU=Distributed Systems Group, CN=Andreas Haeberlen/emailAddress=democa@octarine.de
        Validity
            Not Before: Apr 20 20:47:39 2015 GMT
            Not After : Apr 19 20:47:39 2016 GMT
        Subject: C=DE, ST=Saarland, O=MPI-SWS, OU=Distributed Systems Group, CN=457e8e38b4b58a64e2e4646068941c362a5a9835/emailAddress=node0951@octarine.de
        Subject Public Key Info:
            Public Key Algorithm: rsaEncryption
            RSA Public Key: (1024 bit)
                Modulus (1024 bit):
                    00:cb:70:75:11:57:61:3c:88:01:39:f8:79:d6:f7:
                    1c:c5:ce:68:ba:22:f3:8a:37:d7:a9:82:90:23:30:
                    c9:f3:e6:83:3b:d3:c1:e2:70:e3:bd:2b:5c:97:c9:
                    fc:3b:85:3a:2c:bb:db:90:8d:50:9c:75:b5:4e:1d:
                    ef:4f:fb:bd:da:9f:0f:79:d4:dd:cf:76:ec:ee:a1:
                    42:c0:1b:59:40:93:23:5e:e0:25:38:41:87:45:ee:
                    f1:2e:a7:64:ee:e0:ba:e8:ab:04:57:44:bd:50:22:
                    fc:98:87:97:b9:bb:ba:9e:b7:26:3d:a6:04:4a:d6:
                    3d:3f:98:8e:e7:0e:67:8c:b3
                Exponent: 65537 (0x10001)
    Signature Algorithm: md5WithRSAEncryption
        b0:45:3e:e0:a1:d2:a9:57:01:09:75:65:42:07:b8:35:4a:9b:
        e9:3e:f1:65:bb:a8:9e:75:ec:65:47:8a:ed:13:97:78:27:df:
        95:c6:23:26:49:72:a4:1a:da:59:6c:a2:d5:34:60:7f:3d:9b:
        ce:ed:9c:62:c1:4f:06:1e:db:c1:52:c9:8c:b5:bc:4d:81:aa:
        3e:4c:f3:13:57:11:7c:1c:91:36:eb:ad:59:38:bf:76:6c:0a:
        7e:20:a2:fb:b9:82:46:ae:92:c6:48:52:f0:3c:68:51:0f:ef:
        c7:4d:bc:cc:a3:ed:1b:b9:fd:dc:d6:72:2f:68:47:cf:6d:f6:
        ba:cb
-----BEGIN CERTIFICATE-----
MIICvDCCAiUCCQCbJ9fo0boLjzANBgkqhkiG9w0BAQQFADCBlTELMAkGA1UEBhMC
REUxETAPBgNVBAgTCFNhYXJsYW5kMRAwDgYDVQQKEwdNUEktU1dTMSIwIAYDVQQL
ExlEaXN0cmlidXRlZCBTeXN0ZW1zIEdyb3VwMRowGAYDVQQDExFBbmRyZWFzIEhh
ZWJlcmxlbjEhMB8GCSqGSIb3DQEJARYSZGVtb2NhQG9jdGFyaW5lLmRlMB4XDTE1
MDQyMDIwNDczOVoXDTE2MDQxOTIwNDczOVowga4xCzAJBgNVBAYTAkRFMREwDwYD
VQQIEwhTYWFybGFuZDEQMA4GA1UEChMHTVBJLVNXUzEiMCAGA1UECxMZRGlzdHJp
YnV0ZWQgU3lzdGVtcyBHcm91cDExMC8GA1UEAxMoNDU3ZThlMzhiNGI1OGE2NGUy
ZTQ2NDYwNjg5NDFjMzYyYTVhOTgzNTEjMCEGCSqGSIb3DQEJARYUbm9kZTA5NTFA
b2N0YXJpbmUuZGUwgZ8wDQYJKoZIhvcNAQEBBQADgY0AMIGJAoGBAMtwdRFXYTyI
ATn4edb3HMXOaLoi84o316mCkCMwyfPmgzvTweJw470rXJfJ/DuFOiy725CNUJx1
tU4d70/7vdqfD3nU3c927O6hQsAbWUCTI17gJThBh0Xu8S6nZO7guuirBFdEvVAi
/JiHl7m7up63Jj2mBErWPT+YjucOZ4yzAgMBAAEwDQYJKoZIhvcNAQEEBQADgYEA
sEU+4KHSqVcBCXVlQge4NUqb6T7xZbuonnXsZUeK7ROXeCfflcYjJklypBraWWyi
1TRgfz2bzu2cYsFPBh7bwVLJjLW8TYGqPkzzE1cRfByRNuutWTi/dmwKfiCi+7mC
Rq6SxkhS8DxoUQ/vx028zKPtG7n93NZyL2hHz232uss=
-----END CERTIFICATE-----
