Certificate:
    Data:
        Version: 1 (0x0)
        Serial Number:
            9b:27:d7:e8:d1:ba:08:55
        Signature Algorithm: md5WithRSAEncryption
        Issuer: C=DE, ST=Saarland, O=MPI-SWS, OU=Distributed Systems Group, CN=Andreas Haeberlen/emailAddress=democa@octarine.de
        Validity
            Not Before: Apr 20 20:47:02 2015 GMT
            Not After : Apr 19 20:47:02 2016 GMT
        Subject: C=DE, ST=Saarland, O=MPI-SWS, OU=Distributed Systems Group, CN=16a1d161a18472794a44cd95fced55b6b6797db2/emailAddress=node0125@octarine.de
        Subject Public Key Info:
            Public Key Algorithm: rsaEncryption
            RSA Public Key: (1024 bit)
                Modulus (1024 bit):
                    00:a8:09:8a:a3:70:79:ac:89:07:db:0c:28:bf:0c:
                    82:a3:1a:c2:37:e1:f7:f1:ac:4b:39:54:a2:5e:a6:
                    76:28:12:65:0d:e0:12:09:5a:24:31:38:25:67:eb:
                    4c:62:e7:25:b3:53:2b:60:d5:e3:ce:1c:25:da:e4:
                    d3:36:ee:5b:4f:46:c6:c9:35:a6:79:b6:81:2b:8d:
                    81:f7:8c:64:65:e5:12:0d:8b:2e:3b:3c:35:bd:ab:
                    73:25:e6:b7:c9:d4:26:01:c6:fd:7e:6c:50:f8:25:
                    c5:54:a2:1a:4f:75:68:96:51:08:f6:88:e7:8e:2b:
                    29:f1:fe:83:8e:1c:c2:fe:d5
                Exponent: 65537 (0x10001)
    Signature Algorithm: md5WithRSAEncryption
        11:e2:8a:a7:0c:82:90:53:47:35:b4:ee:d1:22:bb:e1:52:3f:
        22:f8:1b:9f:82:d4:28:e5:8c:31:cf:76:70:43:3b:2b:6d:49:
        3b:db:98:cf:a6:28:7b:51:69:47:21:74:4a:ce:2d:34:bf:08:
        dd:c2:0c:f2:06:f9:c1:ca:7e:f8:71:a7:25:e2:14:41:1f:0f:
        3e:f7:ef:dc:57:38:af:2a:c3:81:c7:84:2e:31:d0:e1:e9:57:
        16:61:de:3d:aa:4d:ed:de:3f:19:76:64:d9:04:e9:6c:25:f5:
        07:89:ff:2c:8b:42:7d:5b:d6:96:b1:80:39:11:75:1d:80:fa:
        7c:93
-----BEGIN CERTIFICATE-----
MIICvDCCAiUCCQCbJ9fo0boIVTANBgkqhkiG9w0BAQQFADCBlTELMAkGA1UEBhMC
REUxETAPBgNVBAgTCFNhYXJsYW5kMRAwDgYDVQQKEwdNUEktU1dTMSIwIAYDVQQL
ExlEaXN0cmlidXRlZCBTeXN0ZW1zIEdyb3VwMRowGAYDVQQDExFBbmRyZWFzIEhh
ZWJlcmxlbjEhMB8GCSqGSIb3DQEJARYSZGVtb2NhQG9jdGFyaW5lLmRlMB4XDTE1
MDQyMDIwNDcwMloXDTE2MDQxOTIwNDcwMlowga4xCzAJBgNVBAYTAkRFMREwDwYD
VQQIEwhTYWFybGFuZDEQMA4GA1UEChMHTVBJLVNXUzEiMCAGA1UECxMZRGlzdHJp
YnV0ZWQgU3lzdGVtcyBHcm91cDExMC8GA1UEAxMoMTZhMWQxNjFhMTg0NzI3OTRh
NDRjZDk1ZmNlZDU1YjZiNjc5N2RiMjEjMCEGCSqGSIb3DQEJARYUbm9kZTAxMjVA
b2N0YXJpbmUuZGUwgZ8wDQYJKoZIhvcNAQEBBQADgY0AMIGJAoGBAKgJiqNweayJ
B9sMKL8MgqMawjfh9/GsSzlUol6mdigSZQ3gEglaJDE4JWfrTGLnJbNTK2DV484c
Jdrk0zbuW09Gxsk1pnm2gSuNgfeMZGXlEg2LLjs8Nb2rcyXmt8nUJgHG/X5sUPgl
xVSiGk91aJZRCPaI544rKfH+g44cwv7VAgMBAAEwDQYJKoZIhvcNAQEEBQADgYEA
EeKKpwyCkFNHNbTu0SK74VI/Ivgbn4LUKOWMMc92cEM7K21JO9uYz6Yoe1FpRyF0
Ss4tNL8I3cIM8gb5wcp++HGnJeIUQR8PPvfv3Fc4ryrDgceELjHQ4elXFmHePapN
7d4/GXZk2QTpbCX1B4n/LItCfVvWlrGAORF1HYD6fJM=
-----END CERTIFICATE-----
