Certificate:
    Data:
        Version: 1 (0x0)
        Serial Number:
            9b:27:d7:e8:d1:ba:0a:c4
        Signature Algorithm: md5WithRSAEncryption
        Issuer: C=DE, ST=Saarland, O=MPI-SWS, OU=Distributed Systems Group, CN=Andreas Haeberlen/emailAddress=democa@octarine.de
        Validity
            Not Before: Apr 20 20:47:30 2015 GMT
            Not After : Apr 19 20:47:30 2016 GMT
        Subject: C=DE, ST=Saarland, O=MPI-SWS, OU=Distributed Systems Group, CN=9ce90cf8975d302dbdeb53e952b9e048c31cf149/emailAddress=node0748@octarine.de
        Subject Public Key Info:
            Public Key Algorithm: rsaEncryption
            RSA Public Key: (1024 bit)
                Modulus (1024 bit):
                    00:b1:2b:69:ba:e5:31:80:62:b4:eb:3c:20:bd:82:
                    93:34:2a:fa:ca:6c:59:dd:bd:bb:78:55:fd:7e:67:
                    2a:0c:f7:19:5f:16:7f:7a:9f:8a:31:14:87:17:f1:
                    a0:d9:1a:cb:a5:85:95:f7:3f:37:54:64:01:71:b1:
                    95:8b:1a:6e:27:6b:bc:c9:0a:8b:ad:c4:38:f7:04:
                    07:57:95:b4:5f:a0:8e:a4:09:c2:82:5c:6a:39:ba:
                    60:21:d9:21:0b:a5:e2:ac:55:d8:d3:f4:e9:30:bf:
                    eb:d3:52:6d:63:8f:f0:b7:62:61:27:78:5d:83:73:
                    2e:38:ff:e0:c5:67:2e:23:81
                Exponent: 65537 (0x10001)
    Signature Algorithm: md5WithRSAEncryption
        6d:17:d2:05:92:cd:6c:24:32:fc:72:e1:7f:d0:45:6a:d2:d0:
        11:3b:f6:df:a3:72:d8:6e:f5:4f:6f:82:54:23:15:6d:1f:82:
        c7:53:a8:0c:b0:fd:8b:1a:6b:b9:45:65:1a:9c:9b:40:c6:27:
        1f:77:04:a4:07:0c:01:1f:b5:94:46:31:02:af:2e:33:5e:cf:
        2f:d8:65:a8:c8:fc:15:1b:30:87:e2:10:1b:7f:fd:03:dc:a2:
        1b:3c:e3:98:4c:43:56:75:1c:94:cc:2c:cb:d2:f4:4a:a5:a0:
        47:01:c7:b7:b0:d5:15:4f:43:67:9c:e1:9d:3d:96:0c:48:8f:
        60:cd
-----BEGIN CERTIFICATE-----
MIICvDCCAiUCCQCbJ9fo0boKxDANBgkqhkiG9w0BAQQFADCBlTELMAkGA1UEBhMC
REUxETAPBgNVBAgTCFNhYXJsYW5kMRAwDgYDVQQKEwdNUEktU1dTMSIwIAYDVQQL
ExlEaXN0cmlidXRlZCBTeXN0ZW1zIEdyb3VwMRowGAYDVQQDExFBbmRyZWFzIEhh
ZWJlcmxlbjEhMB8GCSqGSIb3DQEJARYSZGVtb2NhQG9jdGFyaW5lLmRlMB4XDTE1
MDQyMDIwNDczMFoXDTE2MDQxOTIwNDczMFowga4xCzAJBgNVBAYTAkRFMREwDwYD
VQQIEwhTYWFybGFuZDEQMA4GA1UEChMHTVBJLVNXUzEiMCAGA1UECxMZRGlzdHJp
YnV0ZWQgU3lzdGVtcyBHcm91cDExMC8GA1UEAxMoOWNlOTBjZjg5NzVkMzAyZGJk
ZWI1M2U5NTJiOWUwNDhjMzFjZjE0OTEjMCEGCSqGSIb3DQEJARYUbm9kZTA3NDhA
b2N0YXJpbmUuZGUwgZ8wDQYJKoZIhvcNAQEBBQADgY0AMIGJAoGBALErabrlMYBi
tOs8IL2CkzQq+spsWd29u3hV/X5nKgz3GV8Wf3qfijEUhxfxoNkay6WFlfc/N1Rk
AXGxlYsabidrvMkKi63EOPcEB1eVtF+gjqQJwoJcajm6YCHZIQul4qxV2NP06TC/
69NSbWOP8LdiYSd4XYNzLjj/4MVnLiOBAgMBAAEwDQYJKoZIhvcNAQEEBQADgYEA
bRfSBZLNbCQy/HLhf9BFatLQETv236Ny2G71T2+CVCMVbR+Cx1OoDLD9ixpruUVl
GpybQMYnH3cEpAcMAR+1lEYxAq8uM17PL9hlqMj8FRswh+IQG3/9A9yiGzzjmExD
VnUclMwsy9L0SqWgRwHHt7DVFU9DZ5zhnT2WDEiPYM0=
-----END CERTIFICATE-----
