Certificate:
    Data:
        Version: 1 (0x0)
        Serial Number:
            9b:27:d7:e8:d1:ba:08:e1
        Signature Algorithm: md5WithRSAEncryption
        Issuer: C=DE, ST=Saarland, O=MPI-SWS, OU=Distributed Systems Group, CN=Andreas Haeberlen/emailAddress=democa@octarine.de
        Validity
            Not Before: Apr 20 20:47:08 2015 GMT
            Not After : Apr 19 20:47:08 2016 GMT
        Subject: C=DE, ST=Saarland, O=MPI-SWS, OU=Distributed Systems Group, CN=0a2478352b79ad6e7210c44a0179cadc5f1c842a/emailAddress=node0265@octarine.de
        Subject Public Key Info:
            Public Key Algorithm: rsaEncryption
            RSA Public Key: (1024 bit)
                Modulus (1024 bit):
                    00:a8:52:b8:3c:2c:fa:03:f9:4f:5a:2d:c2:51:15:
                    e2:34:c1:4b:c7:61:4f:7c:73:37:64:56:3d:ac:5f:
                    fc:06:b9:60:68:39:ea:93:52:62:37:db:48:e5:8f:
                    5c:58:3f:22:68:b6:c2:a8:57:76:9d:c1:4a:a4:4a:
                    57:26:83:a4:63:90:73:f5:0f:c9:95:9e:56:88:de:
                    6c:4d:c0:88:a4:4c:d4:c2:74:f6:8c:2d:ce:38:13:
                    e1:a6:d1:10:37:f1:94:2f:16:72:31:cf:27:38:96:
                    9f:ef:f8:65:85:b7:d9:e1:91:35:b6:58:17:98:be:
                    9b:d4:be:47:c2:aa:75:2a:85
                Exponent: 65537 (0x10001)
    Signature Algorithm: md5WithRSAEncryption
        4d:f5:71:95:5b:4d:f0:44:14:2a:07:20:7e:6d:cf:43:06:8e:
        2c:5d:91:81:7a:97:59:d4:8c:cf:80:b6:10:f4:d8:b9:e6:59:
        df:e7:62:90:06:80:82:87:24:c8:0b:c4:c4:b3:cc:f4:bf:25:
        15:fb:a3:c0:3c:f1:1c:fa:7d:68:b2:7b:da:fc:06:32:81:92:
        7d:d2:d1:c5:56:a7:4e:56:05:c9:a7:87:e8:80:50:ae:55:99:
        71:8d:48:2e:97:32:c3:45:5f:3f:6a:af:22:56:b1:50:c8:68:
        db:85:af:2c:39:df:d3:98:2f:5e:70:82:5f:76:9f:5d:e6:4e:
        99:25
-----BEGIN CERTIFICATE-----
MIICvDCCAiUCCQCbJ9fo0boI4TANBgkqhkiG9w0BAQQFADCBlTELMAkGA1UEBhMC
REUxETAPBgNVBAgTCFNhYXJsYW5kMRAwDgYDVQQKEwdNUEktU1dTMSIwIAYDVQQL
ExlEaXN0cmlidXRlZCBTeXN0ZW1zIEdyb3VwMRowGAYDVQQDExFBbmRyZWFzIEhh
ZWJlcmxlbjEhMB8GCSqGSIb3DQEJARYSZGVtb2NhQG9jdGFyaW5lLmRlMB4XDTE1
MDQyMDIwNDcwOFoXDTE2MDQxOTIwNDcwOFowga4xCzAJBgNVBAYTAkRFMREwDwYD
VQQIEwhTYWFybGFuZDEQMA4GA1UEChMHTVBJLVNXUzEiMCAGA1UECxMZRGlzdHJp
YnV0ZWQgU3lzdGVtcyBHcm91cDExMC8GA1UEAxMoMGEyNDc4MzUyYjc5YWQ2ZTcy
MTBjNDRhMDE3OWNhZGM1ZjFjODQyYTEjMCEGCSqGSIb3DQEJARYUbm9kZTAyNjVA
b2N0YXJpbmUuZGUwgZ8wDQYJKoZIhvcNAQEBBQADgY0AMIGJAoGBAKhSuDws+gP5
T1otwlEV4jTBS8dhT3xzN2RWPaxf/Aa5YGg56pNSYjfbSOWPXFg/Imi2wqhXdp3B
SqRKVyaDpGOQc/UPyZWeVojebE3AiKRM1MJ09owtzjgT4abREDfxlC8WcjHPJziW
n+/4ZYW32eGRNbZYF5i+m9S+R8KqdSqFAgMBAAEwDQYJKoZIhvcNAQEEBQADgYEA
TfVxlVtN8EQUKgcgfm3PQwaOLF2RgXqXWdSMz4C2EPTYueZZ3+dikAaAgockyAvE
xLPM9L8lFfujwDzxHPp9aLJ72vwGMoGSfdLRxVanTlYFyaeH6IBQrlWZcY1ILpcy
w0VfP2qvIlaxUMho24WvLDnf05gvXnCCX3afXeZOmSU=
-----END CERTIFICATE-----
