Certificate:
    Data:
        Version: 1 (0x0)
        Serial Number:
            9b:27:d7:e8:d1:ba:08:95
        Signature Algorithm: md5WithRSAEncryption
        Issuer: C=DE, ST=Saarland, O=MPI-SWS, OU=Distributed Systems Group, CN=Andreas Haeberlen/emailAddress=democa@octarine.de
        Validity
            Not Before: Apr 20 20:47:05 2015 GMT
            Not After : Apr 19 20:47:05 2016 GMT
        Subject: C=DE, ST=Saarland, O=MPI-SWS, OU=Distributed Systems Group, CN=64c3e12fed245c2aab6657a766a9a3f08b47d66b/emailAddress=node0189@octarine.de
        Subject Public Key Info:
            Public Key Algorithm: rsaEncryption
            RSA Public Key: (1024 bit)
                Modulus (1024 bit):
                    00:bf:da:98:22:05:49:ec:fa:ed:70:e5:79:24:5c:
                    d5:cf:7f:54:42:9f:be:59:c9:62:01:15:9b:51:0c:
                    ae:f8:68:f6:12:0f:2f:b8:06:5d:0f:3f:87:2c:03:
                    c9:bd:11:1b:ce:80:6a:76:7e:94:89:f9:ae:bc:20:
                    4b:75:d6:f8:d7:72:f1:91:ee:c4:32:c1:dc:61:4b:
                    dd:57:11:d3:03:57:d6:21:09:23:3a:20:f1:39:1b:
                    aa:88:2c:ec:b3:b1:f5:b7:82:6e:9a:1d:bf:df:f1:
                    58:6e:5c:0f:00:49:d1:68:8c:54:9a:89:5c:96:77:
                    c5:20:c5:46:a1:36:48:52:69
                Exponent: 65537 (0x10001)
    Signature Algorithm: md5WithRSAEncryption
        33:b7:b7:76:2e:4c:54:6e:f2:c9:40:28:55:e0:73:85:2d:97:
        2f:1f:85:85:3e:fe:7f:f0:39:cf:7c:9e:b7:b1:a9:51:b9:64:
        81:89:74:9c:c5:83:0c:15:34:b6:a2:e8:01:db:4f:84:72:45:
        02:a3:97:a5:3a:09:8d:c8:a0:92:98:01:15:d2:4c:2e:59:a1:
        b8:eb:3b:9e:ea:0e:1d:0f:3e:d8:9d:6b:b8:7c:01:c1:30:cd:
        51:56:0d:15:97:0e:96:f3:6e:6e:7c:8f:c8:0a:a7:84:c6:b1:
        8f:5d:2a:9e:51:b9:ce:2d:bb:11:60:1c:12:83:09:74:71:e8:
        2a:ea
-----BEGIN CERTIFICATE-----
MIICvDCCAiUCCQCbJ9fo0boIlTANBgkqhkiG9w0BAQQFADCBlTELMAkGA1UEBhMC
REUxETAPBgNVBAgTCFNhYXJsYW5kMRAwDgYDVQQKEwdNUEktU1dTMSIwIAYDVQQL
ExlEaXN0cmlidXRlZCBTeXN0ZW1zIEdyb3VwMRowGAYDVQQDExFBbmRyZWFzIEhh
ZWJlcmxlbjEhMB8GCSqGSIb3DQEJARYSZGVtb2NhQG9jdGFyaW5lLmRlMB4XDTE1
MDQyMDIwNDcwNVoXDTE2MDQxOTIwNDcwNVowga4xCzAJBgNVBAYTAkRFMREwDwYD
VQQIEwhTYWFybGFuZDEQMA4GA1UEChMHTVBJLVNXUzEiMCAGA1UECxMZRGlzdHJp
YnV0ZWQgU3lzdGVtcyBHcm91cDExMC8GA1UEAxMoNjRjM2UxMmZlZDI0NWMyYWFi
NjY1N2E3NjZhOWEzZjA4YjQ3ZDY2YjEjMCEGCSqGSIb3DQEJARYUbm9kZTAxODlA
b2N0YXJpbmUuZGUwgZ8wDQYJKoZIhvcNAQEBBQADgY0AMIGJAoGBAL/amCIFSez6
7XDleSRc1c9/VEKfvlnJYgEVm1EMrvho9hIPL7gGXQ8/hywDyb0RG86AanZ+lIn5
rrwgS3XW+Ndy8ZHuxDLB3GFL3VcR0wNX1iEJIzog8Tkbqogs7LOx9beCbpodv9/x
WG5cDwBJ0WiMVJqJXJZ3xSDFRqE2SFJpAgMBAAEwDQYJKoZIhvcNAQEEBQADgYEA
M7e3di5MVG7yyUAoVeBzhS2XLx+FhT7+f/A5z3yet7GpUblkgYl0nMWDDBU0tqLo
AdtPhHJFAqOXpToJjcigkpgBFdJMLlmhuOs7nuoOHQ8+2J1ruHwBwTDNUVYNFZcO
lvNubnyPyAqnhMaxj10qnlG5zi27EWAcEoMJdHHoKuo=
-----END CERTIFICATE-----
