Certificate:
    Data:
        Version: 1 (0x0)
        Serial Number:
            9b:27:d7:e8:d1:ba:0b:23
        Signature Algorithm: md5WithRSAEncryption
        Issuer: C=DE, ST=Saarland, O=MPI-SWS, OU=Distributed Systems Group, CN=Andreas Haeberlen/emailAddress=democa@octarine.de
        Validity
            Not Before: Apr 20 20:47:34 2015 GMT
            Not After : Apr 19 20:47:34 2016 GMT
        Subject: C=DE, ST=Saarland, O=MPI-SWS, OU=Distributed Systems Group, CN=1ada73dbecf84d7d22078f063155be2d807f35b2/emailAddress=node0843@octarine.de
        Subject Public Key Info:
            Public Key Algorithm: rsaEncryption
            RSA Public Key: (1024 bit)
                Modulus (1024 bit):
                    00:ee:5b:f4:54:62:59:f6:b9:5c:f1:29:9b:90:e5:
                    c4:f4:b6:24:a8:67:37:3a:2f:2b:b4:6f:85:71:28:
                    2f:61:78:47:05:96:27:25:dd:f8:d0:6a:dc:37:f5:
                    4c:5f:0a:fd:7c:5c:ba:2b:52:fe:c0:97:ac:00:41:
                    af:33:2e:d2:6e:f5:a5:74:69:44:c3:41:96:cd:c9:
                    78:29:02:69:81:e5:3f:18:d5:2c:a5:88:f0:ab:d7:
                    53:05:27:fa:79:d8:b6:ff:88:51:d2:87:2f:b2:cf:
                    3d:93:33:5d:e0:14:20:cc:0a:9f:a3:dc:f2:a6:a3:
                    25:78:1c:0d:78:09:4a:7e:83
                Exponent: 65537 (0x10001)
    Signature Algorithm: md5WithRSAEncryption
        3b:18:61:25:4c:44:55:e2:3b:9a:c2:cc:8d:48:f5:d1:b7:59:
        20:7c:1c:7a:99:e3:2f:7d:ae:28:f2:ce:4f:d4:bd:af:39:59:
        fb:73:b6:a5:5f:b2:9d:be:a9:d5:0d:40:27:34:e2:69:68:89:
        25:5e:1e:bd:52:f8:39:19:76:4a:63:fd:ba:a1:7a:85:4e:15:
        11:a3:d3:48:95:e8:09:0c:de:d8:77:24:9c:33:09:55:83:bc:
        28:39:07:89:34:89:eb:ef:b1:c6:64:60:d4:bf:04:eb:79:20:
        b7:92:38:59:34:64:a1:a2:44:11:26:91:75:8f:e5:f7:48:dc:
        cf:23
-----BEGIN CERTIFICATE-----
MIICvDCCAiUCCQCbJ9fo0boLIzANBgkqhkiG9w0BAQQFADCBlTELMAkGA1UEBhMC
REUxETAPBgNVBAgTCFNhYXJsYW5kMRAwDgYDVQQKEwdNUEktU1dTMSIwIAYDVQQL
ExlEaXN0cmlidXRlZCBTeXN0ZW1zIEdyb3VwMRowGAYDVQQDExFBbmRyZWFzIEhh
ZWJlcmxlbjEhMB8GCSqGSIb3DQEJARYSZGVtb2NhQG9jdGFyaW5lLmRlMB4XDTE1
MDQyMDIwNDczNFoXDTE2MDQxOTIwNDczNFowga4xCzAJBgNVBAYTAkRFMREwDwYD
VQQIEwhTYWFybGFuZDEQMA4GA1UEChMHTVBJLVNXUzEiMCAGA1UECxMZRGlzdHJp
YnV0ZWQgU3lzdGVtcyBHcm91cDExMC8GA1UEAxMoMWFkYTczZGJlY2Y4NGQ3ZDIy
MDc4ZjA2MzE1NWJlMmQ4MDdmMzViMjEjMCEGCSqGSIb3DQEJARYUbm9kZTA4NDNA
b2N0YXJpbmUuZGUwgZ8wDQYJKoZIhvcNAQEBBQADgY0AMIGJAoGBAO5b9FRiWfa5
XPEpm5DlxPS2JKhnNzovK7RvhXEoL2F4RwWWJyXd+NBq3Df1TF8K/XxcuitS/sCX
rABBrzMu0m71pXRpRMNBls3JeCkCaYHlPxjVLKWI8KvXUwUn+nnYtv+IUdKHL7LP
PZMzXeAUIMwKn6Pc8qajJXgcDXgJSn6DAgMBAAEwDQYJKoZIhvcNAQEEBQADgYEA
OxhhJUxEVeI7msLMjUj10bdZIHwcepnjL32uKPLOT9S9rzlZ+3O2pV+ynb6p1Q1A
JzTiaWiJJV4evVL4ORl2SmP9uqF6hU4VEaPTSJXoCQze2HcknDMJVYO8KDkHiTSJ
6++xxmRg1L8E63kgt5I4WTRkoaJEESaRdY/l90jczyM=
-----END CERTIFICATE-----
