Certificate:
    Data:
        Version: 1 (0x0)
        Serial Number:
            9b:27:d7:e8:d1:ba:08:57
        Signature Algorithm: md5WithRSAEncryption
        Issuer: C=DE, ST=Saarland, O=MPI-SWS, OU=Distributed Systems Group, CN=Andreas Haeberlen/emailAddress=democa@octarine.de
        Validity
            Not Before: Apr 20 20:47:02 2015 GMT
            Not After : Apr 19 20:47:02 2016 GMT
        Subject: C=DE, ST=Saarland, O=MPI-SWS, OU=Distributed Systems Group, CN=e3cfc511efcc9c59481a6cf8da1d454391367485/emailAddress=node0127@octarine.de
        Subject Public Key Info:
            Public Key Algorithm: rsaEncryption
            RSA Public Key: (1024 bit)
                Modulus (1024 bit):
                    00:c3:7a:fa:2e:2e:a6:f0:e5:eb:58:50:f7:60:5a:
                    9e:d1:c7:a2:ef:8b:d1:1a:89:24:57:d5:24:d1:16:
                    e2:d5:a8:2c:fa:93:6a:3f:9d:e2:b3:97:8a:ee:9c:
                    e6:00:42:c5:49:97:5e:45:d6:12:df:44:0a:54:64:
                    53:33:0b:49:14:70:60:3b:b1:4d:b2:18:b0:8d:7e:
                    a5:d1:9b:c6:6c:46:d3:71:12:0c:3d:f0:18:f6:b5:
                    74:0f:fa:7c:3d:85:ea:9b:e1:0a:71:fe:a4:d8:fc:
                    f0:6e:8a:20:5d:68:71:a2:47:73:5b:9c:f6:07:0d:
                    7b:5c:cc:90:f4:9e:31:5f:ed
                Exponent: 65537 (0x10001)
    Signature Algorithm: md5WithRSAEncryption
        5f:34:f9:ed:79:63:0d:df:da:6c:20:49:2c:e8:5f:43:88:98:
        b0:71:6e:89:87:59:77:cd:6d:a9:cf:5c:c7:d8:91:71:54:89:
        11:40:18:8b:46:eb:4b:0f:30:72:6a:9a:d5:9c:66:d9:28:3f:
        11:1d:a4:9a:9c:1c:81:67:f6:8b:75:67:5f:9c:07:64:5c:8a:
        5d:74:c4:e3:71:ca:bf:60:d2:dd:c4:e2:81:00:cb:6f:90:21:
        bf:65:1d:82:f7:5d:42:36:72:5e:76:e6:56:b1:da:0d:4b:c7:
        8d:c1:4e:5d:ef:7c:a3:14:9e:73:2e:d1:e8:c1:05:2c:78:24:
        f2:e1
-----BEGIN CERTIFICATE-----
MIICvDCCAiUCCQCbJ9fo0boIVzANBgkqhkiG9w0BAQQFADCBlTELMAkGA1UEBhMC
REUxETAPBgNVBAgTCFNhYXJsYW5kMRAwDgYDVQQKEwdNUEktU1dTMSIwIAYDVQQL
ExlEaXN0cmlidXRlZCBTeXN0ZW1zIEdyb3VwMRowGAYDVQQDExFBbmRyZWFzIEhh
ZWJlcmxlbjEhMB8GCSqGSIb3DQEJARYSZGVtb2NhQG9jdGFyaW5lLmRlMB4XDTE1
MDQyMDIwNDcwMloXDTE2MDQxOTIwNDcwMlowga4xCzAJBgNVBAYTAkRFMREwDwYD
VQQIEwhTYWFybGFuZDEQMA4GA1UEChMHTVBJLVNXUzEiMCAGA1UECxMZRGlzdHJp
YnV0ZWQgU3lzdGVtcyBHcm91cDExMC8GA1UEAxMoZTNjZmM1MTFlZmNjOWM1OTQ4
MWE2Y2Y4ZGExZDQ1NDM5MTM2NzQ4NTEjMCEGCSqGSIb3DQEJARYUbm9kZTAxMjdA
b2N0YXJpbmUuZGUwgZ8wDQYJKoZIhvcNAQEBBQADgY0AMIGJAoGBAMN6+i4upvDl
61hQ92BantHHou+L0RqJJFfVJNEW4tWoLPqTaj+d4rOXiu6c5gBCxUmXXkXWEt9E
ClRkUzMLSRRwYDuxTbIYsI1+pdGbxmxG03ESDD3wGPa1dA/6fD2F6pvhCnH+pNj8
8G6KIF1ocaJHc1uc9gcNe1zMkPSeMV/tAgMBAAEwDQYJKoZIhvcNAQEEBQADgYEA
XzT57XljDd/abCBJLOhfQ4iYsHFuiYdZd81tqc9cx9iRcVSJEUAYi0brSw8wcmqa
1Zxm2Sg/ER2kmpwcgWf2i3VnX5wHZFyKXXTE43HKv2DS3cTigQDLb5Ahv2Udgvdd
QjZyXnbmVrHaDUvHjcFOXe98oxSecy7R6MEFLHgk8uE=
-----END CERTIFICATE-----
