Certificate:
    Data:
        Version: 1 (0x0)
        Serial Number:
            9b:27:d7:e8:d1:ba:08:2d
        Signature Algorithm: md5WithRSAEncryption
        Issuer: C=DE, ST=Saarland, O=MPI-SWS, OU=Distributed Systems Group, CN=Andreas Haeberlen/emailAddress=democa@octarine.de
        Validity
            Not Before: Apr 20 20:47:00 2015 GMT
            Not After : Apr 19 20:47:00 2016 GMT
        Subject: C=DE, ST=Saarland, O=MPI-SWS, OU=Distributed Systems Group, CN=558f1d7d21c834ac1ab99523ce35540ba9ab6299/emailAddress=node0085@octarine.de
        Subject Public Key Info:
            Public Key Algorithm: rsaEncryption
            RSA Public Key: (1024 bit)
                Modulus (1024 bit):
                    00:9d:b4:61:5b:d0:35:e4:ec:41:2d:1a:82:66:f4:
                    ae:58:4f:b2:f4:5e:52:81:ba:10:65:98:44:24:d3:
                    b5:71:b6:94:94:23:7e:dd:29:19:ae:b4:38:15:4a:
                    be:29:fd:4b:2c:0d:77:c3:fc:6d:ee:07:2c:0b:6b:
                    6e:53:0c:d2:41:d4:9a:ba:59:e9:e0:f4:28:28:08:
                    d4:20:2c:f1:ed:bb:3b:ee:4d:7b:1d:35:a5:70:12:
                    cb:0e:20:fd:79:cc:66:1a:f6:b9:c5:5b:8a:8f:11:
                    09:b1:95:58:82:b5:3e:8e:a2:7a:0c:d7:43:de:51:
                    d2:2e:d3:b4:7c:ff:29:31:29
                Exponent: 65537 (0x10001)
    Signature Algorithm: md5WithRSAEncryption
        89:e0:6f:1d:77:a7:d3:86:3d:2a:12:e5:0f:4a:34:2a:e0:6e:
        a9:0e:d8:cc:ac:c0:cb:21:6a:d1:d0:94:1b:d7:eb:41:cc:14:
        70:12:d7:e9:c4:dc:56:f6:01:2f:2f:8c:df:6e:80:3a:73:d0:
        ec:32:ee:82:20:a4:ce:b6:d1:42:fa:7a:65:a5:ce:0b:bc:7e:
        8f:e5:bb:91:7e:a0:a9:ca:75:3e:ad:42:90:6c:23:87:cf:2d:
        3b:9e:c0:74:d3:f9:f1:71:a5:70:a4:bc:ad:cb:3c:17:bc:f5:
        15:b8:a4:40:54:53:c7:7c:f6:81:01:84:39:72:5d:a6:cf:db:
        51:89
-----BEGIN CERTIFICATE-----
MIICvDCCAiUCCQCbJ9fo0boILTANBgkqhkiG9w0BAQQFADCBlTELMAkGA1UEBhMC
REUxETAPBgNVBAgTCFNhYXJsYW5kMRAwDgYDVQQKEwdNUEktU1dTMSIwIAYDVQQL
ExlEaXN0cmlidXRlZCBTeXN0ZW1zIEdyb3VwMRowGAYDVQQDExFBbmRyZWFzIEhh
ZWJlcmxlbjEhMB8GCSqGSIb3DQEJARYSZGVtb2NhQG9jdGFyaW5lLmRlMB4XDTE1
MDQyMDIwNDcwMFoXDTE2MDQxOTIwNDcwMFowga4xCzAJBgNVBAYTAkRFMREwDwYD
VQQIEwhTYWFybGFuZDEQMA4GA1UEChMHTVBJLVNXUzEiMCAGA1UECxMZRGlzdHJp
YnV0ZWQgU3lzdGVtcyBHcm91cDExMC8GA1UEAxMoNTU4ZjFkN2QyMWM4MzRhYzFh
Yjk5NTIzY2UzNTU0MGJhOWFiNjI5OTEjMCEGCSqGSIb3DQEJARYUbm9kZTAwODVA
b2N0YXJpbmUuZGUwgZ8wDQYJKoZIhvcNAQEBBQADgY0AMIGJAoGBAJ20YVvQNeTs
QS0agmb0rlhPsvReUoG6EGWYRCTTtXG2lJQjft0pGa60OBVKvin9SywNd8P8be4H
LAtrblMM0kHUmrpZ6eD0KCgI1CAs8e27O+5Nex01pXASyw4g/XnMZhr2ucVbio8R
CbGVWIK1Po6iegzXQ95R0i7TtHz/KTEpAgMBAAEwDQYJKoZIhvcNAQEEBQADgYEA
ieBvHXen04Y9KhLlD0o0KuBuqQ7YzKzAyyFq0dCUG9frQcwUcBLX6cTcVvYBLy+M
326AOnPQ7DLugiCkzrbRQvp6ZaXOC7x+j+W7kX6gqcp1Pq1CkGwjh88tO57AdNP5
8XGlcKS8rcs8F7z1FbikQFRTx3z2gQGEOXJdps/bUYk=
-----END CERTIFICATE-----
