Certificate:
    Data:
        Version: 1 (0x0)
        Serial Number:
            9b:27:d7:e8:d1:ba:08:1c
        Signature Algorithm: md5WithRSAEncryption
        Issuer: C=DE, ST=Saarland, O=MPI-SWS, OU=Distributed Systems Group, CN=Andreas Haeberlen/emailAddress=democa@octarine.de
        Validity
            Not Before: Apr 20 20:47:00 2015 GMT
            Not After : Apr 19 20:47:00 2016 GMT
        Subject: C=DE, ST=Saarland, O=MPI-SWS, OU=Distributed Systems Group, CN=5483a3d71772a6b93b3c0be5801455ab92e46cc7/emailAddress=node0068@octarine.de
        Subject Public Key Info:
            Public Key Algorithm: rsaEncryption
            RSA Public Key: (1024 bit)
                Modulus (1024 bit):
                    00:e2:9f:61:e0:5b:a0:9d:95:45:66:ff:36:78:b3:
                    74:39:82:f2:f3:b5:af:c4:aa:23:07:ee:ff:98:f3:
                    5e:e0:c4:b6:da:8c:6f:64:8a:a7:63:88:ab:f3:7f:
                    24:d2:b9:60:6b:1c:61:bb:7c:82:1b:78:78:77:04:
                    39:b8:00:08:6f:75:93:1d:c2:60:8b:14:4c:78:6d:
                    30:4b:1e:34:77:bf:c1:21:be:4d:af:68:ae:6e:1a:
                    c2:f6:e4:67:8a:78:11:bc:75:58:41:4e:ed:f6:6b:
                    d6:ab:57:40:b5:1d:6e:6e:32:01:3b:91:86:fd:33:
                    cf:e6:7c:77:73:3f:93:80:af
                Exponent: 65537 (0x10001)
    Signature Algorithm: md5WithRSAEncryption
        b2:42:22:59:9b:c8:2c:8b:e7:5c:7c:6e:f2:ba:fb:d4:b5:a5:
        f8:b2:f6:53:74:61:d2:01:30:07:17:b4:ec:71:17:85:a9:ca:
        44:0c:8a:04:0c:7b:90:d3:34:45:68:0e:f3:c1:fe:7f:f4:b5:
        f5:44:b4:a7:73:da:b7:b5:91:42:22:22:3c:f0:3c:27:65:a5:
        d8:41:7d:b6:1a:40:e9:a5:b3:16:16:b6:7f:04:0e:d8:68:29:
        4a:cd:e7:01:c6:4f:1e:b2:85:49:ab:32:34:bb:fc:03:e7:59:
        7e:ed:59:8d:b5:6f:16:15:58:1b:ae:87:fc:d8:63:3b:7b:be:
        72:0a
-----BEGIN CERTIFICATE-----
MIICvDCCAiUCCQCbJ9fo0boIHDANBgkqhkiG9w0BAQQFADCBlTELMAkGA1UEBhMC
REUxETAPBgNVBAgTCFNhYXJsYW5kMRAwDgYDVQQKEwdNUEktU1dTMSIwIAYDVQQL
ExlEaXN0cmlidXRlZCBTeXN0ZW1zIEdyb3VwMRowGAYDVQQDExFBbmRyZWFzIEhh
ZWJlcmxlbjEhMB8GCSqGSIb3DQEJARYSZGVtb2NhQG9jdGFyaW5lLmRlMB4XDTE1
MDQyMDIwNDcwMFoXDTE2MDQxOTIwNDcwMFowga4xCzAJBgNVBAYTAkRFMREwDwYD
VQQIEwhTYWFybGFuZDEQMA4GA1UEChMHTVBJLVNXUzEiMCAGA1UECxMZRGlzdHJp
YnV0ZWQgU3lzdGVtcyBHcm91cDExMC8GA1UEAxMoNTQ4M2EzZDcxNzcyYTZiOTNi
M2MwYmU1ODAxNDU1YWI5MmU0NmNjNzEjMCEGCSqGSIb3DQEJARYUbm9kZTAwNjhA
b2N0YXJpbmUuZGUwgZ8wDQYJKoZIhvcNAQEBBQADgY0AMIGJAoGBAOKfYeBboJ2V
RWb/NnizdDmC8vO1r8SqIwfu/5jzXuDEttqMb2SKp2OIq/N/JNK5YGscYbt8ght4
eHcEObgACG91kx3CYIsUTHhtMEseNHe/wSG+Ta9orm4awvbkZ4p4Ebx1WEFO7fZr
1qtXQLUdbm4yATuRhv0zz+Z8d3M/k4CvAgMBAAEwDQYJKoZIhvcNAQEEBQADgYEA
skIiWZvILIvnXHxu8rr71LWl+LL2U3Rh0gEwBxe07HEXhanKRAyKBAx7kNM0RWgO
88H+f/S19US0p3Pat7WRQiIiPPA8J2Wl2EF9thpA6aWzFha2fwQO2GgpSs3nAcZP
HrKFSasyNLv8A+dZfu1ZjbVvFhVYG66H/NhjO3u+cgo=
-----END CERTIFICATE-----
