Certificate:
    Data:
        Version: 1 (0x0)
        Serial Number:
            9b:27:d7:e8:d1:ba:08:50
        Signature Algorithm: md5WithRSAEncryption
        Issuer: C=DE, ST=Saarland, O=MPI-SWS, OU=Distributed Systems Group, CN=Andreas Haeberlen/emailAddress=democa@octarine.de
        Validity
            Not Before: Apr 20 20:47:02 2015 GMT
            Not After : Apr 19 20:47:02 2016 GMT
        Subject: C=DE, ST=Saarland, O=MPI-SWS, OU=Distributed Systems Group, CN=5dcc586c18fbd80f92e2c4af334188ae67abf181/emailAddress=node0120@octarine.de
        Subject Public Key Info:
            Public Key Algorithm: rsaEncryption
            RSA Public Key: (1024 bit)
                Modulus (1024 bit):
                    00:c9:c1:3f:e0:de:06:10:3c:f8:3b:66:20:e8:ea:
                    bf:1b:db:f1:8c:ff:a6:65:3b:b3:a7:a5:1a:90:f1:
                    7d:a0:59:a3:a7:31:11:d1:ad:e9:31:51:98:ce:83:
                    dd:70:a1:29:72:d6:e7:ee:29:ff:87:da:fe:40:5b:
                    85:09:c9:33:49:3b:d3:16:f3:fe:c7:95:71:e0:99:
                    b9:d4:70:db:38:1e:56:2f:79:b3:d3:34:61:15:f6:
                    62:93:91:5a:fa:3b:4b:fd:1b:1b:03:02:e8:61:75:
                    fb:44:41:5e:07:4f:8c:2c:84:a8:84:42:32:88:a2:
                    ef:96:35:c7:d3:39:75:e5:37
                Exponent: 65537 (0x10001)
    Signature Algorithm: md5WithRSAEncryption
        79:a9:46:4b:b1:18:4a:fb:fe:99:93:ce:52:37:46:15:56:53:
        d8:a8:c1:59:95:b9:18:55:a7:27:c4:96:cb:4f:de:a1:a9:7c:
        21:21:cb:96:3d:37:56:a0:c2:80:89:7d:9f:fd:92:38:ed:10:
        0a:9e:b0:89:6b:59:6e:92:22:43:bc:f3:d9:04:61:11:0b:e4:
        b3:e5:c0:ec:d9:76:63:5f:14:37:ed:fa:36:89:fe:df:cb:67:
        4a:ed:28:af:9f:c6:39:4e:7b:41:28:a0:46:77:c3:d7:80:d7:
        06:e8:3d:2f:74:d2:59:79:9e:90:4d:df:c5:cb:ac:15:b6:e2:
        14:08
-----BEGIN CERTIFICATE-----
MIICvDCCAiUCCQCbJ9fo0boIUDANBgkqhkiG9w0BAQQFADCBlTELMAkGA1UEBhMC
REUxETAPBgNVBAgTCFNhYXJsYW5kMRAwDgYDVQQKEwdNUEktU1dTMSIwIAYDVQQL
ExlEaXN0cmlidXRlZCBTeXN0ZW1zIEdyb3VwMRowGAYDVQQDExFBbmRyZWFzIEhh
ZWJlcmxlbjEhMB8GCSqGSIb3DQEJARYSZGVtb2NhQG9jdGFyaW5lLmRlMB4XDTE1
MDQyMDIwNDcwMloXDTE2MDQxOTIwNDcwMlowga4xCzAJBgNVBAYTAkRFMREwDwYD
VQQIEwhTYWFybGFuZDEQMA4GA1UEChMHTVBJLVNXUzEiMCAGA1UECxMZRGlzdHJp
YnV0ZWQgU3lzdGVtcyBHcm91cDExMC8GA1UEAxMoNWRjYzU4NmMxOGZiZDgwZjky
ZTJjNGFmMzM0MTg4YWU2N2FiZjE4MTEjMCEGCSqGSIb3DQEJARYUbm9kZTAxMjBA
b2N0YXJpbmUuZGUwgZ8wDQYJKoZIhvcNAQEBBQADgY0AMIGJAoGBAMnBP+DeBhA8
+DtmIOjqvxvb8Yz/pmU7s6elGpDxfaBZo6cxEdGt6TFRmM6D3XChKXLW5+4p/4fa
/kBbhQnJM0k70xbz/seVceCZudRw2zgeVi95s9M0YRX2YpORWvo7S/0bGwMC6GF1
+0RBXgdPjCyEqIRCMoii75Y1x9M5deU3AgMBAAEwDQYJKoZIhvcNAQEEBQADgYEA
ealGS7EYSvv+mZPOUjdGFVZT2KjBWZW5GFWnJ8SWy0/eoal8ISHLlj03VqDCgIl9
n/2SOO0QCp6wiWtZbpIiQ7zz2QRhEQvks+XA7Nl2Y18UN+36Non+38tnSu0or5/G
OU57QSigRnfD14DXBug9L3TSWXmekE3fxcusFbbiFAg=
-----END CERTIFICATE-----
