Certificate:
    Data:
        Version: 1 (0x0)
        Serial Number:
            9b:27:d7:e8:d1:ba:0a:b7
        Signature Algorithm: md5WithRSAEncryption
        Issuer: C=DE, ST=Saarland, O=MPI-SWS, OU=Distributed Systems Group, CN=Andreas Haeberlen/emailAddress=democa@octarine.de
        Validity
            Not Before: Apr 20 20:47:29 2015 GMT
            Not After : Apr 19 20:47:29 2016 GMT
        Subject: C=DE, ST=Saarland, O=MPI-SWS, OU=Distributed Systems Group, CN=679fca284ae194502084b602cf8fed654041b790/emailAddress=node0735@octarine.de
        Subject Public Key Info:
            Public Key Algorithm: rsaEncryption
            RSA Public Key: (1024 bit)
                Modulus (1024 bit):
                    00:ac:3b:48:6b:52:f3:0d:a5:15:b5:61:64:32:c8:
                    66:71:32:a7:37:f7:03:5e:d8:76:b2:bd:d0:f1:e7:
                    be:58:42:aa:7b:9b:2f:22:82:71:ec:9f:b2:d5:65:
                    e2:de:f1:89:ed:28:2d:11:d4:64:40:0b:e9:33:65:
                    c6:a2:60:f6:83:18:5f:40:47:7f:b4:ac:0c:30:9b:
                    84:50:12:2f:09:1d:13:a3:a6:ac:0f:f7:e5:3d:80:
                    22:18:42:5e:43:b9:0e:b5:54:1f:e6:ea:07:9c:4e:
                    e7:dd:df:de:e3:d2:da:1a:36:9f:20:6f:58:4e:fc:
                    62:06:89:fc:b3:e5:ca:2c:f3
                Exponent: 65537 (0x10001)
    Signature Algorithm: md5WithRSAEncryption
        87:a4:7c:ec:a8:1d:1a:95:6f:54:54:bf:bc:fa:9a:f2:1f:03:
        b0:c3:b1:77:cd:b4:80:1d:4c:fb:4b:c5:17:ea:0d:28:c3:6c:
        4b:4c:37:fa:c5:94:cc:e2:0b:b1:08:0c:e3:bb:45:0c:2e:87:
        10:11:28:ec:77:a7:f7:76:c8:ac:e6:e4:bb:3b:af:fa:41:8e:
        a0:71:95:91:b5:96:c9:9b:95:1d:ec:5b:4c:fc:c0:29:c1:50:
        2a:67:f8:e2:70:b3:8f:86:db:a8:8d:fa:a7:03:df:9c:11:35:
        8c:76:8c:ea:35:59:09:76:ba:cb:b9:80:3b:fd:d2:61:ac:12:
        af:e8
-----BEGIN CERTIFICATE-----
MIICvDCCAiUCCQCbJ9fo0boKtzANBgkqhkiG9w0BAQQFADCBlTELMAkGA1UEBhMC
REUxETAPBgNVBAgTCFNhYXJsYW5kMRAwDgYDVQQKEwdNUEktU1dTMSIwIAYDVQQL
ExlEaXN0cmlidXRlZCBTeXN0ZW1zIEdyb3VwMRowGAYDVQQDExFBbmRyZWFzIEhh
ZWJlcmxlbjEhMB8GCSqGSIb3DQEJARYSZGVtb2NhQG9jdGFyaW5lLmRlMB4XDTE1
MDQyMDIwNDcyOVoXDTE2MDQxOTIwNDcyOVowga4xCzAJBgNVBAYTAkRFMREwDwYD
VQQIEwhTYWFybGFuZDEQMA4GA1UEChMHTVBJLVNXUzEiMCAGA1UECxMZRGlzdHJp
YnV0ZWQgU3lzdGVtcyBHcm91cDExMC8GA1UEAxMoNjc5ZmNhMjg0YWUxOTQ1MDIw
ODRiNjAyY2Y4ZmVkNjU0MDQxYjc5MDEjMCEGCSqGSIb3DQEJARYUbm9kZTA3MzVA
b2N0YXJpbmUuZGUwgZ8wDQYJKoZIhvcNAQEBBQADgY0AMIGJAoGBAKw7SGtS8w2l
FbVhZDLIZnEypzf3A17YdrK90PHnvlhCqnubLyKCceyfstVl4t7xie0oLRHUZEAL
6TNlxqJg9oMYX0BHf7SsDDCbhFASLwkdE6OmrA/35T2AIhhCXkO5DrVUH+bqB5xO
593f3uPS2ho2nyBvWE78YgaJ/LPlyizzAgMBAAEwDQYJKoZIhvcNAQEEBQADgYEA
h6R87KgdGpVvVFS/vPqa8h8DsMOxd820gB1M+0vFF+oNKMNsS0w3+sWUzOILsQgM
47tFDC6HEBEo7Hen93bIrObkuzuv+kGOoHGVkbWWyZuVHexbTPzAKcFQKmf44nCz
j4bbqI36pwPfnBE1jHaM6jVZCXa6y7mAO/3SYawSr+g=
-----END CERTIFICATE-----
