Certificate:
    Data:
        Version: 1 (0x0)
        Serial Number:
            9b:27:d7:e8:d1:ba:0a:19
        Signature Algorithm: md5WithRSAEncryption
        Issuer: C=DE, ST=Saarland, O=MPI-SWS, OU=Distributed Systems Group, CN=Andreas Haeberlen/emailAddress=democa@octarine.de
        Validity
            Not Before: Apr 20 20:47:22 2015 GMT
            Not After : Apr 19 20:47:22 2016 GMT
        Subject: C=DE, ST=Saarland, O=MPI-SWS, OU=Distributed Systems Group, CN=3c0e2b02f5c9d78224be1073f29c4a486479f7cf/emailAddress=node0577@octarine.de
        Subject Public Key Info:
            Public Key Algorithm: rsaEncryption
            RSA Public Key: (1024 bit)
                Modulus (1024 bit):
                    00:b9:0c:af:bf:ed:29:99:4b:c7:85:15:62:a8:c2:
                    83:86:f1:c2:f8:1f:6d:04:25:2e:2b:8c:73:cb:57:
                    9d:a3:36:da:cb:f1:e4:a0:44:26:73:4a:b0:e9:30:
                    ae:5f:59:b2:34:8e:0b:e7:3e:ee:31:49:5a:04:22:
                    d7:cb:5e:ff:dd:eb:1d:06:f4:04:05:1e:33:77:2e:
                    43:1a:f0:05:d6:6f:92:24:fa:8b:4e:86:9d:55:36:
                    69:df:36:13:cf:37:2e:1a:ad:79:cd:a3:cc:5f:52:
                    89:ca:5b:61:c9:32:1f:32:c6:da:3b:72:de:fa:07:
                    8e:43:4d:58:1c:30:c3:98:23
                Exponent: 65537 (0x10001)
    Signature Algorithm: md5WithRSAEncryption
        1a:b6:f7:06:74:98:80:bb:c8:87:c7:d1:13:a8:b1:a7:04:f2:
        4a:f2:46:bd:37:c6:e3:45:e5:d4:dc:17:c6:ac:00:65:9e:9e:
        26:69:32:52:6e:31:38:0f:39:d4:f7:cf:8e:96:bb:f4:35:5b:
        be:17:ae:3f:84:93:f6:32:4a:7b:4b:be:25:c4:f2:73:7a:0c:
        21:ef:b8:11:f2:11:90:79:8a:81:73:b2:ab:7b:fa:2b:1a:ee:
        f5:b4:8d:bb:72:ad:22:76:ee:51:61:cb:1e:08:9d:bf:0a:9a:
        98:43:ed:d7:6d:57:bf:dc:52:92:af:82:34:86:62:a4:fc:8f:
        7e:3f
-----BEGIN CERTIFICATE-----
MIICvDCCAiUCCQCbJ9fo0boKGTANBgkqhkiG9w0BAQQFADCBlTELMAkGA1UEBhMC
REUxETAPBgNVBAgTCFNhYXJsYW5kMRAwDgYDVQQKEwdNUEktU1dTMSIwIAYDVQQL
ExlEaXN0cmlidXRlZCBTeXN0ZW1zIEdyb3VwMRowGAYDVQQDExFBbmRyZWFzIEhh
ZWJlcmxlbjEhMB8GCSqGSIb3DQEJARYSZGVtb2NhQG9jdGFyaW5lLmRlMB4XDTE1
MDQyMDIwNDcyMloXDTE2MDQxOTIwNDcyMlowga4xCzAJBgNVBAYTAkRFMREwDwYD
VQQIEwhTYWFybGFuZDEQMA4GA1UEChMHTVBJLVNXUzEiMCAGA1UECxMZRGlzdHJp
YnV0ZWQgU3lzdGVtcyBHcm91cDExMC8GA1UEAxMoM2MwZTJiMDJmNWM5ZDc4MjI0
YmUxMDczZjI5YzRhNDg2NDc5ZjdjZjEjMCEGCSqGSIb3DQEJARYUbm9kZTA1NzdA
b2N0YXJpbmUuZGUwgZ8wDQYJKoZIhvcNAQEBBQADgY0AMIGJAoGBALkMr7/tKZlL
x4UVYqjCg4bxwvgfbQQlLiuMc8tXnaM22svx5KBEJnNKsOkwrl9ZsjSOC+c+7jFJ
WgQi18te/93rHQb0BAUeM3cuQxrwBdZvkiT6i06GnVU2ad82E883Lhqtec2jzF9S
icpbYckyHzLG2jty3voHjkNNWBwww5gjAgMBAAEwDQYJKoZIhvcNAQEEBQADgYEA
Grb3BnSYgLvIh8fRE6ixpwTySvJGvTfG40Xl1NwXxqwAZZ6eJmkyUm4xOA851PfP
jpa79DVbvheuP4ST9jJKe0u+JcTyc3oMIe+4EfIRkHmKgXOyq3v6Kxru9bSNu3Kt
InbuUWHLHgidvwqamEPt121Xv9xSkq+CNIZipPyPfj8=
-----END CERTIFICATE-----
