Certificate:
    Data:
        Version: 1 (0x0)
        Serial Number:
            9b:27:d7:e8:d1:ba:0b:1b
        Signature Algorithm: md5WithRSAEncryption
        Issuer: C=DE, ST=Saarland, O=MPI-SWS, OU=Distributed Systems Group, CN=Andreas Haeberlen/emailAddress=democa@octarine.de
        Validity
            Not Before: Apr 20 20:47:34 2015 GMT
            Not After : Apr 19 20:47:34 2016 GMT
        Subject: C=DE, ST=Saarland, O=MPI-SWS, OU=Distributed Systems Group, CN=fd3fde26bca89ab033bce2ce661027225522359f/emailAddress=node0835@octarine.de
        Subject Public Key Info:
            Public Key Algorithm: rsaEncryption
            RSA Public Key: (1024 bit)
                Modulus (1024 bit):
                    00:ab:b4:4e:26:dc:6d:ac:28:7e:ef:1a:68:fc:c8:
                    3b:7e:27:50:77:a1:4d:fe:a9:ed:27:27:e2:c1:cc:
                    81:f3:ec:a2:9b:68:e4:d3:fc:5e:4e:45:8d:da:fa:
                    7d:3e:32:3a:6e:e3:c0:cc:77:fc:d9:ee:a4:21:ca:
                    87:27:7e:fd:ef:71:b2:1f:df:34:69:d7:ce:41:e3:
                    1c:b7:3b:74:cd:53:c0:c1:9f:1b:0b:1f:08:23:38:
                    9e:71:c3:90:9b:1b:37:e9:07:55:80:e0:d0:0d:ec:
                    17:d0:96:5a:31:7b:5f:4e:11:ea:12:9b:e5:b9:4f:
                    62:fb:c1:c0:63:00:4e:d5:53
                Exponent: 65537 (0x10001)
    Signature Algorithm: md5WithRSAEncryption
        07:1d:fc:4d:ff:da:63:da:18:35:e5:6a:21:fd:ee:70:0a:7e:
        35:39:48:23:12:c3:0f:be:a5:47:5d:87:73:ee:e9:28:31:87:
        da:ff:ab:78:df:a4:1b:2e:76:3d:e6:c1:5f:c5:ce:08:69:2f:
        fd:97:55:a1:c7:2a:a3:73:3c:3f:79:51:89:6a:c0:cf:66:3c:
        14:ca:47:84:e8:95:a0:af:83:0a:b2:1c:a2:d9:41:d7:7c:86:
        2f:75:84:73:96:4e:03:87:12:28:47:71:1f:31:6a:de:80:b9:
        ba:b5:88:72:87:f2:d7:ae:36:b9:f1:73:35:81:ca:25:ec:ab:
        10:d6
-----BEGIN CERTIFICATE-----
MIICvDCCAiUCCQCbJ9fo0boLGzANBgkqhkiG9w0BAQQFADCBlTELMAkGA1UEBhMC
REUxETAPBgNVBAgTCFNhYXJsYW5kMRAwDgYDVQQKEwdNUEktU1dTMSIwIAYDVQQL
ExlEaXN0cmlidXRlZCBTeXN0ZW1zIEdyb3VwMRowGAYDVQQDExFBbmRyZWFzIEhh
ZWJlcmxlbjEhMB8GCSqGSIb3DQEJARYSZGVtb2NhQG9jdGFyaW5lLmRlMB4XDTE1
MDQyMDIwNDczNFoXDTE2MDQxOTIwNDczNFowga4xCzAJBgNVBAYTAkRFMREwDwYD
VQQIEwhTYWFybGFuZDEQMA4GA1UEChMHTVBJLVNXUzEiMCAGA1UECxMZRGlzdHJp
YnV0ZWQgU3lzdGVtcyBHcm91cDExMC8GA1UEAxMoZmQzZmRlMjZiY2E4OWFiMDMz
YmNlMmNlNjYxMDI3MjI1NTIyMzU5ZjEjMCEGCSqGSIb3DQEJARYUbm9kZTA4MzVA
b2N0YXJpbmUuZGUwgZ8wDQYJKoZIhvcNAQEBBQADgY0AMIGJAoGBAKu0Tibcbawo
fu8aaPzIO34nUHehTf6p7Scn4sHMgfPsopto5NP8Xk5Fjdr6fT4yOm7jwMx3/Nnu
pCHKhyd+/e9xsh/fNGnXzkHjHLc7dM1TwMGfGwsfCCM4nnHDkJsbN+kHVYDg0A3s
F9CWWjF7X04R6hKb5blPYvvBwGMATtVTAgMBAAEwDQYJKoZIhvcNAQEEBQADgYEA
Bx38Tf/aY9oYNeVqIf3ucAp+NTlIIxLDD76lR12Hc+7pKDGH2v+reN+kGy52PebB
X8XOCGkv/ZdVoccqo3M8P3lRiWrAz2Y8FMpHhOiVoK+DCrIcotlB13yGL3WEc5ZO
A4cSKEdxHzFq3oC5urWIcofy1642ufFzNYHKJeyrENY=
-----END CERTIFICATE-----
