Certificate:
    Data:
        Version: 1 (0x0)
        Serial Number:
            9b:27:d7:e8:d1:ba:0b:a8
        Signature Algorithm: md5WithRSAEncryption
        Issuer: C=DE, ST=Saarland, O=MPI-SWS, OU=Distributed Systems Group, CN=Andreas Haeberlen/emailAddress=democa@octarine.de
        Validity
            Not Before: Apr 20 20:47:40 2015 GMT
            Not After : Apr 19 20:47:40 2016 GMT
        Subject: C=DE, ST=Saarland, O=MPI-SWS, OU=Distributed Systems Group, CN=9a2d49d2a42edf01ec1b2d7728a34a5e48b818bc/emailAddress=node0976@octarine.de
        Subject Public Key Info:
            Public Key Algorithm: rsaEncryption
            RSA Public Key: (1024 bit)
                Modulus (1024 bit):
                    00:b6:43:b6:35:01:41:5f:f4:12:ca:00:f9:b8:82:
                    38:67:4a:2f:ab:6a:73:f4:c1:24:b2:20:35:b0:1f:
                    10:59:ed:a9:ba:fc:fa:af:3e:16:7e:55:e0:98:55:
                    2d:a6:39:f6:94:92:1d:84:42:83:ff:26:56:13:83:
                    7f:7a:73:b4:d0:af:65:01:fa:c8:9a:5a:14:89:1e:
                    3d:81:41:26:4b:47:68:a1:64:46:84:07:98:a0:10:
                    4d:a6:98:ea:f5:fb:6d:bc:68:db:36:4a:aa:81:49:
                    37:87:20:3a:de:a0:13:a3:c9:f3:b1:39:c0:63:59:
                    b9:e5:57:0d:25:f8:34:85:2f
                Exponent: 65537 (0x10001)
    Signature Algorithm: md5WithRSAEncryption
        3f:2a:03:c8:7b:9a:a4:8d:5f:07:7d:e7:f1:96:e1:7b:6e:5b:
        0a:e1:a2:68:5c:51:4d:c0:ff:fc:ed:2c:42:4b:28:b3:b7:9d:
        50:34:e5:3e:89:56:55:92:76:d4:c0:aa:31:42:ee:17:89:2f:
        c9:98:ce:c0:d3:b9:07:0e:fd:82:cd:51:ae:b7:e4:4f:1a:ff:
        0d:0b:14:bc:fd:f1:82:35:d8:cd:e7:e2:4e:22:90:24:13:3b:
        7d:d5:d4:18:4b:b3:5b:51:49:30:85:8c:13:56:e7:d9:5e:0e:
        c4:4a:34:f7:5b:e3:4a:78:f8:9e:d5:0d:a5:96:3a:00:e9:14:
        ba:a2
-----BEGIN CERTIFICATE-----
MIICvDCCAiUCCQCbJ9fo0boLqDANBgkqhkiG9w0BAQQFADCBlTELMAkGA1UEBhMC
REUxETAPBgNVBAgTCFNhYXJsYW5kMRAwDgYDVQQKEwdNUEktU1dTMSIwIAYDVQQL
ExlEaXN0cmlidXRlZCBTeXN0ZW1zIEdyb3VwMRowGAYDVQQDExFBbmRyZWFzIEhh
ZWJlcmxlbjEhMB8GCSqGSIb3DQEJARYSZGVtb2NhQG9jdGFyaW5lLmRlMB4XDTE1
MDQyMDIwNDc0MFoXDTE2MDQxOTIwNDc0MFowga4xCzAJBgNVBAYTAkRFMREwDwYD
VQQIEwhTYWFybGFuZDEQMA4GA1UEChMHTVBJLVNXUzEiMCAGA1UECxMZRGlzdHJp
YnV0ZWQgU3lzdGVtcyBHcm91cDExMC8GA1UEAxMoOWEyZDQ5ZDJhNDJlZGYwMWVj
MWIyZDc3MjhhMzRhNWU0OGI4MThiYzEjMCEGCSqGSIb3DQEJARYUbm9kZTA5NzZA
b2N0YXJpbmUuZGUwgZ8wDQYJKoZIhvcNAQEBBQADgY0AMIGJAoGBALZDtjUBQV/0
EsoA+biCOGdKL6tqc/TBJLIgNbAfEFntqbr8+q8+Fn5V4JhVLaY59pSSHYRCg/8m
VhODf3pztNCvZQH6yJpaFIkePYFBJktHaKFkRoQHmKAQTaaY6vX7bbxo2zZKqoFJ
N4cgOt6gE6PJ87E5wGNZueVXDSX4NIUvAgMBAAEwDQYJKoZIhvcNAQEEBQADgYEA
PyoDyHuapI1fB33n8Zbhe25bCuGiaFxRTcD//O0sQksos7edUDTlPolWVZJ21MCq
MULuF4kvyZjOwNO5Bw79gs1RrrfkTxr/DQsUvP3xgjXYzefiTiKQJBM7fdXUGEuz
W1FJMIWME1bn2V4OxEo091vjSnj4ntUNpZY6AOkUuqI=
-----END CERTIFICATE-----
