Certificate:
    Data:
        Version: 1 (0x0)
        Serial Number:
            9b:27:d7:e8:d1:ba:08:54
        Signature Algorithm: md5WithRSAEncryption
        Issuer: C=DE, ST=Saarland, O=MPI-SWS, OU=Distributed Systems Group, CN=Andreas Haeberlen/emailAddress=democa@octarine.de
        Validity
            Not Before: Apr 20 20:47:02 2015 GMT
            Not After : Apr 19 20:47:02 2016 GMT
        Subject: C=DE, ST=Saarland, O=MPI-SWS, OU=Distributed Systems Group, CN=579e0b5cf80df76548b695a3212bf1848239d86d/emailAddress=node0124@octarine.de
        Subject Public Key Info:
            Public Key Algorithm: rsaEncryption
            RSA Public Key: (1024 bit)
                Modulus (1024 bit):
                    00:b4:33:01:6b:93:0d:48:18:59:f7:0d:82:5c:99:
                    82:9a:8f:91:c2:ed:90:d3:85:8f:d5:55:1c:73:90:
                    b4:f1:c0:39:64:58:7b:b7:db:4c:e2:cc:28:20:ca:
                    63:43:31:be:1a:cf:24:95:56:d3:ac:7f:c2:7c:43:
                    fa:c6:7e:19:65:de:66:06:04:70:a0:3f:3d:50:54:
                    f6:a1:4e:b5:3d:02:ac:3f:74:66:b4:de:75:0e:35:
                    96:ed:ca:4b:2b:94:3a:38:e0:69:28:92:bf:2b:24:
                    00:c8:ac:fd:0a:5c:01:f0:4e:63:fa:58:96:4c:37:
                    21:c9:db:87:87:9c:cd:1b:ed
                Exponent: 65537 (0x10001)
    Signature Algorithm: md5WithRSAEncryption
        07:de:76:de:fb:7f:bf:1c:4e:f3:7d:77:e1:29:de:19:f5:ed:
        63:0d:38:4d:13:f2:9a:3e:78:c3:03:ad:c3:0f:34:16:96:1e:
        f4:fa:b7:7e:02:d5:48:7d:88:28:85:16:d0:78:4b:87:6c:be:
        5d:59:5f:48:43:26:7e:ed:e3:91:41:ba:30:64:14:ca:72:c1:
        c1:10:6a:c0:c7:14:a3:e1:6f:6a:1a:2c:00:99:c3:0e:cc:3b:
        08:c4:ff:7c:f7:90:2a:6e:2b:d0:74:29:bc:f6:f5:c2:4f:c1:
        0a:49:11:82:66:da:7b:1a:10:71:f9:2a:76:27:12:bf:80:ac:
        aa:fc
-----BEGIN CERTIFICATE-----
MIICvDCCAiUCCQCbJ9fo0boIVDANBgkqhkiG9w0BAQQFADCBlTELMAkGA1UEBhMC
REUxETAPBgNVBAgTCFNhYXJsYW5kMRAwDgYDVQQKEwdNUEktU1dTMSIwIAYDVQQL
ExlEaXN0cmlidXRlZCBTeXN0ZW1zIEdyb3VwMRowGAYDVQQDExFBbmRyZWFzIEhh
ZWJlcmxlbjEhMB8GCSqGSIb3DQEJARYSZGVtb2NhQG9jdGFyaW5lLmRlMB4XDTE1
MDQyMDIwNDcwMloXDTE2MDQxOTIwNDcwMlowga4xCzAJBgNVBAYTAkRFMREwDwYD
VQQIEwhTYWFybGFuZDEQMA4GA1UEChMHTVBJLVNXUzEiMCAGA1UECxMZRGlzdHJp
YnV0ZWQgU3lzdGVtcyBHcm91cDExMC8GA1UEAxMoNTc5ZTBiNWNmODBkZjc2NTQ4
YjY5NWEzMjEyYmYxODQ4MjM5ZDg2ZDEjMCEGCSqGSIb3DQEJARYUbm9kZTAxMjRA
b2N0YXJpbmUuZGUwgZ8wDQYJKoZIhvcNAQEBBQADgY0AMIGJAoGBALQzAWuTDUgY
WfcNglyZgpqPkcLtkNOFj9VVHHOQtPHAOWRYe7fbTOLMKCDKY0MxvhrPJJVW06x/
wnxD+sZ+GWXeZgYEcKA/PVBU9qFOtT0CrD90ZrTedQ41lu3KSyuUOjjgaSiSvysk
AMis/QpcAfBOY/pYlkw3Icnbh4eczRvtAgMBAAEwDQYJKoZIhvcNAQEEBQADgYEA
B9523vt/vxxO83134SneGfXtYw04TRPymj54wwOtww80FpYe9Pq3fgLVSH2IKIUW
0HhLh2y+XVlfSEMmfu3jkUG6MGQUynLBwRBqwMcUo+FvahosAJnDDsw7CMT/fPeQ
Km4r0HQpvPb1wk/BCkkRgmbaexoQcfkqdicSv4Csqvw=
-----END CERTIFICATE-----
