Certificate:
    Data:
        Version: 1 (0x0)
        Serial Number:
            9b:27:d7:e8:d1:ba:0b:4c
        Signature Algorithm: md5WithRSAEncryption
        Issuer: C=DE, ST=Saarland, O=MPI-SWS, OU=Distributed Systems Group, CN=Andreas Haeberlen/emailAddress=democa@octarine.de
        Validity
            Not Before: Apr 20 20:47:36 2015 GMT
            Not After : Apr 19 20:47:36 2016 GMT
        Subject: C=DE, ST=Saarland, O=MPI-SWS, OU=Distributed Systems Group, CN=aab9ade35d5963dd5a72ae74abaacc466f00de42/emailAddress=node0884@octarine.de
        Subject Public Key Info:
            Public Key Algorithm: rsaEncryption
            RSA Public Key: (1024 bit)
                Modulus (1024 bit):
                    00:bb:c1:53:05:29:67:53:a1:96:0e:7d:3a:c9:bd:
                    dd:6a:e6:a0:34:60:84:16:b6:87:b1:55:c3:37:91:
                    e0:52:c3:c4:a9:1b:58:9f:5d:09:07:24:c6:97:3d:
                    f2:58:ed:16:bd:50:e6:81:c2:c6:c2:40:25:95:9a:
                    59:0b:58:d5:cb:ea:02:1c:5c:c7:62:09:1d:cb:73:
                    ed:90:0e:51:99:d5:11:9e:d2:36:c5:29:ca:8d:ef:
                    b6:81:ed:b2:bf:ba:5e:54:f2:43:d8:05:8b:b8:44:
                    d1:cc:56:09:74:9b:6f:1e:3b:c0:0d:93:92:1a:d2:
                    43:9f:e9:9c:81:8c:0e:2b:9b
                Exponent: 65537 (0x10001)
    Signature Algorithm: md5WithRSAEncryption
        6c:62:15:92:e8:46:15:f0:dc:bf:e0:ab:28:c3:15:0f:0b:15:
        37:13:9d:51:ee:c6:c5:76:d6:60:3d:6f:3a:6d:18:3b:d9:39:
        72:ea:57:7b:4a:0e:2b:a4:a0:2c:67:7f:a5:01:35:cf:95:e5:
        b0:da:73:84:b5:29:87:82:9d:22:71:01:d8:44:82:4a:57:6e:
        c3:01:f8:0e:d7:bb:83:f8:9d:1c:ed:75:c4:0d:3f:9a:f1:e4:
        a8:2e:50:5c:0b:a6:74:29:74:4c:2c:d2:7e:69:32:8d:6f:47:
        6e:d5:c1:2a:b5:8c:bd:41:eb:92:37:86:bc:fa:de:71:48:bb:
        48:5d
-----BEGIN CERTIFICATE-----
MIICvDCCAiUCCQCbJ9fo0boLTDANBgkqhkiG9w0BAQQFADCBlTELMAkGA1UEBhMC
REUxETAPBgNVBAgTCFNhYXJsYW5kMRAwDgYDVQQKEwdNUEktU1dTMSIwIAYDVQQL
ExlEaXN0cmlidXRlZCBTeXN0ZW1zIEdyb3VwMRowGAYDVQQDExFBbmRyZWFzIEhh
ZWJlcmxlbjEhMB8GCSqGSIb3DQEJARYSZGVtb2NhQG9jdGFyaW5lLmRlMB4XDTE1
MDQyMDIwNDczNloXDTE2MDQxOTIwNDczNlowga4xCzAJBgNVBAYTAkRFMREwDwYD
VQQIEwhTYWFybGFuZDEQMA4GA1UEChMHTVBJLVNXUzEiMCAGA1UECxMZRGlzdHJp
YnV0ZWQgU3lzdGVtcyBHcm91cDExMC8GA1UEAxMoYWFiOWFkZTM1ZDU5NjNkZDVh
NzJhZTc0YWJhYWNjNDY2ZjAwZGU0MjEjMCEGCSqGSIb3DQEJARYUbm9kZTA4ODRA
b2N0YXJpbmUuZGUwgZ8wDQYJKoZIhvcNAQEBBQADgY0AMIGJAoGBALvBUwUpZ1Oh
lg59Osm93WrmoDRghBa2h7FVwzeR4FLDxKkbWJ9dCQckxpc98ljtFr1Q5oHCxsJA
JZWaWQtY1cvqAhxcx2IJHctz7ZAOUZnVEZ7SNsUpyo3vtoHtsr+6XlTyQ9gFi7hE
0cxWCXSbbx47wA2TkhrSQ5/pnIGMDiubAgMBAAEwDQYJKoZIhvcNAQEEBQADgYEA
bGIVkuhGFfDcv+CrKMMVDwsVNxOdUe7GxXbWYD1vOm0YO9k5cupXe0oOK6SgLGd/
pQE1z5XlsNpzhLUph4KdInEB2ESCSlduwwH4Dte7g/idHO11xA0/mvHkqC5QXAum
dCl0TCzSfmkyjW9HbtXBKrWMvUHrkjeGvPrecUi7SF0=
-----END CERTIFICATE-----
