Certificate:
    Data:
        Version: 1 (0x0)
        Serial Number:
            9b:27:d7:e8:d1:ba:07:e7
        Signature Algorithm: md5WithRSAEncryption
        Issuer: C=DE, ST=Saarland, O=MPI-SWS, OU=Distributed Systems Group, CN=Andreas Haeberlen/emailAddress=democa@octarine.de
        Validity
            Not Before: Apr 20 20:46:57 2015 GMT
            Not After : Apr 19 20:46:57 2016 GMT
        Subject: C=DE, ST=Saarland, O=MPI-SWS, OU=Distributed Systems Group, CN=0a8c7cb0fba8bdcf178b0b8302fe8e188a5f6105/emailAddress=node0015@octarine.de
        Subject Public Key Info:
            Public Key Algorithm: rsaEncryption
            RSA Public Key: (1024 bit)
                Modulus (1024 bit):
                    00:df:e8:fe:47:94:6b:45:ef:13:df:c9:dd:c2:ba:
                    28:88:81:b0:2f:f4:5f:ab:9b:8b:97:f2:06:18:d0:
                    00:ec:86:63:b2:08:bb:2e:5e:48:da:b5:91:67:af:
                    65:e6:93:b6:33:ac:aa:36:a1:e0:d3:fc:05:cc:b4:
                    03:bd:a2:d9:bd:19:aa:39:cc:2e:13:f7:bb:2d:0b:
                    6a:fd:41:70:57:0f:98:5e:5b:97:87:0a:8c:15:91:
                    45:41:c7:e2:bd:a0:5c:d8:48:dc:7c:58:2e:90:81:
                    a3:35:c3:46:bc:31:4c:70:f6:bd:02:57:ee:4f:30:
                    02:9e:34:eb:00:b7:69:4c:91
                Exponent: 65537 (0x10001)
    Signature Algorithm: md5WithRSAEncryption
        8d:d7:a6:ff:0e:7e:53:89:b4:f9:82:00:ee:4d:98:0a:f1:ac:
        71:08:14:e8:c5:5e:b6:36:75:85:fc:6c:c8:76:2b:33:e9:a4:
        b1:5a:7a:d9:01:00:aa:1c:22:32:2a:59:20:26:57:e1:70:71:
        44:cb:d6:71:79:5a:6b:9b:05:93:46:22:aa:4e:44:4f:00:4b:
        e6:32:0b:6f:09:d5:8b:8b:8d:9c:4a:be:78:e6:86:1f:47:05:
        f4:21:3d:a2:cb:fd:26:19:7f:26:78:78:cf:58:3e:29:e3:3a:
        22:f6:97:77:9d:41:32:77:5f:e6:dd:18:a7:ac:a5:a7:01:6d:
        0b:bb
-----BEGIN CERTIFICATE-----
MIICvDCCAiUCCQCbJ9fo0boH5zANBgkqhkiG9w0BAQQFADCBlTELMAkGA1UEBhMC
REUxETAPBgNVBAgTCFNhYXJsYW5kMRAwDgYDVQQKEwdNUEktU1dTMSIwIAYDVQQL
ExlEaXN0cmlidXRlZCBTeXN0ZW1zIEdyb3VwMRowGAYDVQQDExFBbmRyZWFzIEhh
ZWJlcmxlbjEhMB8GCSqGSIb3DQEJARYSZGVtb2NhQG9jdGFyaW5lLmRlMB4XDTE1
MDQyMDIwNDY1N1oXDTE2MDQxOTIwNDY1N1owga4xCzAJBgNVBAYTAkRFMREwDwYD
VQQIEwhTYWFybGFuZDEQMA4GA1UEChMHTVBJLVNXUzEiMCAGA1UECxMZRGlzdHJp
YnV0ZWQgU3lzdGVtcyBHcm91cDExMC8GA1UEAxMoMGE4YzdjYjBmYmE4YmRjZjE3
OGIwYjgzMDJmZThlMTg4YTVmNjEwNTEjMCEGCSqGSIb3DQEJARYUbm9kZTAwMTVA
b2N0YXJpbmUuZGUwgZ8wDQYJKoZIhvcNAQEBBQADgY0AMIGJAoGBAN/o/keUa0Xv
E9/J3cK6KIiBsC/0X6ubi5fyBhjQAOyGY7IIuy5eSNq1kWevZeaTtjOsqjah4NP8
Bcy0A72i2b0ZqjnMLhP3uy0Lav1BcFcPmF5bl4cKjBWRRUHH4r2gXNhI3HxYLpCB
ozXDRrwxTHD2vQJX7k8wAp406wC3aUyRAgMBAAEwDQYJKoZIhvcNAQEEBQADgYEA
jdem/w5+U4m0+YIA7k2YCvGscQgU6MVetjZ1hfxsyHYrM+mksVp62QEAqhwiMipZ
ICZX4XBxRMvWcXlaa5sFk0Yiqk5ETwBL5jILbwnVi4uNnEq+eOaGH0cF9CE9osv9
Jhl/Jnh4z1g+KeM6IvaXd51BMndf5t0Yp6ylpwFtC7s=
-----END CERTIFICATE-----
