Certificate:
    Data:
        Version: 1 (0x0)
        Serial Number:
            9b:27:d7:e8:d1:ba:0a:4e
        Signature Algorithm: md5WithRSAEncryption
        Issuer: C=DE, ST=Saarland, O=MPI-SWS, OU=Distributed Systems Group, CN=Andreas Haeberlen/emailAddress=democa@octarine.de
        Validity
            Not Before: Apr 20 20:47:24 2015 GMT
            Not After : Apr 19 20:47:24 2016 GMT
        Subject: C=DE, ST=Saarland, O=MPI-SWS, OU=Distributed Systems Group, CN=18eceea9f11ca1bc535d114c95d0995b238123b1/emailAddress=node0630@octarine.de
        Subject Public Key Info:
            Public Key Algorithm: rsaEncryption
            RSA Public Key: (1024 bit)
                Modulus (1024 bit):
                    00:be:98:17:08:00:8e:06:cb:51:29:39:21:99:19:
                    d0:25:a2:32:83:de:1d:d1:07:59:09:7a:b2:62:c9:
                    a0:ba:5a:eb:fe:78:c4:70:e1:ae:3c:d3:49:37:7d:
                    7f:09:0d:2b:be:c2:ed:54:34:8c:57:ea:f1:ca:d8:
                    90:8a:9a:e1:ec:e1:d1:3b:b4:87:e0:d2:c2:ce:e8:
                    88:7f:8b:05:03:df:17:fd:55:f4:2d:af:1c:0f:17:
                    78:65:91:c2:80:41:7c:b2:57:3b:41:ee:91:d3:63:
                    b8:c9:83:d7:6f:47:c5:1c:37:f2:c2:35:ce:6d:a7:
                    5a:84:de:3f:0d:63:e0:6b:27
                Exponent: 65537 (0x10001)
    Signature Algorithm: md5WithRSAEncryption
        ab:ce:e7:10:bf:70:50:5d:cd:35:54:3a:8d:86:a5:0d:2c:04:
        41:0d:01:45:1b:c4:92:6c:35:20:08:14:b9:7e:66:95:b6:ff:
        02:1a:96:bc:84:71:89:28:0d:30:06:9b:85:a9:e5:1a:37:80:
        4b:9a:8c:5a:cb:aa:c5:e8:43:e9:8a:a4:37:93:4b:84:8a:b6:
        62:7d:25:55:b7:af:1a:64:42:fd:55:88:12:c5:bf:24:5b:1e:
        d6:ab:5d:ab:d9:f1:67:58:99:1d:d4:8e:af:95:77:f6:c1:13:
        3e:f6:91:aa:47:5b:f4:43:37:72:45:6a:9d:31:ce:a2:79:e8:
        54:dc
-----BEGIN CERTIFICATE-----
MIICvDCCAiUCCQCbJ9fo0boKTjANBgkqhkiG9w0BAQQFADCBlTELMAkGA1UEBhMC
REUxETAPBgNVBAgTCFNhYXJsYW5kMRAwDgYDVQQKEwdNUEktU1dTMSIwIAYDVQQL
ExlEaXN0cmlidXRlZCBTeXN0ZW1zIEdyb3VwMRowGAYDVQQDExFBbmRyZWFzIEhh
ZWJlcmxlbjEhMB8GCSqGSIb3DQEJARYSZGVtb2NhQG9jdGFyaW5lLmRlMB4XDTE1
MDQyMDIwNDcyNFoXDTE2MDQxOTIwNDcyNFowga4xCzAJBgNVBAYTAkRFMREwDwYD
VQQIEwhTYWFybGFuZDEQMA4GA1UEChMHTVBJLVNXUzEiMCAGA1UECxMZRGlzdHJp
YnV0ZWQgU3lzdGVtcyBHcm91cDExMC8GA1UEAxMoMThlY2VlYTlmMTFjYTFiYzUz
NWQxMTRjOTVkMDk5NWIyMzgxMjNiMTEjMCEGCSqGSIb3DQEJARYUbm9kZTA2MzBA
b2N0YXJpbmUuZGUwgZ8wDQYJKoZIhvcNAQEBBQADgY0AMIGJAoGBAL6YFwgAjgbL
USk5IZkZ0CWiMoPeHdEHWQl6smLJoLpa6/54xHDhrjzTSTd9fwkNK77C7VQ0jFfq
8crYkIqa4ezh0Tu0h+DSws7oiH+LBQPfF/1V9C2vHA8XeGWRwoBBfLJXO0HukdNj
uMmD129HxRw38sI1zm2nWoTePw1j4GsnAgMBAAEwDQYJKoZIhvcNAQEEBQADgYEA
q87nEL9wUF3NNVQ6jYalDSwEQQ0BRRvEkmw1IAgUuX5mlbb/AhqWvIRxiSgNMAab
hanlGjeAS5qMWsuqxehD6YqkN5NLhIq2Yn0lVbevGmRC/VWIEsW/JFse1qtdq9nx
Z1iZHdSOr5V39sETPvaRqkdb9EM3ckVqnTHOonnoVNw=
-----END CERTIFICATE-----
