Certificate:
    Data:
        Version: 1 (0x0)
        Serial Number:
            9b:27:d7:e8:d1:ba:0a:ad
        Signature Algorithm: md5WithRSAEncryption
        Issuer: C=DE, ST=Saarland, O=MPI-SWS, OU=Distributed Systems Group, CN=Andreas Haeberlen/emailAddress=democa@octarine.de
        Validity
            Not Before: Apr 20 20:47:29 2015 GMT
            Not After : Apr 19 20:47:29 2016 GMT
        Subject: C=DE, ST=Saarland, O=MPI-SWS, OU=Distributed Systems Group, CN=9b770e1fb28c34526a78219c14ca602fb96c88b3/emailAddress=node0725@octarine.de
        Subject Public Key Info:
            Public Key Algorithm: rsaEncryption
            RSA Public Key: (1024 bit)
                Modulus (1024 bit):
                    00:cd:99:07:72:00:5b:1d:4a:6e:cb:63:d8:80:f9:
                    85:10:16:ce:93:b5:37:5d:2f:87:88:1a:bf:33:a3:
                    4d:ce:82:2e:03:d1:42:79:52:1a:07:e0:11:70:79:
                    cd:57:ec:8b:28:f2:e9:9e:21:ee:00:08:ad:b9:f3:
                    03:5e:40:b0:2b:50:28:55:b2:5f:45:d0:ec:f9:d0:
                    f6:3d:4f:6d:96:01:34:00:60:91:ab:c7:ac:36:da:
                    bc:cd:78:fd:28:b5:7c:bf:22:fa:cd:81:89:a3:ca:
                    f4:9d:ae:d6:4e:0d:93:a5:fb:a2:06:96:f1:08:bf:
                    5a:aa:1e:ec:d3:70:ff:07:95
                Exponent: 65537 (0x10001)
    Signature Algorithm: md5WithRSAEncryption
        bb:7e:0f:25:29:ab:f3:6d:bc:11:e4:10:f4:4d:f3:39:55:bc:
        a2:4b:44:76:ad:a5:9a:a9:59:fd:9f:ce:e8:50:d1:16:51:50:
        d0:a6:3f:3c:7c:e1:82:ea:2e:79:b5:e8:6a:95:1a:a5:a3:e3:
        10:60:cc:09:eb:cf:50:2f:f1:8f:a7:3f:2d:0e:97:99:ed:af:
        36:f9:8c:ec:76:10:65:0f:76:b1:ef:16:6a:09:3a:52:23:00:
        b6:8b:33:10:c1:07:b5:4f:f4:4c:16:d0:dd:c6:b7:03:5c:da:
        bd:22:be:6e:c9:0f:63:ec:bf:00:3e:ad:a6:32:01:aa:26:ba:
        55:f0
-----BEGIN CERTIFICATE-----
MIICvDCCAiUCCQCbJ9fo0boKrTANBgkqhkiG9w0BAQQFADCBlTELMAkGA1UEBhMC
REUxETAPBgNVBAgTCFNhYXJsYW5kMRAwDgYDVQQKEwdNUEktU1dTMSIwIAYDVQQL
ExlEaXN0cmlidXRlZCBTeXN0ZW1zIEdyb3VwMRowGAYDVQQDExFBbmRyZWFzIEhh
ZWJlcmxlbjEhMB8GCSqGSIb3DQEJARYSZGVtb2NhQG9jdGFyaW5lLmRlMB4XDTE1
MDQyMDIwNDcyOVoXDTE2MDQxOTIwNDcyOVowga4xCzAJBgNVBAYTAkRFMREwDwYD
VQQIEwhTYWFybGFuZDEQMA4GA1UEChMHTVBJLVNXUzEiMCAGA1UECxMZRGlzdHJp
YnV0ZWQgU3lzdGVtcyBHcm91cDExMC8GA1UEAxMoOWI3NzBlMWZiMjhjMzQ1MjZh
NzgyMTljMTRjYTYwMmZiOTZjODhiMzEjMCEGCSqGSIb3DQEJARYUbm9kZTA3MjVA
b2N0YXJpbmUuZGUwgZ8wDQYJKoZIhvcNAQEBBQADgY0AMIGJAoGBAM2ZB3IAWx1K
bstj2ID5hRAWzpO1N10vh4gavzOjTc6CLgPRQnlSGgfgEXB5zVfsiyjy6Z4h7gAI
rbnzA15AsCtQKFWyX0XQ7PnQ9j1PbZYBNABgkavHrDbavM14/Si1fL8i+s2BiaPK
9J2u1k4Nk6X7ogaW8Qi/Wqoe7NNw/weVAgMBAAEwDQYJKoZIhvcNAQEEBQADgYEA
u34PJSmr8228EeQQ9E3zOVW8oktEdq2lmqlZ/Z/O6FDRFlFQ0KY/PHzhguouebXo
apUapaPjEGDMCevPUC/xj6c/LQ6Xme2vNvmM7HYQZQ92se8Wagk6UiMAtoszEMEH
tU/0TBbQ3ca3A1zavSK+bskPY+y/AD6tpjIBqia6VfA=
-----END CERTIFICATE-----
