Certificate:
    Data:
        Version: 1 (0x0)
        Serial Number:
            9b:27:d7:e8:d1:ba:0a:5a
        Signature Algorithm: md5WithRSAEncryption
        Issuer: C=DE, ST=Saarland, O=MPI-SWS, OU=Distributed Systems Group, CN=Andreas Haeberlen/emailAddress=democa@octarine.de
        Validity
            Not Before: Apr 20 20:47:25 2015 GMT
            Not After : Apr 19 20:47:25 2016 GMT
        Subject: C=DE, ST=Saarland, O=MPI-SWS, OU=Distributed Systems Group, CN=141e866c006c0c79e557ff95a7a0fc5007f9d66e/emailAddress=node0642@octarine.de
        Subject Public Key Info:
            Public Key Algorithm: rsaEncryption
            RSA Public Key: (1024 bit)
                Modulus (1024 bit):
                    00:ba:45:80:50:60:6b:0b:a4:09:9e:77:81:dc:0e:
                    a2:7e:de:42:ad:1a:92:e4:84:3d:9f:70:77:b1:c2:
                    0c:d6:37:e6:f3:dc:b5:ea:35:f8:35:09:34:f6:e1:
                    e4:b8:7d:48:5c:9a:9b:eb:ba:3c:db:17:1e:8c:ff:
                    39:cb:7d:3d:fd:63:30:98:0d:e2:7b:04:19:5c:e3:
                    e7:d9:31:bf:6c:3a:6f:b5:64:00:33:59:cd:1b:8e:
                    cc:e2:a0:45:92:6c:03:81:81:4e:cd:d4:c1:83:25:
                    8c:a7:06:1e:21:12:35:c1:f4:fa:04:cb:30:99:86:
                    16:f7:28:42:1a:62:71:48:c5
                Exponent: 65537 (0x10001)
    Signature Algorithm: md5WithRSAEncryption
        70:39:9d:f5:74:88:08:a4:5f:5b:9f:ad:9c:a4:a2:62:f9:a0:
        8e:e2:05:2d:da:4d:5d:ea:b2:91:c9:fe:ae:92:d6:b6:98:13:
        0b:60:7e:3f:f6:7b:74:f5:a3:5c:2a:c5:db:3f:b5:1f:1f:7f:
        9f:81:9e:24:f0:fe:b7:53:50:df:30:61:75:8e:dc:29:4d:7f:
        32:d5:a9:af:4f:db:99:91:f3:c6:eb:c5:6d:66:42:36:64:1c:
        05:7f:10:a3:5d:8e:c4:01:7a:d7:4b:e3:db:20:6a:75:ca:c7:
        9b:17:68:34:5d:bb:fc:c2:dc:6b:59:ac:73:e9:55:a7:c5:d6:
        91:e2
-----BEGIN CERTIFICATE-----
MIICvDCCAiUCCQCbJ9fo0boKWjANBgkqhkiG9w0BAQQFADCBlTELMAkGA1UEBhMC
REUxETAPBgNVBAgTCFNhYXJsYW5kMRAwDgYDVQQKEwdNUEktU1dTMSIwIAYDVQQL
ExlEaXN0cmlidXRlZCBTeXN0ZW1zIEdyb3VwMRowGAYDVQQDExFBbmRyZWFzIEhh
ZWJlcmxlbjEhMB8GCSqGSIb3DQEJARYSZGVtb2NhQG9jdGFyaW5lLmRlMB4XDTE1
MDQyMDIwNDcyNVoXDTE2MDQxOTIwNDcyNVowga4xCzAJBgNVBAYTAkRFMREwDwYD
VQQIEwhTYWFybGFuZDEQMA4GA1UEChMHTVBJLVNXUzEiMCAGA1UECxMZRGlzdHJp
YnV0ZWQgU3lzdGVtcyBHcm91cDExMC8GA1UEAxMoMTQxZTg2NmMwMDZjMGM3OWU1
NTdmZjk1YTdhMGZjNTAwN2Y5ZDY2ZTEjMCEGCSqGSIb3DQEJARYUbm9kZTA2NDJA
b2N0YXJpbmUuZGUwgZ8wDQYJKoZIhvcNAQEBBQADgY0AMIGJAoGBALpFgFBgawuk
CZ53gdwOon7eQq0akuSEPZ9wd7HCDNY35vPcteo1+DUJNPbh5Lh9SFyam+u6PNsX
Hoz/Oct9Pf1jMJgN4nsEGVzj59kxv2w6b7VkADNZzRuOzOKgRZJsA4GBTs3UwYMl
jKcGHiESNcH0+gTLMJmGFvcoQhpicUjFAgMBAAEwDQYJKoZIhvcNAQEEBQADgYEA
cDmd9XSICKRfW5+tnKSiYvmgjuIFLdpNXeqykcn+rpLWtpgTC2B+P/Z7dPWjXCrF
2z+1Hx9/n4GeJPD+t1NQ3zBhdY7cKU1/MtWpr0/bmZHzxuvFbWZCNmQcBX8Qo12O
xAF610vj2yBqdcrHmxdoNF27/MLca1msc+lVp8XWkeI=
-----END CERTIFICATE-----
