Certificate:
    Data:
        Version: 1 (0x0)
        Serial Number:
            9b:27:d7:e8:d1:ba:09:73
        Signature Algorithm: md5WithRSAEncryption
        Issuer: C=DE, ST=Saarland, O=MPI-SWS, OU=Distributed Systems Group, CN=Andreas Haeberlen/emailAddress=democa@octarine.de
        Validity
            Not Before: Apr 20 20:47:14 2015 GMT
            Not After : Apr 19 20:47:14 2016 GMT
        Subject: C=DE, ST=Saarland, O=MPI-SWS, OU=Distributed Systems Group, CN=5529dc009fa569d0542521f65b52989fec9b89b2/emailAddress=node0411@octarine.de
        Subject Public Key Info:
            Public Key Algorithm: rsaEncryption
            RSA Public Key: (1024 bit)
                Modulus (1024 bit):
                    00:be:5f:f3:60:b5:a1:8f:6d:43:42:c7:05:26:d6:
                    93:4a:49:4a:bb:7e:d9:82:db:0c:ad:21:69:7a:6e:
                    7a:b7:5f:37:59:6a:40:f4:5c:b5:87:ef:9d:ed:ef:
                    91:a2:8b:b4:65:6f:dc:e2:b4:8f:8c:e5:2d:49:49:
                    10:18:66:da:7d:0d:f7:b4:81:46:c2:ec:5e:c2:18:
                    22:0d:83:6a:59:cd:f5:e9:e4:ff:0a:ba:07:7c:e4:
                    c9:4b:b3:1a:fa:08:db:90:98:59:65:ec:22:c7:5b:
                    0b:4d:d4:e0:f0:74:5a:b2:bd:9b:6a:be:1e:d3:9c:
                    39:66:db:16:8f:d0:15:d3:99
                Exponent: 65537 (0x10001)
    Signature Algorithm: md5WithRSAEncryption
        84:60:3a:8b:86:04:f7:34:38:64:3e:84:dd:dc:e7:18:d7:b1:
        94:98:81:a1:03:03:06:3f:d7:91:78:f0:66:6a:54:70:3b:13:
        ec:e5:fa:22:41:d4:69:83:60:33:35:42:d1:dc:2d:fe:87:cb:
        55:02:01:5c:92:8f:b3:28:a7:87:13:a6:cc:7a:16:93:24:e5:
        a3:31:5e:01:2e:e8:d3:19:ff:42:5d:66:d1:77:a1:32:60:4c:
        cd:a6:24:2a:53:7c:39:08:1d:2e:0c:59:77:47:ef:b8:01:93:
        fd:d6:43:4a:d4:a6:a4:7b:6b:64:4a:11:86:df:a2:87:b5:3f:
        08:a9
-----BEGIN CERTIFICATE-----
MIICvDCCAiUCCQCbJ9fo0boJczANBgkqhkiG9w0BAQQFADCBlTELMAkGA1UEBhMC
REUxETAPBgNVBAgTCFNhYXJsYW5kMRAwDgYDVQQKEwdNUEktU1dTMSIwIAYDVQQL
ExlEaXN0cmlidXRlZCBTeXN0ZW1zIEdyb3VwMRowGAYDVQQDExFBbmRyZWFzIEhh
ZWJlcmxlbjEhMB8GCSqGSIb3DQEJARYSZGVtb2NhQG9jdGFyaW5lLmRlMB4XDTE1
MDQyMDIwNDcxNFoXDTE2MDQxOTIwNDcxNFowga4xCzAJBgNVBAYTAkRFMREwDwYD
VQQIEwhTYWFybGFuZDEQMA4GA1UEChMHTVBJLVNXUzEiMCAGA1UECxMZRGlzdHJp
YnV0ZWQgU3lzdGVtcyBHcm91cDExMC8GA1UEAxMoNTUyOWRjMDA5ZmE1NjlkMDU0
MjUyMWY2NWI1Mjk4OWZlYzliODliMjEjMCEGCSqGSIb3DQEJARYUbm9kZTA0MTFA
b2N0YXJpbmUuZGUwgZ8wDQYJKoZIhvcNAQEBBQADgY0AMIGJAoGBAL5f82C1oY9t
Q0LHBSbWk0pJSrt+2YLbDK0haXpuerdfN1lqQPRctYfvne3vkaKLtGVv3OK0j4zl
LUlJEBhm2n0N97SBRsLsXsIYIg2DalnN9enk/wq6B3zkyUuzGvoI25CYWWXsIsdb
C03U4PB0WrK9m2q+HtOcOWbbFo/QFdOZAgMBAAEwDQYJKoZIhvcNAQEEBQADgYEA
hGA6i4YE9zQ4ZD6E3dznGNexlJiBoQMDBj/XkXjwZmpUcDsT7OX6IkHUaYNgMzVC
0dwt/ofLVQIBXJKPsyinhxOmzHoWkyTlozFeAS7o0xn/Ql1m0XehMmBMzaYkKlN8
OQgdLgxZd0fvuAGT/dZDStSmpHtrZEoRht+ih7U/CKk=
-----END CERTIFICATE-----
