Certificate:
    Data:
        Version: 1 (0x0)
        Serial Number:
            9b:27:d7:e8:d1:ba:09:4c
        Signature Algorithm: md5WithRSAEncryption
        Issuer: C=DE, ST=Saarland, O=MPI-SWS, OU=Distributed Systems Group, CN=Andreas Haeberlen/emailAddress=democa@octarine.de
        Validity
            Not Before: Apr 20 20:47:13 2015 GMT
            Not After : Apr 19 20:47:13 2016 GMT
        Subject: C=DE, ST=Saarland, O=MPI-SWS, OU=Distributed Systems Group, CN=85564e0bef668f0c39ef247f3c55b3e393ad1a80/emailAddress=node0372@octarine.de
        Subject Public Key Info:
            Public Key Algorithm: rsaEncryption
            RSA Public Key: (1024 bit)
                Modulus (1024 bit):
                    00:e0:5a:f9:7a:02:63:66:2c:ca:7a:40:50:61:8b:
                    46:01:7e:c4:ff:69:72:0c:3d:e2:14:84:dc:53:bf:
                    fe:67:77:7d:ac:6a:20:04:d4:3b:12:e7:27:aa:e5:
                    63:d1:96:b8:fc:06:68:f3:82:f5:5d:c6:52:55:bb:
                    78:b7:1b:cc:c4:86:d4:ce:af:fc:57:a9:6c:47:de:
                    38:ce:77:03:30:91:ff:fd:ab:05:2a:c4:05:66:6a:
                    20:ab:d2:a1:e5:c6:96:4e:44:6a:32:5a:3f:95:c6:
                    31:2a:82:47:bd:f4:f1:9f:88:8e:d2:49:53:f5:97:
                    6b:5b:cb:ac:5d:29:01:ba:4b
                Exponent: 65537 (0x10001)
    Signature Algorithm: md5WithRSAEncryption
        4f:1c:c7:bb:b1:89:22:99:32:cb:39:05:15:5c:73:d1:73:b1:
        48:44:1b:96:d5:20:a9:94:f6:22:e5:69:88:79:0e:4e:2c:db:
        a2:58:33:b6:d7:d1:b5:f7:ba:d3:1e:c5:8f:0e:67:65:57:1c:
        ef:6a:8b:91:a6:2c:78:8f:60:8f:b2:7e:c8:62:c3:58:0a:d8:
        ae:47:46:f6:fc:23:66:21:39:5c:f9:73:2e:83:ab:7d:85:b4:
        95:31:87:fc:92:5a:95:7c:1d:39:4a:b3:cb:ef:72:43:f6:30:
        05:18:e7:44:a7:c8:53:47:2f:44:0b:ce:72:24:5d:7d:f0:67:
        8a:95
-----BEGIN CERTIFICATE-----
MIICvDCCAiUCCQCbJ9fo0boJTDANBgkqhkiG9w0BAQQFADCBlTELMAkGA1UEBhMC
REUxETAPBgNVBAgTCFNhYXJsYW5kMRAwDgYDVQQKEwdNUEktU1dTMSIwIAYDVQQL
ExlEaXN0cmlidXRlZCBTeXN0ZW1zIEdyb3VwMRowGAYDVQQDExFBbmRyZWFzIEhh
ZWJlcmxlbjEhMB8GCSqGSIb3DQEJARYSZGVtb2NhQG9jdGFyaW5lLmRlMB4XDTE1
MDQyMDIwNDcxM1oXDTE2MDQxOTIwNDcxM1owga4xCzAJBgNVBAYTAkRFMREwDwYD
VQQIEwhTYWFybGFuZDEQMA4GA1UEChMHTVBJLVNXUzEiMCAGA1UECxMZRGlzdHJp
YnV0ZWQgU3lzdGVtcyBHcm91cDExMC8GA1UEAxMoODU1NjRlMGJlZjY2OGYwYzM5
ZWYyNDdmM2M1NWIzZTM5M2FkMWE4MDEjMCEGCSqGSIb3DQEJARYUbm9kZTAzNzJA
b2N0YXJpbmUuZGUwgZ8wDQYJKoZIhvcNAQEBBQADgY0AMIGJAoGBAOBa+XoCY2Ys
ynpAUGGLRgF+xP9pcgw94hSE3FO//md3faxqIATUOxLnJ6rlY9GWuPwGaPOC9V3G
UlW7eLcbzMSG1M6v/FepbEfeOM53AzCR//2rBSrEBWZqIKvSoeXGlk5EajJaP5XG
MSqCR7308Z+IjtJJU/WXa1vLrF0pAbpLAgMBAAEwDQYJKoZIhvcNAQEEBQADgYEA
TxzHu7GJIpkyyzkFFVxz0XOxSEQbltUgqZT2IuVpiHkOTizbolgzttfRtfe60x7F
jw5nZVcc72qLkaYseI9gj7J+yGLDWArYrkdG9vwjZiE5XPlzLoOrfYW0lTGH/JJa
lXwdOUqzy+9yQ/YwBRjnRKfIU0cvRAvOciRdffBnipU=
-----END CERTIFICATE-----
