Certificate:
    Data:
        Version: 1 (0x0)
        Serial Number:
            9b:27:d7:e8:d1:ba:09:94
        Signature Algorithm: md5WithRSAEncryption
        Issuer: C=DE, ST=Saarland, O=MPI-SWS, OU=Distributed Systems Group, CN=Andreas Haeberlen/emailAddress=democa@octarine.de
        Validity
            Not Before: Apr 20 20:47:16 2015 GMT
            Not After : Apr 19 20:47:16 2016 GMT
        Subject: C=DE, ST=Saarland, O=MPI-SWS, OU=Distributed Systems Group, CN=218dbe8fb98b7d13784a863e26ad41262b3d9bc4/emailAddress=node0444@octarine.de
        Subject Public Key Info:
            Public Key Algorithm: rsaEncryption
            RSA Public Key: (1024 bit)
                Modulus (1024 bit):
                    00:b7:b8:ea:cf:65:0c:c6:7a:2a:da:dd:a7:2a:64:
                    8f:0e:21:a2:39:7f:1a:58:89:08:29:39:82:75:03:
                    d5:e3:2a:3a:ac:cb:b4:18:e8:be:7e:d3:4d:40:4c:
                    82:e6:59:bb:3f:ee:ec:54:34:75:86:4f:10:fe:28:
                    c4:d0:de:c1:66:96:f4:65:9c:fb:d7:c7:b4:ef:c4:
                    01:2b:b4:3e:b6:94:fb:06:bb:d9:cb:62:80:4e:92:
                    0e:ac:7e:b5:cf:38:5c:58:02:ec:0c:0b:f5:21:2c:
                    e9:dd:1d:97:4a:99:ae:7f:c0:db:d0:bb:8f:25:29:
                    87:f5:16:12:50:e1:49:fe:65
                Exponent: 65537 (0x10001)
    Signature Algorithm: md5WithRSAEncryption
        5b:6a:ab:96:9d:38:ea:d6:77:3b:c6:49:74:9e:c3:92:76:b9:
        6f:66:62:75:84:42:e9:5c:e4:55:78:e1:d6:80:e3:4c:35:f9:
        04:ab:c0:30:d1:ba:b2:d7:05:a4:89:1d:0c:4e:4c:8b:5e:83:
        ed:28:84:35:bd:e8:be:1d:66:d4:ef:98:92:50:da:ce:88:84:
        8f:32:32:04:c4:7a:bb:48:97:fd:e4:3a:0f:12:64:5e:d7:00:
        6c:34:59:82:34:a3:c1:89:5a:55:74:82:12:a5:d3:f2:0c:24:
        ae:36:c9:56:fd:c7:9f:83:8b:5e:06:c1:af:40:15:04:a0:f2:
        b7:42
-----BEGIN CERTIFICATE-----
MIICvDCCAiUCCQCbJ9fo0boJlDANBgkqhkiG9w0BAQQFADCBlTELMAkGA1UEBhMC
REUxETAPBgNVBAgTCFNhYXJsYW5kMRAwDgYDVQQKEwdNUEktU1dTMSIwIAYDVQQL
ExlEaXN0cmlidXRlZCBTeXN0ZW1zIEdyb3VwMRowGAYDVQQDExFBbmRyZWFzIEhh
ZWJlcmxlbjEhMB8GCSqGSIb3DQEJARYSZGVtb2NhQG9jdGFyaW5lLmRlMB4XDTE1
MDQyMDIwNDcxNloXDTE2MDQxOTIwNDcxNlowga4xCzAJBgNVBAYTAkRFMREwDwYD
VQQIEwhTYWFybGFuZDEQMA4GA1UEChMHTVBJLVNXUzEiMCAGA1UECxMZRGlzdHJp
YnV0ZWQgU3lzdGVtcyBHcm91cDExMC8GA1UEAxMoMjE4ZGJlOGZiOThiN2QxMzc4
NGE4NjNlMjZhZDQxMjYyYjNkOWJjNDEjMCEGCSqGSIb3DQEJARYUbm9kZTA0NDRA
b2N0YXJpbmUuZGUwgZ8wDQYJKoZIhvcNAQEBBQADgY0AMIGJAoGBALe46s9lDMZ6
Ktrdpypkjw4hojl/GliJCCk5gnUD1eMqOqzLtBjovn7TTUBMguZZuz/u7FQ0dYZP
EP4oxNDewWaW9GWc+9fHtO/EASu0PraU+wa72ctigE6SDqx+tc84XFgC7AwL9SEs
6d0dl0qZrn/A29C7jyUph/UWElDhSf5lAgMBAAEwDQYJKoZIhvcNAQEEBQADgYEA
W2qrlp046tZ3O8ZJdJ7Dkna5b2ZidYRC6VzkVXjh1oDjTDX5BKvAMNG6stcFpIkd
DE5Mi16D7SiENb3ovh1m1O+YklDazoiEjzIyBMR6u0iX/eQ6DxJkXtcAbDRZgjSj
wYlaVXSCEqXT8gwkrjbJVv3Hn4OLXgbBr0AVBKDyt0I=
-----END CERTIFICATE-----
