Certificate:
    Data:
        Version: 1 (0x0)
        Serial Number:
            9b:27:d7:e8:d1:ba:09:ff
        Signature Algorithm: md5WithRSAEncryption
        Issuer: C=DE, ST=Saarland, O=MPI-SWS, OU=Distributed Systems Group, CN=Andreas Haeberlen/emailAddress=democa@octarine.de
        Validity
            Not Before: Apr 20 20:47:21 2015 GMT
            Not After : Apr 19 20:47:21 2016 GMT
        Subject: C=DE, ST=Saarland, O=MPI-SWS, OU=Distributed Systems Group, CN=963901afce06fb4dc300abb0bb893f9d5d65e15b/emailAddress=node0551@octarine.de
        Subject Public Key Info:
            Public Key Algorithm: rsaEncryption
            RSA Public Key: (1024 bit)
                Modulus (1024 bit):
                    00:b5:da:90:7a:0e:f6:bd:4e:02:fd:62:eb:60:74:
                    d0:9a:67:e7:41:2d:8f:23:83:55:d3:3c:0f:22:d9:
                    a5:b7:29:59:46:fb:5e:4c:d5:85:3c:5f:e5:f0:3a:
                    37:ad:fc:d7:51:60:58:ee:eb:26:dc:a2:b2:00:a1:
                    7a:7b:79:3d:80:8e:6a:22:d3:a3:93:97:6d:65:30:
                    7d:bd:f2:8c:9c:fe:f8:90:da:b2:58:48:1a:5c:c5:
                    e7:46:ef:3a:90:e0:2a:8e:9f:3a:dd:0e:ff:d2:fd:
                    9b:c7:02:2a:c9:48:d1:c4:0d:f5:45:ee:44:7a:b0:
                    7b:ec:13:a9:af:ee:9f:1e:8d
                Exponent: 65537 (0x10001)
    Signature Algorithm: md5WithRSAEncryption
        c4:d5:eb:b7:86:2a:0e:e7:90:d8:ac:f7:e4:ff:1d:71:61:26:
        16:6c:0a:74:28:1e:62:88:c0:10:70:8c:16:49:57:af:ba:f9:
        10:bd:47:a7:47:6e:cd:54:3f:80:07:1d:f9:c1:1d:e2:4a:00:
        6a:68:18:1a:8b:04:c5:ee:4a:be:3f:ee:09:00:d2:22:ba:aa:
        cf:67:fb:94:7c:a6:75:86:62:72:2e:d0:c3:f2:3e:50:dc:f8:
        d9:a9:48:cf:06:30:79:75:8e:5e:bb:1c:9f:2e:ed:4e:94:dc:
        70:8f:4c:eb:34:ae:70:d7:a8:24:24:98:88:fd:82:8d:9d:97:
        98:78
-----BEGIN CERTIFICATE-----
MIICvDCCAiUCCQCbJ9fo0boJ/zANBgkqhkiG9w0BAQQFADCBlTELMAkGA1UEBhMC
REUxETAPBgNVBAgTCFNhYXJsYW5kMRAwDgYDVQQKEwdNUEktU1dTMSIwIAYDVQQL
ExlEaXN0cmlidXRlZCBTeXN0ZW1zIEdyb3VwMRowGAYDVQQDExFBbmRyZWFzIEhh
ZWJlcmxlbjEhMB8GCSqGSIb3DQEJARYSZGVtb2NhQG9jdGFyaW5lLmRlMB4XDTE1
MDQyMDIwNDcyMVoXDTE2MDQxOTIwNDcyMVowga4xCzAJBgNVBAYTAkRFMREwDwYD
VQQIEwhTYWFybGFuZDEQMA4GA1UEChMHTVBJLVNXUzEiMCAGA1UECxMZRGlzdHJp
YnV0ZWQgU3lzdGVtcyBHcm91cDExMC8GA1UEAxMoOTYzOTAxYWZjZTA2ZmI0ZGMz
MDBhYmIwYmI4OTNmOWQ1ZDY1ZTE1YjEjMCEGCSqGSIb3DQEJARYUbm9kZTA1NTFA
b2N0YXJpbmUuZGUwgZ8wDQYJKoZIhvcNAQEBBQADgY0AMIGJAoGBALXakHoO9r1O
Av1i62B00Jpn50EtjyODVdM8DyLZpbcpWUb7XkzVhTxf5fA6N63811FgWO7rJtyi
sgChent5PYCOaiLTo5OXbWUwfb3yjJz++JDaslhIGlzF50bvOpDgKo6fOt0O/9L9
m8cCKslI0cQN9UXuRHqwe+wTqa/unx6NAgMBAAEwDQYJKoZIhvcNAQEEBQADgYEA
xNXrt4YqDueQ2Kz35P8dcWEmFmwKdCgeYojAEHCMFklXr7r5EL1Hp0duzVQ/gAcd
+cEd4koAamgYGosExe5Kvj/uCQDSIrqqz2f7lHymdYZici7Qw/I+UNz42alIzwYw
eXWOXrscny7tTpTccI9M6zSucNeoJCSYiP2CjZ2XmHg=
-----END CERTIFICATE-----
