Certificate:
    Data:
        Version: 1 (0x0)
        Serial Number:
            9b:27:d7:e8:d1:ba:0a:54
        Signature Algorithm: md5WithRSAEncryption
        Issuer: C=DE, ST=Saarland, O=MPI-SWS, OU=Distributed Systems Group, CN=Andreas Haeberlen/emailAddress=democa@octarine.de
        Validity
            Not Before: Apr 20 20:47:25 2015 GMT
            Not After : Apr 19 20:47:25 2016 GMT
        Subject: C=DE, ST=Saarland, O=MPI-SWS, OU=Distributed Systems Group, CN=1b0d8bea4492422a8ba85ecd564e7c49756014a5/emailAddress=node0636@octarine.de
        Subject Public Key Info:
            Public Key Algorithm: rsaEncryption
            RSA Public Key: (1024 bit)
                Modulus (1024 bit):
                    00:c9:2c:5e:ae:f3:0a:fb:37:77:ce:75:d8:94:01:
                    cd:ee:d4:01:52:d8:df:79:db:bd:cb:15:81:be:35:
                    f2:bc:a5:b1:7d:91:ed:9c:b5:87:f9:cb:ae:56:5b:
                    27:11:f1:8f:9e:e5:f1:33:06:b2:a4:78:84:1c:de:
                    06:bd:c6:3b:29:1d:5d:b0:44:fa:7a:14:24:e2:8c:
                    00:cf:8c:4c:ef:86:91:df:34:45:a6:d1:06:79:f5:
                    f7:a7:40:c0:f1:ac:ae:3a:da:c2:ad:43:8d:70:17:
                    fc:ba:da:e7:bd:bd:64:5a:d5:e8:91:f2:ff:3b:bf:
                    ec:e8:ae:df:28:17:67:f9:e9
                Exponent: 65537 (0x10001)
    Signature Algorithm: md5WithRSAEncryption
        1d:09:32:86:c7:f7:da:ef:72:ac:71:85:80:18:c3:a0:8a:83:
        dc:a5:73:60:ca:25:c8:62:6e:6f:b6:1c:55:17:46:eb:fc:9e:
        6e:f6:5c:b1:68:da:6e:5a:7b:b2:b1:5b:62:62:3b:b6:25:ac:
        e1:57:ba:6c:f5:26:00:a4:6d:5f:24:cf:2d:5d:f8:17:9e:7b:
        3a:71:75:34:df:30:93:06:03:71:93:6b:7b:b2:f8:5e:62:76:
        bc:17:b9:54:fb:69:3b:41:dd:b7:4f:fa:e2:2e:da:c9:bd:47:
        e8:42:5e:25:47:f9:c4:b3:ac:58:b6:d2:9a:37:56:22:fb:4e:
        49:fc
-----BEGIN CERTIFICATE-----
MIICvDCCAiUCCQCbJ9fo0boKVDANBgkqhkiG9w0BAQQFADCBlTELMAkGA1UEBhMC
REUxETAPBgNVBAgTCFNhYXJsYW5kMRAwDgYDVQQKEwdNUEktU1dTMSIwIAYDVQQL
ExlEaXN0cmlidXRlZCBTeXN0ZW1zIEdyb3VwMRowGAYDVQQDExFBbmRyZWFzIEhh
ZWJlcmxlbjEhMB8GCSqGSIb3DQEJARYSZGVtb2NhQG9jdGFyaW5lLmRlMB4XDTE1
MDQyMDIwNDcyNVoXDTE2MDQxOTIwNDcyNVowga4xCzAJBgNVBAYTAkRFMREwDwYD
VQQIEwhTYWFybGFuZDEQMA4GA1UEChMHTVBJLVNXUzEiMCAGA1UECxMZRGlzdHJp
YnV0ZWQgU3lzdGVtcyBHcm91cDExMC8GA1UEAxMoMWIwZDhiZWE0NDkyNDIyYThi
YTg1ZWNkNTY0ZTdjNDk3NTYwMTRhNTEjMCEGCSqGSIb3DQEJARYUbm9kZTA2MzZA
b2N0YXJpbmUuZGUwgZ8wDQYJKoZIhvcNAQEBBQADgY0AMIGJAoGBAMksXq7zCvs3
d8512JQBze7UAVLY33nbvcsVgb418rylsX2R7Zy1h/nLrlZbJxHxj57l8TMGsqR4
hBzeBr3GOykdXbBE+noUJOKMAM+MTO+Gkd80RabRBnn196dAwPGsrjrawq1DjXAX
/Lra5729ZFrV6JHy/zu/7Oiu3ygXZ/npAgMBAAEwDQYJKoZIhvcNAQEEBQADgYEA
HQkyhsf32u9yrHGFgBjDoIqD3KVzYMolyGJub7YcVRdG6/yebvZcsWjablp7srFb
YmI7tiWs4Ve6bPUmAKRtXyTPLV34F557OnF1NN8wkwYDcZNre7L4XmJ2vBe5VPtp
O0Hdt0/64i7ayb1H6EJeJUf5xLOsWLbSmjdWIvtOSfw=
-----END CERTIFICATE-----
