Certificate:
    Data:
        Version: 1 (0x0)
        Serial Number:
            9b:27:d7:e8:d1:ba:0a:6d
        Signature Algorithm: md5WithRSAEncryption
        Issuer: C=DE, ST=Saarland, O=MPI-SWS, OU=Distributed Systems Group, CN=Andreas Haeberlen/emailAddress=democa@octarine.de
        Validity
            Not Before: Apr 20 20:47:26 2015 GMT
            Not After : Apr 19 20:47:26 2016 GMT
        Subject: C=DE, ST=Saarland, O=MPI-SWS, OU=Distributed Systems Group, CN=ee234e241ba4bad1e56b12c763074e83cb61985b/emailAddress=node0661@octarine.de
        Subject Public Key Info:
            Public Key Algorithm: rsaEncryption
            RSA Public Key: (1024 bit)
                Modulus (1024 bit):
                    00:cc:d8:ac:88:1e:2a:a2:d1:12:f2:14:49:68:5e:
                    ee:42:14:8e:4d:e2:a1:dc:69:30:b0:c8:31:c0:d8:
                    20:65:ed:05:f6:78:7e:19:97:ca:0e:8c:e5:4c:a1:
                    e2:1d:38:16:1f:b3:7e:5f:35:c0:4d:e1:3f:8e:66:
                    a3:10:d5:cf:d2:ca:bb:9b:f9:2b:ec:b6:d5:fd:26:
                    6c:f9:5c:72:a1:a8:02:99:a3:7f:af:13:e2:fc:69:
                    51:57:18:94:af:72:45:e3:1f:88:a9:45:7c:44:f8:
                    a0:54:66:bf:44:f8:15:05:e4:7d:c6:30:b4:32:c2:
                    dd:3c:7e:f0:82:f6:81:a0:2f
                Exponent: 65537 (0x10001)
    Signature Algorithm: md5WithRSAEncryption
        52:46:53:7d:f2:65:00:74:71:7a:66:8b:8e:47:e3:87:f1:e5:
        ab:ec:33:21:cc:a5:28:e4:79:9c:f1:77:bc:c2:48:dd:9b:bf:
        37:7c:79:7b:48:ce:eb:eb:00:42:80:16:1c:92:c9:84:f8:6e:
        34:6b:f5:a5:38:79:23:1b:c5:c8:c7:93:8f:cb:34:bd:68:e2:
        8a:53:4b:10:5c:70:54:2c:df:30:be:da:cb:55:8f:de:62:9a:
        4e:4c:0c:a5:6c:f1:1d:99:25:0c:58:1d:92:d0:6e:e3:07:b7:
        d4:ae:a8:b7:ff:c2:d6:a1:a0:ed:dd:9e:92:56:4c:32:6f:10:
        c5:c5
-----BEGIN CERTIFICATE-----
MIICvDCCAiUCCQCbJ9fo0boKbTANBgkqhkiG9w0BAQQFADCBlTELMAkGA1UEBhMC
REUxETAPBgNVBAgTCFNhYXJsYW5kMRAwDgYDVQQKEwdNUEktU1dTMSIwIAYDVQQL
ExlEaXN0cmlidXRlZCBTeXN0ZW1zIEdyb3VwMRowGAYDVQQDExFBbmRyZWFzIEhh
ZWJlcmxlbjEhMB8GCSqGSIb3DQEJARYSZGVtb2NhQG9jdGFyaW5lLmRlMB4XDTE1
MDQyMDIwNDcyNloXDTE2MDQxOTIwNDcyNlowga4xCzAJBgNVBAYTAkRFMREwDwYD
VQQIEwhTYWFybGFuZDEQMA4GA1UEChMHTVBJLVNXUzEiMCAGA1UECxMZRGlzdHJp
YnV0ZWQgU3lzdGVtcyBHcm91cDExMC8GA1UEAxMoZWUyMzRlMjQxYmE0YmFkMWU1
NmIxMmM3NjMwNzRlODNjYjYxOTg1YjEjMCEGCSqGSIb3DQEJARYUbm9kZTA2NjFA
b2N0YXJpbmUuZGUwgZ8wDQYJKoZIhvcNAQEBBQADgY0AMIGJAoGBAMzYrIgeKqLR
EvIUSWhe7kIUjk3iodxpMLDIMcDYIGXtBfZ4fhmXyg6M5Uyh4h04Fh+zfl81wE3h
P45moxDVz9LKu5v5K+y21f0mbPlccqGoApmjf68T4vxpUVcYlK9yReMfiKlFfET4
oFRmv0T4FQXkfcYwtDLC3Tx+8IL2gaAvAgMBAAEwDQYJKoZIhvcNAQEEBQADgYEA
UkZTffJlAHRxemaLjkfjh/Hlq+wzIcylKOR5nPF3vMJI3Zu/N3x5e0jO6+sAQoAW
HJLJhPhuNGv1pTh5IxvFyMeTj8s0vWjiilNLEFxwVCzfML7ay1WP3mKaTkwMpWzx
HZklDFgdktBu4we31K6ot//C1qGg7d2eklZMMm8QxcU=
-----END CERTIFICATE-----
