Certificate:
    Data:
        Version: 1 (0x0)
        Serial Number:
            9b:27:d7:e8:d1:ba:0b:57
        Signature Algorithm: md5WithRSAEncryption
        Issuer: C=DE, ST=Saarland, O=MPI-SWS, OU=Distributed Systems Group, CN=Andreas Haeberlen/emailAddress=democa@octarine.de
        Validity
            Not Before: Apr 20 20:47:36 2015 GMT
            Not After : Apr 19 20:47:36 2016 GMT
        Subject: C=DE, ST=Saarland, O=MPI-SWS, OU=Distributed Systems Group, CN=11895c748314ee3a9a365bd08a866b27cb11785f/emailAddress=node0895@octarine.de
        Subject Public Key Info:
            Public Key Algorithm: rsaEncryption
            RSA Public Key: (1024 bit)
                Modulus (1024 bit):
                    00:bf:eb:03:a5:df:70:57:cf:0a:cc:d4:64:31:95:
                    3f:3e:29:69:8c:53:14:16:bf:03:0b:d8:53:c6:36:
                    71:6c:88:78:58:77:0d:88:fd:79:a4:7e:0f:88:f6:
                    98:2e:b9:28:99:3b:1c:1a:5f:b5:73:89:87:c5:f0:
                    06:4b:f5:bc:b1:01:e0:0e:7b:4a:f2:93:f5:42:b1:
                    68:b2:ed:4c:cb:df:7c:39:c8:46:8d:dd:0b:a8:96:
                    f1:88:25:56:a2:99:79:b6:f1:a0:33:12:18:18:72:
                    3a:fc:3c:17:2d:42:96:46:11:e6:93:8d:2f:78:26:
                    1a:34:66:25:20:2b:7d:1a:2d
                Exponent: 65537 (0x10001)
    Signature Algorithm: md5WithRSAEncryption
        a3:b1:39:de:ac:a2:4a:60:84:e7:c4:08:da:f1:7a:90:f1:be:
        75:ae:13:fa:3c:d4:98:34:26:4e:34:56:69:86:dd:09:0f:d2:
        db:6a:5b:c8:ed:e3:3e:d2:11:f7:10:f0:6a:e1:fd:81:ce:45:
        99:b5:1c:cb:07:67:cc:a3:22:b2:3a:37:9e:ea:c4:46:22:94:
        86:0d:d1:63:ec:78:15:e0:1e:2f:6b:e3:7f:3d:c3:aa:89:e9:
        c9:2f:70:ec:59:7c:1c:e2:30:7e:9d:36:73:d8:f8:e1:68:aa:
        ea:40:7b:25:24:5f:7f:b1:69:c6:1b:5b:f4:e5:6b:0f:ff:3c:
        bd:4e
-----BEGIN CERTIFICATE-----
MIICvDCCAiUCCQCbJ9fo0boLVzANBgkqhkiG9w0BAQQFADCBlTELMAkGA1UEBhMC
REUxETAPBgNVBAgTCFNhYXJsYW5kMRAwDgYDVQQKEwdNUEktU1dTMSIwIAYDVQQL
ExlEaXN0cmlidXRlZCBTeXN0ZW1zIEdyb3VwMRowGAYDVQQDExFBbmRyZWFzIEhh
ZWJlcmxlbjEhMB8GCSqGSIb3DQEJARYSZGVtb2NhQG9jdGFyaW5lLmRlMB4XDTE1
MDQyMDIwNDczNloXDTE2MDQxOTIwNDczNlowga4xCzAJBgNVBAYTAkRFMREwDwYD
VQQIEwhTYWFybGFuZDEQMA4GA1UEChMHTVBJLVNXUzEiMCAGA1UECxMZRGlzdHJp
YnV0ZWQgU3lzdGVtcyBHcm91cDExMC8GA1UEAxMoMTE4OTVjNzQ4MzE0ZWUzYTlh
MzY1YmQwOGE4NjZiMjdjYjExNzg1ZjEjMCEGCSqGSIb3DQEJARYUbm9kZTA4OTVA
b2N0YXJpbmUuZGUwgZ8wDQYJKoZIhvcNAQEBBQADgY0AMIGJAoGBAL/rA6XfcFfP
CszUZDGVPz4paYxTFBa/AwvYU8Y2cWyIeFh3DYj9eaR+D4j2mC65KJk7HBpftXOJ
h8XwBkv1vLEB4A57SvKT9UKxaLLtTMvffDnIRo3dC6iW8YglVqKZebbxoDMSGBhy
Ovw8Fy1ClkYR5pONL3gmGjRmJSArfRotAgMBAAEwDQYJKoZIhvcNAQEEBQADgYEA
o7E53qyiSmCE58QI2vF6kPG+da4T+jzUmDQmTjRWaYbdCQ/S22pbyO3jPtIR9xDw
auH9gc5FmbUcywdnzKMisjo3nurERiKUhg3RY+x4FeAeL2vjfz3DqonpyS9w7Fl8
HOIwfp02c9j44Wiq6kB7JSRff7Fpxhtb9OVrD/88vU4=
-----END CERTIFICATE-----
