Certificate:
    Data:
        Version: 1 (0x0)
        Serial Number:
            9b:27:d7:e8:d1:ba:08:11
        Signature Algorithm: md5WithRSAEncryption
        Issuer: C=DE, ST=Saarland, O=MPI-SWS, OU=Distributed Systems Group, CN=Andreas Haeberlen/emailAddress=democa@octarine.de
        Validity
            Not Before: Apr 20 20:46:59 2015 GMT
            Not After : Apr 19 20:46:59 2016 GMT
        Subject: C=DE, ST=Saarland, O=MPI-SWS, OU=Distributed Systems Group, CN=e19125e14f2a64fa83653b41b1e26e240c522436/emailAddress=node0057@octarine.de
        Subject Public Key Info:
            Public Key Algorithm: rsaEncryption
            RSA Public Key: (1024 bit)
                Modulus (1024 bit):
                    00:aa:f4:21:69:b3:ca:d3:12:b3:e7:59:5b:d1:a2:
                    26:d0:8e:e6:96:8b:5f:9d:de:a5:5b:b2:f4:0b:90:
                    e5:7b:b6:7e:91:88:54:fc:ef:50:d0:59:4b:e7:92:
                    8b:68:6f:6a:d6:1a:77:25:2f:95:61:ed:19:ec:80:
                    fe:9b:e4:c9:11:4c:33:4e:7f:40:ee:3d:d1:d5:29:
                    49:49:c4:60:10:ca:ba:ff:14:6f:f2:cb:c6:2e:dd:
                    1c:12:d4:71:f1:44:73:3d:92:d8:45:4c:fb:59:ed:
                    01:49:38:f5:52:76:12:83:84:74:74:96:8a:85:6a:
                    db:e7:e3:b1:51:f9:b5:90:41
                Exponent: 65537 (0x10001)
    Signature Algorithm: md5WithRSAEncryption
        05:ec:18:9c:71:85:82:d6:f2:fc:f1:ec:9c:7e:ee:f3:3a:fe:
        7d:33:ca:88:3e:7c:fe:0b:c1:8c:52:92:19:ee:bd:3c:bc:84:
        ef:b8:2a:06:da:9f:bc:52:64:82:d9:6d:01:ac:6f:4a:f7:4c:
        59:bc:4b:68:49:0a:e4:0d:e3:8b:32:92:3a:b1:0a:e4:7a:5d:
        a2:11:e3:ab:54:d8:4d:90:2d:94:64:eb:69:cb:de:da:7a:14:
        0e:aa:b0:6d:8a:c5:4a:db:26:3c:06:c9:e5:25:39:1f:4e:cb:
        79:d4:a2:ff:bc:d1:52:0d:19:a4:d2:f0:15:47:b0:5d:cd:4c:
        26:b0
-----BEGIN CERTIFICATE-----
MIICvDCCAiUCCQCbJ9fo0boIETANBgkqhkiG9w0BAQQFADCBlTELMAkGA1UEBhMC
REUxETAPBgNVBAgTCFNhYXJsYW5kMRAwDgYDVQQKEwdNUEktU1dTMSIwIAYDVQQL
ExlEaXN0cmlidXRlZCBTeXN0ZW1zIEdyb3VwMRowGAYDVQQDExFBbmRyZWFzIEhh
ZWJlcmxlbjEhMB8GCSqGSIb3DQEJARYSZGVtb2NhQG9jdGFyaW5lLmRlMB4XDTE1
MDQyMDIwNDY1OVoXDTE2MDQxOTIwNDY1OVowga4xCzAJBgNVBAYTAkRFMREwDwYD
VQQIEwhTYWFybGFuZDEQMA4GA1UEChMHTVBJLVNXUzEiMCAGA1UECxMZRGlzdHJp
YnV0ZWQgU3lzdGVtcyBHcm91cDExMC8GA1UEAxMoZTE5MTI1ZTE0ZjJhNjRmYTgz
NjUzYjQxYjFlMjZlMjQwYzUyMjQzNjEjMCEGCSqGSIb3DQEJARYUbm9kZTAwNTdA
b2N0YXJpbmUuZGUwgZ8wDQYJKoZIhvcNAQEBBQADgY0AMIGJAoGBAKr0IWmzytMS
s+dZW9GiJtCO5paLX53epVuy9AuQ5Xu2fpGIVPzvUNBZS+eSi2hvatYadyUvlWHt
GeyA/pvkyRFMM05/QO490dUpSUnEYBDKuv8Ub/LLxi7dHBLUcfFEcz2S2EVM+1nt
AUk49VJ2EoOEdHSWioVq2+fjsVH5tZBBAgMBAAEwDQYJKoZIhvcNAQEEBQADgYEA
BewYnHGFgtby/PHsnH7u8zr+fTPKiD58/gvBjFKSGe69PLyE77gqBtqfvFJkgtlt
AaxvSvdMWbxLaEkK5A3jizKSOrEK5HpdohHjq1TYTZAtlGTracve2noUDqqwbYrF
StsmPAbJ5SU5H07LedSi/7zRUg0ZpNLwFUewXc1MJrA=
-----END CERTIFICATE-----
