Certificate:
    Data:
        Version: 1 (0x0)
        Serial Number:
            9b:27:d7:e8:d1:ba:09:f6
        Signature Algorithm: md5WithRSAEncryption
        Issuer: C=DE, ST=Saarland, O=MPI-SWS, OU=Distributed Systems Group, CN=Andreas Haeberlen/emailAddress=democa@octarine.de
        Validity
            Not Before: Apr 20 20:47:20 2015 GMT
            Not After : Apr 19 20:47:20 2016 GMT
        Subject: C=DE, ST=Saarland, O=MPI-SWS, OU=Distributed Systems Group, CN=a19bbcbd82d7dccb61ee8f64c58996248cf38b00/emailAddress=node0542@octarine.de
        Subject Public Key Info:
            Public Key Algorithm: rsaEncryption
            RSA Public Key: (1024 bit)
                Modulus (1024 bit):
                    00:b7:70:3f:9b:8f:e7:9b:8a:ec:b4:3b:8a:be:6e:
                    ae:a1:9f:17:82:b9:3b:bb:4f:17:fb:65:52:47:27:
                    9e:fb:4b:4c:b5:a6:e9:9a:8f:08:35:b9:dc:cc:63:
                    ce:73:9f:62:bf:32:5f:51:1e:fd:e8:f4:f5:36:9b:
                    18:cf:a8:ee:b7:75:cd:4c:e4:e6:dc:d7:fd:72:ec:
                    25:fe:c1:92:cb:76:fa:f5:9c:38:39:a7:0e:92:ca:
                    c6:b1:be:13:f6:c5:5d:94:6c:a4:bb:5b:df:e5:10:
                    02:1d:74:9e:58:4a:5c:6e:43:7b:11:13:43:9e:9a:
                    4f:a8:7a:ed:f6:6c:1c:b9:c7
                Exponent: 65537 (0x10001)
    Signature Algorithm: md5WithRSAEncryption
        3f:6b:5a:82:17:7d:4f:aa:68:4e:ee:1a:c0:69:82:ce:4c:75:
        94:59:4c:76:63:d3:c6:85:26:6a:df:62:9b:59:b0:2b:72:67:
        be:ee:bf:e9:21:fb:f9:0e:60:d1:91:d4:cc:5f:02:4e:62:48:
        91:ee:dc:68:28:a0:9f:30:e8:93:72:e9:7b:c6:30:02:6a:f8:
        e8:0d:7e:35:b1:4c:77:39:ab:54:8d:f8:23:a7:29:07:05:9b:
        7e:af:fd:f9:49:6a:ee:57:e5:01:dc:f5:1a:d9:9d:0b:de:fa:
        5f:14:ad:db:ec:49:3a:32:66:e2:b4:31:70:fa:4e:76:d5:3a:
        ff:35
-----BEGIN CERTIFICATE-----
MIICvDCCAiUCCQCbJ9fo0boJ9jANBgkqhkiG9w0BAQQFADCBlTELMAkGA1UEBhMC
REUxETAPBgNVBAgTCFNhYXJsYW5kMRAwDgYDVQQKEwdNUEktU1dTMSIwIAYDVQQL
ExlEaXN0cmlidXRlZCBTeXN0ZW1zIEdyb3VwMRowGAYDVQQDExFBbmRyZWFzIEhh
ZWJlcmxlbjEhMB8GCSqGSIb3DQEJARYSZGVtb2NhQG9jdGFyaW5lLmRlMB4XDTE1
MDQyMDIwNDcyMFoXDTE2MDQxOTIwNDcyMFowga4xCzAJBgNVBAYTAkRFMREwDwYD
VQQIEwhTYWFybGFuZDEQMA4GA1UEChMHTVBJLVNXUzEiMCAGA1UECxMZRGlzdHJp
YnV0ZWQgU3lzdGVtcyBHcm91cDExMC8GA1UEAxMoYTE5YmJjYmQ4MmQ3ZGNjYjYx
ZWU4ZjY0YzU4OTk2MjQ4Y2YzOGIwMDEjMCEGCSqGSIb3DQEJARYUbm9kZTA1NDJA
b2N0YXJpbmUuZGUwgZ8wDQYJKoZIhvcNAQEBBQADgY0AMIGJAoGBALdwP5uP55uK
7LQ7ir5urqGfF4K5O7tPF/tlUkcnnvtLTLWm6ZqPCDW53MxjznOfYr8yX1Ee/ej0
9TabGM+o7rd1zUzk5tzX/XLsJf7Bkst2+vWcODmnDpLKxrG+E/bFXZRspLtb3+UQ
Ah10nlhKXG5DexETQ56aT6h67fZsHLnHAgMBAAEwDQYJKoZIhvcNAQEEBQADgYEA
P2taghd9T6poTu4awGmCzkx1lFlMdmPTxoUmat9im1mwK3Jnvu6/6SH7+Q5g0ZHU
zF8CTmJIke7caCignzDok3Lpe8YwAmr46A1+NbFMdzmrVI34I6cpBwWbfq/9+Ulq
7lflAdz1GtmdC976XxSt2+xJOjJm4rQxcPpOdtU6/zU=
-----END CERTIFICATE-----
