Certificate:
    Data:
        Version: 1 (0x0)
        Serial Number:
            9b:27:d7:e8:d1:ba:09:fc
        Signature Algorithm: md5WithRSAEncryption
        Issuer: C=DE, ST=Saarland, O=MPI-SWS, OU=Distributed Systems Group, CN=Andreas Haeberlen/emailAddress=democa@octarine.de
        Validity
            Not Before: Apr 20 20:47:21 2015 GMT
            Not After : Apr 19 20:47:21 2016 GMT
        Subject: C=DE, ST=Saarland, O=MPI-SWS, OU=Distributed Systems Group, CN=77afd02c8b574530de8d97cb9aa33f7a61a41c0a/emailAddress=node0548@octarine.de
        Subject Public Key Info:
            Public Key Algorithm: rsaEncryption
            RSA Public Key: (1024 bit)
                Modulus (1024 bit):
                    00:d8:30:82:da:9e:d2:cd:61:cb:dc:dc:62:75:38:
                    e0:ce:57:c9:ba:21:62:0d:5c:dd:62:5c:23:57:ed:
                    a1:ca:5a:69:9d:83:6a:f6:9c:03:fd:95:8d:d3:95:
                    8f:c6:c2:a4:b5:e0:47:a8:d8:0b:0f:76:7a:56:94:
                    b5:74:b1:cd:d5:7b:78:ef:ae:5d:8a:74:14:01:7f:
                    f3:db:d3:ea:55:50:f0:2b:9a:1e:14:02:8e:55:21:
                    e9:37:84:16:a6:54:71:85:6c:c1:3f:2c:9c:d7:7f:
                    a5:36:12:45:50:cc:2f:df:ff:3b:a5:90:d1:0f:96:
                    06:db:f5:39:23:bd:5e:92:7b
                Exponent: 65537 (0x10001)
    Signature Algorithm: md5WithRSAEncryption
        28:93:ed:24:18:44:78:c6:c8:32:17:0d:1d:8c:c4:20:86:d2:
        fe:44:85:1d:9f:ee:cd:51:10:0c:20:61:ec:b4:b2:8c:fb:62:
        bf:4f:9e:58:a0:a9:7f:81:09:49:c9:b4:a2:2b:6a:00:82:16:
        50:38:26:be:cf:c9:dd:45:76:8b:ee:27:bc:ec:15:08:e7:da:
        07:c5:37:5a:9c:6e:53:03:44:f7:34:53:e8:f9:82:f0:a1:d0:
        09:6b:f2:d2:3a:fb:e5:7f:b9:24:db:db:2f:89:9a:32:1c:46:
        5a:21:64:ec:dc:d8:32:75:0e:7b:55:1e:5b:a3:21:70:5a:b4:
        12:73
-----BEGIN CERTIFICATE-----
MIICvDCCAiUCCQCbJ9fo0boJ/DANBgkqhkiG9w0BAQQFADCBlTELMAkGA1UEBhMC
REUxETAPBgNVBAgTCFNhYXJsYW5kMRAwDgYDVQQKEwdNUEktU1dTMSIwIAYDVQQL
ExlEaXN0cmlidXRlZCBTeXN0ZW1zIEdyb3VwMRowGAYDVQQDExFBbmRyZWFzIEhh
ZWJlcmxlbjEhMB8GCSqGSIb3DQEJARYSZGVtb2NhQG9jdGFyaW5lLmRlMB4XDTE1
MDQyMDIwNDcyMVoXDTE2MDQxOTIwNDcyMVowga4xCzAJBgNVBAYTAkRFMREwDwYD
VQQIEwhTYWFybGFuZDEQMA4GA1UEChMHTVBJLVNXUzEiMCAGA1UECxMZRGlzdHJp
YnV0ZWQgU3lzdGVtcyBHcm91cDExMC8GA1UEAxMoNzdhZmQwMmM4YjU3NDUzMGRl
OGQ5N2NiOWFhMzNmN2E2MWE0MWMwYTEjMCEGCSqGSIb3DQEJARYUbm9kZTA1NDhA
b2N0YXJpbmUuZGUwgZ8wDQYJKoZIhvcNAQEBBQADgY0AMIGJAoGBANgwgtqe0s1h
y9zcYnU44M5XybohYg1c3WJcI1ftocpaaZ2DavacA/2VjdOVj8bCpLXgR6jYCw92
elaUtXSxzdV7eO+uXYp0FAF/89vT6lVQ8CuaHhQCjlUh6TeEFqZUcYVswT8snNd/
pTYSRVDML9//O6WQ0Q+WBtv1OSO9XpJ7AgMBAAEwDQYJKoZIhvcNAQEEBQADgYEA
KJPtJBhEeMbIMhcNHYzEIIbS/kSFHZ/uzVEQDCBh7LSyjPtiv0+eWKCpf4EJScm0
oitqAIIWUDgmvs/J3UV2i+4nvOwVCOfaB8U3WpxuUwNE9zRT6PmC8KHQCWvy0jr7
5X+5JNvbL4maMhxGWiFk7NzYMnUOe1UeW6MhcFq0EnM=
-----END CERTIFICATE-----
