Certificate:
    Data:
        Version: 1 (0x0)
        Serial Number:
            9b:27:d7:e8:d1:ba:09:d0
        Signature Algorithm: md5WithRSAEncryption
        Issuer: C=DE, ST=Saarland, O=MPI-SWS, OU=Distributed Systems Group, CN=Andreas Haeberlen/emailAddress=democa@octarine.de
        Validity
            Not Before: Apr 20 20:47:19 2015 GMT
            Not After : Apr 19 20:47:19 2016 GMT
        Subject: C=DE, ST=Saarland, O=MPI-SWS, OU=Distributed Systems Group, CN=d2e082648ed0aa6859bb2941ba44d9cacbb5e1a6/emailAddress=node0504@octarine.de
        Subject Public Key Info:
            Public Key Algorithm: rsaEncryption
            RSA Public Key: (1024 bit)
                Modulus (1024 bit):
                    00:b4:ff:c2:bf:9e:93:e3:1c:2c:d3:69:6b:f5:67:
                    37:60:53:82:db:b6:a8:37:e4:e3:71:26:1d:b1:77:
                    88:da:d0:e1:61:05:03:bc:8a:3f:73:b7:4c:ef:8d:
                    d5:ff:b4:b2:19:e6:f1:bd:41:b4:a0:6a:ee:78:72:
                    23:3a:39:f9:16:19:15:61:d7:62:85:58:c7:5f:73:
                    3e:b2:8b:06:b9:d0:24:5e:e6:a8:e3:dd:52:0a:f6:
                    af:7a:e1:c1:a8:59:f5:2f:ed:61:3a:7c:f4:1b:32:
                    13:7c:e9:a3:72:35:ae:61:4b:44:e9:db:f1:78:2b:
                    c0:ee:2a:10:b5:13:0e:dd:f9
                Exponent: 65537 (0x10001)
    Signature Algorithm: md5WithRSAEncryption
        7a:56:de:86:9c:5c:b4:5b:c0:d3:e8:ab:f5:a6:3c:01:97:d9:
        96:36:21:24:14:de:f7:a5:83:60:fa:ec:2e:24:d3:2d:d1:ef:
        ed:8b:c7:58:b1:0e:64:10:47:01:38:f1:8c:30:48:46:98:18:
        7c:24:18:d5:ec:49:8d:ad:77:16:a6:a3:59:ab:83:d1:bd:5b:
        8f:91:51:e3:0e:98:43:ad:87:04:8e:5c:3e:5e:fe:7f:31:94:
        19:ce:d7:e6:9c:74:6f:27:42:a9:09:7d:64:e6:f5:65:0a:ee:
        09:31:5b:4f:2b:37:0a:c8:b3:de:ee:69:34:a2:18:52:bd:a3:
        ac:eb
-----BEGIN CERTIFICATE-----
MIICvDCCAiUCCQCbJ9fo0boJ0DANBgkqhkiG9w0BAQQFADCBlTELMAkGA1UEBhMC
REUxETAPBgNVBAgTCFNhYXJsYW5kMRAwDgYDVQQKEwdNUEktU1dTMSIwIAYDVQQL
ExlEaXN0cmlidXRlZCBTeXN0ZW1zIEdyb3VwMRowGAYDVQQDExFBbmRyZWFzIEhh
ZWJlcmxlbjEhMB8GCSqGSIb3DQEJARYSZGVtb2NhQG9jdGFyaW5lLmRlMB4XDTE1
MDQyMDIwNDcxOVoXDTE2MDQxOTIwNDcxOVowga4xCzAJBgNVBAYTAkRFMREwDwYD
VQQIEwhTYWFybGFuZDEQMA4GA1UEChMHTVBJLVNXUzEiMCAGA1UECxMZRGlzdHJp
YnV0ZWQgU3lzdGVtcyBHcm91cDExMC8GA1UEAxMoZDJlMDgyNjQ4ZWQwYWE2ODU5
YmIyOTQxYmE0NGQ5Y2FjYmI1ZTFhNjEjMCEGCSqGSIb3DQEJARYUbm9kZTA1MDRA
b2N0YXJpbmUuZGUwgZ8wDQYJKoZIhvcNAQEBBQADgY0AMIGJAoGBALT/wr+ek+Mc
LNNpa/VnN2BTgtu2qDfk43EmHbF3iNrQ4WEFA7yKP3O3TO+N1f+0shnm8b1BtKBq
7nhyIzo5+RYZFWHXYoVYx19zPrKLBrnQJF7mqOPdUgr2r3rhwahZ9S/tYTp89Bsy
E3zpo3I1rmFLROnb8XgrwO4qELUTDt35AgMBAAEwDQYJKoZIhvcNAQEEBQADgYEA
elbehpxctFvA0+ir9aY8AZfZljYhJBTe96WDYPrsLiTTLdHv7YvHWLEOZBBHATjx
jDBIRpgYfCQY1exJja13FqajWauD0b1bj5FR4w6YQ62HBI5cPl7+fzGUGc7X5px0
bydCqQl9ZOb1ZQruCTFbTys3Csiz3u5pNKIYUr2jrOs=
-----END CERTIFICATE-----
