Certificate:
    Data:
        Version: 1 (0x0)
        Serial Number:
            9b:27:d7:e8:d1:ba:0a:1a
        Signature Algorithm: md5WithRSAEncryption
        Issuer: C=DE, ST=Saarland, O=MPI-SWS, OU=Distributed Systems Group, CN=Andreas Haeberlen/emailAddress=democa@octarine.de
        Validity
            Not Before: Apr 20 20:47:22 2015 GMT
            Not After : Apr 19 20:47:22 2016 GMT
        Subject: C=DE, ST=Saarland, O=MPI-SWS, OU=Distributed Systems Group, CN=c88a01d258069898b35fe975deed5bd246c4796d/emailAddress=node0578@octarine.de
        Subject Public Key Info:
            Public Key Algorithm: rsaEncryption
            RSA Public Key: (1024 bit)
                Modulus (1024 bit):
                    00:e6:f4:2f:95:1e:67:a3:14:9d:76:28:16:36:02:
                    dd:e7:df:6f:3d:3f:98:c2:9c:8b:1d:12:1f:a9:d7:
                    0b:e1:ce:85:9f:fa:fa:db:db:4c:73:3e:4e:54:c9:
                    05:ff:17:0a:36:69:d9:1c:60:18:fe:94:5c:4d:46:
                    ca:7c:aa:90:d9:15:e7:36:4a:8c:66:23:22:01:e8:
                    2a:e0:e4:a4:d7:b3:ea:b7:b4:38:ed:66:6a:5f:1f:
                    18:c2:88:94:8a:1d:98:2d:80:f7:04:58:71:eb:2e:
                    fe:89:4e:cf:1c:63:f5:91:eb:57:34:c5:72:4f:88:
                    77:e9:2f:88:57:57:46:8e:f1
                Exponent: 65537 (0x10001)
    Signature Algorithm: md5WithRSAEncryption
        4f:52:78:2f:61:c5:35:8d:06:9e:1e:74:83:bf:5f:9f:4d:b6:
        49:83:45:dc:24:17:ab:16:50:9f:a1:90:20:dd:0d:42:7e:51:
        b6:a6:7f:7b:7e:26:49:ba:c4:86:2e:85:3c:54:ca:c7:e5:45:
        0b:85:40:1f:78:aa:af:fe:9b:e2:21:f3:f4:0f:45:53:7c:35:
        9b:64:62:41:b1:5e:23:b9:db:cd:05:18:d3:61:63:8c:42:ca:
        6e:71:e6:7d:0d:4c:e1:49:55:24:20:ea:3b:75:c8:98:c0:40:
        a5:da:26:d0:cc:6f:9a:bd:7d:e2:60:b3:2c:49:ba:73:31:3e:
        56:d7
-----BEGIN CERTIFICATE-----
MIICvDCCAiUCCQCbJ9fo0boKGjANBgkqhkiG9w0BAQQFADCBlTELMAkGA1UEBhMC
REUxETAPBgNVBAgTCFNhYXJsYW5kMRAwDgYDVQQKEwdNUEktU1dTMSIwIAYDVQQL
ExlEaXN0cmlidXRlZCBTeXN0ZW1zIEdyb3VwMRowGAYDVQQDExFBbmRyZWFzIEhh
ZWJlcmxlbjEhMB8GCSqGSIb3DQEJARYSZGVtb2NhQG9jdGFyaW5lLmRlMB4XDTE1
MDQyMDIwNDcyMloXDTE2MDQxOTIwNDcyMlowga4xCzAJBgNVBAYTAkRFMREwDwYD
VQQIEwhTYWFybGFuZDEQMA4GA1UEChMHTVBJLVNXUzEiMCAGA1UECxMZRGlzdHJp
YnV0ZWQgU3lzdGVtcyBHcm91cDExMC8GA1UEAxMoYzg4YTAxZDI1ODA2OTg5OGIz
NWZlOTc1ZGVlZDViZDI0NmM0Nzk2ZDEjMCEGCSqGSIb3DQEJARYUbm9kZTA1NzhA
b2N0YXJpbmUuZGUwgZ8wDQYJKoZIhvcNAQEBBQADgY0AMIGJAoGBAOb0L5UeZ6MU
nXYoFjYC3effbz0/mMKcix0SH6nXC+HOhZ/6+tvbTHM+TlTJBf8XCjZp2RxgGP6U
XE1GynyqkNkV5zZKjGYjIgHoKuDkpNez6re0OO1mal8fGMKIlIodmC2A9wRYcesu
/olOzxxj9ZHrVzTFck+Id+kviFdXRo7xAgMBAAEwDQYJKoZIhvcNAQEEBQADgYEA
T1J4L2HFNY0Gnh50g79fn022SYNF3CQXqxZQn6GQIN0NQn5RtqZ/e34mSbrEhi6F
PFTKx+VFC4VAH3iqr/6b4iHz9A9FU3w1m2RiQbFeI7nbzQUY02FjjELKbnHmfQ1M
4UlVJCDqO3XImMBApdom0Mxvmr194mCzLEm6czE+Vtc=
-----END CERTIFICATE-----
