Certificate:
    Data:
        Version: 1 (0x0)
        Serial Number:
            9b:27:d7:e8:d1:ba:09:58
        Signature Algorithm: md5WithRSAEncryption
        Issuer: C=DE, ST=Saarland, O=MPI-SWS, OU=Distributed Systems Group, CN=Andreas Haeberlen/emailAddress=democa@octarine.de
        Validity
            Not Before: Apr 20 20:47:13 2015 GMT
            Not After : Apr 19 20:47:13 2016 GMT
        Subject: C=DE, ST=Saarland, O=MPI-SWS, OU=Distributed Systems Group, CN=74385530ffb59b4ce084df873e6a601d546aa9a9/emailAddress=node0384@octarine.de
        Subject Public Key Info:
            Public Key Algorithm: rsaEncryption
            RSA Public Key: (1024 bit)
                Modulus (1024 bit):
                    00:d2:4d:a0:0c:7b:73:55:a3:61:1b:83:c1:d2:67:
                    4d:c3:91:f9:c4:d8:dd:01:17:cf:4b:ad:ae:52:b8:
                    30:38:33:fb:be:76:41:84:a8:37:a6:f0:25:d7:38:
                    48:a3:c2:78:52:ea:90:61:21:fc:53:56:af:b3:55:
                    27:c4:32:1f:7a:06:ee:15:48:9b:e8:5d:08:43:4e:
                    79:d8:fd:47:83:b5:7f:d2:a1:25:79:4b:51:bf:d3:
                    07:d3:52:c6:82:82:92:d3:5b:30:60:e9:19:4f:7d:
                    d4:0c:2c:4c:25:e6:f5:c4:6c:df:89:23:12:d4:8c:
                    a9:00:6f:41:7c:f5:3a:43:bb
                Exponent: 65537 (0x10001)
    Signature Algorithm: md5WithRSAEncryption
        bf:a2:c3:68:68:fc:cf:69:5e:27:8a:48:c2:0f:71:cb:a1:7a:
        e9:73:e3:d9:58:79:0a:e4:f9:fe:7d:cd:e2:a9:3d:c8:1c:24:
        f3:9f:8b:bd:f5:df:08:9a:6a:71:91:e0:b4:ed:32:1a:90:a9:
        da:6f:40:f4:0c:3c:8e:cb:8b:e6:2d:22:eb:ba:e8:75:d6:2d:
        0f:f5:d4:d4:1f:76:a4:5c:72:6c:ee:8e:0b:dc:a3:b9:6e:45:
        b4:ec:62:68:18:a7:31:f4:0c:e6:af:9d:61:6d:ff:be:f9:c4:
        3f:17:29:5d:71:39:dd:28:0a:45:6e:2d:96:64:5c:53:8f:23:
        58:a4
-----BEGIN CERTIFICATE-----
MIICvDCCAiUCCQCbJ9fo0boJWDANBgkqhkiG9w0BAQQFADCBlTELMAkGA1UEBhMC
REUxETAPBgNVBAgTCFNhYXJsYW5kMRAwDgYDVQQKEwdNUEktU1dTMSIwIAYDVQQL
ExlEaXN0cmlidXRlZCBTeXN0ZW1zIEdyb3VwMRowGAYDVQQDExFBbmRyZWFzIEhh
ZWJlcmxlbjEhMB8GCSqGSIb3DQEJARYSZGVtb2NhQG9jdGFyaW5lLmRlMB4XDTE1
MDQyMDIwNDcxM1oXDTE2MDQxOTIwNDcxM1owga4xCzAJBgNVBAYTAkRFMREwDwYD
VQQIEwhTYWFybGFuZDEQMA4GA1UEChMHTVBJLVNXUzEiMCAGA1UECxMZRGlzdHJp
YnV0ZWQgU3lzdGVtcyBHcm91cDExMC8GA1UEAxMoNzQzODU1MzBmZmI1OWI0Y2Uw
ODRkZjg3M2U2YTYwMWQ1NDZhYTlhOTEjMCEGCSqGSIb3DQEJARYUbm9kZTAzODRA
b2N0YXJpbmUuZGUwgZ8wDQYJKoZIhvcNAQEBBQADgY0AMIGJAoGBANJNoAx7c1Wj
YRuDwdJnTcOR+cTY3QEXz0utrlK4MDgz+752QYSoN6bwJdc4SKPCeFLqkGEh/FNW
r7NVJ8QyH3oG7hVIm+hdCENOedj9R4O1f9KhJXlLUb/TB9NSxoKCktNbMGDpGU99
1AwsTCXm9cRs34kjEtSMqQBvQXz1OkO7AgMBAAEwDQYJKoZIhvcNAQEEBQADgYEA
v6LDaGj8z2leJ4pIwg9xy6F66XPj2Vh5CuT5/n3N4qk9yBwk85+LvfXfCJpqcZHg
tO0yGpCp2m9A9Aw8jsuL5i0i67roddYtD/XU1B92pFxybO6OC9yjuW5FtOxiaBin
MfQM5q+dYW3/vvnEPxcpXXE53SgKRW4tlmRcU48jWKQ=
-----END CERTIFICATE-----
