Certificate:
    Data:
        Version: 1 (0x0)
        Serial Number:
            9b:27:d7:e8:d1:ba:0a:bc
        Signature Algorithm: md5WithRSAEncryption
        Issuer: C=DE, ST=Saarland, O=MPI-SWS, OU=Distributed Systems Group, CN=Andreas Haeberlen/emailAddress=democa@octarine.de
        Validity
            Not Before: Apr 20 20:47:29 2015 GMT
            Not After : Apr 19 20:47:29 2016 GMT
        Subject: C=DE, ST=Saarland, O=MPI-SWS, OU=Distributed Systems Group, CN=c88183226be7cc2720f8789f547818ad13f962bc/emailAddress=node0740@octarine.de
        Subject Public Key Info:
            Public Key Algorithm: rsaEncryption
            RSA Public Key: (1024 bit)
                Modulus (1024 bit):
                    00:c1:aa:26:4e:1f:58:37:03:60:3d:b5:5f:90:d3:
                    bd:87:46:4e:29:c7:77:f8:b0:9c:11:cd:21:8c:66:
                    f9:84:9f:4c:db:5a:6c:55:bd:de:6a:b7:72:7b:df:
                    7a:d8:ac:70:d5:b4:19:1b:69:78:96:96:57:bf:80:
                    bf:ac:e1:0d:3c:9b:6e:f8:e2:f9:6f:8f:10:91:d8:
                    70:e2:6d:ba:fe:66:8e:df:cf:4b:9d:85:da:00:b3:
                    d0:d8:7f:a3:96:25:30:f1:c5:59:47:b8:37:41:95:
                    c8:2b:6d:c8:99:7f:d0:13:81:eb:1b:12:96:19:9c:
                    5e:53:fb:b8:5e:0e:74:a8:25
                Exponent: 65537 (0x10001)
    Signature Algorithm: md5WithRSAEncryption
        10:40:e1:bb:56:1d:97:6f:6b:96:de:02:ed:af:55:d9:ec:60:
        03:29:e0:6f:27:56:13:0e:f8:4e:b1:a2:46:88:ec:e0:d4:9d:
        67:09:65:54:63:42:7b:82:98:e3:53:be:0d:b1:18:e7:91:53:
        47:89:24:b0:5f:36:a7:cf:f7:7c:58:fc:63:21:36:ec:68:5e:
        b3:91:0c:d3:1b:56:4b:b6:f2:57:29:b3:4a:8f:d3:f4:08:ed:
        ab:5c:f9:c6:83:6f:ad:90:b3:75:53:a9:46:84:7f:0f:45:2b:
        73:a0:f3:e4:de:ed:4f:9d:e1:e2:7b:8e:b9:0f:47:59:2f:bc:
        2f:61
-----BEGIN CERTIFICATE-----
MIICvDCCAiUCCQCbJ9fo0boKvDANBgkqhkiG9w0BAQQFADCBlTELMAkGA1UEBhMC
REUxETAPBgNVBAgTCFNhYXJsYW5kMRAwDgYDVQQKEwdNUEktU1dTMSIwIAYDVQQL
ExlEaXN0cmlidXRlZCBTeXN0ZW1zIEdyb3VwMRowGAYDVQQDExFBbmRyZWFzIEhh
ZWJlcmxlbjEhMB8GCSqGSIb3DQEJARYSZGVtb2NhQG9jdGFyaW5lLmRlMB4XDTE1
MDQyMDIwNDcyOVoXDTE2MDQxOTIwNDcyOVowga4xCzAJBgNVBAYTAkRFMREwDwYD
VQQIEwhTYWFybGFuZDEQMA4GA1UEChMHTVBJLVNXUzEiMCAGA1UECxMZRGlzdHJp
YnV0ZWQgU3lzdGVtcyBHcm91cDExMC8GA1UEAxMoYzg4MTgzMjI2YmU3Y2MyNzIw
Zjg3ODlmNTQ3ODE4YWQxM2Y5NjJiYzEjMCEGCSqGSIb3DQEJARYUbm9kZTA3NDBA
b2N0YXJpbmUuZGUwgZ8wDQYJKoZIhvcNAQEBBQADgY0AMIGJAoGBAMGqJk4fWDcD
YD21X5DTvYdGTinHd/iwnBHNIYxm+YSfTNtabFW93mq3cnvfetiscNW0GRtpeJaW
V7+Av6zhDTybbvji+W+PEJHYcOJtuv5mjt/PS52F2gCz0Nh/o5YlMPHFWUe4N0GV
yCttyJl/0BOB6xsSlhmcXlP7uF4OdKglAgMBAAEwDQYJKoZIhvcNAQEEBQADgYEA
EEDhu1Ydl29rlt4C7a9V2exgAyngbydWEw74TrGiRojs4NSdZwllVGNCe4KY41O+
DbEY55FTR4kksF82p8/3fFj8YyE27Ghes5EM0xtWS7byVymzSo/T9Ajtq1z5xoNv
rZCzdVOpRoR/D0Urc6Dz5N7tT53h4nuOuQ9HWS+8L2E=
-----END CERTIFICATE-----
