Certificate:
    Data:
        Version: 1 (0x0)
        Serial Number:
            9b:27:d7:e8:d1:ba:0b:20
        Signature Algorithm: md5WithRSAEncryption
        Issuer: C=DE, ST=Saarland, O=MPI-SWS, OU=Distributed Systems Group, CN=Andreas Haeberlen/emailAddress=democa@octarine.de
        Validity
            Not Before: Apr 20 20:47:34 2015 GMT
            Not After : Apr 19 20:47:34 2016 GMT
        Subject: C=DE, ST=Saarland, O=MPI-SWS, OU=Distributed Systems Group, CN=b67427d7c4d7e25046617380c44db826e9a1178e/emailAddress=node0840@octarine.de
        Subject Public Key Info:
            Public Key Algorithm: rsaEncryption
            RSA Public Key: (1024 bit)
                Modulus (1024 bit):
                    00:cb:1d:33:17:b5:97:57:85:30:23:bf:9e:cc:a7:
                    b4:78:de:21:0e:7a:9f:66:8e:4d:27:44:e7:3a:91:
                    84:0d:ef:28:85:21:6d:f8:15:4d:e3:b5:dd:a9:da:
                    8a:a9:15:80:f9:a3:d4:10:f8:fe:46:8c:cd:0b:cf:
                    58:e2:1a:01:f9:70:85:4c:da:a3:a3:46:21:d6:d6:
                    48:f6:db:33:8a:ef:33:d7:8f:cf:55:3d:8b:9a:0b:
                    d4:d8:53:06:6b:0c:cf:01:6a:1b:b1:05:60:d6:0a:
                    e9:19:df:c0:ce:75:61:fb:3c:40:8f:8d:35:42:94:
                    c0:9e:fb:e6:b3:5d:89:78:27
                Exponent: 65537 (0x10001)
    Signature Algorithm: md5WithRSAEncryption
        51:bd:84:88:5b:99:c4:d0:0a:5c:cc:19:cc:00:e8:77:8c:65:
        e6:0c:41:16:0b:02:c1:39:a2:21:73:e9:d7:ef:ed:53:a2:d2:
        3f:7b:be:78:2b:b3:9d:65:b5:8d:4c:71:60:95:39:4c:9a:fe:
        00:6d:46:99:73:3f:1b:82:45:f3:33:84:92:4f:6e:15:72:a0:
        c1:0f:a0:b9:3d:95:3a:26:1b:12:d3:fa:00:e8:d8:8a:5e:37:
        03:83:0e:26:a3:f1:fd:68:24:c0:8a:24:63:a3:85:29:da:53:
        b3:bb:22:0a:b0:9f:1c:e5:d9:bc:9e:e2:ba:8e:d0:4c:d1:c7:
        6f:f0
-----BEGIN CERTIFICATE-----
MIICvDCCAiUCCQCbJ9fo0boLIDANBgkqhkiG9w0BAQQFADCBlTELMAkGA1UEBhMC
REUxETAPBgNVBAgTCFNhYXJsYW5kMRAwDgYDVQQKEwdNUEktU1dTMSIwIAYDVQQL
ExlEaXN0cmlidXRlZCBTeXN0ZW1zIEdyb3VwMRowGAYDVQQDExFBbmRyZWFzIEhh
ZWJlcmxlbjEhMB8GCSqGSIb3DQEJARYSZGVtb2NhQG9jdGFyaW5lLmRlMB4XDTE1
MDQyMDIwNDczNFoXDTE2MDQxOTIwNDczNFowga4xCzAJBgNVBAYTAkRFMREwDwYD
VQQIEwhTYWFybGFuZDEQMA4GA1UEChMHTVBJLVNXUzEiMCAGA1UECxMZRGlzdHJp
YnV0ZWQgU3lzdGVtcyBHcm91cDExMC8GA1UEAxMoYjY3NDI3ZDdjNGQ3ZTI1MDQ2
NjE3MzgwYzQ0ZGI4MjZlOWExMTc4ZTEjMCEGCSqGSIb3DQEJARYUbm9kZTA4NDBA
b2N0YXJpbmUuZGUwgZ8wDQYJKoZIhvcNAQEBBQADgY0AMIGJAoGBAMsdMxe1l1eF
MCO/nsyntHjeIQ56n2aOTSdE5zqRhA3vKIUhbfgVTeO13anaiqkVgPmj1BD4/kaM
zQvPWOIaAflwhUzao6NGIdbWSPbbM4rvM9ePz1U9i5oL1NhTBmsMzwFqG7EFYNYK
6RnfwM51Yfs8QI+NNUKUwJ775rNdiXgnAgMBAAEwDQYJKoZIhvcNAQEEBQADgYEA
Ub2EiFuZxNAKXMwZzADod4xl5gxBFgsCwTmiIXPp1+/tU6LSP3u+eCuznWW1jUxx
YJU5TJr+AG1GmXM/G4JF8zOEkk9uFXKgwQ+guT2VOiYbEtP6AOjYil43A4MOJqPx
/WgkwIokY6OFKdpTs7siCrCfHOXZvJ7iuo7QTNHHb/A=
-----END CERTIFICATE-----
