Certificate:
    Data:
        Version: 1 (0x0)
        Serial Number:
            9b:27:d7:e8:d1:ba:09:aa
        Signature Algorithm: md5WithRSAEncryption
        Issuer: C=DE, ST=Saarland, O=MPI-SWS, OU=Distributed Systems Group, CN=Andreas Haeberlen/emailAddress=democa@octarine.de
        Validity
            Not Before: Apr 20 20:47:17 2015 GMT
            Not After : Apr 19 20:47:17 2016 GMT
        Subject: C=DE, ST=Saarland, O=MPI-SWS, OU=Distributed Systems Group, CN=c5e0391c4e9cd765f9f7c930d8958815df6197ed/emailAddress=node0466@octarine.de
        Subject Public Key Info:
            Public Key Algorithm: rsaEncryption
            RSA Public Key: (1024 bit)
                Modulus (1024 bit):
                    00:a6:71:bc:da:68:30:db:3c:b2:85:d7:39:a4:9c:
                    4d:25:36:70:99:e4:1c:24:cb:de:e1:67:9f:b3:23:
                    6d:e4:78:4e:ea:f7:55:35:21:08:5e:6d:7d:62:8a:
                    0b:0c:a2:60:b4:f7:35:8e:55:e3:4a:ba:b3:b5:4b:
                    e8:68:1f:56:87:11:dc:8a:21:de:a1:2e:ea:06:34:
                    80:48:ec:dc:4c:89:79:b1:6b:ba:15:53:68:f7:ff:
                    45:bc:81:3f:ed:37:02:6e:65:ae:5b:58:0f:e8:40:
                    e0:8e:d6:a1:95:f3:7f:26:10:90:9c:3b:ab:8f:00:
                    f4:e0:27:9e:15:3b:1f:b8:6f
                Exponent: 65537 (0x10001)
    Signature Algorithm: md5WithRSAEncryption
        03:65:e4:87:1d:3a:b9:5f:fc:4d:e7:13:61:c5:0c:aa:eb:94:
        56:b0:e9:3f:7c:d1:c4:fa:03:69:52:5f:a9:f0:6d:49:fa:2b:
        42:0a:44:0c:af:f3:37:69:74:cb:fc:dd:84:3a:23:0a:8e:9e:
        94:cb:e1:00:7a:9b:1e:df:7c:80:1d:f6:fc:be:de:34:6a:54:
        63:c2:65:a3:92:bd:c0:9c:c6:9f:0c:d5:06:cf:7e:86:27:5f:
        a8:13:74:25:af:0c:de:b9:59:cb:7b:e9:95:85:03:34:b3:f0:
        fa:98:51:69:a8:a0:2f:af:5e:2d:8a:d2:da:13:57:92:00:66:
        37:94
-----BEGIN CERTIFICATE-----
MIICvDCCAiUCCQCbJ9fo0boJqjANBgkqhkiG9w0BAQQFADCBlTELMAkGA1UEBhMC
REUxETAPBgNVBAgTCFNhYXJsYW5kMRAwDgYDVQQKEwdNUEktU1dTMSIwIAYDVQQL
ExlEaXN0cmlidXRlZCBTeXN0ZW1zIEdyb3VwMRowGAYDVQQDExFBbmRyZWFzIEhh
ZWJlcmxlbjEhMB8GCSqGSIb3DQEJARYSZGVtb2NhQG9jdGFyaW5lLmRlMB4XDTE1
MDQyMDIwNDcxN1oXDTE2MDQxOTIwNDcxN1owga4xCzAJBgNVBAYTAkRFMREwDwYD
VQQIEwhTYWFybGFuZDEQMA4GA1UEChMHTVBJLVNXUzEiMCAGA1UECxMZRGlzdHJp
YnV0ZWQgU3lzdGVtcyBHcm91cDExMC8GA1UEAxMoYzVlMDM5MWM0ZTljZDc2NWY5
ZjdjOTMwZDg5NTg4MTVkZjYxOTdlZDEjMCEGCSqGSIb3DQEJARYUbm9kZTA0NjZA
b2N0YXJpbmUuZGUwgZ8wDQYJKoZIhvcNAQEBBQADgY0AMIGJAoGBAKZxvNpoMNs8
soXXOaScTSU2cJnkHCTL3uFnn7MjbeR4Tur3VTUhCF5tfWKKCwyiYLT3NY5V40q6
s7VL6GgfVocR3Ioh3qEu6gY0gEjs3EyJebFruhVTaPf/RbyBP+03Am5lrltYD+hA
4I7WoZXzfyYQkJw7q48A9OAnnhU7H7hvAgMBAAEwDQYJKoZIhvcNAQEEBQADgYEA
A2Xkhx06uV/8TecTYcUMquuUVrDpP3zRxPoDaVJfqfBtSforQgpEDK/zN2l0y/zd
hDojCo6elMvhAHqbHt98gB32/L7eNGpUY8Jlo5K9wJzGnwzVBs9+hidfqBN0Ja8M
3rlZy3vplYUDNLPw+phRaaigL69eLYrS2hNXkgBmN5Q=
-----END CERTIFICATE-----
