Certificate:
    Data:
        Version: 1 (0x0)
        Serial Number:
            9b:27:d7:e8:d1:ba:08:39
        Signature Algorithm: md5WithRSAEncryption
        Issuer: C=DE, ST=Saarland, O=MPI-SWS, OU=Distributed Systems Group, CN=Andreas Haeberlen/emailAddress=democa@octarine.de
        Validity
            Not Before: Apr 20 20:47:01 2015 GMT
            Not After : Apr 19 20:47:01 2016 GMT
        Subject: C=DE, ST=Saarland, O=MPI-SWS, OU=Distributed Systems Group, CN=d7b6b78413ead90803635f0278c2819694c5c59d/emailAddress=node0097@octarine.de
        Subject Public Key Info:
            Public Key Algorithm: rsaEncryption
            RSA Public Key: (1024 bit)
                Modulus (1024 bit):
                    00:a4:ab:75:a6:01:9c:60:69:1b:7d:d8:21:6b:a0:
                    cd:58:1c:f6:ff:28:5d:f6:c6:f1:67:7e:7a:8f:1f:
                    12:5e:9f:31:08:1d:73:75:71:c8:cc:0b:0d:4a:87:
                    35:28:65:22:37:8c:ab:4e:07:17:57:88:e2:33:01:
                    70:d7:78:11:9c:ab:dd:61:5e:5e:7e:15:a1:48:b4:
                    8a:75:09:7f:1b:58:e5:f9:78:c7:2c:7b:89:32:ba:
                    a8:4c:87:8a:11:a3:72:d8:28:d9:2f:7d:be:66:e4:
                    76:64:bd:12:5c:a0:c6:78:13:b1:8c:1f:13:15:f8:
                    a9:ef:06:9a:17:b4:c4:59:31
                Exponent: 65537 (0x10001)
    Signature Algorithm: md5WithRSAEncryption
        c7:c3:7e:fc:c3:ba:37:df:8a:f5:06:11:0a:3f:c6:a5:ce:ae:
        6a:96:20:14:f4:cb:29:fb:f4:7f:da:5d:27:b5:e8:00:01:98:
        72:7f:8c:83:0d:b1:b3:93:99:06:6b:c8:1a:98:ed:e5:69:85:
        41:45:b4:5f:9d:33:8f:41:71:67:96:30:79:81:04:1f:ad:d6:
        27:24:d4:65:01:03:81:f0:c8:7c:0d:66:36:85:86:fd:1a:79:
        c5:fe:14:5e:0f:0e:c0:88:60:71:35:af:9f:90:9b:47:f5:d1:
        71:4d:87:e0:89:b8:ee:dd:2c:8f:29:ab:5d:bd:5c:01:1a:fe:
        8e:58
-----BEGIN CERTIFICATE-----
MIICvDCCAiUCCQCbJ9fo0boIOTANBgkqhkiG9w0BAQQFADCBlTELMAkGA1UEBhMC
REUxETAPBgNVBAgTCFNhYXJsYW5kMRAwDgYDVQQKEwdNUEktU1dTMSIwIAYDVQQL
ExlEaXN0cmlidXRlZCBTeXN0ZW1zIEdyb3VwMRowGAYDVQQDExFBbmRyZWFzIEhh
ZWJlcmxlbjEhMB8GCSqGSIb3DQEJARYSZGVtb2NhQG9jdGFyaW5lLmRlMB4XDTE1
MDQyMDIwNDcwMVoXDTE2MDQxOTIwNDcwMVowga4xCzAJBgNVBAYTAkRFMREwDwYD
VQQIEwhTYWFybGFuZDEQMA4GA1UEChMHTVBJLVNXUzEiMCAGA1UECxMZRGlzdHJp
YnV0ZWQgU3lzdGVtcyBHcm91cDExMC8GA1UEAxMoZDdiNmI3ODQxM2VhZDkwODAz
NjM1ZjAyNzhjMjgxOTY5NGM1YzU5ZDEjMCEGCSqGSIb3DQEJARYUbm9kZTAwOTdA
b2N0YXJpbmUuZGUwgZ8wDQYJKoZIhvcNAQEBBQADgY0AMIGJAoGBAKSrdaYBnGBp
G33YIWugzVgc9v8oXfbG8Wd+eo8fEl6fMQgdc3VxyMwLDUqHNShlIjeMq04HF1eI
4jMBcNd4EZyr3WFeXn4VoUi0inUJfxtY5fl4xyx7iTK6qEyHihGjctgo2S99vmbk
dmS9ElygxngTsYwfExX4qe8Gmhe0xFkxAgMBAAEwDQYJKoZIhvcNAQEEBQADgYEA
x8N+/MO6N9+K9QYRCj/Gpc6uapYgFPTLKfv0f9pdJ7XoAAGYcn+Mgw2xs5OZBmvI
Gpjt5WmFQUW0X50zj0FxZ5YweYEEH63WJyTUZQEDgfDIfA1mNoWG/Rp5xf4UXg8O
wIhgcTWvn5CbR/XRcU2H4Im47t0sjymrXb1cARr+jlg=
-----END CERTIFICATE-----
