Certificate:
    Data:
        Version: 1 (0x0)
        Serial Number:
            9b:27:d7:e8:d1:ba:0b:42
        Signature Algorithm: md5WithRSAEncryption
        Issuer: C=DE, ST=Saarland, O=MPI-SWS, OU=Distributed Systems Group, CN=Andreas Haeberlen/emailAddress=democa@octarine.de
        Validity
            Not Before: Apr 20 20:47:35 2015 GMT
            Not After : Apr 19 20:47:35 2016 GMT
        Subject: C=DE, ST=Saarland, O=MPI-SWS, OU=Distributed Systems Group, CN=1dfe1704e1b88617f4a50cd22cfd2e34c22da218/emailAddress=node0874@octarine.de
        Subject Public Key Info:
            Public Key Algorithm: rsaEncryption
            RSA Public Key: (1024 bit)
                Modulus (1024 bit):
                    00:cb:e8:0b:55:e7:8e:b6:d8:d7:0f:23:34:1a:3d:
                    a6:22:57:f3:81:a6:2b:ac:c6:55:6d:7b:ec:55:ca:
                    d5:84:d6:5b:be:47:ac:9c:d8:dc:9a:34:d1:f3:55:
                    63:5b:0e:18:49:1b:dd:b0:47:13:1a:9d:fe:71:7c:
                    7b:ff:ab:cd:94:b4:8a:05:ab:10:81:d1:49:98:e5:
                    c4:50:eb:ff:aa:5e:05:66:be:d5:a1:6d:ec:f5:69:
                    c4:71:40:32:4f:fd:1b:43:58:7f:56:59:50:4b:ed:
                    f9:6d:51:ea:cf:1c:9b:df:2d:36:fc:08:c6:b3:98:
                    43:88:39:21:fc:a6:5c:31:c9
                Exponent: 65537 (0x10001)
    Signature Algorithm: md5WithRSAEncryption
        73:67:54:20:4c:fd:28:b2:df:54:d6:0c:2f:55:20:85:57:9e:
        4b:dc:d6:ea:01:80:c3:15:8f:c4:b6:77:ea:b7:86:62:a2:b2:
        7a:06:bc:4f:b9:5f:99:e8:76:a9:a5:21:ba:b2:8d:93:05:c0:
        97:5e:86:39:b0:f6:00:11:a5:fd:05:30:d5:71:ba:59:c2:8b:
        50:f0:84:76:de:5a:0d:b3:b3:97:1e:bd:d8:49:af:fc:34:e5:
        e7:05:69:c6:e9:6a:57:e4:34:19:aa:d9:b1:b4:c5:66:ad:3c:
        95:8e:04:c3:9c:84:8c:76:21:9f:14:c4:d8:68:6d:ae:61:be:
        72:47
-----BEGIN CERTIFICATE-----
MIICvDCCAiUCCQCbJ9fo0boLQjANBgkqhkiG9w0BAQQFADCBlTELMAkGA1UEBhMC
REUxETAPBgNVBAgTCFNhYXJsYW5kMRAwDgYDVQQKEwdNUEktU1dTMSIwIAYDVQQL
ExlEaXN0cmlidXRlZCBTeXN0ZW1zIEdyb3VwMRowGAYDVQQDExFBbmRyZWFzIEhh
ZWJlcmxlbjEhMB8GCSqGSIb3DQEJARYSZGVtb2NhQG9jdGFyaW5lLmRlMB4XDTE1
MDQyMDIwNDczNVoXDTE2MDQxOTIwNDczNVowga4xCzAJBgNVBAYTAkRFMREwDwYD
VQQIEwhTYWFybGFuZDEQMA4GA1UEChMHTVBJLVNXUzEiMCAGA1UECxMZRGlzdHJp
YnV0ZWQgU3lzdGVtcyBHcm91cDExMC8GA1UEAxMoMWRmZTE3MDRlMWI4ODYxN2Y0
YTUwY2QyMmNmZDJlMzRjMjJkYTIxODEjMCEGCSqGSIb3DQEJARYUbm9kZTA4NzRA
b2N0YXJpbmUuZGUwgZ8wDQYJKoZIhvcNAQEBBQADgY0AMIGJAoGBAMvoC1XnjrbY
1w8jNBo9piJX84GmK6zGVW177FXK1YTWW75HrJzY3Jo00fNVY1sOGEkb3bBHExqd
/nF8e/+rzZS0igWrEIHRSZjlxFDr/6peBWa+1aFt7PVpxHFAMk/9G0NYf1ZZUEvt
+W1R6s8cm98tNvwIxrOYQ4g5IfymXDHJAgMBAAEwDQYJKoZIhvcNAQEEBQADgYEA
c2dUIEz9KLLfVNYML1UghVeeS9zW6gGAwxWPxLZ36reGYqKyega8T7lfmeh2qaUh
urKNkwXAl16GObD2ABGl/QUw1XG6WcKLUPCEdt5aDbOzlx692Emv/DTl5wVpxulq
V+Q0GarZsbTFZq08lY4Ew5yEjHYhnxTE2GhtrmG+ckc=
-----END CERTIFICATE-----
