Certificate:
    Data:
        Version: 1 (0x0)
        Serial Number:
            9b:27:d7:e8:d1:ba:08:0c
        Signature Algorithm: md5WithRSAEncryption
        Issuer: C=DE, ST=Saarland, O=MPI-SWS, OU=Distributed Systems Group, CN=Andreas Haeberlen/emailAddress=democa@octarine.de
        Validity
            Not Before: Apr 20 20:46:59 2015 GMT
            Not After : Apr 19 20:46:59 2016 GMT
        Subject: C=DE, ST=Saarland, O=MPI-SWS, OU=Distributed Systems Group, CN=ca4f1034d9104d71ee5beaff2f08106dbaccb019/emailAddress=node0052@octarine.de
        Subject Public Key Info:
            Public Key Algorithm: rsaEncryption
            RSA Public Key: (1024 bit)
                Modulus (1024 bit):
                    00:b9:57:23:46:cc:be:c6:12:23:21:00:03:7b:82:
                    8a:1b:07:4f:27:b1:22:b2:ab:31:f9:ed:7c:ca:77:
                    ec:37:d2:14:1c:84:c5:ef:55:20:d6:74:c8:35:6a:
                    89:c3:ad:96:b5:da:2e:f8:9c:1f:de:b7:f9:f5:f1:
                    af:dc:81:a4:2c:c3:88:b3:31:46:4f:5c:d8:1a:69:
                    5f:e8:94:a7:41:52:59:b1:9b:73:42:a5:b4:46:85:
                    23:f7:52:d6:c7:73:81:fa:32:fe:53:33:64:a0:0a:
                    c8:ca:48:35:fc:5d:18:a0:fb:83:a7:16:5d:6a:c5:
                    05:4e:a7:f6:b2:90:d4:8e:07
                Exponent: 65537 (0x10001)
    Signature Algorithm: md5WithRSAEncryption
        9a:a4:1d:9e:0b:77:f9:9b:df:f6:2c:18:86:f1:31:19:83:a9:
        8a:0a:1a:21:fb:5e:34:86:18:f6:3f:a9:8b:6f:27:76:d3:00:
        1d:98:2f:29:5f:eb:f4:de:fb:89:af:6c:7c:80:6a:88:f6:8b:
        cd:fd:df:ef:27:75:29:4e:89:f5:ad:87:58:0b:75:09:44:a5:
        bc:6c:e4:0e:8a:4b:3d:db:90:f7:0d:01:cc:35:2e:7c:1f:96:
        5a:c8:c1:29:63:e8:8e:6e:67:df:da:56:53:f8:63:5e:7e:b5:
        a8:58:97:df:ec:d2:f3:fb:a8:ff:b4:b5:69:c4:90:55:a9:3b:
        70:64
-----BEGIN CERTIFICATE-----
MIICvDCCAiUCCQCbJ9fo0boIDDANBgkqhkiG9w0BAQQFADCBlTELMAkGA1UEBhMC
REUxETAPBgNVBAgTCFNhYXJsYW5kMRAwDgYDVQQKEwdNUEktU1dTMSIwIAYDVQQL
ExlEaXN0cmlidXRlZCBTeXN0ZW1zIEdyb3VwMRowGAYDVQQDExFBbmRyZWFzIEhh
ZWJlcmxlbjEhMB8GCSqGSIb3DQEJARYSZGVtb2NhQG9jdGFyaW5lLmRlMB4XDTE1
MDQyMDIwNDY1OVoXDTE2MDQxOTIwNDY1OVowga4xCzAJBgNVBAYTAkRFMREwDwYD
VQQIEwhTYWFybGFuZDEQMA4GA1UEChMHTVBJLVNXUzEiMCAGA1UECxMZRGlzdHJp
YnV0ZWQgU3lzdGVtcyBHcm91cDExMC8GA1UEAxMoY2E0ZjEwMzRkOTEwNGQ3MWVl
NWJlYWZmMmYwODEwNmRiYWNjYjAxOTEjMCEGCSqGSIb3DQEJARYUbm9kZTAwNTJA
b2N0YXJpbmUuZGUwgZ8wDQYJKoZIhvcNAQEBBQADgY0AMIGJAoGBALlXI0bMvsYS
IyEAA3uCihsHTyexIrKrMfntfMp37DfSFByExe9VINZ0yDVqicOtlrXaLvicH963
+fXxr9yBpCzDiLMxRk9c2BppX+iUp0FSWbGbc0KltEaFI/dS1sdzgfoy/lMzZKAK
yMpINfxdGKD7g6cWXWrFBU6n9rKQ1I4HAgMBAAEwDQYJKoZIhvcNAQEEBQADgYEA
mqQdngt3+Zvf9iwYhvExGYOpigoaIfteNIYY9j+pi28ndtMAHZgvKV/r9N77ia9s
fIBqiPaLzf3f7yd1KU6J9a2HWAt1CUSlvGzkDopLPduQ9w0BzDUufB+WWsjBKWPo
jm5n39pWU/hjXn61qFiX3+zS8/uo/7S1acSQVak7cGQ=
-----END CERTIFICATE-----
