Certificate:
    Data:
        Version: 1 (0x0)
        Serial Number:
            9b:27:d7:e8:d1:ba:09:5e
        Signature Algorithm: md5WithRSAEncryption
        Issuer: C=DE, ST=Saarland, O=MPI-SWS, OU=Distributed Systems Group, CN=Andreas Haeberlen/emailAddress=democa@octarine.de
        Validity
            Not Before: Apr 20 20:47:13 2015 GMT
            Not After : Apr 19 20:47:13 2016 GMT
        Subject: C=DE, ST=Saarland, O=MPI-SWS, OU=Distributed Systems Group, CN=57f194145602b3066016ffba4bb2c1719722b461/emailAddress=node0390@octarine.de
        Subject Public Key Info:
            Public Key Algorithm: rsaEncryption
            RSA Public Key: (1024 bit)
                Modulus (1024 bit):
                    00:c3:81:a4:37:3b:5b:fc:d1:47:a0:77:1b:2f:7a:
                    71:2f:61:2a:ae:d8:be:3f:10:28:88:2f:55:6e:aa:
                    37:b8:ea:5a:db:2a:5a:66:1f:75:81:99:ab:9a:6f:
                    2d:84:93:0d:9e:fc:bf:8f:1b:22:1b:23:c5:85:76:
                    80:b7:e1:91:fa:d9:94:0a:65:e3:8a:b0:09:13:d9:
                    61:48:10:07:4a:eb:20:5a:f1:d1:f5:9a:57:4c:08:
                    d7:24:18:bd:cb:34:e1:5b:ea:6a:f0:e0:85:ba:21:
                    fd:17:6e:1d:0e:37:11:d9:a2:03:a9:e6:aa:88:5a:
                    cd:d6:8a:0d:c8:fd:b5:eb:4f
                Exponent: 65537 (0x10001)
    Signature Algorithm: md5WithRSAEncryption
        91:2e:af:d3:08:2b:47:2e:a7:2d:d9:57:8d:a2:1e:6f:a2:75:
        ce:86:17:f5:5b:e4:74:79:14:81:5c:de:1b:80:e4:ab:37:10:
        53:49:9f:e3:8b:0c:ca:d0:e6:a7:42:df:55:a4:66:5f:80:f7:
        23:cd:71:e5:c0:44:53:aa:69:81:a8:41:50:d8:c1:47:ca:d0:
        21:77:59:0f:b9:5c:a2:45:9c:79:dc:7e:1e:13:90:b9:f4:f2:
        11:fd:85:b2:4b:67:0c:68:ad:51:b9:df:d5:b4:89:e0:50:f5:
        28:5f:c2:ce:f7:62:4f:fc:6f:d0:37:68:30:f9:1f:56:2a:e1:
        4c:c8
-----BEGIN CERTIFICATE-----
MIICvDCCAiUCCQCbJ9fo0boJXjANBgkqhkiG9w0BAQQFADCBlTELMAkGA1UEBhMC
REUxETAPBgNVBAgTCFNhYXJsYW5kMRAwDgYDVQQKEwdNUEktU1dTMSIwIAYDVQQL
ExlEaXN0cmlidXRlZCBTeXN0ZW1zIEdyb3VwMRowGAYDVQQDExFBbmRyZWFzIEhh
ZWJlcmxlbjEhMB8GCSqGSIb3DQEJARYSZGVtb2NhQG9jdGFyaW5lLmRlMB4XDTE1
MDQyMDIwNDcxM1oXDTE2MDQxOTIwNDcxM1owga4xCzAJBgNVBAYTAkRFMREwDwYD
VQQIEwhTYWFybGFuZDEQMA4GA1UEChMHTVBJLVNXUzEiMCAGA1UECxMZRGlzdHJp
YnV0ZWQgU3lzdGVtcyBHcm91cDExMC8GA1UEAxMoNTdmMTk0MTQ1NjAyYjMwNjYw
MTZmZmJhNGJiMmMxNzE5NzIyYjQ2MTEjMCEGCSqGSIb3DQEJARYUbm9kZTAzOTBA
b2N0YXJpbmUuZGUwgZ8wDQYJKoZIhvcNAQEBBQADgY0AMIGJAoGBAMOBpDc7W/zR
R6B3Gy96cS9hKq7Yvj8QKIgvVW6qN7jqWtsqWmYfdYGZq5pvLYSTDZ78v48bIhsj
xYV2gLfhkfrZlApl44qwCRPZYUgQB0rrIFrx0fWaV0wI1yQYvcs04VvqavDghboh
/RduHQ43EdmiA6nmqohazdaKDcj9tetPAgMBAAEwDQYJKoZIhvcNAQEEBQADgYEA
kS6v0wgrRy6nLdlXjaIeb6J1zoYX9VvkdHkUgVzeG4DkqzcQU0mf44sMytDmp0Lf
VaRmX4D3I81x5cBEU6ppgahBUNjBR8rQIXdZD7lcokWcedx+HhOQufTyEf2Fsktn
DGitUbnf1bSJ4FD1KF/CzvdiT/xv0DdoMPkfVirhTMg=
-----END CERTIFICATE-----
