Certificate:
    Data:
        Version: 1 (0x0)
        Serial Number:
            9b:27:d7:e8:d1:ba:09:e3
        Signature Algorithm: md5WithRSAEncryption
        Issuer: C=DE, ST=Saarland, O=MPI-SWS, OU=Distributed Systems Group, CN=Andreas Haeberlen/emailAddress=democa@octarine.de
        Validity
            Not Before: Apr 20 20:47:20 2015 GMT
            Not After : Apr 19 20:47:20 2016 GMT
        Subject: C=DE, ST=Saarland, O=MPI-SWS, OU=Distributed Systems Group, CN=33266180952d70af69b18ef3dd17543876fe87f2/emailAddress=node0523@octarine.de
        Subject Public Key Info:
            Public Key Algorithm: rsaEncryption
            RSA Public Key: (1024 bit)
                Modulus (1024 bit):
                    00:9e:1c:a7:f7:06:b3:23:b5:83:f7:69:02:51:56:
                    0f:31:00:98:88:24:d3:f6:b9:6c:b3:82:97:df:5d:
                    dc:56:e3:ac:f3:b0:b1:46:73:13:bb:86:3f:d6:60:
                    cf:c4:26:6c:87:bc:43:4c:38:18:8c:8d:12:78:02:
                    ec:45:03:57:64:6f:45:cc:26:9f:bf:7f:9e:c8:ab:
                    b8:06:19:f9:ea:e9:51:bf:7f:cb:61:4c:e7:a7:4b:
                    f1:97:9a:d3:cc:c3:42:9e:b7:8d:a3:8a:ec:22:b4:
                    40:a6:f3:d4:55:7a:0e:bb:c9:92:04:35:36:d2:35:
                    69:2d:1f:de:28:4e:ba:3f:03
                Exponent: 65537 (0x10001)
    Signature Algorithm: md5WithRSAEncryption
        9f:6f:7a:ad:50:5e:b9:7b:38:14:70:e3:20:32:ca:4c:98:8f:
        2c:b0:bb:a8:9c:39:74:3d:35:4f:11:d2:99:24:63:ff:72:82:
        57:67:bf:ba:07:7f:ad:df:72:e8:b0:92:41:db:ef:aa:c8:76:
        79:56:0c:2a:77:3e:3b:38:70:d5:84:be:a6:e4:4e:bf:46:23:
        54:aa:4e:6f:33:1e:5c:da:8a:59:56:2e:0a:30:13:99:56:17:
        4a:af:3a:83:de:55:56:7a:31:12:52:41:7c:2b:8b:04:19:d2:
        aa:3a:5d:61:5a:1a:da:a2:30:4e:50:13:26:3d:65:f0:96:36:
        39:92
-----BEGIN CERTIFICATE-----
MIICvDCCAiUCCQCbJ9fo0boJ4zANBgkqhkiG9w0BAQQFADCBlTELMAkGA1UEBhMC
REUxETAPBgNVBAgTCFNhYXJsYW5kMRAwDgYDVQQKEwdNUEktU1dTMSIwIAYDVQQL
ExlEaXN0cmlidXRlZCBTeXN0ZW1zIEdyb3VwMRowGAYDVQQDExFBbmRyZWFzIEhh
ZWJlcmxlbjEhMB8GCSqGSIb3DQEJARYSZGVtb2NhQG9jdGFyaW5lLmRlMB4XDTE1
MDQyMDIwNDcyMFoXDTE2MDQxOTIwNDcyMFowga4xCzAJBgNVBAYTAkRFMREwDwYD
VQQIEwhTYWFybGFuZDEQMA4GA1UEChMHTVBJLVNXUzEiMCAGA1UECxMZRGlzdHJp
YnV0ZWQgU3lzdGVtcyBHcm91cDExMC8GA1UEAxMoMzMyNjYxODA5NTJkNzBhZjY5
YjE4ZWYzZGQxNzU0Mzg3NmZlODdmMjEjMCEGCSqGSIb3DQEJARYUbm9kZTA1MjNA
b2N0YXJpbmUuZGUwgZ8wDQYJKoZIhvcNAQEBBQADgY0AMIGJAoGBAJ4cp/cGsyO1
g/dpAlFWDzEAmIgk0/a5bLOCl99d3FbjrPOwsUZzE7uGP9Zgz8QmbIe8Q0w4GIyN
EngC7EUDV2RvRcwmn79/nsiruAYZ+erpUb9/y2FM56dL8Zea08zDQp63jaOK7CK0
QKbz1FV6DrvJkgQ1NtI1aS0f3ihOuj8DAgMBAAEwDQYJKoZIhvcNAQEEBQADgYEA
n296rVBeuXs4FHDjIDLKTJiPLLC7qJw5dD01TxHSmSRj/3KCV2e/ugd/rd9y6LCS
Qdvvqsh2eVYMKnc+Ozhw1YS+puROv0YjVKpObzMeXNqKWVYuCjATmVYXSq86g95V
VnoxElJBfCuLBBnSqjpdYVoa2qIwTlATJj1l8JY2OZI=
-----END CERTIFICATE-----
