Certificate:
    Data:
        Version: 1 (0x0)
        Serial Number:
            9b:27:d7:e8:d1:ba:08:a4
        Signature Algorithm: md5WithRSAEncryption
        Issuer: C=DE, ST=Saarland, O=MPI-SWS, OU=Distributed Systems Group, CN=Andreas Haeberlen/emailAddress=democa@octarine.de
        Validity
            Not Before: Apr 20 20:47:05 2015 GMT
            Not After : Apr 19 20:47:05 2016 GMT
        Subject: C=DE, ST=Saarland, O=MPI-SWS, OU=Distributed Systems Group, CN=28a2e11d74335214df2b47a09a9195dcd7ec8090/emailAddress=node0204@octarine.de
        Subject Public Key Info:
            Public Key Algorithm: rsaEncryption
            RSA Public Key: (1024 bit)
                Modulus (1024 bit):
                    00:c4:40:9f:e4:eb:10:39:81:e5:b2:13:ae:be:f9:
                    16:04:7f:c5:fa:a4:30:b5:46:f3:e7:77:07:44:5f:
                    d3:39:89:26:aa:45:03:4c:fc:f6:c8:df:8e:8f:24:
                    5b:95:c9:ff:73:99:49:10:2c:21:fe:47:cd:cb:9e:
                    17:57:b5:2d:27:73:22:38:22:56:03:47:24:ba:5f:
                    99:2a:7b:6b:42:86:41:5a:0a:35:22:86:54:e4:58:
                    f3:5b:32:b3:8a:79:f1:a6:c3:e2:9f:39:79:47:31:
                    7f:54:d2:13:0c:2a:24:fd:8d:88:e5:5a:f4:a6:f9:
                    51:6c:14:bf:ea:f6:75:f5:e7
                Exponent: 65537 (0x10001)
    Signature Algorithm: md5WithRSAEncryption
        c7:e6:0f:fd:18:81:bd:3e:7a:53:4b:76:fa:51:b9:b4:4d:8a:
        e0:91:50:b4:8d:f4:33:64:d7:b6:58:78:b6:f0:3b:d5:2e:c4:
        7b:cb:01:73:d3:43:d5:8d:f6:82:0c:ed:01:b5:7d:e8:a4:76:
        c3:f1:e8:c4:05:68:51:1a:c9:c5:cb:a4:71:8c:cc:52:5e:34:
        ec:a0:89:84:7c:31:d5:1c:90:86:00:c8:4a:78:5e:46:e2:6f:
        c6:40:8f:43:34:78:89:b3:03:f1:b2:d4:93:2b:8e:55:8b:f5:
        4a:36:0d:c3:65:d7:be:42:05:80:d9:ee:f2:9c:bc:40:96:a4:
        b5:9e
-----BEGIN CERTIFICATE-----
MIICvDCCAiUCCQCbJ9fo0boIpDANBgkqhkiG9w0BAQQFADCBlTELMAkGA1UEBhMC
REUxETAPBgNVBAgTCFNhYXJsYW5kMRAwDgYDVQQKEwdNUEktU1dTMSIwIAYDVQQL
ExlEaXN0cmlidXRlZCBTeXN0ZW1zIEdyb3VwMRowGAYDVQQDExFBbmRyZWFzIEhh
ZWJlcmxlbjEhMB8GCSqGSIb3DQEJARYSZGVtb2NhQG9jdGFyaW5lLmRlMB4XDTE1
MDQyMDIwNDcwNVoXDTE2MDQxOTIwNDcwNVowga4xCzAJBgNVBAYTAkRFMREwDwYD
VQQIEwhTYWFybGFuZDEQMA4GA1UEChMHTVBJLVNXUzEiMCAGA1UECxMZRGlzdHJp
YnV0ZWQgU3lzdGVtcyBHcm91cDExMC8GA1UEAxMoMjhhMmUxMWQ3NDMzNTIxNGRm
MmI0N2EwOWE5MTk1ZGNkN2VjODA5MDEjMCEGCSqGSIb3DQEJARYUbm9kZTAyMDRA
b2N0YXJpbmUuZGUwgZ8wDQYJKoZIhvcNAQEBBQADgY0AMIGJAoGBAMRAn+TrEDmB
5bITrr75FgR/xfqkMLVG8+d3B0Rf0zmJJqpFA0z89sjfjo8kW5XJ/3OZSRAsIf5H
zcueF1e1LSdzIjgiVgNHJLpfmSp7a0KGQVoKNSKGVORY81sys4p58abD4p85eUcx
f1TSEwwqJP2NiOVa9Kb5UWwUv+r2dfXnAgMBAAEwDQYJKoZIhvcNAQEEBQADgYEA
x+YP/RiBvT56U0t2+lG5tE2K4JFQtI30M2TXtlh4tvA71S7Ee8sBc9ND1Y32ggzt
AbV96KR2w/HoxAVoURrJxcukcYzMUl407KCJhHwx1RyQhgDISnheRuJvxkCPQzR4
ibMD8bLUkyuOVYv1SjYNw2XXvkIFgNnu8py8QJaktZ4=
-----END CERTIFICATE-----
