Certificate:
    Data:
        Version: 1 (0x0)
        Serial Number:
            9b:27:d7:e8:d1:ba:0b:77
        Signature Algorithm: md5WithRSAEncryption
        Issuer: C=DE, ST=Saarland, O=MPI-SWS, OU=Distributed Systems Group, CN=Andreas Haeberlen/emailAddress=democa@octarine.de
        Validity
            Not Before: Apr 20 20:47:38 2015 GMT
            Not After : Apr 19 20:47:38 2016 GMT
        Subject: C=DE, ST=Saarland, O=MPI-SWS, OU=Distributed Systems Group, CN=6946b769768937e70c62d497e7f0193727eee485/emailAddress=node0927@octarine.de
        Subject Public Key Info:
            Public Key Algorithm: rsaEncryption
            RSA Public Key: (1024 bit)
                Modulus (1024 bit):
                    00:b8:87:2d:e2:ef:a4:35:30:22:8a:5a:df:ae:e0:
                    02:c4:95:d2:32:bd:1a:40:7b:25:e6:27:96:48:fe:
                    c7:a4:da:6b:a3:f6:89:70:ae:08:e4:75:f2:21:75:
                    96:3a:66:28:a8:bf:f9:c2:0c:22:36:20:06:3f:dd:
                    2f:f9:f5:02:7f:85:78:71:e3:2b:93:bf:4f:32:01:
                    d2:b3:bf:b3:de:fb:ca:54:54:53:f7:af:5e:eb:dd:
                    53:db:92:eb:7e:7e:a5:3c:29:c4:0b:e0:7a:b0:2c:
                    c1:73:b9:ad:44:28:60:7a:df:43:d7:24:9f:5f:19:
                    1b:ed:41:22:7b:0e:01:99:7d
                Exponent: 65537 (0x10001)
    Signature Algorithm: md5WithRSAEncryption
        48:ce:82:40:cf:5a:1f:e6:bb:2e:53:c6:24:e2:54:30:d4:dc:
        39:81:24:8d:56:82:87:31:9d:3e:89:df:0a:6e:ff:9a:e4:34:
        84:21:03:45:f5:5f:96:45:b0:e7:37:48:89:7a:ed:38:d8:51:
        ef:1a:a4:9d:b5:bf:82:dd:60:79:89:ba:83:76:cb:5f:5a:f0:
        07:c3:b9:e3:7e:f5:6f:54:d8:0d:ff:fa:ab:eb:2b:d2:b0:d0:
        2d:c3:3e:87:8e:70:2f:28:12:b2:90:a7:50:66:f2:54:f1:ce:
        01:53:ea:31:c9:a9:b3:a6:7f:c2:1a:81:60:0e:8a:a3:a4:34:
        36:b9
-----BEGIN CERTIFICATE-----
MIICvDCCAiUCCQCbJ9fo0boLdzANBgkqhkiG9w0BAQQFADCBlTELMAkGA1UEBhMC
REUxETAPBgNVBAgTCFNhYXJsYW5kMRAwDgYDVQQKEwdNUEktU1dTMSIwIAYDVQQL
ExlEaXN0cmlidXRlZCBTeXN0ZW1zIEdyb3VwMRowGAYDVQQDExFBbmRyZWFzIEhh
ZWJlcmxlbjEhMB8GCSqGSIb3DQEJARYSZGVtb2NhQG9jdGFyaW5lLmRlMB4XDTE1
MDQyMDIwNDczOFoXDTE2MDQxOTIwNDczOFowga4xCzAJBgNVBAYTAkRFMREwDwYD
VQQIEwhTYWFybGFuZDEQMA4GA1UEChMHTVBJLVNXUzEiMCAGA1UECxMZRGlzdHJp
YnV0ZWQgU3lzdGVtcyBHcm91cDExMC8GA1UEAxMoNjk0NmI3Njk3Njg5MzdlNzBj
NjJkNDk3ZTdmMDE5MzcyN2VlZTQ4NTEjMCEGCSqGSIb3DQEJARYUbm9kZTA5MjdA
b2N0YXJpbmUuZGUwgZ8wDQYJKoZIhvcNAQEBBQADgY0AMIGJAoGBALiHLeLvpDUw
Iopa367gAsSV0jK9GkB7JeYnlkj+x6Taa6P2iXCuCOR18iF1ljpmKKi/+cIMIjYg
Bj/dL/n1An+FeHHjK5O/TzIB0rO/s977ylRUU/evXuvdU9uS635+pTwpxAvgerAs
wXO5rUQoYHrfQ9ckn18ZG+1BInsOAZl9AgMBAAEwDQYJKoZIhvcNAQEEBQADgYEA
SM6CQM9aH+a7LlPGJOJUMNTcOYEkjVaChzGdPonfCm7/muQ0hCEDRfVflkWw5zdI
iXrtONhR7xqknbW/gt1geYm6g3bLX1rwB8O54371b1TYDf/6q+sr0rDQLcM+h45w
LygSspCnUGbyVPHOAVPqMcmps6Z/whqBYA6Ko6Q0Nrk=
-----END CERTIFICATE-----
