Certificate:
    Data:
        Version: 1 (0x0)
        Serial Number:
            9b:27:d7:e8:d1:ba:0a:94
        Signature Algorithm: md5WithRSAEncryption
        Issuer: C=DE, ST=Saarland, O=MPI-SWS, OU=Distributed Systems Group, CN=Andreas Haeberlen/emailAddress=democa@octarine.de
        Validity
            Not Before: Apr 20 20:47:28 2015 GMT
            Not After : Apr 19 20:47:28 2016 GMT
        Subject: C=DE, ST=Saarland, O=MPI-SWS, OU=Distributed Systems Group, CN=7d10e4673566eb548f73bda83af2ab719928e8f1/emailAddress=node0700@octarine.de
        Subject Public Key Info:
            Public Key Algorithm: rsaEncryption
            RSA Public Key: (1024 bit)
                Modulus (1024 bit):
                    00:c2:1a:16:f4:02:ee:5b:05:df:8b:74:dd:c6:da:
                    8d:81:f9:f9:bb:86:c8:d5:25:27:d7:11:50:98:f5:
                    7f:20:12:38:5c:2f:f9:03:38:19:6a:f8:88:00:ce:
                    58:f8:78:13:8d:9f:c3:8c:6d:da:84:17:17:4b:99:
                    86:60:cd:06:be:e4:10:28:41:01:7f:6f:21:c5:b0:
                    f9:9e:6c:26:3f:b0:11:27:6b:6a:a0:95:c3:c1:27:
                    7c:c3:7b:bf:42:09:2e:3c:d8:dc:f3:7f:73:d7:7c:
                    8e:d1:31:8d:61:0f:67:f3:34:26:64:7d:1e:b0:87:
                    4a:41:c7:fe:b7:27:eb:c9:e9
                Exponent: 65537 (0x10001)
    Signature Algorithm: md5WithRSAEncryption
        1a:d1:58:fb:86:f7:dd:28:b9:b9:0f:55:f0:d9:ac:49:c7:d3:
        3c:b1:8e:04:6c:fd:db:ee:5b:7b:9b:0b:b2:0e:d2:06:ec:da:
        54:98:83:fa:da:59:18:78:4c:c2:16:ea:a7:e4:0d:cf:0e:dc:
        7c:6c:71:a4:3a:14:85:6c:d3:73:e6:b0:14:1c:fb:21:a4:da:
        19:e5:6e:e8:1f:7e:eb:db:49:21:1f:35:3f:66:51:5b:2e:97:
        14:2c:64:75:c5:d1:13:1e:1e:19:f2:89:81:c7:2a:4e:d7:3f:
        f8:b1:ce:5a:61:65:6d:1f:ef:a4:64:a2:87:38:ba:6d:5f:e9:
        b8:c2
-----BEGIN CERTIFICATE-----
MIICvDCCAiUCCQCbJ9fo0boKlDANBgkqhkiG9w0BAQQFADCBlTELMAkGA1UEBhMC
REUxETAPBgNVBAgTCFNhYXJsYW5kMRAwDgYDVQQKEwdNUEktU1dTMSIwIAYDVQQL
ExlEaXN0cmlidXRlZCBTeXN0ZW1zIEdyb3VwMRowGAYDVQQDExFBbmRyZWFzIEhh
ZWJlcmxlbjEhMB8GCSqGSIb3DQEJARYSZGVtb2NhQG9jdGFyaW5lLmRlMB4XDTE1
MDQyMDIwNDcyOFoXDTE2MDQxOTIwNDcyOFowga4xCzAJBgNVBAYTAkRFMREwDwYD
VQQIEwhTYWFybGFuZDEQMA4GA1UEChMHTVBJLVNXUzEiMCAGA1UECxMZRGlzdHJp
YnV0ZWQgU3lzdGVtcyBHcm91cDExMC8GA1UEAxMoN2QxMGU0NjczNTY2ZWI1NDhm
NzNiZGE4M2FmMmFiNzE5OTI4ZThmMTEjMCEGCSqGSIb3DQEJARYUbm9kZTA3MDBA
b2N0YXJpbmUuZGUwgZ8wDQYJKoZIhvcNAQEBBQADgY0AMIGJAoGBAMIaFvQC7lsF
34t03cbajYH5+buGyNUlJ9cRUJj1fyASOFwv+QM4GWr4iADOWPh4E42fw4xt2oQX
F0uZhmDNBr7kEChBAX9vIcWw+Z5sJj+wESdraqCVw8EnfMN7v0IJLjzY3PN/c9d8
jtExjWEPZ/M0JmR9HrCHSkHH/rcn68npAgMBAAEwDQYJKoZIhvcNAQEEBQADgYEA
GtFY+4b33Si5uQ9V8NmsScfTPLGOBGz92+5be5sLsg7SBuzaVJiD+tpZGHhMwhbq
p+QNzw7cfGxxpDoUhWzTc+awFBz7IaTaGeVu6B9+69tJIR81P2ZRWy6XFCxkdcXR
Ex4eGfKJgccqTtc/+LHOWmFlbR/vpGSihzi6bV/puMI=
-----END CERTIFICATE-----
