Certificate:
    Data:
        Version: 1 (0x0)
        Serial Number:
            9b:27:d7:e8:d1:ba:0a:3a
        Signature Algorithm: md5WithRSAEncryption
        Issuer: C=DE, ST=Saarland, O=MPI-SWS, OU=Distributed Systems Group, CN=Andreas Haeberlen/emailAddress=democa@octarine.de
        Validity
            Not Before: Apr 20 20:47:24 2015 GMT
            Not After : Apr 19 20:47:24 2016 GMT
        Subject: C=DE, ST=Saarland, O=MPI-SWS, OU=Distributed Systems Group, CN=94bfca06efdd18eaffbe451948eb301d5cc17d86/emailAddress=node0610@octarine.de
        Subject Public Key Info:
            Public Key Algorithm: rsaEncryption
            RSA Public Key: (1024 bit)
                Modulus (1024 bit):
                    00:a1:7f:1c:56:37:47:f2:60:ea:4f:cc:41:4a:0e:
                    63:0e:bf:6c:5e:3f:cb:16:c4:19:72:29:98:b6:f4:
                    1d:99:a7:e1:19:a1:75:aa:8c:94:bd:42:04:03:a5:
                    01:5b:33:a5:9e:08:ff:64:29:61:0f:a0:a6:72:f5:
                    eb:95:d1:a1:18:aa:7f:09:4f:a5:0a:98:d4:5c:c1:
                    43:9c:59:b0:68:a5:13:be:7b:06:d2:7d:86:3e:48:
                    15:50:bc:1d:b3:27:8c:91:a9:de:ea:a3:a9:7a:9c:
                    fc:e1:47:b4:61:b5:22:11:02:1d:85:de:ce:bb:2a:
                    89:a9:49:68:aa:3d:35:a2:0d
                Exponent: 65537 (0x10001)
    Signature Algorithm: md5WithRSAEncryption
        2e:3d:f1:e2:c2:a1:43:c4:86:47:d4:1e:8f:e7:1f:e9:c9:18:
        1e:e9:af:86:c4:4d:6d:d0:5b:ba:51:70:9e:6e:31:cb:f1:ba:
        f0:0f:d6:7a:c9:d7:55:cb:28:0c:68:4d:65:d4:79:4e:a7:68:
        37:f3:d5:c0:c0:22:e0:a4:fb:e0:8e:41:e8:64:d6:61:5b:d4:
        ae:72:a5:7c:3e:e9:23:28:8e:90:e5:cc:20:c1:61:98:32:a8:
        28:56:fb:b8:3b:77:ad:4e:4f:83:ba:13:fd:8e:f8:a4:46:4f:
        04:32:b9:15:18:a6:27:9e:79:0b:a3:28:63:af:f7:c9:c4:f8:
        18:54
-----BEGIN CERTIFICATE-----
MIICvDCCAiUCCQCbJ9fo0boKOjANBgkqhkiG9w0BAQQFADCBlTELMAkGA1UEBhMC
REUxETAPBgNVBAgTCFNhYXJsYW5kMRAwDgYDVQQKEwdNUEktU1dTMSIwIAYDVQQL
ExlEaXN0cmlidXRlZCBTeXN0ZW1zIEdyb3VwMRowGAYDVQQDExFBbmRyZWFzIEhh
ZWJlcmxlbjEhMB8GCSqGSIb3DQEJARYSZGVtb2NhQG9jdGFyaW5lLmRlMB4XDTE1
MDQyMDIwNDcyNFoXDTE2MDQxOTIwNDcyNFowga4xCzAJBgNVBAYTAkRFMREwDwYD
VQQIEwhTYWFybGFuZDEQMA4GA1UEChMHTVBJLVNXUzEiMCAGA1UECxMZRGlzdHJp
YnV0ZWQgU3lzdGVtcyBHcm91cDExMC8GA1UEAxMoOTRiZmNhMDZlZmRkMThlYWZm
YmU0NTE5NDhlYjMwMWQ1Y2MxN2Q4NjEjMCEGCSqGSIb3DQEJARYUbm9kZTA2MTBA
b2N0YXJpbmUuZGUwgZ8wDQYJKoZIhvcNAQEBBQADgY0AMIGJAoGBAKF/HFY3R/Jg
6k/MQUoOYw6/bF4/yxbEGXIpmLb0HZmn4RmhdaqMlL1CBAOlAVszpZ4I/2QpYQ+g
pnL165XRoRiqfwlPpQqY1FzBQ5xZsGilE757BtJ9hj5IFVC8HbMnjJGp3uqjqXqc
/OFHtGG1IhECHYXezrsqialJaKo9NaINAgMBAAEwDQYJKoZIhvcNAQEEBQADgYEA
Lj3x4sKhQ8SGR9Qej+cf6ckYHumvhsRNbdBbulFwnm4xy/G68A/WesnXVcsoDGhN
ZdR5TqdoN/PVwMAi4KT74I5B6GTWYVvUrnKlfD7pIyiOkOXMIMFhmDKoKFb7uDt3
rU5Pg7oT/Y74pEZPBDK5FRimJ555C6MoY6/3ycT4GFQ=
-----END CERTIFICATE-----
