Certificate:
    Data:
        Version: 1 (0x0)
        Serial Number:
            9b:27:d7:e8:d1:ba:0a:59
        Signature Algorithm: md5WithRSAEncryption
        Issuer: C=DE, ST=Saarland, O=MPI-SWS, OU=Distributed Systems Group, CN=Andreas Haeberlen/emailAddress=democa@octarine.de
        Validity
            Not Before: Apr 20 20:47:25 2015 GMT
            Not After : Apr 19 20:47:25 2016 GMT
        Subject: C=DE, ST=Saarland, O=MPI-SWS, OU=Distributed Systems Group, CN=9c1be9ad092cd4484a9ab05b82ec89926bd45825/emailAddress=node0641@octarine.de
        Subject Public Key Info:
            Public Key Algorithm: rsaEncryption
            RSA Public Key: (1024 bit)
                Modulus (1024 bit):
                    00:c1:89:e8:5d:bd:8b:6a:88:c4:d6:0b:3f:71:bf:
                    f3:8e:72:96:9e:41:23:26:ba:26:a2:de:b9:3a:48:
                    27:9b:33:87:30:4a:ac:1b:a3:09:29:bf:ea:50:0f:
                    ff:b3:28:ed:04:5c:29:80:f0:14:cc:71:57:32:fc:
                    3d:f2:68:e1:62:01:e5:05:46:97:01:68:f4:c9:13:
                    46:77:03:ee:fd:7e:22:48:4b:52:c8:fb:fa:85:cc:
                    b6:24:0c:19:66:d2:3f:59:1f:87:47:97:b5:10:ab:
                    fe:12:be:52:8d:8c:5b:2c:d2:b0:79:7e:67:c3:a7:
                    8c:d8:ee:8c:88:cb:b2:64:e1
                Exponent: 65537 (0x10001)
    Signature Algorithm: md5WithRSAEncryption
        82:de:0a:da:68:81:bf:fa:65:a9:6f:ec:cf:3b:c1:e0:dd:b2:
        db:d2:ba:51:3a:98:c1:03:f6:a3:7b:d0:f2:d7:6d:b7:d9:24:
        b7:9c:c3:6b:e3:52:35:6e:43:7f:1b:cb:1d:65:41:01:32:71:
        c1:1b:d6:3f:ec:aa:a5:b0:79:04:f7:29:9a:96:b9:80:28:7a:
        98:52:bc:1a:d3:dd:75:cd:61:ce:98:e9:d0:2f:23:45:29:52:
        99:f0:47:7a:66:b9:57:ff:bd:85:1d:37:d2:95:81:ad:c6:ca:
        16:11:4a:b5:eb:46:5d:6c:6e:c6:c8:b4:2b:1a:40:34:3c:a5:
        cf:aa
-----BEGIN CERTIFICATE-----
MIICvDCCAiUCCQCbJ9fo0boKWTANBgkqhkiG9w0BAQQFADCBlTELMAkGA1UEBhMC
REUxETAPBgNVBAgTCFNhYXJsYW5kMRAwDgYDVQQKEwdNUEktU1dTMSIwIAYDVQQL
ExlEaXN0cmlidXRlZCBTeXN0ZW1zIEdyb3VwMRowGAYDVQQDExFBbmRyZWFzIEhh
ZWJlcmxlbjEhMB8GCSqGSIb3DQEJARYSZGVtb2NhQG9jdGFyaW5lLmRlMB4XDTE1
MDQyMDIwNDcyNVoXDTE2MDQxOTIwNDcyNVowga4xCzAJBgNVBAYTAkRFMREwDwYD
VQQIEwhTYWFybGFuZDEQMA4GA1UEChMHTVBJLVNXUzEiMCAGA1UECxMZRGlzdHJp
YnV0ZWQgU3lzdGVtcyBHcm91cDExMC8GA1UEAxMoOWMxYmU5YWQwOTJjZDQ0ODRh
OWFiMDViODJlYzg5OTI2YmQ0NTgyNTEjMCEGCSqGSIb3DQEJARYUbm9kZTA2NDFA
b2N0YXJpbmUuZGUwgZ8wDQYJKoZIhvcNAQEBBQADgY0AMIGJAoGBAMGJ6F29i2qI
xNYLP3G/845ylp5BIya6JqLeuTpIJ5szhzBKrBujCSm/6lAP/7Mo7QRcKYDwFMxx
VzL8PfJo4WIB5QVGlwFo9MkTRncD7v1+IkhLUsj7+oXMtiQMGWbSP1kfh0eXtRCr
/hK+Uo2MWyzSsHl+Z8OnjNjujIjLsmThAgMBAAEwDQYJKoZIhvcNAQEEBQADgYEA
gt4K2miBv/plqW/szzvB4N2y29K6UTqYwQP2o3vQ8tdtt9kkt5zDa+NSNW5DfxvL
HWVBATJxwRvWP+yqpbB5BPcpmpa5gCh6mFK8GtPddc1hzpjp0C8jRSlSmfBHema5
V/+9hR030pWBrcbKFhFKtetGXWxuxsi0KxpANDylz6o=
-----END CERTIFICATE-----
