Certificate:
    Data:
        Version: 1 (0x0)
        Serial Number:
            9b:27:d7:e8:d1:ba:09:9e
        Signature Algorithm: md5WithRSAEncryption
        Issuer: C=DE, ST=Saarland, O=MPI-SWS, OU=Distributed Systems Group, CN=Andreas Haeberlen/emailAddress=democa@octarine.de
        Validity
            Not Before: Apr 20 20:47:16 2015 GMT
            Not After : Apr 19 20:47:16 2016 GMT
        Subject: C=DE, ST=Saarland, O=MPI-SWS, OU=Distributed Systems Group, CN=4d3f672a491b8fb2659cfd90e9849f7ecbd33fd8/emailAddress=node0454@octarine.de
        Subject Public Key Info:
            Public Key Algorithm: rsaEncryption
            RSA Public Key: (1024 bit)
                Modulus (1024 bit):
                    00:c4:af:a2:10:2c:7c:90:e7:a8:bf:95:11:7b:51:
                    29:e2:f2:9a:43:75:2b:44:59:02:84:33:15:c7:e6:
                    32:ae:43:05:c3:d3:fa:89:da:90:17:f1:3a:07:5c:
                    2a:65:61:f2:dc:93:01:73:18:7a:b6:cd:7b:18:4a:
                    ef:d3:47:23:e0:5e:80:68:25:e0:70:d8:d2:fe:97:
                    ce:c4:f4:6d:8d:2f:84:b8:d6:2a:05:b7:1e:91:f0:
                    19:fc:ec:bf:1c:ce:c7:f0:b9:1d:92:20:24:26:90:
                    23:a1:41:bf:e7:1b:dd:fa:7a:6a:d4:ad:de:8b:49:
                    b4:e1:b7:f0:84:a7:d6:12:ad
                Exponent: 65537 (0x10001)
    Signature Algorithm: md5WithRSAEncryption
        aa:88:17:93:da:89:7c:14:04:5a:b7:10:2d:d8:14:eb:dc:25:
        f2:0c:e9:0e:32:3f:4a:6e:c7:15:0c:1d:1b:c5:cf:0b:68:bc:
        6b:43:50:3d:7c:3e:13:46:54:9e:0b:4e:72:61:ff:8c:04:d8:
        2b:49:59:9e:1a:71:01:29:80:29:76:a5:ef:c4:16:a2:bb:40:
        10:57:18:26:fb:24:ee:be:54:a6:d5:9e:72:9f:0c:94:45:71:
        f9:21:32:cb:2c:d1:a0:81:76:e4:a2:85:3d:a4:46:69:83:51:
        78:f1:36:dc:9c:6f:a2:45:66:7d:5b:68:e8:bf:38:33:ed:9f:
        14:dd
-----BEGIN CERTIFICATE-----
MIICvDCCAiUCCQCbJ9fo0boJnjANBgkqhkiG9w0BAQQFADCBlTELMAkGA1UEBhMC
REUxETAPBgNVBAgTCFNhYXJsYW5kMRAwDgYDVQQKEwdNUEktU1dTMSIwIAYDVQQL
ExlEaXN0cmlidXRlZCBTeXN0ZW1zIEdyb3VwMRowGAYDVQQDExFBbmRyZWFzIEhh
ZWJlcmxlbjEhMB8GCSqGSIb3DQEJARYSZGVtb2NhQG9jdGFyaW5lLmRlMB4XDTE1
MDQyMDIwNDcxNloXDTE2MDQxOTIwNDcxNlowga4xCzAJBgNVBAYTAkRFMREwDwYD
VQQIEwhTYWFybGFuZDEQMA4GA1UEChMHTVBJLVNXUzEiMCAGA1UECxMZRGlzdHJp
YnV0ZWQgU3lzdGVtcyBHcm91cDExMC8GA1UEAxMoNGQzZjY3MmE0OTFiOGZiMjY1
OWNmZDkwZTk4NDlmN2VjYmQzM2ZkODEjMCEGCSqGSIb3DQEJARYUbm9kZTA0NTRA
b2N0YXJpbmUuZGUwgZ8wDQYJKoZIhvcNAQEBBQADgY0AMIGJAoGBAMSvohAsfJDn
qL+VEXtRKeLymkN1K0RZAoQzFcfmMq5DBcPT+onakBfxOgdcKmVh8tyTAXMYerbN
exhK79NHI+BegGgl4HDY0v6XzsT0bY0vhLjWKgW3HpHwGfzsvxzOx/C5HZIgJCaQ
I6FBv+cb3fp6atSt3otJtOG38ISn1hKtAgMBAAEwDQYJKoZIhvcNAQEEBQADgYEA
qogXk9qJfBQEWrcQLdgU69wl8gzpDjI/Sm7HFQwdG8XPC2i8a0NQPXw+E0ZUngtO
cmH/jATYK0lZnhpxASmAKXal78QWortAEFcYJvsk7r5UptWecp8MlEVx+SEyyyzR
oIF25KKFPaRGaYNRePE23JxvokVmfVto6L84M+2fFN0=
-----END CERTIFICATE-----
