Certificate:
    Data:
        Version: 1 (0x0)
        Serial Number:
            9b:27:d7:e8:d1:ba:08:15
        Signature Algorithm: md5WithRSAEncryption
        Issuer: C=DE, ST=Saarland, O=MPI-SWS, OU=Distributed Systems Group, CN=Andreas Haeberlen/emailAddress=democa@octarine.de
        Validity
            Not Before: Apr 20 20:46:59 2015 GMT
            Not After : Apr 19 20:46:59 2016 GMT
        Subject: C=DE, ST=Saarland, O=MPI-SWS, OU=Distributed Systems Group, CN=bf8a354cc8de9602d66b13c6962011ad02748b04/emailAddress=node0061@octarine.de
        Subject Public Key Info:
            Public Key Algorithm: rsaEncryption
            RSA Public Key: (1024 bit)
                Modulus (1024 bit):
                    00:d7:8e:6e:5a:e6:5d:b5:0b:9b:28:a1:9a:ce:29:
                    4b:3d:76:6c:aa:6a:dc:18:dd:40:f0:c6:78:22:67:
                    05:87:b0:40:8e:60:c3:20:90:dc:41:e5:32:be:d9:
                    14:e2:4f:60:6c:7b:3a:38:7d:82:7e:88:6a:10:4d:
                    e2:ec:84:60:38:48:d9:af:b2:f7:46:d6:d6:a9:31:
                    7d:1b:ce:5d:bb:bc:2f:a4:bb:17:0a:4d:a3:ea:7d:
                    a0:ef:89:f1:35:d5:93:d6:8d:99:d6:af:08:93:8a:
                    f3:f0:92:d2:b7:c2:30:c7:f2:5e:da:77:42:65:db:
                    c5:8b:17:2c:84:d3:dc:24:43
                Exponent: 65537 (0x10001)
    Signature Algorithm: md5WithRSAEncryption
        79:06:97:70:55:f8:60:6d:d2:4f:56:b6:fd:e1:73:c3:a7:c4:
        ce:46:ea:f2:af:0d:1f:b9:e7:12:65:19:ff:99:1b:96:34:47:
        55:79:8f:4b:fb:49:03:0b:30:b4:56:45:ec:ef:ae:82:47:36:
        bb:f4:f0:0c:35:d8:6e:75:0e:9a:7d:e3:88:b4:84:66:33:99:
        16:41:0d:57:37:0b:31:7c:ed:d8:5a:da:b6:c1:f2:55:12:2a:
        37:63:fc:0b:80:4e:2b:b3:dc:23:f7:7a:d2:bc:4f:05:56:1d:
        4a:83:d6:57:67:1d:6c:46:a2:75:4c:72:ae:f2:c5:ab:91:c0:
        12:f5
-----BEGIN CERTIFICATE-----
MIICvDCCAiUCCQCbJ9fo0boIFTANBgkqhkiG9w0BAQQFADCBlTELMAkGA1UEBhMC
REUxETAPBgNVBAgTCFNhYXJsYW5kMRAwDgYDVQQKEwdNUEktU1dTMSIwIAYDVQQL
ExlEaXN0cmlidXRlZCBTeXN0ZW1zIEdyb3VwMRowGAYDVQQDExFBbmRyZWFzIEhh
ZWJlcmxlbjEhMB8GCSqGSIb3DQEJARYSZGVtb2NhQG9jdGFyaW5lLmRlMB4XDTE1
MDQyMDIwNDY1OVoXDTE2MDQxOTIwNDY1OVowga4xCzAJBgNVBAYTAkRFMREwDwYD
VQQIEwhTYWFybGFuZDEQMA4GA1UEChMHTVBJLVNXUzEiMCAGA1UECxMZRGlzdHJp
YnV0ZWQgU3lzdGVtcyBHcm91cDExMC8GA1UEAxMoYmY4YTM1NGNjOGRlOTYwMmQ2
NmIxM2M2OTYyMDExYWQwMjc0OGIwNDEjMCEGCSqGSIb3DQEJARYUbm9kZTAwNjFA
b2N0YXJpbmUuZGUwgZ8wDQYJKoZIhvcNAQEBBQADgY0AMIGJAoGBANeOblrmXbUL
myihms4pSz12bKpq3BjdQPDGeCJnBYewQI5gwyCQ3EHlMr7ZFOJPYGx7Ojh9gn6I
ahBN4uyEYDhI2a+y90bW1qkxfRvOXbu8L6S7FwpNo+p9oO+J8TXVk9aNmdavCJOK
8/CS0rfCMMfyXtp3QmXbxYsXLITT3CRDAgMBAAEwDQYJKoZIhvcNAQEEBQADgYEA
eQaXcFX4YG3ST1a2/eFzw6fEzkbq8q8NH7nnEmUZ/5kbljRHVXmPS/tJAwswtFZF
7O+ugkc2u/TwDDXYbnUOmn3jiLSEZjOZFkENVzcLMXzt2FratsHyVRIqN2P8C4BO
K7PcI/d60rxPBVYdSoPWV2cdbEaidUxyrvLFq5HAEvU=
-----END CERTIFICATE-----
