Certificate:
    Data:
        Version: 1 (0x0)
        Serial Number:
            9b:27:d7:e8:d1:ba:08:e5
        Signature Algorithm: md5WithRSAEncryption
        Issuer: C=DE, ST=Saarland, O=MPI-SWS, OU=Distributed Systems Group, CN=Andreas Haeberlen/emailAddress=democa@octarine.de
        Validity
            Not Before: Apr 20 20:47:08 2015 GMT
            Not After : Apr 19 20:47:08 2016 GMT
        Subject: C=DE, ST=Saarland, O=MPI-SWS, OU=Distributed Systems Group, CN=6c2540ae39475bc9525335088cbdc3820a84b32e/emailAddress=node0269@octarine.de
        Subject Public Key Info:
            Public Key Algorithm: rsaEncryption
            RSA Public Key: (1024 bit)
                Modulus (1024 bit):
                    00:dd:ed:2c:0f:f5:17:4b:a0:b0:8c:1b:96:b6:43:
                    eb:8c:38:3e:1b:7a:bd:a4:7a:00:dd:38:ef:b5:90:
                    87:26:f2:22:0f:f5:3b:ab:7d:fa:a7:7a:3f:53:0b:
                    a9:f2:90:bb:56:56:88:cf:cd:e3:28:ef:a5:79:1a:
                    84:6c:b3:4b:b2:00:0a:c7:f3:c5:67:18:99:72:65:
                    67:97:67:87:2f:9f:63:72:cc:c0:73:94:61:e3:ce:
                    d6:e5:18:21:f8:cb:4a:41:c3:55:0d:46:f9:6f:9c:
                    a3:83:98:e2:b4:00:f8:d1:a5:31:d2:22:cb:62:09:
                    eb:16:78:fd:25:4e:85:43:1d
                Exponent: 65537 (0x10001)
    Signature Algorithm: md5WithRSAEncryption
        3a:ad:f2:6d:f5:0f:cf:c2:cf:e4:f0:c4:72:a2:d6:b8:10:dd:
        af:56:ad:88:d7:93:fa:97:23:d7:b9:0a:78:db:0d:44:9f:4a:
        8b:73:62:3e:1a:45:25:de:b4:1a:7e:f0:2a:83:fa:8d:29:e2:
        f6:21:3e:59:c7:5b:68:e7:ca:c1:bf:60:13:e9:ec:bb:ca:a2:
        ab:e5:87:75:05:82:c3:cd:1e:67:92:4b:2c:79:0e:0a:7b:06:
        8c:1c:56:c8:95:cf:30:3f:21:77:43:7b:ac:83:cd:58:39:6a:
        ea:76:e4:99:41:4e:a1:c8:a6:43:b1:04:5a:cc:c2:22:b3:33:
        0c:67
-----BEGIN CERTIFICATE-----
MIICvDCCAiUCCQCbJ9fo0boI5TANBgkqhkiG9w0BAQQFADCBlTELMAkGA1UEBhMC
REUxETAPBgNVBAgTCFNhYXJsYW5kMRAwDgYDVQQKEwdNUEktU1dTMSIwIAYDVQQL
ExlEaXN0cmlidXRlZCBTeXN0ZW1zIEdyb3VwMRowGAYDVQQDExFBbmRyZWFzIEhh
ZWJlcmxlbjEhMB8GCSqGSIb3DQEJARYSZGVtb2NhQG9jdGFyaW5lLmRlMB4XDTE1
MDQyMDIwNDcwOFoXDTE2MDQxOTIwNDcwOFowga4xCzAJBgNVBAYTAkRFMREwDwYD
VQQIEwhTYWFybGFuZDEQMA4GA1UEChMHTVBJLVNXUzEiMCAGA1UECxMZRGlzdHJp
YnV0ZWQgU3lzdGVtcyBHcm91cDExMC8GA1UEAxMoNmMyNTQwYWUzOTQ3NWJjOTUy
NTMzNTA4OGNiZGMzODIwYTg0YjMyZTEjMCEGCSqGSIb3DQEJARYUbm9kZTAyNjlA
b2N0YXJpbmUuZGUwgZ8wDQYJKoZIhvcNAQEBBQADgY0AMIGJAoGBAN3tLA/1F0ug
sIwblrZD64w4Pht6vaR6AN0477WQhybyIg/1O6t9+qd6P1MLqfKQu1ZWiM/N4yjv
pXkahGyzS7IACsfzxWcYmXJlZ5dnhy+fY3LMwHOUYePO1uUYIfjLSkHDVQ1G+W+c
o4OY4rQA+NGlMdIiy2IJ6xZ4/SVOhUMdAgMBAAEwDQYJKoZIhvcNAQEEBQADgYEA
Oq3ybfUPz8LP5PDEcqLWuBDdr1atiNeT+pcj17kKeNsNRJ9Ki3NiPhpFJd60Gn7w
KoP6jSni9iE+WcdbaOfKwb9gE+nsu8qiq+WHdQWCw80eZ5JLLHkOCnsGjBxWyJXP
MD8hd0N7rIPNWDlq6nbkmUFOocimQ7EEWszCIrMzDGc=
-----END CERTIFICATE-----
