Certificate:
    Data:
        Version: 1 (0x0)
        Serial Number:
            9b:27:d7:e8:d1:ba:08:c9
        Signature Algorithm: md5WithRSAEncryption
        Issuer: C=DE, ST=Saarland, O=MPI-SWS, OU=Distributed Systems Group, CN=Andreas Haeberlen/emailAddress=democa@octarine.de
        Validity
            Not Before: Apr 20 20:47:07 2015 GMT
            Not After : Apr 19 20:47:07 2016 GMT
        Subject: C=DE, ST=Saarland, O=MPI-SWS, OU=Distributed Systems Group, CN=08dacf5c0cbacd1f828e5c1e69974395b7086647/emailAddress=node0241@octarine.de
        Subject Public Key Info:
            Public Key Algorithm: rsaEncryption
            RSA Public Key: (1024 bit)
                Modulus (1024 bit):
                    00:cb:23:c9:cf:c6:3e:76:47:c4:4c:23:b5:a8:f6:
                    e5:ef:d7:c5:1e:64:14:a3:1b:2e:14:2c:9f:42:5d:
                    e0:72:ea:27:cc:a4:ab:c5:ac:f9:73:07:ae:1d:81:
                    00:0c:7e:06:42:ef:eb:38:be:73:9f:8e:66:68:ff:
                    66:36:a4:26:21:5d:9b:63:62:09:be:0f:58:ff:56:
                    75:0f:82:2d:23:c2:de:e8:3c:33:c1:ee:1f:fd:69:
                    f7:af:0e:31:96:8e:21:78:3d:0a:97:2f:0c:23:52:
                    04:46:95:d6:00:bb:3d:37:eb:98:45:fc:03:61:c2:
                    e8:6c:1e:ec:a1:9e:e6:59:2d
                Exponent: 65537 (0x10001)
    Signature Algorithm: md5WithRSAEncryption
        65:48:b0:f4:56:fd:4a:a3:04:c3:a0:d6:2d:db:4f:69:e7:36:
        9b:20:c7:19:26:c5:7e:ee:99:d0:31:11:30:fe:80:df:0a:2e:
        d3:20:2d:b7:df:6b:e4:b5:33:cf:bc:4d:aa:96:b4:a2:9d:82:
        32:4c:51:fa:c0:b6:35:3b:1e:b3:92:d4:7f:26:33:e7:e8:a7:
        c5:e0:f0:cd:d0:b1:45:e7:0d:ac:68:0a:94:48:46:8c:eb:ed:
        67:f1:57:31:66:7a:39:d4:5b:24:d0:0b:71:13:08:ab:33:0d:
        aa:29:e6:92:46:a6:45:52:db:ae:75:94:bb:7b:8b:89:50:da:
        99:8a
-----BEGIN CERTIFICATE-----
MIICvDCCAiUCCQCbJ9fo0boIyTANBgkqhkiG9w0BAQQFADCBlTELMAkGA1UEBhMC
REUxETAPBgNVBAgTCFNhYXJsYW5kMRAwDgYDVQQKEwdNUEktU1dTMSIwIAYDVQQL
ExlEaXN0cmlidXRlZCBTeXN0ZW1zIEdyb3VwMRowGAYDVQQDExFBbmRyZWFzIEhh
ZWJlcmxlbjEhMB8GCSqGSIb3DQEJARYSZGVtb2NhQG9jdGFyaW5lLmRlMB4XDTE1
MDQyMDIwNDcwN1oXDTE2MDQxOTIwNDcwN1owga4xCzAJBgNVBAYTAkRFMREwDwYD
VQQIEwhTYWFybGFuZDEQMA4GA1UEChMHTVBJLVNXUzEiMCAGA1UECxMZRGlzdHJp
YnV0ZWQgU3lzdGVtcyBHcm91cDExMC8GA1UEAxMoMDhkYWNmNWMwY2JhY2QxZjgy
OGU1YzFlNjk5NzQzOTViNzA4NjY0NzEjMCEGCSqGSIb3DQEJARYUbm9kZTAyNDFA
b2N0YXJpbmUuZGUwgZ8wDQYJKoZIhvcNAQEBBQADgY0AMIGJAoGBAMsjyc/GPnZH
xEwjtaj25e/XxR5kFKMbLhQsn0Jd4HLqJ8ykq8Ws+XMHrh2BAAx+BkLv6zi+c5+O
Zmj/ZjakJiFdm2NiCb4PWP9WdQ+CLSPC3ug8M8HuH/1p968OMZaOIXg9CpcvDCNS
BEaV1gC7PTfrmEX8A2HC6Gwe7KGe5lktAgMBAAEwDQYJKoZIhvcNAQEEBQADgYEA
ZUiw9Fb9SqMEw6DWLdtPaec2myDHGSbFfu6Z0DERMP6A3wou0yAtt99r5LUzz7xN
qpa0op2CMkxR+sC2NTses5LUfyYz5+inxeDwzdCxRecNrGgKlEhGjOvtZ/FXMWZ6
OdRbJNALcRMIqzMNqinmkkamRVLbrnWUu3uLiVDamYo=
-----END CERTIFICATE-----
