Certificate:
    Data:
        Version: 1 (0x0)
        Serial Number:
            9b:27:d7:e8:d1:ba:08:04
        Signature Algorithm: md5WithRSAEncryption
        Issuer: C=DE, ST=Saarland, O=MPI-SWS, OU=Distributed Systems Group, CN=Andreas Haeberlen/emailAddress=democa@octarine.de
        Validity
            Not Before: Apr 20 20:46:59 2015 GMT
            Not After : Apr 19 20:46:59 2016 GMT
        Subject: C=DE, ST=Saarland, O=MPI-SWS, OU=Distributed Systems Group, CN=c9d7ac6106855d3a82780da549fe996524cd03e0/emailAddress=node0044@octarine.de
        Subject Public Key Info:
            Public Key Algorithm: rsaEncryption
            RSA Public Key: (1024 bit)
                Modulus (1024 bit):
                    00:a9:72:63:89:70:30:88:05:28:61:18:c3:04:51:
                    8a:bc:b4:ad:c8:85:99:87:e1:04:d9:d5:99:b6:e2:
                    09:0d:8d:17:e4:fb:08:fb:a0:b0:dd:a7:47:62:87:
                    f1:44:71:6b:f0:7f:d6:9b:d0:83:2b:ec:54:46:0c:
                    8a:86:12:02:1a:df:3d:6a:9e:96:1d:69:2f:88:0d:
                    37:e3:74:d3:f0:da:35:ae:ff:b9:7f:7b:76:eb:70:
                    c6:5b:c6:38:d1:84:1d:2c:41:ec:0c:98:d6:8a:37:
                    d0:fa:88:59:2c:75:c3:fc:07:77:56:9b:80:0c:ac:
                    90:09:56:70:a5:fa:ed:4d:3f
                Exponent: 65537 (0x10001)
    Signature Algorithm: md5WithRSAEncryption
        83:bf:c8:ce:e9:ed:93:23:be:6d:6a:34:df:b7:49:f1:1f:da:
        de:7e:af:9e:a3:cb:ef:16:fa:5e:92:99:02:e6:4d:ae:bc:b8:
        a1:17:2c:1a:4f:d9:3e:41:a1:0c:13:7b:b5:c8:4e:61:16:0d:
        4f:95:77:09:dd:1b:b0:9e:b6:7b:aa:87:80:11:87:c7:77:60:
        ba:a2:29:5e:af:1a:25:c2:b6:1f:3f:61:21:03:ff:97:03:42:
        97:6a:bf:f3:22:4f:fb:16:59:ee:7e:63:f7:68:ec:a4:53:8c:
        76:b7:31:c3:15:57:c9:ba:34:f7:03:4c:76:df:23:b0:b7:c9:
        6a:3a
-----BEGIN CERTIFICATE-----
MIICvDCCAiUCCQCbJ9fo0boIBDANBgkqhkiG9w0BAQQFADCBlTELMAkGA1UEBhMC
REUxETAPBgNVBAgTCFNhYXJsYW5kMRAwDgYDVQQKEwdNUEktU1dTMSIwIAYDVQQL
ExlEaXN0cmlidXRlZCBTeXN0ZW1zIEdyb3VwMRowGAYDVQQDExFBbmRyZWFzIEhh
ZWJlcmxlbjEhMB8GCSqGSIb3DQEJARYSZGVtb2NhQG9jdGFyaW5lLmRlMB4XDTE1
MDQyMDIwNDY1OVoXDTE2MDQxOTIwNDY1OVowga4xCzAJBgNVBAYTAkRFMREwDwYD
VQQIEwhTYWFybGFuZDEQMA4GA1UEChMHTVBJLVNXUzEiMCAGA1UECxMZRGlzdHJp
YnV0ZWQgU3lzdGVtcyBHcm91cDExMC8GA1UEAxMoYzlkN2FjNjEwNjg1NWQzYTgy
NzgwZGE1NDlmZTk5NjUyNGNkMDNlMDEjMCEGCSqGSIb3DQEJARYUbm9kZTAwNDRA
b2N0YXJpbmUuZGUwgZ8wDQYJKoZIhvcNAQEBBQADgY0AMIGJAoGBAKlyY4lwMIgF
KGEYwwRRiry0rciFmYfhBNnVmbbiCQ2NF+T7CPugsN2nR2KH8URxa/B/1pvQgyvs
VEYMioYSAhrfPWqelh1pL4gNN+N00/DaNa7/uX97dutwxlvGONGEHSxB7AyY1oo3
0PqIWSx1w/wHd1abgAyskAlWcKX67U0/AgMBAAEwDQYJKoZIhvcNAQEEBQADgYEA
g7/IzuntkyO+bWo037dJ8R/a3n6vnqPL7xb6XpKZAuZNrry4oRcsGk/ZPkGhDBN7
tchOYRYNT5V3Cd0bsJ62e6qHgBGHx3dguqIpXq8aJcK2Hz9hIQP/lwNCl2q/8yJP
+xZZ7n5j92jspFOMdrcxwxVXybo09wNMdt8jsLfJajo=
-----END CERTIFICATE-----
