Certificate:
    Data:
        Version: 1 (0x0)
        Serial Number:
            9b:27:d7:e8:d1:ba:0a:fa
        Signature Algorithm: md5WithRSAEncryption
        Issuer: C=DE, ST=Saarland, O=MPI-SWS, OU=Distributed Systems Group, CN=Andreas Haeberlen/emailAddress=democa@octarine.de
        Validity
            Not Before: Apr 20 20:47:32 2015 GMT
            Not After : Apr 19 20:47:32 2016 GMT
        Subject: C=DE, ST=Saarland, O=MPI-SWS, OU=Distributed Systems Group, CN=c58b1cc845fd9ff3b84aaa0981ed361fbabc775b/emailAddress=node0802@octarine.de
        Subject Public Key Info:
            Public Key Algorithm: rsaEncryption
            RSA Public Key: (1024 bit)
                Modulus (1024 bit):
                    00:c8:e5:ea:e6:b9:b9:14:38:92:4b:e7:33:04:6f:
                    c3:43:4e:13:a9:3e:f3:f2:be:f7:e8:d1:3e:c0:fb:
                    eb:70:58:f2:f9:f3:0e:e2:43:9c:09:e3:ae:c3:14:
                    5b:90:9f:05:f6:75:f1:2a:13:9e:21:33:10:28:03:
                    36:49:d8:00:18:1c:12:4d:c6:31:1a:37:d2:6b:9d:
                    63:ec:fc:f9:6b:e3:ab:1a:8b:cd:b9:ab:0a:b6:5b:
                    a4:49:3d:2e:0c:18:44:b7:8a:c9:7f:1b:b8:6a:98:
                    1e:2e:39:df:c2:e1:73:d3:e4:c0:42:f7:6a:72:6f:
                    46:00:ed:c1:ac:3a:b1:af:39
                Exponent: 65537 (0x10001)
    Signature Algorithm: md5WithRSAEncryption
        01:b1:49:c2:10:6c:e7:45:56:7b:4b:12:e6:80:4e:55:5e:0c:
        f5:5d:90:ae:d7:1a:95:76:f6:13:97:e5:b1:e9:38:8f:62:e7:
        8e:53:2b:7f:fe:10:03:5f:8d:91:3c:8b:92:41:c1:94:c6:90:
        63:2e:54:06:f2:e9:f0:47:54:30:92:25:77:37:d5:17:12:d2:
        c1:b6:10:69:3f:6b:db:cf:77:50:af:e4:b4:13:8d:ea:ca:89:
        e2:0d:5f:48:59:31:91:1c:67:41:a4:78:1f:0c:3b:71:47:86:
        8e:2c:53:d4:1e:ab:ae:ed:5f:48:88:72:68:59:8a:77:f8:48:
        9f:d3
-----BEGIN CERTIFICATE-----
MIICvDCCAiUCCQCbJ9fo0boK+jANBgkqhkiG9w0BAQQFADCBlTELMAkGA1UEBhMC
REUxETAPBgNVBAgTCFNhYXJsYW5kMRAwDgYDVQQKEwdNUEktU1dTMSIwIAYDVQQL
ExlEaXN0cmlidXRlZCBTeXN0ZW1zIEdyb3VwMRowGAYDVQQDExFBbmRyZWFzIEhh
ZWJlcmxlbjEhMB8GCSqGSIb3DQEJARYSZGVtb2NhQG9jdGFyaW5lLmRlMB4XDTE1
MDQyMDIwNDczMloXDTE2MDQxOTIwNDczMlowga4xCzAJBgNVBAYTAkRFMREwDwYD
VQQIEwhTYWFybGFuZDEQMA4GA1UEChMHTVBJLVNXUzEiMCAGA1UECxMZRGlzdHJp
YnV0ZWQgU3lzdGVtcyBHcm91cDExMC8GA1UEAxMoYzU4YjFjYzg0NWZkOWZmM2I4
NGFhYTA5ODFlZDM2MWZiYWJjNzc1YjEjMCEGCSqGSIb3DQEJARYUbm9kZTA4MDJA
b2N0YXJpbmUuZGUwgZ8wDQYJKoZIhvcNAQEBBQADgY0AMIGJAoGBAMjl6ua5uRQ4
kkvnMwRvw0NOE6k+8/K+9+jRPsD763BY8vnzDuJDnAnjrsMUW5CfBfZ18SoTniEz
ECgDNknYABgcEk3GMRo30mudY+z8+WvjqxqLzbmrCrZbpEk9LgwYRLeKyX8buGqY
Hi4538Lhc9PkwEL3anJvRgDtwaw6sa85AgMBAAEwDQYJKoZIhvcNAQEEBQADgYEA
AbFJwhBs50VWe0sS5oBOVV4M9V2QrtcalXb2E5flsek4j2LnjlMrf/4QA1+NkTyL
kkHBlMaQYy5UBvLp8EdUMJIldzfVFxLSwbYQaT9r2893UK/ktBON6sqJ4g1fSFkx
kRxnQaR4Hww7cUeGjixT1B6rru1fSIhyaFmKd/hIn9M=
-----END CERTIFICATE-----
