Certificate:
    Data:
        Version: 1 (0x0)
        Serial Number:
            9b:27:d7:e8:d1:ba:0b:96
        Signature Algorithm: md5WithRSAEncryption
        Issuer: C=DE, ST=Saarland, O=MPI-SWS, OU=Distributed Systems Group, CN=Andreas Haeberlen/emailAddress=democa@octarine.de
        Validity
            Not Before: Apr 20 20:47:39 2015 GMT
            Not After : Apr 19 20:47:39 2016 GMT
        Subject: C=DE, ST=Saarland, O=MPI-SWS, OU=Distributed Systems Group, CN=23c3d5387abc95cde71b536a6d7fe231604357bd/emailAddress=node0958@octarine.de
        Subject Public Key Info:
            Public Key Algorithm: rsaEncryption
            RSA Public Key: (1024 bit)
                Modulus (1024 bit):
                    00:bd:e9:29:29:88:2b:39:dc:81:13:e9:9f:48:b7:
                    24:44:11:d6:5e:0f:10:0f:9f:2c:62:29:20:ac:19:
                    52:45:86:28:ab:23:25:7c:5e:4e:86:df:5c:d4:49:
                    7e:fe:c8:8b:e5:bc:99:15:97:fd:97:14:a0:8e:6b:
                    8d:d6:3a:ad:43:59:6f:d0:c6:43:82:02:e4:bf:a1:
                    47:a0:55:ae:97:69:70:23:25:f9:05:8c:b5:84:98:
                    65:c1:bd:4b:cb:07:f7:8e:bc:e1:10:2d:14:86:be:
                    19:9d:b6:d8:c2:e7:9f:9b:f0:4e:8c:a6:f6:81:80:
                    c7:9f:ef:94:8d:6e:4f:c2:1b
                Exponent: 65537 (0x10001)
    Signature Algorithm: md5WithRSAEncryption
        13:8e:96:7a:70:bd:a0:1b:56:9a:7d:d7:a2:3e:47:e6:4d:f9:
        31:c4:54:3e:8c:f1:17:db:fe:7e:19:14:54:b0:5d:df:a6:77:
        8d:1c:02:9f:ee:52:2a:21:13:ce:ff:6f:4f:8f:40:5d:9b:8c:
        b4:50:63:3e:2a:ae:a7:8e:ec:ad:a0:92:ae:8f:bb:e8:8c:27:
        4c:86:a4:f1:61:da:db:3b:92:b9:dd:7b:b0:3d:13:6e:10:33:
        11:cb:a2:f0:41:10:8d:bf:f2:ae:0a:70:34:2d:ce:56:72:b7:
        56:e7:5e:cf:a7:b3:46:b3:a6:af:a0:71:6b:a2:34:e9:d6:72:
        7c:99
-----BEGIN CERTIFICATE-----
MIICvDCCAiUCCQCbJ9fo0boLljANBgkqhkiG9w0BAQQFADCBlTELMAkGA1UEBhMC
REUxETAPBgNVBAgTCFNhYXJsYW5kMRAwDgYDVQQKEwdNUEktU1dTMSIwIAYDVQQL
ExlEaXN0cmlidXRlZCBTeXN0ZW1zIEdyb3VwMRowGAYDVQQDExFBbmRyZWFzIEhh
ZWJlcmxlbjEhMB8GCSqGSIb3DQEJARYSZGVtb2NhQG9jdGFyaW5lLmRlMB4XDTE1
MDQyMDIwNDczOVoXDTE2MDQxOTIwNDczOVowga4xCzAJBgNVBAYTAkRFMREwDwYD
VQQIEwhTYWFybGFuZDEQMA4GA1UEChMHTVBJLVNXUzEiMCAGA1UECxMZRGlzdHJp
YnV0ZWQgU3lzdGVtcyBHcm91cDExMC8GA1UEAxMoMjNjM2Q1Mzg3YWJjOTVjZGU3
MWI1MzZhNmQ3ZmUyMzE2MDQzNTdiZDEjMCEGCSqGSIb3DQEJARYUbm9kZTA5NThA
b2N0YXJpbmUuZGUwgZ8wDQYJKoZIhvcNAQEBBQADgY0AMIGJAoGBAL3pKSmIKznc
gRPpn0i3JEQR1l4PEA+fLGIpIKwZUkWGKKsjJXxeTobfXNRJfv7Ii+W8mRWX/ZcU
oI5rjdY6rUNZb9DGQ4IC5L+hR6BVrpdpcCMl+QWMtYSYZcG9S8sH94684RAtFIa+
GZ222MLnn5vwToym9oGAx5/vlI1uT8IbAgMBAAEwDQYJKoZIhvcNAQEEBQADgYEA
E46WenC9oBtWmn3Xoj5H5k35McRUPozxF9v+fhkUVLBd36Z3jRwCn+5SKiETzv9v
T49AXZuMtFBjPiqup47sraCSro+76IwnTIak8WHa2zuSud17sD0TbhAzEcui8EEQ
jb/yrgpwNC3OVnK3Vudez6ezRrOmr6Bxa6I06dZyfJk=
-----END CERTIFICATE-----
