Certificate:
    Data:
        Version: 1 (0x0)
        Serial Number:
            9b:27:d7:e8:d1:ba:0b:1f
        Signature Algorithm: md5WithRSAEncryption
        Issuer: C=DE, ST=Saarland, O=MPI-SWS, OU=Distributed Systems Group, CN=Andreas Haeberlen/emailAddress=democa@octarine.de
        Validity
            Not Before: Apr 20 20:47:34 2015 GMT
            Not After : Apr 19 20:47:34 2016 GMT
        Subject: C=DE, ST=Saarland, O=MPI-SWS, OU=Distributed Systems Group, CN=a8c4a7b044229b095575a95d2106c1c799b30744/emailAddress=node0839@octarine.de
        Subject Public Key Info:
            Public Key Algorithm: rsaEncryption
            RSA Public Key: (1024 bit)
                Modulus (1024 bit):
                    00:b8:4c:73:a9:52:13:f1:aa:db:a8:27:1b:8b:fe:
                    e8:ce:f9:92:98:98:6d:2a:71:26:c5:fb:29:c6:3f:
                    a2:84:e8:5a:15:f9:48:99:30:c8:c6:5e:af:de:e1:
                    3d:ca:cd:b7:4f:4f:aa:e6:78:d8:53:da:05:44:6d:
                    38:3a:bd:a4:bb:a3:c0:3c:59:92:0a:b8:76:73:05:
                    79:c1:9f:33:f3:4d:57:79:e6:1f:00:ce:53:0a:74:
                    91:6c:3e:76:05:a6:b2:aa:d9:95:75:71:64:14:28:
                    0b:1b:0d:9d:3f:99:62:3b:d7:f9:36:c7:dc:f0:ab:
                    e5:84:5a:1d:a9:34:3b:b2:61
                Exponent: 65537 (0x10001)
    Signature Algorithm: md5WithRSAEncryption
        a3:b0:fe:b9:f8:48:f5:af:a6:c8:0d:fe:e3:ea:ff:b8:b2:4c:
        e7:61:02:e8:df:84:aa:5b:48:83:fd:55:a1:9f:42:3f:b3:04:
        18:16:a2:70:c5:05:ab:f5:2a:b8:db:5e:b1:c5:90:ea:75:31:
        a9:2a:a5:8e:fc:9f:cc:aa:51:be:ef:04:2f:92:17:7d:97:0b:
        ea:7f:04:24:52:28:db:15:a7:36:08:ef:2c:11:4e:04:e9:95:
        70:c8:6c:09:58:cc:44:ad:78:ab:9c:5b:6a:36:6f:1a:d3:a7:
        b6:ec:51:66:72:57:fe:db:5c:71:2d:2b:16:b5:a3:7e:27:c1:
        83:d4
-----BEGIN CERTIFICATE-----
MIICvDCCAiUCCQCbJ9fo0boLHzANBgkqhkiG9w0BAQQFADCBlTELMAkGA1UEBhMC
REUxETAPBgNVBAgTCFNhYXJsYW5kMRAwDgYDVQQKEwdNUEktU1dTMSIwIAYDVQQL
ExlEaXN0cmlidXRlZCBTeXN0ZW1zIEdyb3VwMRowGAYDVQQDExFBbmRyZWFzIEhh
ZWJlcmxlbjEhMB8GCSqGSIb3DQEJARYSZGVtb2NhQG9jdGFyaW5lLmRlMB4XDTE1
MDQyMDIwNDczNFoXDTE2MDQxOTIwNDczNFowga4xCzAJBgNVBAYTAkRFMREwDwYD
VQQIEwhTYWFybGFuZDEQMA4GA1UEChMHTVBJLVNXUzEiMCAGA1UECxMZRGlzdHJp
YnV0ZWQgU3lzdGVtcyBHcm91cDExMC8GA1UEAxMoYThjNGE3YjA0NDIyOWIwOTU1
NzVhOTVkMjEwNmMxYzc5OWIzMDc0NDEjMCEGCSqGSIb3DQEJARYUbm9kZTA4MzlA
b2N0YXJpbmUuZGUwgZ8wDQYJKoZIhvcNAQEBBQADgY0AMIGJAoGBALhMc6lSE/Gq
26gnG4v+6M75kpiYbSpxJsX7KcY/ooToWhX5SJkwyMZer97hPcrNt09PquZ42FPa
BURtODq9pLujwDxZkgq4dnMFecGfM/NNV3nmHwDOUwp0kWw+dgWmsqrZlXVxZBQo
CxsNnT+ZYjvX+TbH3PCr5YRaHak0O7JhAgMBAAEwDQYJKoZIhvcNAQEEBQADgYEA
o7D+ufhI9a+myA3+4+r/uLJM52EC6N+EqltIg/1VoZ9CP7MEGBaicMUFq/UquNte
scWQ6nUxqSqljvyfzKpRvu8EL5IXfZcL6n8EJFIo2xWnNgjvLBFOBOmVcMhsCVjM
RK14q5xbajZvGtOntuxRZnJX/ttccS0rFrWjfifBg9Q=
-----END CERTIFICATE-----
