Certificate:
    Data:
        Version: 1 (0x0)
        Serial Number:
            9b:27:d7:e8:d1:ba:0b:30
        Signature Algorithm: md5WithRSAEncryption
        Issuer: C=DE, ST=Saarland, O=MPI-SWS, OU=Distributed Systems Group, CN=Andreas Haeberlen/emailAddress=democa@octarine.de
        Validity
            Not Before: Apr 20 20:47:35 2015 GMT
            Not After : Apr 19 20:47:35 2016 GMT
        Subject: C=DE, ST=Saarland, O=MPI-SWS, OU=Distributed Systems Group, CN=8704647ed1d6d2aa2dd70c93f0d7f06877cdb4b8/emailAddress=node0856@octarine.de
        Subject Public Key Info:
            Public Key Algorithm: rsaEncryption
            RSA Public Key: (1024 bit)
                Modulus (1024 bit):
                    00:be:ee:56:8e:3f:10:0e:15:5b:d3:e6:48:b7:6f:
                    fc:7e:d4:b7:c0:dc:f6:0e:6d:0a:73:e2:1f:26:88:
                    3a:50:c2:c1:3d:3c:87:aa:66:cb:45:ad:ac:e9:d3:
                    91:5c:e4:da:c9:b0:35:38:64:b8:a0:ac:ce:59:f0:
                    62:26:e8:c4:39:28:0e:d4:fe:91:ad:87:71:f1:0c:
                    b5:3d:18:14:09:5d:a3:c8:ed:bf:cb:6b:60:b4:f9:
                    ba:61:a6:d8:dd:10:9b:ab:0f:08:35:ed:ce:fa:b3:
                    56:f3:56:78:4c:99:21:9c:f7:8e:5a:f3:a3:7e:93:
                    10:38:54:72:c8:7a:6e:31:bd
                Exponent: 65537 (0x10001)
    Signature Algorithm: md5WithRSAEncryption
        4e:f0:4e:de:9d:6a:66:e5:32:e8:9b:53:9b:0b:0a:ca:17:85:
        04:02:2d:66:ed:4c:a7:d0:27:01:58:7b:04:5b:f9:b3:fc:7e:
        81:4f:3c:fe:e8:60:a7:30:da:2b:2b:34:e4:50:ac:dd:7f:4a:
        26:30:21:d6:13:ed:97:ad:71:0b:b8:ff:da:68:a8:62:80:42:
        cd:e1:27:21:49:9b:8e:18:2c:38:5e:8a:4a:55:c2:c4:d0:3a:
        88:4d:ec:ab:2d:eb:50:5c:de:e2:1f:03:04:fe:ea:42:bf:bb:
        df:7e:85:3a:00:f5:f9:93:ca:a7:17:21:04:d8:fc:63:59:20:
        37:27
-----BEGIN CERTIFICATE-----
MIICvDCCAiUCCQCbJ9fo0boLMDANBgkqhkiG9w0BAQQFADCBlTELMAkGA1UEBhMC
REUxETAPBgNVBAgTCFNhYXJsYW5kMRAwDgYDVQQKEwdNUEktU1dTMSIwIAYDVQQL
ExlEaXN0cmlidXRlZCBTeXN0ZW1zIEdyb3VwMRowGAYDVQQDExFBbmRyZWFzIEhh
ZWJlcmxlbjEhMB8GCSqGSIb3DQEJARYSZGVtb2NhQG9jdGFyaW5lLmRlMB4XDTE1
MDQyMDIwNDczNVoXDTE2MDQxOTIwNDczNVowga4xCzAJBgNVBAYTAkRFMREwDwYD
VQQIEwhTYWFybGFuZDEQMA4GA1UEChMHTVBJLVNXUzEiMCAGA1UECxMZRGlzdHJp
YnV0ZWQgU3lzdGVtcyBHcm91cDExMC8GA1UEAxMoODcwNDY0N2VkMWQ2ZDJhYTJk
ZDcwYzkzZjBkN2YwNjg3N2NkYjRiODEjMCEGCSqGSIb3DQEJARYUbm9kZTA4NTZA
b2N0YXJpbmUuZGUwgZ8wDQYJKoZIhvcNAQEBBQADgY0AMIGJAoGBAL7uVo4/EA4V
W9PmSLdv/H7Ut8Dc9g5tCnPiHyaIOlDCwT08h6pmy0WtrOnTkVzk2smwNThkuKCs
zlnwYiboxDkoDtT+ka2HcfEMtT0YFAldo8jtv8trYLT5umGm2N0Qm6sPCDXtzvqz
VvNWeEyZIZz3jlrzo36TEDhUcsh6bjG9AgMBAAEwDQYJKoZIhvcNAQEEBQADgYEA
TvBO3p1qZuUy6JtTmwsKyheFBAItZu1Mp9AnAVh7BFv5s/x+gU88/uhgpzDaKys0
5FCs3X9KJjAh1hPtl61xC7j/2mioYoBCzeEnIUmbjhgsOF6KSlXCxNA6iE3sqy3r
UFze4h8DBP7qQr+7336FOgD1+ZPKpxchBNj8Y1kgNyc=
-----END CERTIFICATE-----
