Certificate:
    Data:
        Version: 1 (0x0)
        Serial Number:
            9b:27:d7:e8:d1:ba:08:27
        Signature Algorithm: md5WithRSAEncryption
        Issuer: C=DE, ST=Saarland, O=MPI-SWS, OU=Distributed Systems Group, CN=Andreas Haeberlen/emailAddress=democa@octarine.de
        Validity
            Not Before: Apr 20 20:47:00 2015 GMT
            Not After : Apr 19 20:47:00 2016 GMT
        Subject: C=DE, ST=Saarland, O=MPI-SWS, OU=Distributed Systems Group, CN=b22e4d58da69f3d23c5fcfc8e641e5ca7f8cde5a/emailAddress=node0079@octarine.de
        Subject Public Key Info:
            Public Key Algorithm: rsaEncryption
            RSA Public Key: (1024 bit)
                Modulus (1024 bit):
                    00:cd:04:b8:d8:62:a2:0a:25:07:f1:d6:85:f9:b0:
                    08:06:cd:a9:1a:06:e0:38:17:85:90:44:3d:7b:c3:
                    70:fc:74:01:5d:4a:7c:98:70:b6:65:f4:9b:ff:9e:
                    9c:a3:48:6f:a3:34:f5:cb:7e:a0:55:eb:2d:64:cc:
                    5b:cb:1a:22:9c:6c:f2:ad:5f:84:2c:44:fe:0f:72:
                    96:2b:2b:38:2b:86:0b:3b:bb:73:62:a8:03:2b:22:
                    6c:11:75:dc:cc:4d:b3:44:74:7a:0a:06:02:ac:21:
                    df:cb:46:77:90:a8:00:53:fd:e4:50:79:99:2b:c7:
                    a1:ef:73:c4:17:fe:4a:21:d7
                Exponent: 65537 (0x10001)
    Signature Algorithm: md5WithRSAEncryption
        91:98:0e:04:ee:2e:60:3b:f1:fa:b9:7c:1c:bf:8f:89:5c:2c:
        12:6e:6e:d1:3a:fd:f3:cb:d4:d7:ad:34:13:5f:c8:8f:7d:83:
        cf:c6:4c:b4:95:20:47:11:7b:6a:3b:3d:17:09:bc:9b:ba:82:
        83:3a:c3:55:b1:3f:f2:25:cb:31:a6:90:95:16:78:fa:04:d1:
        43:c3:95:0e:7b:3d:96:18:43:fd:d7:8c:ee:49:f2:fa:b8:b4:
        f2:19:a6:11:f9:98:1a:8f:ba:7c:c9:23:08:9b:d7:d0:65:d1:
        65:41:4a:40:35:40:7f:3d:e3:19:66:04:05:2e:32:77:a1:5f:
        58:e0
-----BEGIN CERTIFICATE-----
MIICvDCCAiUCCQCbJ9fo0boIJzANBgkqhkiG9w0BAQQFADCBlTELMAkGA1UEBhMC
REUxETAPBgNVBAgTCFNhYXJsYW5kMRAwDgYDVQQKEwdNUEktU1dTMSIwIAYDVQQL
ExlEaXN0cmlidXRlZCBTeXN0ZW1zIEdyb3VwMRowGAYDVQQDExFBbmRyZWFzIEhh
ZWJlcmxlbjEhMB8GCSqGSIb3DQEJARYSZGVtb2NhQG9jdGFyaW5lLmRlMB4XDTE1
MDQyMDIwNDcwMFoXDTE2MDQxOTIwNDcwMFowga4xCzAJBgNVBAYTAkRFMREwDwYD
VQQIEwhTYWFybGFuZDEQMA4GA1UEChMHTVBJLVNXUzEiMCAGA1UECxMZRGlzdHJp
YnV0ZWQgU3lzdGVtcyBHcm91cDExMC8GA1UEAxMoYjIyZTRkNThkYTY5ZjNkMjNj
NWZjZmM4ZTY0MWU1Y2E3ZjhjZGU1YTEjMCEGCSqGSIb3DQEJARYUbm9kZTAwNzlA
b2N0YXJpbmUuZGUwgZ8wDQYJKoZIhvcNAQEBBQADgY0AMIGJAoGBAM0EuNhiogol
B/HWhfmwCAbNqRoG4DgXhZBEPXvDcPx0AV1KfJhwtmX0m/+enKNIb6M09ct+oFXr
LWTMW8saIpxs8q1fhCxE/g9ylisrOCuGCzu7c2KoAysibBF13MxNs0R0egoGAqwh
38tGd5CoAFP95FB5mSvHoe9zxBf+SiHXAgMBAAEwDQYJKoZIhvcNAQEEBQADgYEA
kZgOBO4uYDvx+rl8HL+PiVwsEm5u0Tr988vU1600E1/Ij32Dz8ZMtJUgRxF7ajs9
Fwm8m7qCgzrDVbE/8iXLMaaQlRZ4+gTRQ8OVDns9lhhD/deM7kny+ri08hmmEfmY
Go+6fMkjCJvX0GXRZUFKQDVAfz3jGWYEBS4yd6FfWOA=
-----END CERTIFICATE-----
