Certificate:
    Data:
        Version: 1 (0x0)
        Serial Number:
            9b:27:d7:e8:d1:ba:0b:89
        Signature Algorithm: md5WithRSAEncryption
        Issuer: C=DE, ST=Saarland, O=MPI-SWS, OU=Distributed Systems Group, CN=Andreas Haeberlen/emailAddress=democa@octarine.de
        Validity
            Not Before: Apr 20 20:47:39 2015 GMT
            Not After : Apr 19 20:47:39 2016 GMT
        Subject: C=DE, ST=Saarland, O=MPI-SWS, OU=Distributed Systems Group, CN=f652b39386c475ab0bd042fbf22970967e931269/emailAddress=node0945@octarine.de
        Subject Public Key Info:
            Public Key Algorithm: rsaEncryption
            RSA Public Key: (1024 bit)
                Modulus (1024 bit):
                    00:ac:b0:50:4c:71:3a:d6:12:4b:0b:aa:56:14:8c:
                    60:1b:6d:90:5c:70:98:b8:90:9a:80:29:83:84:f1:
                    51:66:d4:bd:56:8b:c5:5c:9b:13:12:4d:ef:49:c7:
                    28:f1:ac:5a:ad:9d:4d:19:8b:2d:08:f3:8c:e3:2f:
                    6f:0c:27:0b:2c:bd:2f:d7:57:23:c2:d2:ff:b2:3f:
                    1a:d2:8b:1c:2a:9a:4d:5c:2b:7d:1f:e6:bb:03:6d:
                    22:07:36:6e:e5:6e:51:ec:21:8d:dc:a0:f7:b8:f0:
                    cd:76:6a:26:c8:76:5e:da:86:5d:5f:53:3e:5c:0f:
                    ff:7b:7e:e9:1b:9f:d6:f0:67
                Exponent: 65537 (0x10001)
    Signature Algorithm: md5WithRSAEncryption
        28:75:6c:26:92:d4:00:78:e7:f3:0a:32:21:9d:c4:6e:b3:ac:
        80:68:22:6a:69:89:52:c4:c4:4e:33:6d:ad:7b:2a:1b:1e:cc:
        16:2c:76:e5:f7:50:74:0d:a6:a6:b4:5d:55:90:75:34:79:78:
        dd:03:36:46:80:d8:58:7d:25:b4:57:12:3d:12:2b:75:2d:1f:
        ff:c1:ae:49:81:a3:55:f4:9c:fd:59:01:af:85:4e:f7:55:42:
        ae:9f:c5:5f:46:ff:fb:91:fc:d1:df:99:e7:29:24:a5:3b:10:
        96:4a:fc:f0:4d:44:eb:c6:94:5d:8e:1d:c2:74:b0:df:96:d0:
        7a:84
-----BEGIN CERTIFICATE-----
MIICvDCCAiUCCQCbJ9fo0boLiTANBgkqhkiG9w0BAQQFADCBlTELMAkGA1UEBhMC
REUxETAPBgNVBAgTCFNhYXJsYW5kMRAwDgYDVQQKEwdNUEktU1dTMSIwIAYDVQQL
ExlEaXN0cmlidXRlZCBTeXN0ZW1zIEdyb3VwMRowGAYDVQQDExFBbmRyZWFzIEhh
ZWJlcmxlbjEhMB8GCSqGSIb3DQEJARYSZGVtb2NhQG9jdGFyaW5lLmRlMB4XDTE1
MDQyMDIwNDczOVoXDTE2MDQxOTIwNDczOVowga4xCzAJBgNVBAYTAkRFMREwDwYD
VQQIEwhTYWFybGFuZDEQMA4GA1UEChMHTVBJLVNXUzEiMCAGA1UECxMZRGlzdHJp
YnV0ZWQgU3lzdGVtcyBHcm91cDExMC8GA1UEAxMoZjY1MmIzOTM4NmM0NzVhYjBi
ZDA0MmZiZjIyOTcwOTY3ZTkzMTI2OTEjMCEGCSqGSIb3DQEJARYUbm9kZTA5NDVA
b2N0YXJpbmUuZGUwgZ8wDQYJKoZIhvcNAQEBBQADgY0AMIGJAoGBAKywUExxOtYS
SwuqVhSMYBttkFxwmLiQmoApg4TxUWbUvVaLxVybExJN70nHKPGsWq2dTRmLLQjz
jOMvbwwnCyy9L9dXI8LS/7I/GtKLHCqaTVwrfR/muwNtIgc2buVuUewhjdyg97jw
zXZqJsh2XtqGXV9TPlwP/3t+6Ruf1vBnAgMBAAEwDQYJKoZIhvcNAQEEBQADgYEA
KHVsJpLUAHjn8woyIZ3EbrOsgGgiammJUsTETjNtrXsqGx7MFix25fdQdA2mprRd
VZB1NHl43QM2RoDYWH0ltFcSPRIrdS0f/8GuSYGjVfSc/VkBr4VO91VCrp/FX0b/
+5H80d+Z5ykkpTsQlkr88E1E68aUXY4dwnSw35bQeoQ=
-----END CERTIFICATE-----
