Certificate:
    Data:
        Version: 1 (0x0)
        Serial Number:
            9b:27:d7:e8:d1:ba:08:75
        Signature Algorithm: md5WithRSAEncryption
        Issuer: C=DE, ST=Saarland, O=MPI-SWS, OU=Distributed Systems Group, CN=Andreas Haeberlen/emailAddress=democa@octarine.de
        Validity
            Not Before: Apr 20 20:47:03 2015 GMT
            Not After : Apr 19 20:47:03 2016 GMT
        Subject: C=DE, ST=Saarland, O=MPI-SWS, OU=Distributed Systems Group, CN=ec6d46a9c643d5278bebb2cec34e7d06964dde7a/emailAddress=node0157@octarine.de
        Subject Public Key Info:
            Public Key Algorithm: rsaEncryption
            RSA Public Key: (1024 bit)
                Modulus (1024 bit):
                    00:ad:55:f9:b6:37:ac:9f:06:d9:e7:ca:f9:4f:5b:
                    d8:57:92:b3:94:e8:0f:30:1c:70:4a:d4:5e:f6:b5:
                    6c:2f:ea:3d:98:71:27:6a:7b:db:c4:dc:5c:3d:dd:
                    c5:72:dc:15:fe:f5:9a:88:d9:7d:e5:39:f4:0f:d8:
                    f1:47:55:e8:e9:c8:1e:67:29:d7:e0:07:24:61:bd:
                    66:bb:ca:76:6c:f3:6a:d5:8a:ec:2f:f7:9a:25:ab:
                    1b:fb:20:90:3d:35:25:36:cd:de:1b:87:8f:86:2c:
                    4f:92:01:94:e2:ec:c7:df:59:10:d7:55:29:f3:66:
                    b4:48:8c:25:e6:71:84:67:c3
                Exponent: 65537 (0x10001)
    Signature Algorithm: md5WithRSAEncryption
        b3:a4:16:8a:2a:e3:b5:59:e5:eb:dc:72:94:be:9c:25:63:1d:
        c9:6d:c6:7d:74:67:ef:2a:26:65:59:ff:b7:fc:8c:35:18:62:
        c5:42:47:7c:0c:c1:41:46:e4:83:7d:89:7d:5e:5b:01:8f:d3:
        f5:d3:6c:01:52:0a:6b:a8:76:2c:0e:bd:cb:dd:21:6f:7b:47:
        ea:7e:52:2f:ff:50:8a:72:8d:06:f3:c6:6b:e3:11:04:7c:f3:
        42:ef:f0:a2:0b:d7:f1:77:dd:22:e2:84:16:15:d6:cc:8f:29:
        e1:03:a9:30:fa:64:73:c3:d8:27:06:26:26:9b:b6:c7:ff:08:
        00:56
-----BEGIN CERTIFICATE-----
MIICvDCCAiUCCQCbJ9fo0boIdTANBgkqhkiG9w0BAQQFADCBlTELMAkGA1UEBhMC
REUxETAPBgNVBAgTCFNhYXJsYW5kMRAwDgYDVQQKEwdNUEktU1dTMSIwIAYDVQQL
ExlEaXN0cmlidXRlZCBTeXN0ZW1zIEdyb3VwMRowGAYDVQQDExFBbmRyZWFzIEhh
ZWJlcmxlbjEhMB8GCSqGSIb3DQEJARYSZGVtb2NhQG9jdGFyaW5lLmRlMB4XDTE1
MDQyMDIwNDcwM1oXDTE2MDQxOTIwNDcwM1owga4xCzAJBgNVBAYTAkRFMREwDwYD
VQQIEwhTYWFybGFuZDEQMA4GA1UEChMHTVBJLVNXUzEiMCAGA1UECxMZRGlzdHJp
YnV0ZWQgU3lzdGVtcyBHcm91cDExMC8GA1UEAxMoZWM2ZDQ2YTljNjQzZDUyNzhi
ZWJiMmNlYzM0ZTdkMDY5NjRkZGU3YTEjMCEGCSqGSIb3DQEJARYUbm9kZTAxNTdA
b2N0YXJpbmUuZGUwgZ8wDQYJKoZIhvcNAQEBBQADgY0AMIGJAoGBAK1V+bY3rJ8G
2efK+U9b2FeSs5ToDzAccErUXva1bC/qPZhxJ2p728TcXD3dxXLcFf71mojZfeU5
9A/Y8UdV6OnIHmcp1+AHJGG9ZrvKdmzzatWK7C/3miWrG/sgkD01JTbN3huHj4Ys
T5IBlOLsx99ZENdVKfNmtEiMJeZxhGfDAgMBAAEwDQYJKoZIhvcNAQEEBQADgYEA
s6QWiirjtVnl69xylL6cJWMdyW3GfXRn7yomZVn/t/yMNRhixUJHfAzBQUbkg32J
fV5bAY/T9dNsAVIKa6h2LA69y90hb3tH6n5SL/9QinKNBvPGa+MRBHzzQu/wogvX
8XfdIuKEFhXWzI8p4QOpMPpkc8PYJwYmJpu2x/8IAFY=
-----END CERTIFICATE-----
