Certificate:
    Data:
        Version: 1 (0x0)
        Serial Number:
            9b:27:d7:e8:d1:ba:08:b4
        Signature Algorithm: md5WithRSAEncryption
        Issuer: C=DE, ST=Saarland, O=MPI-SWS, OU=Distributed Systems Group, CN=Andreas Haeberlen/emailAddress=democa@octarine.de
        Validity
            Not Before: Apr 20 20:47:06 2015 GMT
            Not After : Apr 19 20:47:06 2016 GMT
        Subject: C=DE, ST=Saarland, O=MPI-SWS, OU=Distributed Systems Group, CN=75efb19ae9bf18dbb941ecb81a509c40220d4972/emailAddress=node0220@octarine.de
        Subject Public Key Info:
            Public Key Algorithm: rsaEncryption
            RSA Public Key: (1024 bit)
                Modulus (1024 bit):
                    00:db:9f:99:0a:27:16:33:34:0e:de:c0:a0:9a:20:
                    f6:21:0c:f6:19:a1:25:15:f4:5e:df:3f:dc:85:75:
                    11:1a:93:10:a1:6a:57:f1:72:40:4b:53:18:7f:24:
                    bd:75:f4:a8:c3:04:41:2a:81:ca:d8:e2:dc:ae:d2:
                    eb:bf:c7:4b:d1:3a:31:f5:85:f6:e3:25:9c:cf:65:
                    bf:7f:73:b5:7d:99:4d:a4:8a:35:c2:71:6a:ea:9e:
                    a1:de:ac:68:ae:40:c4:3f:57:71:36:cf:f4:8a:47:
                    5d:55:49:06:66:be:cf:9c:60:fb:93:e4:a4:6c:d0:
                    34:ae:94:11:12:1e:95:14:3d
                Exponent: 65537 (0x10001)
    Signature Algorithm: md5WithRSAEncryption
        67:90:ab:ba:16:8f:dd:7c:ec:66:80:0f:72:8f:66:3b:7c:80:
        51:81:89:b3:32:39:29:2d:e2:cd:13:db:a5:62:7f:0b:1d:11:
        de:7c:aa:96:30:11:09:d3:ee:82:99:c3:9d:80:46:79:82:2c:
        ab:e5:61:d3:dc:b2:12:68:1f:40:5b:f5:22:6b:a1:f5:48:22:
        ec:21:9f:8f:a7:43:19:b5:43:ab:ac:bf:0a:8d:16:7e:99:55:
        1b:3a:47:b0:55:96:f7:84:27:47:cf:c4:b2:20:02:18:65:c6:
        14:e8:6f:2f:db:39:b0:94:dc:0f:6a:91:8e:6e:7e:dc:62:65:
        5e:87
-----BEGIN CERTIFICATE-----
MIICvDCCAiUCCQCbJ9fo0boItDANBgkqhkiG9w0BAQQFADCBlTELMAkGA1UEBhMC
REUxETAPBgNVBAgTCFNhYXJsYW5kMRAwDgYDVQQKEwdNUEktU1dTMSIwIAYDVQQL
ExlEaXN0cmlidXRlZCBTeXN0ZW1zIEdyb3VwMRowGAYDVQQDExFBbmRyZWFzIEhh
ZWJlcmxlbjEhMB8GCSqGSIb3DQEJARYSZGVtb2NhQG9jdGFyaW5lLmRlMB4XDTE1
MDQyMDIwNDcwNloXDTE2MDQxOTIwNDcwNlowga4xCzAJBgNVBAYTAkRFMREwDwYD
VQQIEwhTYWFybGFuZDEQMA4GA1UEChMHTVBJLVNXUzEiMCAGA1UECxMZRGlzdHJp
YnV0ZWQgU3lzdGVtcyBHcm91cDExMC8GA1UEAxMoNzVlZmIxOWFlOWJmMThkYmI5
NDFlY2I4MWE1MDljNDAyMjBkNDk3MjEjMCEGCSqGSIb3DQEJARYUbm9kZTAyMjBA
b2N0YXJpbmUuZGUwgZ8wDQYJKoZIhvcNAQEBBQADgY0AMIGJAoGBANufmQonFjM0
Dt7AoJog9iEM9hmhJRX0Xt8/3IV1ERqTEKFqV/FyQEtTGH8kvXX0qMMEQSqBytji
3K7S67/HS9E6MfWF9uMlnM9lv39ztX2ZTaSKNcJxauqeod6saK5AxD9XcTbP9IpH
XVVJBma+z5xg+5PkpGzQNK6UERIelRQ9AgMBAAEwDQYJKoZIhvcNAQEEBQADgYEA
Z5CruhaP3XzsZoAPco9mO3yAUYGJszI5KS3izRPbpWJ/Cx0R3nyqljARCdPugpnD
nYBGeYIsq+Vh09yyEmgfQFv1Imuh9Ugi7CGfj6dDGbVDq6y/Co0WfplVGzpHsFWW
94QnR8/EsiACGGXGFOhvL9s5sJTcD2qRjm5+3GJlXoc=
-----END CERTIFICATE-----
