Certificate:
    Data:
        Version: 1 (0x0)
        Serial Number:
            9b:27:d7:e8:d1:ba:0a:85
        Signature Algorithm: md5WithRSAEncryption
        Issuer: C=DE, ST=Saarland, O=MPI-SWS, OU=Distributed Systems Group, CN=Andreas Haeberlen/emailAddress=democa@octarine.de
        Validity
            Not Before: Apr 20 20:47:27 2015 GMT
            Not After : Apr 19 20:47:27 2016 GMT
        Subject: C=DE, ST=Saarland, O=MPI-SWS, OU=Distributed Systems Group, CN=ae4bbdc5a9b5a3ee32d65adad595213cf78b541f/emailAddress=node0685@octarine.de
        Subject Public Key Info:
            Public Key Algorithm: rsaEncryption
            RSA Public Key: (1024 bit)
                Modulus (1024 bit):
                    00:c0:22:d7:4a:8d:38:f6:35:20:ae:72:b9:3c:f5:
                    a2:f1:c5:b9:67:c1:c9:d7:7c:90:8f:e2:42:8e:01:
                    93:db:ff:6a:88:6e:1c:2c:6c:21:61:45:62:2f:49:
                    d2:f6:9a:a9:a9:35:22:24:5b:c1:26:11:43:4f:1e:
                    bd:75:15:2d:ba:e6:03:ca:0e:2f:01:be:16:5f:14:
                    ce:5b:be:ee:ad:66:1f:c6:c8:39:47:30:2d:04:42:
                    30:39:4e:5c:1a:66:c0:c2:a9:77:f1:ec:74:61:86:
                    1b:69:1c:15:08:e3:9d:02:35:4c:b8:ef:d9:40:07:
                    1a:3d:c9:30:38:9a:e2:62:8d
                Exponent: 65537 (0x10001)
    Signature Algorithm: md5WithRSAEncryption
        b0:71:d3:bd:d8:5b:c6:07:e8:f2:97:86:bc:38:6f:f0:19:1d:
        a1:12:28:26:8c:ad:ff:f3:b0:53:de:16:c3:17:77:d6:95:fe:
        38:36:af:1e:06:1e:fa:77:25:ab:15:e0:9d:23:d3:9e:6d:08:
        c6:99:33:88:f3:df:e8:b8:9e:9d:b4:19:38:b8:82:57:cb:0e:
        96:c7:a8:83:f0:2c:4d:d1:23:96:29:1b:a0:f9:56:6d:a3:27:
        e9:3c:de:e5:c8:36:54:b4:65:18:b1:91:d1:e0:a8:ef:f4:c1:
        b2:bc:3c:2d:0c:48:0e:08:c2:51:91:66:7a:13:44:a2:e7:f8:
        4a:10
-----BEGIN CERTIFICATE-----
MIICvDCCAiUCCQCbJ9fo0boKhTANBgkqhkiG9w0BAQQFADCBlTELMAkGA1UEBhMC
REUxETAPBgNVBAgTCFNhYXJsYW5kMRAwDgYDVQQKEwdNUEktU1dTMSIwIAYDVQQL
ExlEaXN0cmlidXRlZCBTeXN0ZW1zIEdyb3VwMRowGAYDVQQDExFBbmRyZWFzIEhh
ZWJlcmxlbjEhMB8GCSqGSIb3DQEJARYSZGVtb2NhQG9jdGFyaW5lLmRlMB4XDTE1
MDQyMDIwNDcyN1oXDTE2MDQxOTIwNDcyN1owga4xCzAJBgNVBAYTAkRFMREwDwYD
VQQIEwhTYWFybGFuZDEQMA4GA1UEChMHTVBJLVNXUzEiMCAGA1UECxMZRGlzdHJp
YnV0ZWQgU3lzdGVtcyBHcm91cDExMC8GA1UEAxMoYWU0YmJkYzVhOWI1YTNlZTMy
ZDY1YWRhZDU5NTIxM2NmNzhiNTQxZjEjMCEGCSqGSIb3DQEJARYUbm9kZTA2ODVA
b2N0YXJpbmUuZGUwgZ8wDQYJKoZIhvcNAQEBBQADgY0AMIGJAoGBAMAi10qNOPY1
IK5yuTz1ovHFuWfBydd8kI/iQo4Bk9v/aohuHCxsIWFFYi9J0vaaqak1IiRbwSYR
Q08evXUVLbrmA8oOLwG+Fl8Uzlu+7q1mH8bIOUcwLQRCMDlOXBpmwMKpd/HsdGGG
G2kcFQjjnQI1TLjv2UAHGj3JMDia4mKNAgMBAAEwDQYJKoZIhvcNAQEEBQADgYEA
sHHTvdhbxgfo8peGvDhv8BkdoRIoJoyt//OwU94Wwxd31pX+ODavHgYe+nclqxXg
nSPTnm0IxpkziPPf6LienbQZOLiCV8sOlseog/AsTdEjlikboPlWbaMn6Tze5cg2
VLRlGLGR0eCo7/TBsrw8LQxIDgjCUZFmehNEouf4ShA=
-----END CERTIFICATE-----
