Certificate:
    Data:
        Version: 1 (0x0)
        Serial Number:
            9b:27:d7:e8:d1:ba:0a:fc
        Signature Algorithm: md5WithRSAEncryption
        Issuer: C=DE, ST=Saarland, O=MPI-SWS, OU=Distributed Systems Group, CN=Andreas Haeberlen/emailAddress=democa@octarine.de
        Validity
            Not Before: Apr 20 20:47:32 2015 GMT
            Not After : Apr 19 20:47:32 2016 GMT
        Subject: C=DE, ST=Saarland, O=MPI-SWS, OU=Distributed Systems Group, CN=eaa75f91380d9f24a46cc3c89287287021881294/emailAddress=node0804@octarine.de
        Subject Public Key Info:
            Public Key Algorithm: rsaEncryption
            RSA Public Key: (1024 bit)
                Modulus (1024 bit):
                    00:c2:fd:56:2e:36:ea:88:21:58:d0:b6:6f:63:07:
                    88:34:6d:2d:36:1d:e4:a5:08:c3:84:f8:cd:bd:22:
                    42:3b:2e:b9:96:80:51:b2:4f:3f:b6:56:57:e8:cd:
                    25:5e:b4:52:f7:18:8e:93:78:d2:7e:e8:1c:8c:da:
                    df:60:d4:0b:5d:d4:d0:5d:9c:da:4d:e7:16:96:b2:
                    66:28:2a:34:e0:65:19:c6:54:1e:b3:14:ff:30:11:
                    33:40:4b:31:16:fa:4c:01:44:41:d8:ce:52:fd:dd:
                    2d:c3:dc:11:6d:94:81:ce:33:a6:16:0c:10:ae:21:
                    6b:b3:03:16:fa:6e:ea:46:19
                Exponent: 65537 (0x10001)
    Signature Algorithm: md5WithRSAEncryption
        c5:27:e1:f4:03:21:dd:89:01:2f:32:db:e2:b1:ac:01:44:89:
        3c:d5:7a:97:03:5d:43:7d:6b:9c:8b:7c:f5:b0:0a:5a:0c:9b:
        5e:48:aa:d9:a7:38:e5:30:84:81:47:7e:26:ad:92:26:2d:57:
        af:22:ca:cc:07:37:1b:6c:ce:20:88:28:4b:b2:62:45:b7:26:
        1d:f6:f6:60:af:be:70:44:1b:a9:a8:a0:77:98:aa:c2:a9:09:
        62:5d:b2:33:bb:20:11:46:de:ae:d1:c0:36:b1:4b:88:53:bb:
        6c:ef:e1:85:9e:1c:58:0c:56:ea:43:4b:00:c2:00:62:47:2c:
        6f:84
-----BEGIN CERTIFICATE-----
MIICvDCCAiUCCQCbJ9fo0boK/DANBgkqhkiG9w0BAQQFADCBlTELMAkGA1UEBhMC
REUxETAPBgNVBAgTCFNhYXJsYW5kMRAwDgYDVQQKEwdNUEktU1dTMSIwIAYDVQQL
ExlEaXN0cmlidXRlZCBTeXN0ZW1zIEdyb3VwMRowGAYDVQQDExFBbmRyZWFzIEhh
ZWJlcmxlbjEhMB8GCSqGSIb3DQEJARYSZGVtb2NhQG9jdGFyaW5lLmRlMB4XDTE1
MDQyMDIwNDczMloXDTE2MDQxOTIwNDczMlowga4xCzAJBgNVBAYTAkRFMREwDwYD
VQQIEwhTYWFybGFuZDEQMA4GA1UEChMHTVBJLVNXUzEiMCAGA1UECxMZRGlzdHJp
YnV0ZWQgU3lzdGVtcyBHcm91cDExMC8GA1UEAxMoZWFhNzVmOTEzODBkOWYyNGE0
NmNjM2M4OTI4NzI4NzAyMTg4MTI5NDEjMCEGCSqGSIb3DQEJARYUbm9kZTA4MDRA
b2N0YXJpbmUuZGUwgZ8wDQYJKoZIhvcNAQEBBQADgY0AMIGJAoGBAML9Vi426ogh
WNC2b2MHiDRtLTYd5KUIw4T4zb0iQjsuuZaAUbJPP7ZWV+jNJV60UvcYjpN40n7o
HIza32DUC13U0F2c2k3nFpayZigqNOBlGcZUHrMU/zARM0BLMRb6TAFEQdjOUv3d
LcPcEW2Ugc4zphYMEK4ha7MDFvpu6kYZAgMBAAEwDQYJKoZIhvcNAQEEBQADgYEA
xSfh9AMh3YkBLzLb4rGsAUSJPNV6lwNdQ31rnIt89bAKWgybXkiq2ac45TCEgUd+
Jq2SJi1XryLKzAc3G2zOIIgoS7JiRbcmHfb2YK++cEQbqaigd5iqwqkJYl2yM7sg
EUbertHANrFLiFO7bO/hhZ4cWAxW6kNLAMIAYkcsb4Q=
-----END CERTIFICATE-----
