Certificate:
    Data:
        Version: 1 (0x0)
        Serial Number:
            9b:27:d7:e8:d1:ba:0a:7d
        Signature Algorithm: md5WithRSAEncryption
        Issuer: C=DE, ST=Saarland, O=MPI-SWS, OU=Distributed Systems Group, CN=Andreas Haeberlen/emailAddress=democa@octarine.de
        Validity
            Not Before: Apr 20 20:47:26 2015 GMT
            Not After : Apr 19 20:47:26 2016 GMT
        Subject: C=DE, ST=Saarland, O=MPI-SWS, OU=Distributed Systems Group, CN=9536f1ed1db69130f06088d761c1f33986087e59/emailAddress=node0677@octarine.de
        Subject Public Key Info:
            Public Key Algorithm: rsaEncryption
            RSA Public Key: (1024 bit)
                Modulus (1024 bit):
                    00:bc:a0:6d:2c:2f:b2:05:5e:5c:bb:0f:0f:ff:7a:
                    da:ab:83:0c:69:2d:db:af:a7:5f:05:82:3f:5c:fd:
                    fd:63:49:a5:b9:90:8e:00:0a:19:61:de:dd:79:44:
                    e9:8b:7b:24:aa:51:b5:f6:9a:2e:83:ed:fe:0f:45:
                    b1:75:f2:e4:aa:a2:bd:84:cf:e8:41:df:31:e8:26:
                    8a:bc:dc:44:d0:6d:81:77:52:19:54:c4:fa:1c:90:
                    e5:df:b7:dd:a6:ff:e8:5d:fc:7e:64:35:be:f3:dc:
                    63:b5:d6:5b:d6:f0:7b:e0:41:4d:d0:b9:e4:fe:c4:
                    72:cc:e0:1e:58:91:a3:84:f3
                Exponent: 65537 (0x10001)
    Signature Algorithm: md5WithRSAEncryption
        0f:ea:a6:9e:6f:e0:7d:aa:8e:ad:52:00:77:43:c8:c4:3d:7f:
        97:70:8d:8c:75:62:b9:e1:4e:b8:87:e6:38:57:9a:d3:17:54:
        3e:dc:81:f9:bf:c6:1d:1c:a8:f8:f5:c2:c3:9c:b2:07:e3:1f:
        18:0f:c9:14:2e:bf:5d:d4:c2:fb:fd:f7:d9:bb:3e:90:ee:21:
        74:95:32:64:8b:d2:82:c4:c4:b3:76:ce:18:fe:03:b0:a0:fd:
        eb:21:f1:ac:79:07:ca:c9:81:af:65:fa:3b:6f:a4:e3:e3:e7:
        2b:7f:e7:c3:be:b5:9a:f5:28:b7:8c:9f:b6:7c:be:14:19:17:
        bf:9e
-----BEGIN CERTIFICATE-----
MIICvDCCAiUCCQCbJ9fo0boKfTANBgkqhkiG9w0BAQQFADCBlTELMAkGA1UEBhMC
REUxETAPBgNVBAgTCFNhYXJsYW5kMRAwDgYDVQQKEwdNUEktU1dTMSIwIAYDVQQL
ExlEaXN0cmlidXRlZCBTeXN0ZW1zIEdyb3VwMRowGAYDVQQDExFBbmRyZWFzIEhh
ZWJlcmxlbjEhMB8GCSqGSIb3DQEJARYSZGVtb2NhQG9jdGFyaW5lLmRlMB4XDTE1
MDQyMDIwNDcyNloXDTE2MDQxOTIwNDcyNlowga4xCzAJBgNVBAYTAkRFMREwDwYD
VQQIEwhTYWFybGFuZDEQMA4GA1UEChMHTVBJLVNXUzEiMCAGA1UECxMZRGlzdHJp
YnV0ZWQgU3lzdGVtcyBHcm91cDExMC8GA1UEAxMoOTUzNmYxZWQxZGI2OTEzMGYw
NjA4OGQ3NjFjMWYzMzk4NjA4N2U1OTEjMCEGCSqGSIb3DQEJARYUbm9kZTA2NzdA
b2N0YXJpbmUuZGUwgZ8wDQYJKoZIhvcNAQEBBQADgY0AMIGJAoGBALygbSwvsgVe
XLsPD/962quDDGkt26+nXwWCP1z9/WNJpbmQjgAKGWHe3XlE6Yt7JKpRtfaaLoPt
/g9FsXXy5KqivYTP6EHfMegmirzcRNBtgXdSGVTE+hyQ5d+33ab/6F38fmQ1vvPc
Y7XWW9bwe+BBTdC55P7EcszgHliRo4TzAgMBAAEwDQYJKoZIhvcNAQEEBQADgYEA
D+qmnm/gfaqOrVIAd0PIxD1/l3CNjHViueFOuIfmOFea0xdUPtyB+b/GHRyo+PXC
w5yyB+MfGA/JFC6/XdTC+/332bs+kO4hdJUyZIvSgsTEs3bOGP4DsKD96yHxrHkH
ysmBr2X6O2+k4+PnK3/nw761mvUot4yftny+FBkXv54=
-----END CERTIFICATE-----
