Certificate:
    Data:
        Version: 1 (0x0)
        Serial Number:
            9b:27:d7:e8:d1:ba:08:3d
        Signature Algorithm: md5WithRSAEncryption
        Issuer: C=DE, ST=Saarland, O=MPI-SWS, OU=Distributed Systems Group, CN=Andreas Haeberlen/emailAddress=democa@octarine.de
        Validity
            Not Before: Apr 20 20:47:01 2015 GMT
            Not After : Apr 19 20:47:01 2016 GMT
        Subject: C=DE, ST=Saarland, O=MPI-SWS, OU=Distributed Systems Group, CN=42264aaa07c81b7999798391320ea95eb8402ea3/emailAddress=node0101@octarine.de
        Subject Public Key Info:
            Public Key Algorithm: rsaEncryption
            RSA Public Key: (1024 bit)
                Modulus (1024 bit):
                    00:d9:bc:ea:1d:50:68:02:0d:1a:27:13:f1:b2:2f:
                    77:48:96:e0:83:53:06:6a:73:3a:fd:90:59:21:4f:
                    fa:79:4c:2e:df:37:06:a5:b9:1a:f5:60:1b:03:84:
                    14:16:32:bf:c9:e9:7b:b0:06:db:ac:bf:63:4c:5b:
                    9b:d1:3a:64:b5:e3:09:73:5b:41:00:57:51:58:f2:
                    9a:98:02:06:24:be:af:fe:e2:a8:cd:3f:74:7e:ce:
                    6f:78:3c:6e:65:aa:23:3f:58:f7:25:c1:cc:e6:13:
                    b0:b5:29:2e:04:82:ae:ce:29:85:b9:f6:b0:c8:9e:
                    14:e0:a8:14:fd:15:5e:26:21
                Exponent: 65537 (0x10001)
    Signature Algorithm: md5WithRSAEncryption
        24:18:9f:a7:a8:b0:4d:6e:d3:73:56:a1:ef:78:67:0d:38:18:
        c7:01:db:70:e5:54:7c:99:a4:43:e7:ba:db:dd:df:a0:2c:5d:
        60:a3:a2:8c:04:0c:e4:af:76:a3:0b:0a:f1:a0:aa:72:83:9c:
        8a:06:03:7a:3d:e7:54:a9:cd:1a:96:27:e7:cb:af:16:48:be:
        b2:ff:ca:4f:28:57:25:00:7b:82:08:2c:8c:6f:7d:1c:b2:4f:
        b5:b0:e2:cf:f1:10:22:b9:c2:65:9d:64:8f:1a:e2:24:19:73:
        62:ce:ee:3c:b2:d8:b0:a9:21:47:a3:b1:03:04:7e:db:08:07:
        17:33
-----BEGIN CERTIFICATE-----
MIICvDCCAiUCCQCbJ9fo0boIPTANBgkqhkiG9w0BAQQFADCBlTELMAkGA1UEBhMC
REUxETAPBgNVBAgTCFNhYXJsYW5kMRAwDgYDVQQKEwdNUEktU1dTMSIwIAYDVQQL
ExlEaXN0cmlidXRlZCBTeXN0ZW1zIEdyb3VwMRowGAYDVQQDExFBbmRyZWFzIEhh
ZWJlcmxlbjEhMB8GCSqGSIb3DQEJARYSZGVtb2NhQG9jdGFyaW5lLmRlMB4XDTE1
MDQyMDIwNDcwMVoXDTE2MDQxOTIwNDcwMVowga4xCzAJBgNVBAYTAkRFMREwDwYD
VQQIEwhTYWFybGFuZDEQMA4GA1UEChMHTVBJLVNXUzEiMCAGA1UECxMZRGlzdHJp
YnV0ZWQgU3lzdGVtcyBHcm91cDExMC8GA1UEAxMoNDIyNjRhYWEwN2M4MWI3OTk5
Nzk4MzkxMzIwZWE5NWViODQwMmVhMzEjMCEGCSqGSIb3DQEJARYUbm9kZTAxMDFA
b2N0YXJpbmUuZGUwgZ8wDQYJKoZIhvcNAQEBBQADgY0AMIGJAoGBANm86h1QaAIN
GicT8bIvd0iW4INTBmpzOv2QWSFP+nlMLt83BqW5GvVgGwOEFBYyv8npe7AG26y/
Y0xbm9E6ZLXjCXNbQQBXUVjympgCBiS+r/7iqM0/dH7Ob3g8bmWqIz9Y9yXBzOYT
sLUpLgSCrs4phbn2sMieFOCoFP0VXiYhAgMBAAEwDQYJKoZIhvcNAQEEBQADgYEA
JBifp6iwTW7Tc1ah73hnDTgYxwHbcOVUfJmkQ+e6293foCxdYKOijAQM5K92owsK
8aCqcoOcigYDej3nVKnNGpYn58uvFki+sv/KTyhXJQB7gggsjG99HLJPtbDiz/EQ
IrnCZZ1kjxriJBlzYs7uPLLYsKkhR6OxAwR+2wgHFzM=
-----END CERTIFICATE-----
