Certificate:
    Data:
        Version: 1 (0x0)
        Serial Number:
            9b:27:d7:e8:d1:ba:09:2d
        Signature Algorithm: md5WithRSAEncryption
        Issuer: C=DE, ST=Saarland, O=MPI-SWS, OU=Distributed Systems Group, CN=Andreas Haeberlen/emailAddress=democa@octarine.de
        Validity
            Not Before: Apr 20 20:47:11 2015 GMT
            Not After : Apr 19 20:47:11 2016 GMT
        Subject: C=DE, ST=Saarland, O=MPI-SWS, OU=Distributed Systems Group, CN=24d8e59976d9286c8e053b816621c02e5f644fdc/emailAddress=node0341@octarine.de
        Subject Public Key Info:
            Public Key Algorithm: rsaEncryption
            RSA Public Key: (1024 bit)
                Modulus (1024 bit):
                    00:ee:4c:7e:d6:64:ac:30:74:52:55:3f:1e:fb:ae:
                    06:e1:d5:2a:0e:33:d2:cf:be:ac:c2:bd:cc:2b:de:
                    24:e8:dc:e1:1e:a7:9d:03:9f:ae:7c:7d:9a:56:ea:
                    20:b5:99:db:8e:40:88:44:80:43:4b:8a:f1:90:0a:
                    2b:0f:a6:e4:47:0b:a6:47:0a:4c:41:b6:59:4d:36:
                    01:bd:1c:5a:72:6a:a3:ce:e9:a1:aa:98:8e:1b:67:
                    7a:f3:df:5b:d9:9e:48:eb:63:10:81:8d:ca:02:7e:
                    eb:51:01:c0:30:9d:3d:e8:40:ef:41:3e:3a:17:b0:
                    ca:c4:1f:6f:7e:15:c0:7b:51
                Exponent: 65537 (0x10001)
    Signature Algorithm: md5WithRSAEncryption
        3e:db:7f:81:be:2f:3b:76:98:74:27:ba:30:2d:35:7e:c7:dd:
        fa:50:b3:15:8f:c6:1d:d3:2b:a0:d9:b9:18:ae:c5:74:60:b7:
        b6:f7:21:a4:07:eb:7d:49:f7:db:ef:7a:f5:f1:c0:71:29:fd:
        90:6f:72:ac:3d:ff:8d:54:56:9e:e7:94:e4:60:1e:35:11:a0:
        6d:f4:64:90:38:e1:e9:f6:81:8a:04:8b:da:5a:ab:ed:c8:4d:
        da:a5:3d:20:54:10:0c:f6:57:42:51:fd:3b:e1:9c:3a:09:e8:
        0a:b8:e5:a2:7b:be:d6:42:15:38:93:34:5c:27:a0:cf:32:f1:
        cb:6d
-----BEGIN CERTIFICATE-----
MIICvDCCAiUCCQCbJ9fo0boJLTANBgkqhkiG9w0BAQQFADCBlTELMAkGA1UEBhMC
REUxETAPBgNVBAgTCFNhYXJsYW5kMRAwDgYDVQQKEwdNUEktU1dTMSIwIAYDVQQL
ExlEaXN0cmlidXRlZCBTeXN0ZW1zIEdyb3VwMRowGAYDVQQDExFBbmRyZWFzIEhh
ZWJlcmxlbjEhMB8GCSqGSIb3DQEJARYSZGVtb2NhQG9jdGFyaW5lLmRlMB4XDTE1
MDQyMDIwNDcxMVoXDTE2MDQxOTIwNDcxMVowga4xCzAJBgNVBAYTAkRFMREwDwYD
VQQIEwhTYWFybGFuZDEQMA4GA1UEChMHTVBJLVNXUzEiMCAGA1UECxMZRGlzdHJp
YnV0ZWQgU3lzdGVtcyBHcm91cDExMC8GA1UEAxMoMjRkOGU1OTk3NmQ5Mjg2Yzhl
MDUzYjgxNjYyMWMwMmU1ZjY0NGZkYzEjMCEGCSqGSIb3DQEJARYUbm9kZTAzNDFA
b2N0YXJpbmUuZGUwgZ8wDQYJKoZIhvcNAQEBBQADgY0AMIGJAoGBAO5MftZkrDB0
UlU/HvuuBuHVKg4z0s++rMK9zCveJOjc4R6nnQOfrnx9mlbqILWZ245AiESAQ0uK
8ZAKKw+m5EcLpkcKTEG2WU02Ab0cWnJqo87poaqYjhtnevPfW9meSOtjEIGNygJ+
61EBwDCdPehA70E+OhewysQfb34VwHtRAgMBAAEwDQYJKoZIhvcNAQEEBQADgYEA
Ptt/gb4vO3aYdCe6MC01fsfd+lCzFY/GHdMroNm5GK7FdGC3tvchpAfrfUn32+96
9fHAcSn9kG9yrD3/jVRWnueU5GAeNRGgbfRkkDjh6faBigSL2lqr7chN2qU9IFQQ
DPZXQlH9O+GcOgnoCrjlonu+1kIVOJM0XCegzzLxy20=
-----END CERTIFICATE-----
