Certificate:
    Data:
        Version: 1 (0x0)
        Serial Number:
            9b:27:d7:e8:d1:ba:08:9c
        Signature Algorithm: md5WithRSAEncryption
        Issuer: C=DE, ST=Saarland, O=MPI-SWS, OU=Distributed Systems Group, CN=Andreas Haeberlen/emailAddress=democa@octarine.de
        Validity
            Not Before: Apr 20 20:47:05 2015 GMT
            Not After : Apr 19 20:47:05 2016 GMT
        Subject: C=DE, ST=Saarland, O=MPI-SWS, OU=Distributed Systems Group, CN=fa8c2fc45ccb6eaf70fa67720c7288473d35c0a1/emailAddress=node0196@octarine.de
        Subject Public Key Info:
            Public Key Algorithm: rsaEncryption
            RSA Public Key: (1024 bit)
                Modulus (1024 bit):
                    00:bf:29:b4:7d:c4:15:5a:44:f4:f1:6c:16:dd:5d:
                    ec:e0:d5:a4:d6:51:4a:6c:70:ff:fa:75:e3:59:e8:
                    73:8f:7d:2a:f4:80:d3:4b:af:d8:d7:41:9a:42:b6:
                    95:ad:92:ed:dc:e9:f8:8d:f4:1d:fa:c4:19:10:b1:
                    96:6a:ad:71:01:49:48:f4:bf:e2:2d:23:a2:42:44:
                    d3:5d:b1:98:0d:69:27:35:16:ec:20:88:b1:45:51:
                    a5:98:99:ba:0a:75:26:20:2b:46:90:fe:68:8f:73:
                    3c:5b:4d:3e:6a:4b:07:45:5f:a1:39:4c:34:12:63:
                    42:39:a2:bd:19:1c:51:db:3d
                Exponent: 65537 (0x10001)
    Signature Algorithm: md5WithRSAEncryption
        57:41:d5:27:0e:4d:ba:50:56:6b:13:ab:60:1a:55:e3:b8:c2:
        9d:e0:6f:01:20:60:19:28:cd:0e:ad:da:31:bb:90:13:a0:f2:
        cd:a6:a6:0c:07:83:2c:d8:06:bc:39:d2:72:3c:04:9e:1b:dc:
        37:3b:91:ee:97:59:06:4a:2d:61:64:6f:9d:1a:bd:f1:35:5c:
        7d:3b:d3:17:41:2d:fe:24:1c:08:1b:4f:34:09:1b:54:94:72:
        c5:68:aa:e3:68:a2:4c:07:89:60:e5:71:d0:da:db:9c:86:1e:
        74:8d:25:03:f5:67:c0:36:6b:04:ba:38:e0:43:86:03:11:6f:
        ae:a0
-----BEGIN CERTIFICATE-----
MIICvDCCAiUCCQCbJ9fo0boInDANBgkqhkiG9w0BAQQFADCBlTELMAkGA1UEBhMC
REUxETAPBgNVBAgTCFNhYXJsYW5kMRAwDgYDVQQKEwdNUEktU1dTMSIwIAYDVQQL
ExlEaXN0cmlidXRlZCBTeXN0ZW1zIEdyb3VwMRowGAYDVQQDExFBbmRyZWFzIEhh
ZWJlcmxlbjEhMB8GCSqGSIb3DQEJARYSZGVtb2NhQG9jdGFyaW5lLmRlMB4XDTE1
MDQyMDIwNDcwNVoXDTE2MDQxOTIwNDcwNVowga4xCzAJBgNVBAYTAkRFMREwDwYD
VQQIEwhTYWFybGFuZDEQMA4GA1UEChMHTVBJLVNXUzEiMCAGA1UECxMZRGlzdHJp
YnV0ZWQgU3lzdGVtcyBHcm91cDExMC8GA1UEAxMoZmE4YzJmYzQ1Y2NiNmVhZjcw
ZmE2NzcyMGM3Mjg4NDczZDM1YzBhMTEjMCEGCSqGSIb3DQEJARYUbm9kZTAxOTZA
b2N0YXJpbmUuZGUwgZ8wDQYJKoZIhvcNAQEBBQADgY0AMIGJAoGBAL8ptH3EFVpE
9PFsFt1d7ODVpNZRSmxw//p141noc499KvSA00uv2NdBmkK2la2S7dzp+I30HfrE
GRCxlmqtcQFJSPS/4i0jokJE012xmA1pJzUW7CCIsUVRpZiZugp1JiArRpD+aI9z
PFtNPmpLB0VfoTlMNBJjQjmivRkcUds9AgMBAAEwDQYJKoZIhvcNAQEEBQADgYEA
V0HVJw5NulBWaxOrYBpV47jCneBvASBgGSjNDq3aMbuQE6DyzaamDAeDLNgGvDnS
cjwEnhvcNzuR7pdZBkotYWRvnRq98TVcfTvTF0Et/iQcCBtPNAkbVJRyxWiq42ii
TAeJYOVx0NrbnIYedI0lA/VnwDZrBLo44EOGAxFvrqA=
-----END CERTIFICATE-----
