Certificate:
    Data:
        Version: 1 (0x0)
        Serial Number:
            9b:27:d7:e8:d1:ba:07:f0
        Signature Algorithm: md5WithRSAEncryption
        Issuer: C=DE, ST=Saarland, O=MPI-SWS, OU=Distributed Systems Group, CN=Andreas Haeberlen/emailAddress=democa@octarine.de
        Validity
            Not Before: Apr 20 20:46:58 2015 GMT
            Not After : Apr 19 20:46:58 2016 GMT
        Subject: C=DE, ST=Saarland, O=MPI-SWS, OU=Distributed Systems Group, CN=a1a00d942b8f00137768eba52f589f9304401d53/emailAddress=node0024@octarine.de
        Subject Public Key Info:
            Public Key Algorithm: rsaEncryption
            RSA Public Key: (1024 bit)
                Modulus (1024 bit):
                    00:d7:4a:d5:63:ba:f7:e8:98:0c:ea:1e:ab:8d:40:
                    3c:6c:fd:c0:5b:74:0e:68:fb:52:c7:af:7f:ed:64:
                    88:38:da:ed:58:f4:82:fd:67:63:04:44:60:aa:27:
                    9a:c0:56:8d:8b:bf:81:9c:8f:f0:ac:37:6a:18:ef:
                    d9:66:a2:9a:59:e3:f9:34:03:af:91:53:68:7f:b2:
                    b1:dd:89:cb:a0:77:b4:11:52:38:c2:25:33:e8:ce:
                    21:58:72:02:02:e3:df:c3:87:2e:97:cc:bf:7f:aa:
                    20:f5:e1:93:9c:7f:1d:68:1d:d1:08:93:11:24:1c:
                    b6:36:35:35:1c:63:77:62:e3
                Exponent: 65537 (0x10001)
    Signature Algorithm: md5WithRSAEncryption
        41:1c:35:43:4b:36:c4:8d:d8:7d:2c:28:17:8b:cf:e5:2a:25:
        5b:f9:72:7e:e4:9d:39:5f:c2:27:7a:cc:f5:70:20:ca:e9:b0:
        46:5b:7f:30:d2:9c:83:e0:52:a8:ed:b7:5f:40:98:53:7b:66:
        76:05:c9:da:3b:21:68:dd:9b:0e:54:49:56:7f:d8:d4:b4:ef:
        5d:05:ca:0d:2b:61:d1:74:83:09:26:da:59:96:8e:87:74:92:
        83:47:a6:54:13:84:85:4f:d7:93:dd:fe:d4:0c:70:d7:7e:76:
        be:67:6f:ba:ff:4d:28:b1:2c:ff:42:b0:68:03:8f:0d:93:ac:
        39:43
-----BEGIN CERTIFICATE-----
MIICvDCCAiUCCQCbJ9fo0boH8DANBgkqhkiG9w0BAQQFADCBlTELMAkGA1UEBhMC
REUxETAPBgNVBAgTCFNhYXJsYW5kMRAwDgYDVQQKEwdNUEktU1dTMSIwIAYDVQQL
ExlEaXN0cmlidXRlZCBTeXN0ZW1zIEdyb3VwMRowGAYDVQQDExFBbmRyZWFzIEhh
ZWJlcmxlbjEhMB8GCSqGSIb3DQEJARYSZGVtb2NhQG9jdGFyaW5lLmRlMB4XDTE1
MDQyMDIwNDY1OFoXDTE2MDQxOTIwNDY1OFowga4xCzAJBgNVBAYTAkRFMREwDwYD
VQQIEwhTYWFybGFuZDEQMA4GA1UEChMHTVBJLVNXUzEiMCAGA1UECxMZRGlzdHJp
YnV0ZWQgU3lzdGVtcyBHcm91cDExMC8GA1UEAxMoYTFhMDBkOTQyYjhmMDAxMzc3
NjhlYmE1MmY1ODlmOTMwNDQwMWQ1MzEjMCEGCSqGSIb3DQEJARYUbm9kZTAwMjRA
b2N0YXJpbmUuZGUwgZ8wDQYJKoZIhvcNAQEBBQADgY0AMIGJAoGBANdK1WO69+iY
DOoeq41APGz9wFt0Dmj7Usevf+1kiDja7Vj0gv1nYwREYKonmsBWjYu/gZyP8Kw3
ahjv2Waimlnj+TQDr5FTaH+ysd2Jy6B3tBFSOMIlM+jOIVhyAgLj38OHLpfMv3+q
IPXhk5x/HWgd0QiTESQctjY1NRxjd2LjAgMBAAEwDQYJKoZIhvcNAQEEBQADgYEA
QRw1Q0s2xI3YfSwoF4vP5SolW/lyfuSdOV/CJ3rM9XAgyumwRlt/MNKcg+BSqO23
X0CYU3tmdgXJ2jshaN2bDlRJVn/Y1LTvXQXKDSth0XSDCSbaWZaOh3SSg0emVBOE
hU/Xk93+1Axw1352vmdvuv9NKLEs/0KwaAOPDZOsOUM=
-----END CERTIFICATE-----
