Certificate:
    Data:
        Version: 1 (0x0)
        Serial Number:
            9b:27:d7:e8:d1:ba:09:93
        Signature Algorithm: md5WithRSAEncryption
        Issuer: C=DE, ST=Saarland, O=MPI-SWS, OU=Distributed Systems Group, CN=Andreas Haeberlen/emailAddress=democa@octarine.de
        Validity
            Not Before: Apr 20 20:47:16 2015 GMT
            Not After : Apr 19 20:47:16 2016 GMT
        Subject: C=DE, ST=Saarland, O=MPI-SWS, OU=Distributed Systems Group, CN=56995ebba3a3b95a3d19fe56b9613f286c2bae65/emailAddress=node0443@octarine.de
        Subject Public Key Info:
            Public Key Algorithm: rsaEncryption
            RSA Public Key: (1024 bit)
                Modulus (1024 bit):
                    00:bf:5c:db:7d:50:62:f8:26:e2:12:ff:59:2b:ea:
                    2a:35:18:46:27:f4:91:2b:e7:a1:60:10:11:31:b2:
                    86:1d:ff:e5:a6:90:8b:bf:4f:de:a3:c1:be:9f:23:
                    d6:e4:43:ac:f3:fd:2d:9a:91:b0:73:c8:47:83:a8:
                    d5:f3:f4:45:6b:08:f2:7e:fc:87:dd:22:8f:c0:1f:
                    44:f5:58:ba:91:3e:37:e1:ea:43:ae:c3:04:e1:f8:
                    f7:7f:59:f5:4f:d6:36:68:01:66:cb:be:2d:0b:81:
                    de:a6:cb:ee:4b:02:d8:75:f2:67:e4:17:19:b3:71:
                    b6:36:44:f8:45:bb:f1:38:af
                Exponent: 65537 (0x10001)
    Signature Algorithm: md5WithRSAEncryption
        22:57:07:c2:30:36:31:e8:4c:b1:ff:c8:a4:b6:58:72:8e:5a:
        7c:f0:c9:32:ca:ec:6e:e0:dc:40:4d:b1:5a:35:a4:ec:ba:17:
        ed:fc:ff:00:cb:1f:31:a2:87:6a:1c:67:64:30:cd:2e:09:1a:
        37:1c:26:6a:37:87:8f:34:98:ef:95:63:70:d4:68:ad:93:19:
        37:c0:53:97:e3:c7:a3:6a:59:e3:bf:4e:43:f8:d3:c0:8a:8f:
        cd:45:09:da:52:ed:e5:1a:59:d8:69:12:67:0e:59:4c:f0:12:
        39:1f:a2:30:cc:c9:f8:ce:70:41:34:b2:a5:f4:0b:42:16:a6:
        ab:33
-----BEGIN CERTIFICATE-----
MIICvDCCAiUCCQCbJ9fo0boJkzANBgkqhkiG9w0BAQQFADCBlTELMAkGA1UEBhMC
REUxETAPBgNVBAgTCFNhYXJsYW5kMRAwDgYDVQQKEwdNUEktU1dTMSIwIAYDVQQL
ExlEaXN0cmlidXRlZCBTeXN0ZW1zIEdyb3VwMRowGAYDVQQDExFBbmRyZWFzIEhh
ZWJlcmxlbjEhMB8GCSqGSIb3DQEJARYSZGVtb2NhQG9jdGFyaW5lLmRlMB4XDTE1
MDQyMDIwNDcxNloXDTE2MDQxOTIwNDcxNlowga4xCzAJBgNVBAYTAkRFMREwDwYD
VQQIEwhTYWFybGFuZDEQMA4GA1UEChMHTVBJLVNXUzEiMCAGA1UECxMZRGlzdHJp
YnV0ZWQgU3lzdGVtcyBHcm91cDExMC8GA1UEAxMoNTY5OTVlYmJhM2EzYjk1YTNk
MTlmZTU2Yjk2MTNmMjg2YzJiYWU2NTEjMCEGCSqGSIb3DQEJARYUbm9kZTA0NDNA
b2N0YXJpbmUuZGUwgZ8wDQYJKoZIhvcNAQEBBQADgY0AMIGJAoGBAL9c231QYvgm
4hL/WSvqKjUYRif0kSvnoWAQETGyhh3/5aaQi79P3qPBvp8j1uRDrPP9LZqRsHPI
R4Oo1fP0RWsI8n78h90ij8AfRPVYupE+N+HqQ67DBOH4939Z9U/WNmgBZsu+LQuB
3qbL7ksC2HXyZ+QXGbNxtjZE+EW78TivAgMBAAEwDQYJKoZIhvcNAQEEBQADgYEA
IlcHwjA2MehMsf/IpLZYco5afPDJMsrsbuDcQE2xWjWk7LoX7fz/AMsfMaKHahxn
ZDDNLgkaNxwmajeHjzSY75VjcNRorZMZN8BTl+PHo2pZ479OQ/jTwIqPzUUJ2lLt
5RpZ2GkSZw5ZTPASOR+iMMzJ+M5wQTSypfQLQhamqzM=
-----END CERTIFICATE-----
