Certificate:
    Data:
        Version: 1 (0x0)
        Serial Number:
            9b:27:d7:e8:d1:ba:09:96
        Signature Algorithm: md5WithRSAEncryption
        Issuer: C=DE, ST=Saarland, O=MPI-SWS, OU=Distributed Systems Group, CN=Andreas Haeberlen/emailAddress=democa@octarine.de
        Validity
            Not Before: Apr 20 20:47:16 2015 GMT
            Not After : Apr 19 20:47:16 2016 GMT
        Subject: C=DE, ST=Saarland, O=MPI-SWS, OU=Distributed Systems Group, CN=e17999866383204cc304e81f0a2a4fe216caf415/emailAddress=node0446@octarine.de
        Subject Public Key Info:
            Public Key Algorithm: rsaEncryption
            RSA Public Key: (1024 bit)
                Modulus (1024 bit):
                    00:a2:b2:f7:c3:ed:42:7d:39:96:ae:0a:3c:20:7b:
                    fd:53:81:f1:ba:5a:7f:a9:5c:8a:53:98:08:51:bb:
                    49:ec:55:f2:5e:be:3b:ea:7b:15:cd:37:d4:e6:cf:
                    83:0a:2e:f8:5c:62:4c:84:0c:9d:09:6b:85:c3:09:
                    fd:3f:98:63:a9:c5:f2:6e:9f:b8:e2:98:e9:e6:33:
                    4a:27:42:bc:77:a3:01:95:44:4f:14:55:3a:14:01:
                    ec:35:5b:88:b7:92:1c:72:24:82:4f:54:37:6e:ac:
                    c8:5e:9c:99:1d:d9:71:9e:cc:71:8b:77:f0:da:8a:
                    74:1a:05:5a:33:f5:a7:d4:31
                Exponent: 65537 (0x10001)
    Signature Algorithm: md5WithRSAEncryption
        69:c1:91:6f:f1:6c:e6:df:13:68:4c:4e:f5:dd:af:60:b1:18:
        c8:43:9e:3b:33:ba:b7:89:c7:d2:8f:64:48:d7:d7:94:e5:19:
        4c:1a:ce:6c:29:69:9f:c1:71:f4:03:58:5f:60:49:dc:19:5c:
        1b:14:e0:d1:ae:ec:f3:6a:7c:4a:8e:21:99:62:f3:12:84:a4:
        da:54:93:c6:c4:b2:4e:14:5e:67:59:72:68:ef:fc:ac:e8:88:
        f0:06:11:f4:02:87:34:f5:40:aa:d2:ce:ad:f4:6a:f4:8e:ca:
        ba:87:d5:f4:ef:44:ce:46:3b:6c:64:20:69:8e:9d:46:3f:5d:
        6d:32
-----BEGIN CERTIFICATE-----
MIICvDCCAiUCCQCbJ9fo0boJljANBgkqhkiG9w0BAQQFADCBlTELMAkGA1UEBhMC
REUxETAPBgNVBAgTCFNhYXJsYW5kMRAwDgYDVQQKEwdNUEktU1dTMSIwIAYDVQQL
ExlEaXN0cmlidXRlZCBTeXN0ZW1zIEdyb3VwMRowGAYDVQQDExFBbmRyZWFzIEhh
ZWJlcmxlbjEhMB8GCSqGSIb3DQEJARYSZGVtb2NhQG9jdGFyaW5lLmRlMB4XDTE1
MDQyMDIwNDcxNloXDTE2MDQxOTIwNDcxNlowga4xCzAJBgNVBAYTAkRFMREwDwYD
VQQIEwhTYWFybGFuZDEQMA4GA1UEChMHTVBJLVNXUzEiMCAGA1UECxMZRGlzdHJp
YnV0ZWQgU3lzdGVtcyBHcm91cDExMC8GA1UEAxMoZTE3OTk5ODY2MzgzMjA0Y2Mz
MDRlODFmMGEyYTRmZTIxNmNhZjQxNTEjMCEGCSqGSIb3DQEJARYUbm9kZTA0NDZA
b2N0YXJpbmUuZGUwgZ8wDQYJKoZIhvcNAQEBBQADgY0AMIGJAoGBAKKy98PtQn05
lq4KPCB7/VOB8bpaf6lcilOYCFG7SexV8l6+O+p7Fc031ObPgwou+FxiTIQMnQlr
hcMJ/T+YY6nF8m6fuOKY6eYzSidCvHejAZVETxRVOhQB7DVbiLeSHHIkgk9UN26s
yF6cmR3ZcZ7McYt38NqKdBoFWjP1p9QxAgMBAAEwDQYJKoZIhvcNAQEEBQADgYEA
acGRb/Fs5t8TaExO9d2vYLEYyEOeOzO6t4nH0o9kSNfXlOUZTBrObClpn8Fx9ANY
X2BJ3BlcGxTg0a7s82p8So4hmWLzEoSk2lSTxsSyThReZ1lyaO/8rOiI8AYR9AKH
NPVAqtLOrfRq9I7KuofV9O9EzkY7bGQgaY6dRj9dbTI=
-----END CERTIFICATE-----
