Certificate:
    Data:
        Version: 1 (0x0)
        Serial Number:
            9b:27:d7:e8:d1:ba:0a:87
        Signature Algorithm: md5WithRSAEncryption
        Issuer: C=DE, ST=Saarland, O=MPI-SWS, OU=Distributed Systems Group, CN=Andreas Haeberlen/emailAddress=democa@octarine.de
        Validity
            Not Before: Apr 20 20:47:27 2015 GMT
            Not After : Apr 19 20:47:27 2016 GMT
        Subject: C=DE, ST=Saarland, O=MPI-SWS, OU=Distributed Systems Group, CN=b9791c5fb6ebaab6e77747eecea4591138a45f30/emailAddress=node0687@octarine.de
        Subject Public Key Info:
            Public Key Algorithm: rsaEncryption
            RSA Public Key: (1024 bit)
                Modulus (1024 bit):
                    00:c0:b4:cc:8f:e5:9b:22:7e:60:6f:76:75:b1:48:
                    e0:b1:2a:64:2f:f2:fa:05:2d:d3:dc:92:c4:aa:45:
                    b0:1e:bc:a0:e3:92:8f:ef:9f:d9:84:94:a4:71:a4:
                    be:97:32:44:bc:f2:5e:c4:ae:73:49:fe:e2:2b:5e:
                    a4:65:d1:dd:9c:15:98:1a:b2:98:e4:5f:1a:1c:ce:
                    3c:b2:c1:43:84:3c:51:cd:04:a7:8b:74:bc:a0:94:
                    39:c1:87:6e:cf:1d:0c:57:aa:ad:74:d0:e2:2f:49:
                    8a:9f:b6:00:40:0e:62:b0:73:44:94:79:d1:64:d7:
                    98:c4:92:8e:cd:ef:85:e6:df
                Exponent: 65537 (0x10001)
    Signature Algorithm: md5WithRSAEncryption
        9b:ad:be:4c:ec:bf:2b:cc:9c:7f:be:1d:7d:8c:33:d8:09:f0:
        87:2c:c0:66:76:a3:5b:f9:72:f6:4f:29:28:a9:6e:3e:e4:6c:
        43:d6:66:b7:37:b6:2f:40:58:a8:87:30:73:15:69:0e:90:79:
        d2:68:d9:a3:38:e5:e3:9a:ec:7e:93:25:20:52:db:d2:ae:1d:
        fa:da:b6:8a:8e:86:d0:73:49:79:39:5f:61:c8:52:c8:84:1b:
        d2:00:32:11:0b:71:99:30:4b:72:9b:22:27:af:d4:2d:5e:da:
        77:0f:b4:bb:ac:34:34:8d:57:22:09:8c:4b:d6:55:a9:76:8d:
        a9:57
-----BEGIN CERTIFICATE-----
MIICvDCCAiUCCQCbJ9fo0boKhzANBgkqhkiG9w0BAQQFADCBlTELMAkGA1UEBhMC
REUxETAPBgNVBAgTCFNhYXJsYW5kMRAwDgYDVQQKEwdNUEktU1dTMSIwIAYDVQQL
ExlEaXN0cmlidXRlZCBTeXN0ZW1zIEdyb3VwMRowGAYDVQQDExFBbmRyZWFzIEhh
ZWJlcmxlbjEhMB8GCSqGSIb3DQEJARYSZGVtb2NhQG9jdGFyaW5lLmRlMB4XDTE1
MDQyMDIwNDcyN1oXDTE2MDQxOTIwNDcyN1owga4xCzAJBgNVBAYTAkRFMREwDwYD
VQQIEwhTYWFybGFuZDEQMA4GA1UEChMHTVBJLVNXUzEiMCAGA1UECxMZRGlzdHJp
YnV0ZWQgU3lzdGVtcyBHcm91cDExMC8GA1UEAxMoYjk3OTFjNWZiNmViYWFiNmU3
Nzc0N2VlY2VhNDU5MTEzOGE0NWYzMDEjMCEGCSqGSIb3DQEJARYUbm9kZTA2ODdA
b2N0YXJpbmUuZGUwgZ8wDQYJKoZIhvcNAQEBBQADgY0AMIGJAoGBAMC0zI/lmyJ+
YG92dbFI4LEqZC/y+gUt09ySxKpFsB68oOOSj++f2YSUpHGkvpcyRLzyXsSuc0n+
4itepGXR3ZwVmBqymORfGhzOPLLBQ4Q8Uc0Ep4t0vKCUOcGHbs8dDFeqrXTQ4i9J
ip+2AEAOYrBzRJR50WTXmMSSjs3vhebfAgMBAAEwDQYJKoZIhvcNAQEEBQADgYEA
m62+TOy/K8ycf74dfYwz2AnwhyzAZnajW/ly9k8pKKluPuRsQ9Zmtze2L0BYqIcw
cxVpDpB50mjZozjl45rsfpMlIFLb0q4d+tq2io6G0HNJeTlfYchSyIQb0gAyEQtx
mTBLcpsiJ6/ULV7adw+0u6w0NI1XIgmMS9ZVqXaNqVc=
-----END CERTIFICATE-----
