Certificate:
    Data:
        Version: 1 (0x0)
        Serial Number:
            9b:27:d7:e8:d1:ba:09:68
        Signature Algorithm: md5WithRSAEncryption
        Issuer: C=DE, ST=Saarland, O=MPI-SWS, OU=Distributed Systems Group, CN=Andreas Haeberlen/emailAddress=democa@octarine.de
        Validity
            Not Before: Apr 20 20:47:14 2015 GMT
            Not After : Apr 19 20:47:14 2016 GMT
        Subject: C=DE, ST=Saarland, O=MPI-SWS, OU=Distributed Systems Group, CN=850d993cb9b2b27611c7b753d5a9616f76c10fdb/emailAddress=node0400@octarine.de
        Subject Public Key Info:
            Public Key Algorithm: rsaEncryption
            RSA Public Key: (1024 bit)
                Modulus (1024 bit):
                    00:9f:21:ec:9b:84:b3:56:5e:66:6f:af:4e:7d:9f:
                    6f:3b:f5:5d:f3:4c:b2:d2:16:45:ed:2e:f2:e5:e6:
                    72:b9:36:6c:08:3a:d3:93:5a:4a:38:cb:25:ea:24:
                    3d:ea:50:0a:29:37:2f:7c:ec:59:b5:cb:41:d8:7e:
                    e3:11:cc:00:bd:4e:be:21:68:00:b3:d9:f9:6e:8b:
                    0a:43:9c:8e:e8:16:29:f4:65:db:89:1a:e6:c5:38:
                    fe:22:72:d7:26:e4:50:e6:54:81:d7:a6:8e:f3:6a:
                    d3:44:cb:23:a7:d3:4d:f4:a4:81:43:c1:7b:a7:e1:
                    50:60:f8:1a:ce:ea:f2:3b:65
                Exponent: 65537 (0x10001)
    Signature Algorithm: md5WithRSAEncryption
        8a:3d:e6:7f:0a:ba:a8:2f:c4:80:42:f0:59:2d:3a:21:79:c9:
        60:91:cc:d6:8f:22:d7:ad:a8:31:da:6b:d1:09:80:62:b5:90:
        cc:d6:33:01:cd:e3:a4:6c:5d:8a:97:3d:37:8c:61:b2:85:cf:
        a3:c2:63:d8:6e:9d:f3:37:9b:28:f3:09:15:9a:2c:6e:9e:f4:
        8c:d5:95:bb:a6:96:b5:a4:49:3f:0f:dc:78:16:71:bb:64:f5:
        58:e2:47:f5:df:93:3c:38:f2:73:9f:de:8d:88:34:35:a1:b2:
        c5:95:b1:06:8c:7c:7a:6d:b5:01:4a:0b:18:14:b1:d4:06:a8:
        d6:77
-----BEGIN CERTIFICATE-----
MIICvDCCAiUCCQCbJ9fo0boJaDANBgkqhkiG9w0BAQQFADCBlTELMAkGA1UEBhMC
REUxETAPBgNVBAgTCFNhYXJsYW5kMRAwDgYDVQQKEwdNUEktU1dTMSIwIAYDVQQL
ExlEaXN0cmlidXRlZCBTeXN0ZW1zIEdyb3VwMRowGAYDVQQDExFBbmRyZWFzIEhh
ZWJlcmxlbjEhMB8GCSqGSIb3DQEJARYSZGVtb2NhQG9jdGFyaW5lLmRlMB4XDTE1
MDQyMDIwNDcxNFoXDTE2MDQxOTIwNDcxNFowga4xCzAJBgNVBAYTAkRFMREwDwYD
VQQIEwhTYWFybGFuZDEQMA4GA1UEChMHTVBJLVNXUzEiMCAGA1UECxMZRGlzdHJp
YnV0ZWQgU3lzdGVtcyBHcm91cDExMC8GA1UEAxMoODUwZDk5M2NiOWIyYjI3NjEx
YzdiNzUzZDVhOTYxNmY3NmMxMGZkYjEjMCEGCSqGSIb3DQEJARYUbm9kZTA0MDBA
b2N0YXJpbmUuZGUwgZ8wDQYJKoZIhvcNAQEBBQADgY0AMIGJAoGBAJ8h7JuEs1Ze
Zm+vTn2fbzv1XfNMstIWRe0u8uXmcrk2bAg605NaSjjLJeokPepQCik3L3zsWbXL
Qdh+4xHMAL1OviFoALPZ+W6LCkOcjugWKfRl24ka5sU4/iJy1ybkUOZUgdemjvNq
00TLI6fTTfSkgUPBe6fhUGD4Gs7q8jtlAgMBAAEwDQYJKoZIhvcNAQEEBQADgYEA
ij3mfwq6qC/EgELwWS06IXnJYJHM1o8i162oMdpr0QmAYrWQzNYzAc3jpGxdipc9
N4xhsoXPo8Jj2G6d8zebKPMJFZosbp70jNWVu6aWtaRJPw/ceBZxu2T1WOJH9d+T
PDjyc5/ejYg0NaGyxZWxBox8em21AUoLGBSx1Aao1nc=
-----END CERTIFICATE-----
