Certificate:
    Data:
        Version: 1 (0x0)
        Serial Number:
            9b:27:d7:e8:d1:ba:0a:17
        Signature Algorithm: md5WithRSAEncryption
        Issuer: C=DE, ST=Saarland, O=MPI-SWS, OU=Distributed Systems Group, CN=Andreas Haeberlen/emailAddress=democa@octarine.de
        Validity
            Not Before: Apr 20 20:47:22 2015 GMT
            Not After : Apr 19 20:47:22 2016 GMT
        Subject: C=DE, ST=Saarland, O=MPI-SWS, OU=Distributed Systems Group, CN=708077e47d4e3f455bb1e9b36a9394305c1c4f0b/emailAddress=node0575@octarine.de
        Subject Public Key Info:
            Public Key Algorithm: rsaEncryption
            RSA Public Key: (1024 bit)
                Modulus (1024 bit):
                    00:d3:38:03:66:c8:9e:95:c1:a9:5e:9d:a9:de:69:
                    55:a3:cd:29:20:af:eb:c4:a0:81:8b:ec:dd:a8:dc:
                    ee:bb:9d:40:64:ab:22:c1:1e:9c:b7:33:df:d6:11:
                    4d:a4:ee:d4:80:b3:48:a0:3e:1d:96:f6:26:a6:80:
                    e6:17:6b:20:44:ac:87:6f:63:1f:40:f6:84:98:0b:
                    78:0c:2e:ff:2e:24:e5:d0:9c:4f:41:ba:15:41:6f:
                    60:1c:cd:a3:f2:69:c2:45:d6:9e:25:e8:ac:e8:7c:
                    c4:17:f3:8a:ae:d2:47:9b:a8:f0:d8:19:6a:69:44:
                    cf:d5:5f:58:b8:ef:56:27:67
                Exponent: 65537 (0x10001)
    Signature Algorithm: md5WithRSAEncryption
        7f:9c:e7:3e:f2:32:61:aa:35:3e:66:66:c8:cb:da:30:f5:14:
        5c:bd:21:4f:8b:29:5d:57:71:14:97:7d:c8:ca:6b:34:66:62:
        93:de:76:65:17:ae:61:cd:0a:4c:42:4a:b5:ad:55:07:98:0e:
        1a:e9:c4:c3:cb:15:0d:f0:0d:e3:dc:df:29:96:a2:20:e1:5a:
        71:33:78:8f:9f:25:77:52:6e:40:78:b2:54:50:98:9d:0d:7b:
        a7:e0:4a:cf:4c:b1:2b:9e:15:ed:60:e5:cd:78:29:95:7c:15:
        ac:79:d3:44:5c:a9:b8:8d:bd:09:b0:70:63:27:e1:97:3e:36:
        74:97
-----BEGIN CERTIFICATE-----
MIICvDCCAiUCCQCbJ9fo0boKFzANBgkqhkiG9w0BAQQFADCBlTELMAkGA1UEBhMC
REUxETAPBgNVBAgTCFNhYXJsYW5kMRAwDgYDVQQKEwdNUEktU1dTMSIwIAYDVQQL
ExlEaXN0cmlidXRlZCBTeXN0ZW1zIEdyb3VwMRowGAYDVQQDExFBbmRyZWFzIEhh
ZWJlcmxlbjEhMB8GCSqGSIb3DQEJARYSZGVtb2NhQG9jdGFyaW5lLmRlMB4XDTE1
MDQyMDIwNDcyMloXDTE2MDQxOTIwNDcyMlowga4xCzAJBgNVBAYTAkRFMREwDwYD
VQQIEwhTYWFybGFuZDEQMA4GA1UEChMHTVBJLVNXUzEiMCAGA1UECxMZRGlzdHJp
YnV0ZWQgU3lzdGVtcyBHcm91cDExMC8GA1UEAxMoNzA4MDc3ZTQ3ZDRlM2Y0NTVi
YjFlOWIzNmE5Mzk0MzA1YzFjNGYwYjEjMCEGCSqGSIb3DQEJARYUbm9kZTA1NzVA
b2N0YXJpbmUuZGUwgZ8wDQYJKoZIhvcNAQEBBQADgY0AMIGJAoGBANM4A2bInpXB
qV6dqd5pVaPNKSCv68SggYvs3ajc7rudQGSrIsEenLcz39YRTaTu1ICzSKA+HZb2
JqaA5hdrIESsh29jH0D2hJgLeAwu/y4k5dCcT0G6FUFvYBzNo/JpwkXWniXorOh8
xBfziq7SR5uo8NgZamlEz9VfWLjvVidnAgMBAAEwDQYJKoZIhvcNAQEEBQADgYEA
f5znPvIyYao1PmZmyMvaMPUUXL0hT4spXVdxFJd9yMprNGZik952ZReuYc0KTEJK
ta1VB5gOGunEw8sVDfAN49zfKZaiIOFacTN4j58ld1JuQHiyVFCYnQ17p+BKz0yx
K54V7WDlzXgplXwVrHnTRFypuI29CbBwYyfhlz42dJc=
-----END CERTIFICATE-----
