Certificate:
    Data:
        Version: 1 (0x0)
        Serial Number:
            9b:27:d7:e8:d1:ba:09:2c
        Signature Algorithm: md5WithRSAEncryption
        Issuer: C=DE, ST=Saarland, O=MPI-SWS, OU=Distributed Systems Group, CN=Andreas Haeberlen/emailAddress=democa@octarine.de
        Validity
            Not Before: Apr 20 20:47:11 2015 GMT
            Not After : Apr 19 20:47:11 2016 GMT
        Subject: C=DE, ST=Saarland, O=MPI-SWS, OU=Distributed Systems Group, CN=591b2e6e6d5c5a71a2d41bbdaf74d5a2ebe0a5e0/emailAddress=node0340@octarine.de
        Subject Public Key Info:
            Public Key Algorithm: rsaEncryption
            RSA Public Key: (1024 bit)
                Modulus (1024 bit):
                    00:bd:5b:4b:26:3d:e1:20:86:d1:9c:04:ba:30:27:
                    a0:68:f5:ce:9c:12:8a:2a:c7:f0:ff:44:db:c1:35:
                    d8:04:57:ed:76:70:06:24:5a:b3:42:0c:0d:05:73:
                    34:0d:28:fc:24:98:74:e5:05:4e:5e:f4:70:c1:d4:
                    f6:23:6c:fc:b0:13:65:56:29:00:b0:04:fb:2f:0b:
                    37:3a:fb:4b:26:b3:8b:b6:db:24:73:0f:6a:3d:9f:
                    9b:e5:54:7d:34:d2:78:5e:5f:cd:2a:38:87:a8:f2:
                    d8:69:b2:ef:61:ab:bc:d1:26:0a:e3:da:f6:6f:9f:
                    46:16:68:46:1a:d6:8b:3f:21
                Exponent: 65537 (0x10001)
    Signature Algorithm: md5WithRSAEncryption
        a2:9d:f8:9c:6d:3f:7f:bf:62:1e:fb:d8:ae:77:0d:b4:7b:20:
        4e:33:ee:9e:53:7d:b1:5e:d5:21:2c:7c:86:99:71:96:1d:41:
        ff:ba:61:f9:79:67:c2:74:83:4f:8c:62:f0:d8:7a:28:d1:97:
        18:2d:19:bf:8f:12:89:ca:34:72:40:a3:e3:57:f4:94:7a:22:
        4e:f1:0e:8d:3e:ea:92:f7:5a:4d:26:8f:05:7e:2d:b6:5f:0f:
        ef:7b:88:94:ff:e3:25:5a:5e:20:78:95:20:a2:6a:55:23:26:
        e4:31:17:92:55:f9:8b:6c:4c:2a:73:f1:aa:13:13:b9:ad:da:
        68:4f
-----BEGIN CERTIFICATE-----
MIICvDCCAiUCCQCbJ9fo0boJLDANBgkqhkiG9w0BAQQFADCBlTELMAkGA1UEBhMC
REUxETAPBgNVBAgTCFNhYXJsYW5kMRAwDgYDVQQKEwdNUEktU1dTMSIwIAYDVQQL
ExlEaXN0cmlidXRlZCBTeXN0ZW1zIEdyb3VwMRowGAYDVQQDExFBbmRyZWFzIEhh
ZWJlcmxlbjEhMB8GCSqGSIb3DQEJARYSZGVtb2NhQG9jdGFyaW5lLmRlMB4XDTE1
MDQyMDIwNDcxMVoXDTE2MDQxOTIwNDcxMVowga4xCzAJBgNVBAYTAkRFMREwDwYD
VQQIEwhTYWFybGFuZDEQMA4GA1UEChMHTVBJLVNXUzEiMCAGA1UECxMZRGlzdHJp
YnV0ZWQgU3lzdGVtcyBHcm91cDExMC8GA1UEAxMoNTkxYjJlNmU2ZDVjNWE3MWEy
ZDQxYmJkYWY3NGQ1YTJlYmUwYTVlMDEjMCEGCSqGSIb3DQEJARYUbm9kZTAzNDBA
b2N0YXJpbmUuZGUwgZ8wDQYJKoZIhvcNAQEBBQADgY0AMIGJAoGBAL1bSyY94SCG
0ZwEujAnoGj1zpwSiirH8P9E28E12ARX7XZwBiRas0IMDQVzNA0o/CSYdOUFTl70
cMHU9iNs/LATZVYpALAE+y8LNzr7Syazi7bbJHMPaj2fm+VUfTTSeF5fzSo4h6jy
2Gmy72GrvNEmCuPa9m+fRhZoRhrWiz8hAgMBAAEwDQYJKoZIhvcNAQEEBQADgYEA
op34nG0/f79iHvvYrncNtHsgTjPunlN9sV7VISx8hplxlh1B/7ph+XlnwnSDT4xi
8Nh6KNGXGC0Zv48Sico0ckCj41f0lHoiTvEOjT7qkvdaTSaPBX4ttl8P73uIlP/j
JVpeIHiVIKJqVSMm5DEXklX5i2xMKnPxqhMTua3aaE8=
-----END CERTIFICATE-----
