Certificate:
    Data:
        Version: 1 (0x0)
        Serial Number:
            9b:27:d7:e8:d1:ba:08:c1
        Signature Algorithm: md5WithRSAEncryption
        Issuer: C=DE, ST=Saarland, O=MPI-SWS, OU=Distributed Systems Group, CN=Andreas Haeberlen/emailAddress=democa@octarine.de
        Validity
            Not Before: Apr 20 20:47:07 2015 GMT
            Not After : Apr 19 20:47:07 2016 GMT
        Subject: C=DE, ST=Saarland, O=MPI-SWS, OU=Distributed Systems Group, CN=af61e21bae9a5bdfbae38071fb827d12c73aa564/emailAddress=node0233@octarine.de
        Subject Public Key Info:
            Public Key Algorithm: rsaEncryption
            RSA Public Key: (1024 bit)
                Modulus (1024 bit):
                    00:d7:8c:87:f2:d6:b7:93:95:c1:0d:ff:2c:00:59:
                    f5:6f:07:b3:8f:55:26:3a:a4:7b:89:f9:53:6b:6c:
                    ec:9d:45:f8:9c:fd:bd:2c:ce:b2:29:3f:0b:13:84:
                    a0:3f:a8:1d:df:c8:72:31:6b:39:62:a3:b3:6d:ef:
                    c5:ac:78:47:e3:1a:56:6c:e8:96:60:45:b1:af:f7:
                    d9:95:ba:fd:cd:13:f1:a1:3e:b0:2a:7d:c4:27:9f:
                    eb:fc:a9:4c:f2:98:5c:43:a7:3f:e2:57:33:7a:71:
                    2c:0d:3b:3d:b5:1f:ff:38:66:0d:fa:1a:9d:60:9c:
                    b3:33:18:82:9c:b5:0c:3d:11
                Exponent: 65537 (0x10001)
    Signature Algorithm: md5WithRSAEncryption
        63:9c:9a:74:e9:45:e8:07:9a:bc:74:be:ee:67:71:80:ba:6c:
        b3:b0:ad:5f:c6:9d:a2:a4:f0:67:79:f2:54:94:30:b1:4d:7f:
        12:91:8e:fc:82:ba:c3:7a:84:c2:4c:57:13:4c:44:29:99:a7:
        4e:4c:e9:27:1b:9b:3b:92:1a:4e:ca:f4:84:04:4a:d9:3c:19:
        e5:2c:62:06:16:e2:d1:7d:48:00:d7:97:ce:1f:8a:53:65:a9:
        26:62:50:c7:91:c2:e9:fa:72:e1:2b:15:51:48:61:d8:be:73:
        d2:9e:f0:93:d4:74:4f:53:e0:90:f8:01:63:a1:b9:56:79:97:
        88:45
-----BEGIN CERTIFICATE-----
MIICvDCCAiUCCQCbJ9fo0boIwTANBgkqhkiG9w0BAQQFADCBlTELMAkGA1UEBhMC
REUxETAPBgNVBAgTCFNhYXJsYW5kMRAwDgYDVQQKEwdNUEktU1dTMSIwIAYDVQQL
ExlEaXN0cmlidXRlZCBTeXN0ZW1zIEdyb3VwMRowGAYDVQQDExFBbmRyZWFzIEhh
ZWJlcmxlbjEhMB8GCSqGSIb3DQEJARYSZGVtb2NhQG9jdGFyaW5lLmRlMB4XDTE1
MDQyMDIwNDcwN1oXDTE2MDQxOTIwNDcwN1owga4xCzAJBgNVBAYTAkRFMREwDwYD
VQQIEwhTYWFybGFuZDEQMA4GA1UEChMHTVBJLVNXUzEiMCAGA1UECxMZRGlzdHJp
YnV0ZWQgU3lzdGVtcyBHcm91cDExMC8GA1UEAxMoYWY2MWUyMWJhZTlhNWJkZmJh
ZTM4MDcxZmI4MjdkMTJjNzNhYTU2NDEjMCEGCSqGSIb3DQEJARYUbm9kZTAyMzNA
b2N0YXJpbmUuZGUwgZ8wDQYJKoZIhvcNAQEBBQADgY0AMIGJAoGBANeMh/LWt5OV
wQ3/LABZ9W8Hs49VJjqke4n5U2ts7J1F+Jz9vSzOsik/CxOEoD+oHd/IcjFrOWKj
s23vxax4R+MaVmzolmBFsa/32ZW6/c0T8aE+sCp9xCef6/ypTPKYXEOnP+JXM3px
LA07PbUf/zhmDfoanWCcszMYgpy1DD0RAgMBAAEwDQYJKoZIhvcNAQEEBQADgYEA
Y5yadOlF6AeavHS+7mdxgLpss7CtX8adoqTwZ3nyVJQwsU1/EpGO/IK6w3qEwkxX
E0xEKZmnTkzpJxubO5IaTsr0hARK2TwZ5SxiBhbi0X1IANeXzh+KU2WpJmJQx5HC
6fpy4SsVUUhh2L5z0p7wk9R0T1PgkPgBY6G5VnmXiEU=
-----END CERTIFICATE-----
