Certificate:
    Data:
        Version: 1 (0x0)
        Serial Number:
            9b:27:d7:e8:d1:ba:09:59
        Signature Algorithm: md5WithRSAEncryption
        Issuer: C=DE, ST=Saarland, O=MPI-SWS, OU=Distributed Systems Group, CN=Andreas Haeberlen/emailAddress=democa@octarine.de
        Validity
            Not Before: Apr 20 20:47:13 2015 GMT
            Not After : Apr 19 20:47:13 2016 GMT
        Subject: C=DE, ST=Saarland, O=MPI-SWS, OU=Distributed Systems Group, CN=85e203ef37317b9aa04006e6a505ebe71d921815/emailAddress=node0385@octarine.de
        Subject Public Key Info:
            Public Key Algorithm: rsaEncryption
            RSA Public Key: (1024 bit)
                Modulus (1024 bit):
                    00:a6:16:90:4e:0d:3d:3f:97:0b:59:37:3b:63:6f:
                    33:75:38:56:42:ff:38:67:ac:57:d7:59:44:ef:8c:
                    49:92:72:b5:7b:d0:e1:00:68:14:c2:be:7e:ae:e9:
                    e4:a7:7b:06:ad:bd:ff:18:a2:cb:e0:48:89:05:6f:
                    37:31:2d:03:02:5b:55:a4:c0:0e:1b:ef:43:ff:b1:
                    ae:b0:aa:ca:9d:69:6b:ef:d3:79:c1:48:b9:84:01:
                    9a:33:ca:50:ec:96:fa:c5:61:39:86:de:30:6b:46:
                    34:cd:96:9a:93:c4:be:7a:40:c7:02:57:4d:f3:ae:
                    ac:c7:56:25:57:87:89:e6:a1
                Exponent: 65537 (0x10001)
    Signature Algorithm: md5WithRSAEncryption
        14:6c:0b:68:d1:38:01:fb:6f:fe:00:5d:b9:94:15:49:39:cd:
        b1:f1:ca:5c:14:13:1f:2d:bf:ae:ef:81:84:fd:02:41:32:e5:
        d5:64:1d:a2:a3:11:2f:96:9e:b8:b6:b7:7e:45:5d:fa:93:2a:
        f7:5b:5c:a9:4e:89:a8:59:1a:28:d3:47:c7:8c:f7:15:16:eb:
        54:69:d0:5b:07:d7:13:7f:f1:c1:a7:93:f2:e4:66:f5:20:a7:
        1e:c6:8e:c1:1a:94:fe:1c:f6:20:73:b7:1c:76:7d:0e:81:63:
        18:39:c6:cf:32:ef:ba:9d:8e:cf:84:39:9d:69:b0:9d:54:37:
        98:28
-----BEGIN CERTIFICATE-----
MIICvDCCAiUCCQCbJ9fo0boJWTANBgkqhkiG9w0BAQQFADCBlTELMAkGA1UEBhMC
REUxETAPBgNVBAgTCFNhYXJsYW5kMRAwDgYDVQQKEwdNUEktU1dTMSIwIAYDVQQL
ExlEaXN0cmlidXRlZCBTeXN0ZW1zIEdyb3VwMRowGAYDVQQDExFBbmRyZWFzIEhh
ZWJlcmxlbjEhMB8GCSqGSIb3DQEJARYSZGVtb2NhQG9jdGFyaW5lLmRlMB4XDTE1
MDQyMDIwNDcxM1oXDTE2MDQxOTIwNDcxM1owga4xCzAJBgNVBAYTAkRFMREwDwYD
VQQIEwhTYWFybGFuZDEQMA4GA1UEChMHTVBJLVNXUzEiMCAGA1UECxMZRGlzdHJp
YnV0ZWQgU3lzdGVtcyBHcm91cDExMC8GA1UEAxMoODVlMjAzZWYzNzMxN2I5YWEw
NDAwNmU2YTUwNWViZTcxZDkyMTgxNTEjMCEGCSqGSIb3DQEJARYUbm9kZTAzODVA
b2N0YXJpbmUuZGUwgZ8wDQYJKoZIhvcNAQEBBQADgY0AMIGJAoGBAKYWkE4NPT+X
C1k3O2NvM3U4VkL/OGesV9dZRO+MSZJytXvQ4QBoFMK+fq7p5Kd7Bq29/xiiy+BI
iQVvNzEtAwJbVaTADhvvQ/+xrrCqyp1pa+/TecFIuYQBmjPKUOyW+sVhOYbeMGtG
NM2WmpPEvnpAxwJXTfOurMdWJVeHieahAgMBAAEwDQYJKoZIhvcNAQEEBQADgYEA
FGwLaNE4Aftv/gBduZQVSTnNsfHKXBQTHy2/ru+BhP0CQTLl1WQdoqMRL5aeuLa3
fkVd+pMq91tcqU6JqFkaKNNHx4z3FRbrVGnQWwfXE3/xwaeT8uRm9SCnHsaOwRqU
/hz2IHO3HHZ9DoFjGDnGzzLvup2Oz4Q5nWmwnVQ3mCg=
-----END CERTIFICATE-----
