Certificate:
    Data:
        Version: 1 (0x0)
        Serial Number:
            9b:27:d7:e8:d1:ba:08:79
        Signature Algorithm: md5WithRSAEncryption
        Issuer: C=DE, ST=Saarland, O=MPI-SWS, OU=Distributed Systems Group, CN=Andreas Haeberlen/emailAddress=democa@octarine.de
        Validity
            Not Before: Apr 20 20:47:04 2015 GMT
            Not After : Apr 19 20:47:04 2016 GMT
        Subject: C=DE, ST=Saarland, O=MPI-SWS, OU=Distributed Systems Group, CN=7dc6b635cf3c8294e8e82a8d7c23e1d5e9c90ffc/emailAddress=node0161@octarine.de
        Subject Public Key Info:
            Public Key Algorithm: rsaEncryption
            RSA Public Key: (1024 bit)
                Modulus (1024 bit):
                    00:c9:f9:ae:3d:c3:87:cf:e3:59:47:f4:a1:12:ad:
                    68:e8:8c:81:8f:c2:d3:cc:f1:aa:0e:bf:b5:5f:2b:
                    64:d2:89:d8:e8:b7:fa:f4:f0:9a:a1:a3:06:b9:40:
                    f0:4b:0f:1c:88:fb:5b:11:3a:73:bb:72:69:0c:bf:
                    bd:ac:0c:44:f7:01:12:0b:cf:9f:86:0e:c3:7f:01:
                    b0:c1:c6:e0:4f:a2:e5:1a:bb:0a:ca:e9:a2:c4:17:
                    6d:03:cf:2c:32:1e:1a:52:3b:63:59:53:c3:dc:71:
                    41:d5:6c:1d:68:c7:17:bc:ac:20:27:08:c6:4f:0c:
                    90:f3:36:0e:a0:d7:a3:cc:b3
                Exponent: 65537 (0x10001)
    Signature Algorithm: md5WithRSAEncryption
        7e:b0:eb:b2:be:f4:f7:04:a5:c8:25:56:02:9c:74:c0:58:53:
        e2:e1:57:03:65:87:8e:46:69:8f:d6:f8:7d:88:41:f5:8a:d5:
        5d:bc:09:78:0e:55:89:23:af:72:46:1a:9c:8b:4d:ea:9c:42:
        2f:b4:b3:a6:7c:73:6e:ae:5d:68:5e:ac:5a:51:78:b8:51:c7:
        40:c2:7c:5e:3a:3d:81:90:25:f0:c5:fa:d9:c9:d8:04:c4:12:
        89:2b:b8:b3:6e:16:2e:bd:3c:0a:4f:80:71:38:54:1e:34:bb:
        f7:69:a0:83:7c:98:45:6f:b3:e2:b3:30:5f:1e:22:8f:ee:4c:
        80:ed
-----BEGIN CERTIFICATE-----
MIICvDCCAiUCCQCbJ9fo0boIeTANBgkqhkiG9w0BAQQFADCBlTELMAkGA1UEBhMC
REUxETAPBgNVBAgTCFNhYXJsYW5kMRAwDgYDVQQKEwdNUEktU1dTMSIwIAYDVQQL
ExlEaXN0cmlidXRlZCBTeXN0ZW1zIEdyb3VwMRowGAYDVQQDExFBbmRyZWFzIEhh
ZWJlcmxlbjEhMB8GCSqGSIb3DQEJARYSZGVtb2NhQG9jdGFyaW5lLmRlMB4XDTE1
MDQyMDIwNDcwNFoXDTE2MDQxOTIwNDcwNFowga4xCzAJBgNVBAYTAkRFMREwDwYD
VQQIEwhTYWFybGFuZDEQMA4GA1UEChMHTVBJLVNXUzEiMCAGA1UECxMZRGlzdHJp
YnV0ZWQgU3lzdGVtcyBHcm91cDExMC8GA1UEAxMoN2RjNmI2MzVjZjNjODI5NGU4
ZTgyYThkN2MyM2UxZDVlOWM5MGZmYzEjMCEGCSqGSIb3DQEJARYUbm9kZTAxNjFA
b2N0YXJpbmUuZGUwgZ8wDQYJKoZIhvcNAQEBBQADgY0AMIGJAoGBAMn5rj3Dh8/j
WUf0oRKtaOiMgY/C08zxqg6/tV8rZNKJ2Oi3+vTwmqGjBrlA8EsPHIj7WxE6c7ty
aQy/vawMRPcBEgvPn4YOw38BsMHG4E+i5Rq7CsrposQXbQPPLDIeGlI7Y1lTw9xx
QdVsHWjHF7ysICcIxk8MkPM2DqDXo8yzAgMBAAEwDQYJKoZIhvcNAQEEBQADgYEA
frDrsr709wSlyCVWApx0wFhT4uFXA2WHjkZpj9b4fYhB9YrVXbwJeA5ViSOvckYa
nItN6pxCL7Szpnxzbq5daF6sWlF4uFHHQMJ8Xjo9gZAl8MX62cnYBMQSiSu4s24W
Lr08Ck+AcThUHjS792mgg3yYRW+z4rMwXx4ij+5MgO0=
-----END CERTIFICATE-----
