Certificate:
    Data:
        Version: 1 (0x0)
        Serial Number:
            9b:27:d7:e8:d1:ba:0b:04
        Signature Algorithm: md5WithRSAEncryption
        Issuer: C=DE, ST=Saarland, O=MPI-SWS, OU=Distributed Systems Group, CN=Andreas Haeberlen/emailAddress=democa@octarine.de
        Validity
            Not Before: Apr 20 20:47:33 2015 GMT
            Not After : Apr 19 20:47:33 2016 GMT
        Subject: C=DE, ST=Saarland, O=MPI-SWS, OU=Distributed Systems Group, CN=9ac680b2019a8c6348c58a3f2d602eac86206e26/emailAddress=node0812@octarine.de
        Subject Public Key Info:
            Public Key Algorithm: rsaEncryption
            RSA Public Key: (1024 bit)
                Modulus (1024 bit):
                    00:a6:9d:22:88:1e:a0:dd:d2:c4:f1:8c:8a:c0:68:
                    15:c6:84:00:d9:44:0c:85:5d:c8:30:ae:54:2d:51:
                    8b:5e:79:dd:ba:71:f7:b9:08:17:a0:27:19:37:dc:
                    df:54:b8:01:3f:22:40:88:ac:44:a1:ba:fb:70:86:
                    ec:39:98:c5:91:6a:e1:5d:b6:f5:31:dd:a0:2b:1c:
                    7e:c4:d4:6f:46:3c:17:a9:cd:b0:93:19:90:00:43:
                    76:3e:72:6b:42:02:ff:4a:93:08:11:dc:a6:4f:7a:
                    fe:a4:42:15:1d:d7:44:44:85:76:7c:24:eb:1c:69:
                    80:34:be:39:a9:b6:18:dd:75
                Exponent: 65537 (0x10001)
    Signature Algorithm: md5WithRSAEncryption
        4b:04:57:ce:6c:99:fa:53:32:03:c0:07:9d:fb:38:9a:06:6e:
        59:d0:a9:53:fd:f6:65:b3:4f:fb:e9:97:7d:98:2a:f9:25:53:
        cd:35:a6:b9:0d:1d:b8:b3:bd:32:fe:04:73:bf:20:72:d1:a6:
        92:2a:38:5d:57:1b:9c:00:1d:fd:07:bd:13:39:33:ef:f7:9c:
        4f:cf:1d:de:cb:cb:f7:a4:42:87:bf:56:31:1f:4e:46:47:07:
        ad:14:4f:ce:2f:86:97:e6:99:fb:f2:bd:a9:c3:24:58:74:61:
        52:2f:58:1e:aa:d8:27:5c:b0:ef:70:1f:1c:7a:9b:44:20:8f:
        e2:37
-----BEGIN CERTIFICATE-----
MIICvDCCAiUCCQCbJ9fo0boLBDANBgkqhkiG9w0BAQQFADCBlTELMAkGA1UEBhMC
REUxETAPBgNVBAgTCFNhYXJsYW5kMRAwDgYDVQQKEwdNUEktU1dTMSIwIAYDVQQL
ExlEaXN0cmlidXRlZCBTeXN0ZW1zIEdyb3VwMRowGAYDVQQDExFBbmRyZWFzIEhh
ZWJlcmxlbjEhMB8GCSqGSIb3DQEJARYSZGVtb2NhQG9jdGFyaW5lLmRlMB4XDTE1
MDQyMDIwNDczM1oXDTE2MDQxOTIwNDczM1owga4xCzAJBgNVBAYTAkRFMREwDwYD
VQQIEwhTYWFybGFuZDEQMA4GA1UEChMHTVBJLVNXUzEiMCAGA1UECxMZRGlzdHJp
YnV0ZWQgU3lzdGVtcyBHcm91cDExMC8GA1UEAxMoOWFjNjgwYjIwMTlhOGM2MzQ4
YzU4YTNmMmQ2MDJlYWM4NjIwNmUyNjEjMCEGCSqGSIb3DQEJARYUbm9kZTA4MTJA
b2N0YXJpbmUuZGUwgZ8wDQYJKoZIhvcNAQEBBQADgY0AMIGJAoGBAKadIogeoN3S
xPGMisBoFcaEANlEDIVdyDCuVC1Ri1553bpx97kIF6AnGTfc31S4AT8iQIisRKG6
+3CG7DmYxZFq4V229THdoCscfsTUb0Y8F6nNsJMZkABDdj5ya0IC/0qTCBHcpk96
/qRCFR3XRESFdnwk6xxpgDS+Oam2GN11AgMBAAEwDQYJKoZIhvcNAQEEBQADgYEA
SwRXzmyZ+lMyA8AHnfs4mgZuWdCpU/32ZbNP++mXfZgq+SVTzTWmuQ0duLO9Mv4E
c78gctGmkio4XVcbnAAd/Qe9Ezkz7/ecT88d3svL96RCh79WMR9ORkcHrRRPzi+G
l+aZ+/K9qcMkWHRhUi9YHqrYJ1yw73AfHHqbRCCP4jc=
-----END CERTIFICATE-----
