Certificate:
    Data:
        Version: 1 (0x0)
        Serial Number:
            9b:27:d7:e8:d1:ba:0a:e8
        Signature Algorithm: md5WithRSAEncryption
        Issuer: C=DE, ST=Saarland, O=MPI-SWS, OU=Distributed Systems Group, CN=Andreas Haeberlen/emailAddress=democa@octarine.de
        Validity
            Not Before: Apr 20 20:47:31 2015 GMT
            Not After : Apr 19 20:47:31 2016 GMT
        Subject: C=DE, ST=Saarland, O=MPI-SWS, OU=Distributed Systems Group, CN=a3cbdda6dd2f257bcded0428611332be67a35493/emailAddress=node0784@octarine.de
        Subject Public Key Info:
            Public Key Algorithm: rsaEncryption
            RSA Public Key: (1024 bit)
                Modulus (1024 bit):
                    00:d5:0f:12:91:e3:49:6a:6c:79:61:8b:37:ae:5d:
                    00:6f:e3:bb:e2:d2:43:fc:06:f3:0c:8a:4f:88:95:
                    ce:f2:e0:c4:13:02:32:8c:cd:b5:b9:87:d6:a3:f8:
                    75:c6:c5:72:e3:5f:1d:6f:f7:4a:83:95:e8:43:57:
                    7c:92:e6:c1:9b:0b:2f:cb:53:93:c5:12:ec:f0:b9:
                    4d:9e:b1:91:36:71:69:9f:60:eb:77:f4:25:45:2b:
                    04:86:0a:4c:cb:8c:ba:b9:4d:22:81:f7:f3:5e:9f:
                    a2:20:7b:f4:66:ca:f9:40:cb:58:10:6e:ed:3c:05:
                    90:af:59:b5:0a:8e:3d:56:39
                Exponent: 65537 (0x10001)
    Signature Algorithm: md5WithRSAEncryption
        90:7e:e0:19:9b:7f:9d:77:82:99:da:6f:bb:c3:36:64:db:1c:
        ac:29:dd:d8:10:1d:c7:5a:ab:c5:f8:eb:89:44:73:bf:99:80:
        58:23:98:37:4d:12:97:63:c4:d8:17:15:8d:37:1f:ec:5d:bf:
        d6:40:8e:88:73:67:d7:a5:65:d9:56:58:6c:31:68:57:7b:de:
        16:b5:0f:ea:3f:7d:42:75:cd:0b:c5:d1:c8:ac:0b:3a:31:32:
        aa:25:de:3a:ab:fc:8c:ff:9b:70:87:1b:d7:60:78:e0:fb:38:
        19:e6:48:f0:0f:ec:24:e9:cc:89:c1:f8:af:40:50:da:69:a2:
        e6:79
-----BEGIN CERTIFICATE-----
MIICvDCCAiUCCQCbJ9fo0boK6DANBgkqhkiG9w0BAQQFADCBlTELMAkGA1UEBhMC
REUxETAPBgNVBAgTCFNhYXJsYW5kMRAwDgYDVQQKEwdNUEktU1dTMSIwIAYDVQQL
ExlEaXN0cmlidXRlZCBTeXN0ZW1zIEdyb3VwMRowGAYDVQQDExFBbmRyZWFzIEhh
ZWJlcmxlbjEhMB8GCSqGSIb3DQEJARYSZGVtb2NhQG9jdGFyaW5lLmRlMB4XDTE1
MDQyMDIwNDczMVoXDTE2MDQxOTIwNDczMVowga4xCzAJBgNVBAYTAkRFMREwDwYD
VQQIEwhTYWFybGFuZDEQMA4GA1UEChMHTVBJLVNXUzEiMCAGA1UECxMZRGlzdHJp
YnV0ZWQgU3lzdGVtcyBHcm91cDExMC8GA1UEAxMoYTNjYmRkYTZkZDJmMjU3YmNk
ZWQwNDI4NjExMzMyYmU2N2EzNTQ5MzEjMCEGCSqGSIb3DQEJARYUbm9kZTA3ODRA
b2N0YXJpbmUuZGUwgZ8wDQYJKoZIhvcNAQEBBQADgY0AMIGJAoGBANUPEpHjSWps
eWGLN65dAG/ju+LSQ/wG8wyKT4iVzvLgxBMCMozNtbmH1qP4dcbFcuNfHW/3SoOV
6ENXfJLmwZsLL8tTk8US7PC5TZ6xkTZxaZ9g63f0JUUrBIYKTMuMurlNIoH3816f
oiB79GbK+UDLWBBu7TwFkK9ZtQqOPVY5AgMBAAEwDQYJKoZIhvcNAQEEBQADgYEA
kH7gGZt/nXeCmdpvu8M2ZNscrCnd2BAdx1qrxfjriURzv5mAWCOYN00Sl2PE2BcV
jTcf7F2/1kCOiHNn16Vl2VZYbDFoV3veFrUP6j99QnXNC8XRyKwLOjEyqiXeOqv8
jP+bcIcb12B44Ps4GeZI8A/sJOnMicH4r0BQ2mmi5nk=
-----END CERTIFICATE-----
