Certificate:
    Data:
        Version: 1 (0x0)
        Serial Number:
            9b:27:d7:e8:d1:ba:08:5a
        Signature Algorithm: md5WithRSAEncryption
        Issuer: C=DE, ST=Saarland, O=MPI-SWS, OU=Distributed Systems Group, CN=Andreas Haeberlen/emailAddress=democa@octarine.de
        Validity
            Not Before: Apr 20 20:47:02 2015 GMT
            Not After : Apr 19 20:47:02 2016 GMT
        Subject: C=DE, ST=Saarland, O=MPI-SWS, OU=Distributed Systems Group, CN=ff076b62d37f3a488da8082e8b6b722722f8e6ab/emailAddress=node0130@octarine.de
        Subject Public Key Info:
            Public Key Algorithm: rsaEncryption
            RSA Public Key: (1024 bit)
                Modulus (1024 bit):
                    00:be:bd:02:2b:b1:6b:4d:42:c1:77:31:d7:8d:01:
                    f6:28:56:d7:54:2d:a2:11:21:5f:2e:87:51:b5:34:
                    65:f8:0b:41:fd:82:b6:45:bc:ae:b8:84:21:2b:ca:
                    7f:02:4a:76:4f:1a:a7:82:b4:a7:f7:2e:3a:2f:5d:
                    a9:00:b5:43:90:bf:0c:7f:62:3d:b2:49:2b:08:f9:
                    8f:92:19:88:72:ee:65:34:82:c7:7d:af:f0:18:80:
                    93:56:6d:ba:34:ff:71:3c:c6:a3:94:6b:5d:42:9d:
                    68:b9:16:ec:b1:ae:07:5e:fe:8e:60:44:4c:2c:cb:
                    d1:4c:37:a3:bf:14:36:84:f9
                Exponent: 65537 (0x10001)
    Signature Algorithm: md5WithRSAEncryption
        2b:77:93:93:a1:43:6d:9b:f8:0b:5c:24:08:6f:6a:c0:7e:9a:
        ff:c1:65:59:74:c7:70:e6:ec:d5:c4:34:86:fb:94:07:85:96:
        db:ee:49:e5:61:49:68:4a:93:02:8a:13:e0:4b:a9:8f:dc:8e:
        cf:6f:bb:9f:4b:24:fa:2a:8c:32:bc:6e:11:51:8d:94:4b:13:
        74:ad:1a:99:e3:dc:e1:53:8b:15:9e:07:3b:cb:74:53:3b:eb:
        b0:40:7d:bb:92:b8:c0:10:83:2f:8e:75:3d:0a:4f:cb:69:3d:
        fe:ea:dc:b1:7f:77:9e:3d:61:a4:39:b5:fa:1f:ef:f9:4c:41:
        cb:5d
-----BEGIN CERTIFICATE-----
MIICvDCCAiUCCQCbJ9fo0boIWjANBgkqhkiG9w0BAQQFADCBlTELMAkGA1UEBhMC
REUxETAPBgNVBAgTCFNhYXJsYW5kMRAwDgYDVQQKEwdNUEktU1dTMSIwIAYDVQQL
ExlEaXN0cmlidXRlZCBTeXN0ZW1zIEdyb3VwMRowGAYDVQQDExFBbmRyZWFzIEhh
ZWJlcmxlbjEhMB8GCSqGSIb3DQEJARYSZGVtb2NhQG9jdGFyaW5lLmRlMB4XDTE1
MDQyMDIwNDcwMloXDTE2MDQxOTIwNDcwMlowga4xCzAJBgNVBAYTAkRFMREwDwYD
VQQIEwhTYWFybGFuZDEQMA4GA1UEChMHTVBJLVNXUzEiMCAGA1UECxMZRGlzdHJp
YnV0ZWQgU3lzdGVtcyBHcm91cDExMC8GA1UEAxMoZmYwNzZiNjJkMzdmM2E0ODhk
YTgwODJlOGI2YjcyMjcyMmY4ZTZhYjEjMCEGCSqGSIb3DQEJARYUbm9kZTAxMzBA
b2N0YXJpbmUuZGUwgZ8wDQYJKoZIhvcNAQEBBQADgY0AMIGJAoGBAL69Aiuxa01C
wXcx140B9ihW11QtohEhXy6HUbU0ZfgLQf2CtkW8rriEISvKfwJKdk8ap4K0p/cu
Oi9dqQC1Q5C/DH9iPbJJKwj5j5IZiHLuZTSCx32v8BiAk1ZtujT/cTzGo5RrXUKd
aLkW7LGuB17+jmBETCzL0Uw3o78UNoT5AgMBAAEwDQYJKoZIhvcNAQEEBQADgYEA
K3eTk6FDbZv4C1wkCG9qwH6a/8FlWXTHcObs1cQ0hvuUB4WW2+5J5WFJaEqTAooT
4Eupj9yOz2+7n0sk+iqMMrxuEVGNlEsTdK0amePc4VOLFZ4HO8t0UzvrsEB9u5K4
wBCDL451PQpPy2k9/urcsX93nj1hpDm1+h/v+UxBy10=
-----END CERTIFICATE-----
