Certificate:
    Data:
        Version: 1 (0x0)
        Serial Number:
            9b:27:d7:e8:d1:ba:09:ed
        Signature Algorithm: md5WithRSAEncryption
        Issuer: C=DE, ST=Saarland, O=MPI-SWS, OU=Distributed Systems Group, CN=Andreas Haeberlen/emailAddress=democa@octarine.de
        Validity
            Not Before: Apr 20 20:47:20 2015 GMT
            Not After : Apr 19 20:47:20 2016 GMT
        Subject: C=DE, ST=Saarland, O=MPI-SWS, OU=Distributed Systems Group, CN=e2da4cc8ade1e6ffe2f353fd4a2568d5abff7c72/emailAddress=node0533@octarine.de
        Subject Public Key Info:
            Public Key Algorithm: rsaEncryption
            RSA Public Key: (1024 bit)
                Modulus (1024 bit):
                    00:bb:02:c8:bc:6c:66:0e:eb:8d:5d:0c:4e:c5:00:
                    b1:0b:8d:ad:ad:10:9f:ea:72:d5:62:98:e7:64:62:
                    23:f4:6f:c7:9b:13:06:56:c1:17:e9:1c:1b:87:59:
                    0c:60:a4:80:21:1c:53:44:b7:fb:0c:d9:26:e1:75:
                    95:d2:8c:c4:55:59:17:6f:7a:5b:8d:e2:31:3a:fa:
                    72:f8:80:19:82:9f:9c:8e:b8:ad:48:fa:ba:ad:39:
                    2e:a1:de:84:ba:87:3b:09:40:d7:4e:b4:ab:44:da:
                    59:80:83:4d:66:c6:d7:7c:6b:03:75:ba:ff:1a:0f:
                    95:b2:00:cd:70:9e:16:34:1f
                Exponent: 65537 (0x10001)
    Signature Algorithm: md5WithRSAEncryption
        cd:f8:65:ac:12:d1:62:00:11:6a:c1:71:ff:f6:74:38:cd:58:
        18:67:85:0c:5f:d4:bf:f9:b0:73:bd:8a:44:6a:f9:bd:86:33:
        81:0d:7f:13:88:24:4c:9e:5d:bd:34:a7:95:79:d2:5d:c0:f7:
        96:90:42:af:5e:8d:e4:05:7d:0d:a7:c1:35:b9:d1:f7:4c:ef:
        00:66:65:2f:f7:cf:26:27:93:8c:0c:42:b4:07:c1:b3:60:86:
        29:5b:04:e1:66:7a:26:dd:5f:9e:a2:a8:3d:b1:d3:09:0c:e4:
        55:07:7b:fb:1e:55:41:39:19:f4:78:31:d0:76:20:45:59:b9:
        e0:93
-----BEGIN CERTIFICATE-----
MIICvDCCAiUCCQCbJ9fo0boJ7TANBgkqhkiG9w0BAQQFADCBlTELMAkGA1UEBhMC
REUxETAPBgNVBAgTCFNhYXJsYW5kMRAwDgYDVQQKEwdNUEktU1dTMSIwIAYDVQQL
ExlEaXN0cmlidXRlZCBTeXN0ZW1zIEdyb3VwMRowGAYDVQQDExFBbmRyZWFzIEhh
ZWJlcmxlbjEhMB8GCSqGSIb3DQEJARYSZGVtb2NhQG9jdGFyaW5lLmRlMB4XDTE1
MDQyMDIwNDcyMFoXDTE2MDQxOTIwNDcyMFowga4xCzAJBgNVBAYTAkRFMREwDwYD
VQQIEwhTYWFybGFuZDEQMA4GA1UEChMHTVBJLVNXUzEiMCAGA1UECxMZRGlzdHJp
YnV0ZWQgU3lzdGVtcyBHcm91cDExMC8GA1UEAxMoZTJkYTRjYzhhZGUxZTZmZmUy
ZjM1M2ZkNGEyNTY4ZDVhYmZmN2M3MjEjMCEGCSqGSIb3DQEJARYUbm9kZTA1MzNA
b2N0YXJpbmUuZGUwgZ8wDQYJKoZIhvcNAQEBBQADgY0AMIGJAoGBALsCyLxsZg7r
jV0MTsUAsQuNra0Qn+py1WKY52RiI/Rvx5sTBlbBF+kcG4dZDGCkgCEcU0S3+wzZ
JuF1ldKMxFVZF296W43iMTr6cviAGYKfnI64rUj6uq05LqHehLqHOwlA1060q0Ta
WYCDTWbG13xrA3W6/xoPlbIAzXCeFjQfAgMBAAEwDQYJKoZIhvcNAQEEBQADgYEA
zfhlrBLRYgARasFx//Z0OM1YGGeFDF/Uv/mwc72KRGr5vYYzgQ1/E4gkTJ5dvTSn
lXnSXcD3lpBCr16N5AV9DafBNbnR90zvAGZlL/fPJieTjAxCtAfBs2CGKVsE4WZ6
Jt1fnqKoPbHTCQzkVQd7+x5VQTkZ9Hgx0HYgRVm54JM=
-----END CERTIFICATE-----
