Certificate:
    Data:
        Version: 1 (0x0)
        Serial Number:
            9b:27:d7:e8:d1:ba:0b:75
        Signature Algorithm: md5WithRSAEncryption
        Issuer: C=DE, ST=Saarland, O=MPI-SWS, OU=Distributed Systems Group, CN=Andreas Haeberlen/emailAddress=democa@octarine.de
        Validity
            Not Before: Apr 20 20:47:38 2015 GMT
            Not After : Apr 19 20:47:38 2016 GMT
        Subject: C=DE, ST=Saarland, O=MPI-SWS, OU=Distributed Systems Group, CN=efba62f95c6b14d657fb03410bd012cf27a8a92f/emailAddress=node0925@octarine.de
        Subject Public Key Info:
            Public Key Algorithm: rsaEncryption
            RSA Public Key: (1024 bit)
                Modulus (1024 bit):
                    00:b2:5d:d7:88:1d:12:cf:7d:f1:9e:3c:8d:c1:93:
                    55:b6:60:9f:31:eb:dc:00:67:59:c3:92:bc:f6:84:
                    1f:b9:6c:bc:ce:c8:76:9f:bd:ea:2a:79:76:4b:5a:
                    5f:5e:68:42:b9:21:a5:c8:76:04:52:9e:ef:78:a0:
                    cd:b3:aa:62:84:d8:71:4f:17:2e:8e:f1:03:88:ff:
                    d1:f3:af:92:f6:28:9d:b9:2f:d2:8d:19:94:a4:e8:
                    7c:51:87:20:7f:45:17:b0:d7:58:54:09:50:05:85:
                    00:43:ac:b4:34:1b:4c:36:0f:9e:0f:cf:a9:5f:b5:
                    42:2d:11:2c:2e:2e:a8:30:7b
                Exponent: 65537 (0x10001)
    Signature Algorithm: md5WithRSAEncryption
        78:96:65:5d:d6:17:d9:34:14:61:e9:94:98:f1:77:1b:17:51:
        f1:64:64:b0:fc:2d:b9:05:30:41:ef:bf:a0:63:c2:19:80:c0:
        28:03:19:3b:9f:b3:9e:31:02:9e:2e:28:41:16:66:58:32:6d:
        ab:19:15:ba:0d:86:c7:d9:43:6a:e3:6d:0e:17:09:c1:e7:47:
        00:df:03:53:0a:98:3d:ad:ec:1f:6e:d1:39:b1:d9:43:7f:ed:
        79:3e:d9:3d:33:f8:6b:63:00:0c:87:ef:e7:d0:92:77:17:82:
        a4:b4:cc:a6:62:24:48:7c:96:09:7d:8a:03:83:69:33:1a:d7:
        ea:a7
-----BEGIN CERTIFICATE-----
MIICvDCCAiUCCQCbJ9fo0boLdTANBgkqhkiG9w0BAQQFADCBlTELMAkGA1UEBhMC
REUxETAPBgNVBAgTCFNhYXJsYW5kMRAwDgYDVQQKEwdNUEktU1dTMSIwIAYDVQQL
ExlEaXN0cmlidXRlZCBTeXN0ZW1zIEdyb3VwMRowGAYDVQQDExFBbmRyZWFzIEhh
ZWJlcmxlbjEhMB8GCSqGSIb3DQEJARYSZGVtb2NhQG9jdGFyaW5lLmRlMB4XDTE1
MDQyMDIwNDczOFoXDTE2MDQxOTIwNDczOFowga4xCzAJBgNVBAYTAkRFMREwDwYD
VQQIEwhTYWFybGFuZDEQMA4GA1UEChMHTVBJLVNXUzEiMCAGA1UECxMZRGlzdHJp
YnV0ZWQgU3lzdGVtcyBHcm91cDExMC8GA1UEAxMoZWZiYTYyZjk1YzZiMTRkNjU3
ZmIwMzQxMGJkMDEyY2YyN2E4YTkyZjEjMCEGCSqGSIb3DQEJARYUbm9kZTA5MjVA
b2N0YXJpbmUuZGUwgZ8wDQYJKoZIhvcNAQEBBQADgY0AMIGJAoGBALJd14gdEs99
8Z48jcGTVbZgnzHr3ABnWcOSvPaEH7lsvM7Idp+96ip5dktaX15oQrkhpch2BFKe
73igzbOqYoTYcU8XLo7xA4j/0fOvkvYonbkv0o0ZlKTofFGHIH9FF7DXWFQJUAWF
AEOstDQbTDYPng/PqV+1Qi0RLC4uqDB7AgMBAAEwDQYJKoZIhvcNAQEEBQADgYEA
eJZlXdYX2TQUYemUmPF3GxdR8WRksPwtuQUwQe+/oGPCGYDAKAMZO5+znjECni4o
QRZmWDJtqxkVug2Gx9lDauNtDhcJwedHAN8DUwqYPa3sH27RObHZQ3/teT7ZPTP4
a2MADIfv59CSdxeCpLTMpmIkSHyWCX2KA4NpMxrX6qc=
-----END CERTIFICATE-----
