Certificate:
    Data:
        Version: 1 (0x0)
        Serial Number:
            9b:27:d7:e8:d1:ba:0b:59
        Signature Algorithm: md5WithRSAEncryption
        Issuer: C=DE, ST=Saarland, O=MPI-SWS, OU=Distributed Systems Group, CN=Andreas Haeberlen/emailAddress=democa@octarine.de
        Validity
            Not Before: Apr 20 20:47:37 2015 GMT
            Not After : Apr 19 20:47:37 2016 GMT
        Subject: C=DE, ST=Saarland, O=MPI-SWS, OU=Distributed Systems Group, CN=82ed56927c5321b3d6c2643e1fb6f8c8ab5f1f18/emailAddress=node0897@octarine.de
        Subject Public Key Info:
            Public Key Algorithm: rsaEncryption
            RSA Public Key: (1024 bit)
                Modulus (1024 bit):
                    00:d8:f7:a4:12:e2:53:0b:c2:2b:ed:12:4d:61:c5:
                    c7:7f:5b:5c:3d:98:72:ce:d7:aa:37:5d:29:85:b5:
                    8e:3a:db:5f:dd:78:36:d4:8d:32:f4:e1:de:10:2d:
                    f6:a6:1f:7a:59:f7:d8:5d:2d:7b:5e:93:aa:c4:3e:
                    56:51:f5:8a:14:56:9b:d9:2a:af:c5:6f:61:10:0b:
                    dc:8b:b4:2f:3b:1c:ab:79:c9:5a:ae:70:f9:b9:09:
                    63:51:bb:da:f5:00:83:ac:17:5e:6f:51:30:c1:f2:
                    5b:5f:00:d7:f8:c5:d9:ef:3c:d6:aa:04:ad:89:23:
                    f7:6c:dc:1e:3a:34:8c:c7:8b
                Exponent: 65537 (0x10001)
    Signature Algorithm: md5WithRSAEncryption
        89:3f:84:55:d3:a0:d9:ec:9c:02:57:56:9c:88:3d:5f:50:12:
        2e:aa:58:2e:c9:19:eb:fd:c8:6a:35:14:63:64:57:f6:55:23:
        a3:61:8d:bc:2f:42:4c:b4:d9:a9:70:5d:04:db:cf:0e:2f:f1:
        d0:0f:d7:bb:b6:46:da:a0:d2:8b:12:7a:cb:d8:03:a9:72:16:
        2d:d7:b0:4e:9a:d1:cb:fb:98:37:ec:4d:f7:5e:62:2b:e4:f7:
        6b:21:99:cb:2f:bd:39:82:40:5a:32:c8:62:9b:9f:b1:cd:ca:
        3c:68:3f:1c:f6:4d:7f:16:68:ea:16:7e:5c:f4:0f:e4:68:27:
        30:01
-----BEGIN CERTIFICATE-----
MIICvDCCAiUCCQCbJ9fo0boLWTANBgkqhkiG9w0BAQQFADCBlTELMAkGA1UEBhMC
REUxETAPBgNVBAgTCFNhYXJsYW5kMRAwDgYDVQQKEwdNUEktU1dTMSIwIAYDVQQL
ExlEaXN0cmlidXRlZCBTeXN0ZW1zIEdyb3VwMRowGAYDVQQDExFBbmRyZWFzIEhh
ZWJlcmxlbjEhMB8GCSqGSIb3DQEJARYSZGVtb2NhQG9jdGFyaW5lLmRlMB4XDTE1
MDQyMDIwNDczN1oXDTE2MDQxOTIwNDczN1owga4xCzAJBgNVBAYTAkRFMREwDwYD
VQQIEwhTYWFybGFuZDEQMA4GA1UEChMHTVBJLVNXUzEiMCAGA1UECxMZRGlzdHJp
YnV0ZWQgU3lzdGVtcyBHcm91cDExMC8GA1UEAxMoODJlZDU2OTI3YzUzMjFiM2Q2
YzI2NDNlMWZiNmY4YzhhYjVmMWYxODEjMCEGCSqGSIb3DQEJARYUbm9kZTA4OTdA
b2N0YXJpbmUuZGUwgZ8wDQYJKoZIhvcNAQEBBQADgY0AMIGJAoGBANj3pBLiUwvC
K+0STWHFx39bXD2Ycs7XqjddKYW1jjrbX914NtSNMvTh3hAt9qYfeln32F0te16T
qsQ+VlH1ihRWm9kqr8VvYRAL3Iu0Lzscq3nJWq5w+bkJY1G72vUAg6wXXm9RMMHy
W18A1/jF2e881qoErYkj92zcHjo0jMeLAgMBAAEwDQYJKoZIhvcNAQEEBQADgYEA
iT+EVdOg2eycAldWnIg9X1ASLqpYLskZ6/3IajUUY2RX9lUjo2GNvC9CTLTZqXBd
BNvPDi/x0A/Xu7ZG2qDSixJ6y9gDqXIWLdewTprRy/uYN+xN915iK+T3ayGZyy+9
OYJAWjLIYpufsc3KPGg/HPZNfxZo6hZ+XPQP5GgnMAE=
-----END CERTIFICATE-----
