Certificate:
    Data:
        Version: 1 (0x0)
        Serial Number:
            9b:27:d7:e8:d1:ba:0b:6a
        Signature Algorithm: md5WithRSAEncryption
        Issuer: C=DE, ST=Saarland, O=MPI-SWS, OU=Distributed Systems Group, CN=Andreas Haeberlen/emailAddress=democa@octarine.de
        Validity
            Not Before: Apr 20 20:47:37 2015 GMT
            Not After : Apr 19 20:47:37 2016 GMT
        Subject: C=DE, ST=Saarland, O=MPI-SWS, OU=Distributed Systems Group, CN=3a9dae0ee7c5b3401e68c319ecbaf1d3b6054033/emailAddress=node0914@octarine.de
        Subject Public Key Info:
            Public Key Algorithm: rsaEncryption
            RSA Public Key: (1024 bit)
                Modulus (1024 bit):
                    00:c0:4e:96:3e:35:b1:57:98:e8:6b:04:a9:d9:32:
                    d8:e8:3c:b9:ac:92:37:4e:8b:db:30:63:56:bc:1d:
                    f8:63:94:7d:31:10:e8:cb:70:bd:14:1a:cf:26:f9:
                    85:5c:9e:34:0d:bf:f9:6e:48:50:85:4e:2f:b5:28:
                    b7:e5:43:23:09:89:c7:6c:49:ab:6c:2e:dc:e6:c9:
                    d0:0b:1d:10:e2:a2:0d:9f:a2:79:21:69:c2:f9:d9:
                    24:a9:a3:45:c0:b8:4a:4a:7c:3c:24:bb:4f:0a:69:
                    9f:51:25:f6:98:f6:8f:02:e4:94:78:39:de:a4:06:
                    df:1b:3d:d4:2d:bd:4f:c6:53
                Exponent: 65537 (0x10001)
    Signature Algorithm: md5WithRSAEncryption
        98:77:5d:09:f9:b0:67:dc:03:f9:0f:37:66:4a:01:4f:6f:5f:
        c7:8a:4d:a1:fb:0d:79:8d:3a:8c:9a:b2:56:2e:4b:16:d3:e3:
        eb:dc:b0:4a:d0:71:89:ff:cb:aa:0d:7a:24:13:67:ef:08:f1:
        33:c1:97:18:26:1a:fb:d5:0f:97:64:41:33:71:37:af:ed:85:
        36:8d:f7:31:27:f3:67:93:21:6f:9c:61:67:dd:52:94:9c:bb:
        49:a6:db:4f:43:35:63:2f:13:b8:af:06:ed:07:da:20:0b:3b:
        0d:5f:61:2a:50:c4:8a:8a:dc:de:67:64:1d:83:2b:43:91:82:
        02:22
-----BEGIN CERTIFICATE-----
MIICvDCCAiUCCQCbJ9fo0boLajANBgkqhkiG9w0BAQQFADCBlTELMAkGA1UEBhMC
REUxETAPBgNVBAgTCFNhYXJsYW5kMRAwDgYDVQQKEwdNUEktU1dTMSIwIAYDVQQL
ExlEaXN0cmlidXRlZCBTeXN0ZW1zIEdyb3VwMRowGAYDVQQDExFBbmRyZWFzIEhh
ZWJlcmxlbjEhMB8GCSqGSIb3DQEJARYSZGVtb2NhQG9jdGFyaW5lLmRlMB4XDTE1
MDQyMDIwNDczN1oXDTE2MDQxOTIwNDczN1owga4xCzAJBgNVBAYTAkRFMREwDwYD
VQQIEwhTYWFybGFuZDEQMA4GA1UEChMHTVBJLVNXUzEiMCAGA1UECxMZRGlzdHJp
YnV0ZWQgU3lzdGVtcyBHcm91cDExMC8GA1UEAxMoM2E5ZGFlMGVlN2M1YjM0MDFl
NjhjMzE5ZWNiYWYxZDNiNjA1NDAzMzEjMCEGCSqGSIb3DQEJARYUbm9kZTA5MTRA
b2N0YXJpbmUuZGUwgZ8wDQYJKoZIhvcNAQEBBQADgY0AMIGJAoGBAMBOlj41sVeY
6GsEqdky2Og8uaySN06L2zBjVrwd+GOUfTEQ6MtwvRQazyb5hVyeNA2/+W5IUIVO
L7Uot+VDIwmJx2xJq2wu3ObJ0AsdEOKiDZ+ieSFpwvnZJKmjRcC4Skp8PCS7Twpp
n1El9pj2jwLklHg53qQG3xs91C29T8ZTAgMBAAEwDQYJKoZIhvcNAQEEBQADgYEA
mHddCfmwZ9wD+Q83ZkoBT29fx4pNofsNeY06jJqyVi5LFtPj69ywStBxif/Lqg16
JBNn7wjxM8GXGCYa+9UPl2RBM3E3r+2FNo33MSfzZ5Mhb5xhZ91SlJy7SabbT0M1
Yy8TuK8G7QfaIAs7DV9hKlDEiorc3mdkHYMrQ5GCAiI=
-----END CERTIFICATE-----
