Certificate:
    Data:
        Version: 1 (0x0)
        Serial Number:
            9b:27:d7:e8:d1:ba:0a:5d
        Signature Algorithm: md5WithRSAEncryption
        Issuer: C=DE, ST=Saarland, O=MPI-SWS, OU=Distributed Systems Group, CN=Andreas Haeberlen/emailAddress=democa@octarine.de
        Validity
            Not Before: Apr 20 20:47:25 2015 GMT
            Not After : Apr 19 20:47:25 2016 GMT
        Subject: C=DE, ST=Saarland, O=MPI-SWS, OU=Distributed Systems Group, CN=8bd110860cf5c3a1aae5cabed0a37e3fa10b1922/emailAddress=node0645@octarine.de
        Subject Public Key Info:
            Public Key Algorithm: rsaEncryption
            RSA Public Key: (1024 bit)
                Modulus (1024 bit):
                    00:d0:8a:55:62:57:25:79:d3:8a:04:72:81:8e:93:
                    e9:83:14:82:4c:38:3c:4a:42:00:2e:15:49:aa:31:
                    ed:e0:90:17:60:30:56:93:d7:66:6b:ea:c3:4b:d4:
                    87:6c:c3:d7:2a:07:69:20:76:34:da:fb:84:99:a5:
                    f4:7c:44:bc:fd:24:c2:77:2b:49:06:dd:f5:3f:90:
                    69:7f:88:5a:df:24:9e:84:1b:99:36:a8:b7:d5:ba:
                    19:c6:76:24:f2:28:58:b0:88:cf:c1:c5:5e:19:70:
                    42:f8:fe:a3:df:e4:5d:d6:12:cc:59:41:3c:9c:76:
                    e4:09:6a:23:6f:df:5c:0b:27
                Exponent: 65537 (0x10001)
    Signature Algorithm: md5WithRSAEncryption
        2f:4f:89:84:c1:88:42:e1:3d:08:15:c5:5e:dd:8b:16:65:c1:
        6d:cb:b1:0a:b3:7f:9d:f5:69:64:5b:80:25:1b:9b:62:34:00:
        4c:b5:ea:de:22:97:19:4a:4e:3e:56:13:d8:48:fb:cc:68:29:
        35:a6:cb:b9:23:1d:18:a5:66:43:bd:73:1b:48:e7:f9:28:2a:
        66:7e:d7:b6:99:aa:8a:1e:15:c0:dc:90:53:76:7f:d3:fe:84:
        1c:01:2e:89:ac:63:bd:f2:72:7c:7c:e5:14:01:70:e8:49:4d:
        72:e3:f7:b9:da:7d:3b:0f:c6:75:64:a7:fc:82:37:e3:59:98:
        2e:48
-----BEGIN CERTIFICATE-----
MIICvDCCAiUCCQCbJ9fo0boKXTANBgkqhkiG9w0BAQQFADCBlTELMAkGA1UEBhMC
REUxETAPBgNVBAgTCFNhYXJsYW5kMRAwDgYDVQQKEwdNUEktU1dTMSIwIAYDVQQL
ExlEaXN0cmlidXRlZCBTeXN0ZW1zIEdyb3VwMRowGAYDVQQDExFBbmRyZWFzIEhh
ZWJlcmxlbjEhMB8GCSqGSIb3DQEJARYSZGVtb2NhQG9jdGFyaW5lLmRlMB4XDTE1
MDQyMDIwNDcyNVoXDTE2MDQxOTIwNDcyNVowga4xCzAJBgNVBAYTAkRFMREwDwYD
VQQIEwhTYWFybGFuZDEQMA4GA1UEChMHTVBJLVNXUzEiMCAGA1UECxMZRGlzdHJp
YnV0ZWQgU3lzdGVtcyBHcm91cDExMC8GA1UEAxMoOGJkMTEwODYwY2Y1YzNhMWFh
ZTVjYWJlZDBhMzdlM2ZhMTBiMTkyMjEjMCEGCSqGSIb3DQEJARYUbm9kZTA2NDVA
b2N0YXJpbmUuZGUwgZ8wDQYJKoZIhvcNAQEBBQADgY0AMIGJAoGBANCKVWJXJXnT
igRygY6T6YMUgkw4PEpCAC4VSaox7eCQF2AwVpPXZmvqw0vUh2zD1yoHaSB2NNr7
hJml9HxEvP0kwncrSQbd9T+QaX+IWt8knoQbmTaot9W6GcZ2JPIoWLCIz8HFXhlw
Qvj+o9/kXdYSzFlBPJx25AlqI2/fXAsnAgMBAAEwDQYJKoZIhvcNAQEEBQADgYEA
L0+JhMGIQuE9CBXFXt2LFmXBbcuxCrN/nfVpZFuAJRubYjQATLXq3iKXGUpOPlYT
2Ej7zGgpNabLuSMdGKVmQ71zG0jn+SgqZn7Xtpmqih4VwNyQU3Z/0/6EHAEuiaxj
vfJyfHzlFAFw6ElNcuP3udp9Ow/GdWSn/II341mYLkg=
-----END CERTIFICATE-----
