Certificate:
    Data:
        Version: 1 (0x0)
        Serial Number:
            9b:27:d7:e8:d1:ba:09:62
        Signature Algorithm: md5WithRSAEncryption
        Issuer: C=DE, ST=Saarland, O=MPI-SWS, OU=Distributed Systems Group, CN=Andreas Haeberlen/emailAddress=democa@octarine.de
        Validity
            Not Before: Apr 20 20:47:14 2015 GMT
            Not After : Apr 19 20:47:14 2016 GMT
        Subject: C=DE, ST=Saarland, O=MPI-SWS, OU=Distributed Systems Group, CN=d3939c8ce8fe3f5d8bb79fce328961d4467d30a1/emailAddress=node0394@octarine.de
        Subject Public Key Info:
            Public Key Algorithm: rsaEncryption
            RSA Public Key: (1024 bit)
                Modulus (1024 bit):
                    00:e2:65:0b:a5:fc:7e:04:bd:6a:96:2d:35:3a:ce:
                    c3:7e:97:10:58:5c:13:1b:3e:70:4d:8d:7c:52:d7:
                    88:11:36:fb:09:8a:fd:d3:bc:0e:0c:10:d0:53:da:
                    5d:40:51:e1:2b:00:1c:24:7a:c6:b4:dd:d9:00:92:
                    76:a6:93:cf:b2:aa:83:24:70:83:3e:03:be:dd:05:
                    7f:13:7b:51:09:49:f8:26:a6:14:b3:c3:f0:41:ac:
                    a1:15:9b:06:56:0f:0e:5f:53:f2:f5:33:bc:e4:94:
                    ce:82:c6:62:8a:50:5a:11:24:23:34:ce:89:fc:dc:
                    32:1e:ad:6c:c8:0e:65:57:61
                Exponent: 65537 (0x10001)
    Signature Algorithm: md5WithRSAEncryption
        06:50:0b:02:5f:9a:c4:a9:35:9e:b3:75:67:44:88:48:d7:75:
        d9:79:87:51:23:3e:5c:7e:9f:49:9c:04:dd:ae:32:c1:3e:98:
        e8:ed:2f:92:5f:c0:90:dd:3c:ed:78:17:0b:68:91:00:da:b7:
        87:b4:c9:b7:64:dc:27:57:8a:5f:11:35:6b:8b:c6:26:cc:82:
        03:c7:d2:12:89:3f:79:35:c7:0d:eb:3e:ab:b8:ea:53:2f:b4:
        a7:55:79:d7:bc:dd:66:9a:1d:39:de:09:82:8d:b5:68:47:10:
        01:59:76:03:e4:cc:8c:bb:b5:1b:a8:5a:c9:94:86:c1:cd:90:
        72:f0
-----BEGIN CERTIFICATE-----
MIICvDCCAiUCCQCbJ9fo0boJYjANBgkqhkiG9w0BAQQFADCBlTELMAkGA1UEBhMC
REUxETAPBgNVBAgTCFNhYXJsYW5kMRAwDgYDVQQKEwdNUEktU1dTMSIwIAYDVQQL
ExlEaXN0cmlidXRlZCBTeXN0ZW1zIEdyb3VwMRowGAYDVQQDExFBbmRyZWFzIEhh
ZWJlcmxlbjEhMB8GCSqGSIb3DQEJARYSZGVtb2NhQG9jdGFyaW5lLmRlMB4XDTE1
MDQyMDIwNDcxNFoXDTE2MDQxOTIwNDcxNFowga4xCzAJBgNVBAYTAkRFMREwDwYD
VQQIEwhTYWFybGFuZDEQMA4GA1UEChMHTVBJLVNXUzEiMCAGA1UECxMZRGlzdHJp
YnV0ZWQgU3lzdGVtcyBHcm91cDExMC8GA1UEAxMoZDM5MzljOGNlOGZlM2Y1ZDhi
Yjc5ZmNlMzI4OTYxZDQ0NjdkMzBhMTEjMCEGCSqGSIb3DQEJARYUbm9kZTAzOTRA
b2N0YXJpbmUuZGUwgZ8wDQYJKoZIhvcNAQEBBQADgY0AMIGJAoGBAOJlC6X8fgS9
apYtNTrOw36XEFhcExs+cE2NfFLXiBE2+wmK/dO8DgwQ0FPaXUBR4SsAHCR6xrTd
2QCSdqaTz7KqgyRwgz4Dvt0FfxN7UQlJ+CamFLPD8EGsoRWbBlYPDl9T8vUzvOSU
zoLGYopQWhEkIzTOifzcMh6tbMgOZVdhAgMBAAEwDQYJKoZIhvcNAQEEBQADgYEA
BlALAl+axKk1nrN1Z0SISNd12XmHUSM+XH6fSZwE3a4ywT6Y6O0vkl/AkN087XgX
C2iRANq3h7TJt2TcJ1eKXxE1a4vGJsyCA8fSEok/eTXHDes+q7jqUy+0p1V517zd
ZpodOd4Jgo21aEcQAVl2A+TMjLu1G6hayZSGwc2QcvA=
-----END CERTIFICATE-----
