Certificate:
    Data:
        Version: 1 (0x0)
        Serial Number:
            9b:27:d7:e8:d1:ba:08:65
        Signature Algorithm: md5WithRSAEncryption
        Issuer: C=DE, ST=Saarland, O=MPI-SWS, OU=Distributed Systems Group, CN=Andreas Haeberlen/emailAddress=democa@octarine.de
        Validity
            Not Before: Apr 20 20:47:03 2015 GMT
            Not After : Apr 19 20:47:03 2016 GMT
        Subject: C=DE, ST=Saarland, O=MPI-SWS, OU=Distributed Systems Group, CN=14732b832cdc215d10199b901a628b59fdd2866a/emailAddress=node0141@octarine.de
        Subject Public Key Info:
            Public Key Algorithm: rsaEncryption
            RSA Public Key: (1024 bit)
                Modulus (1024 bit):
                    00:ae:ca:b7:61:58:da:db:d3:d9:9e:a0:94:db:53:
                    09:d5:8e:21:b6:a3:f6:68:a6:67:a6:24:84:fe:5e:
                    3e:e5:a2:57:3b:8a:29:01:bd:2b:f4:cd:74:e4:85:
                    c0:15:c2:1f:5a:42:49:40:90:75:17:05:ce:96:45:
                    a4:1d:a4:d7:b7:ff:14:93:bf:90:6d:dc:cc:7e:a2:
                    6c:2e:bd:3b:83:e8:fd:c9:0d:68:34:4f:d1:16:14:
                    bf:d1:7d:02:17:f2:37:27:d0:13:87:c5:a6:f4:11:
                    51:8c:cd:34:6e:f6:a1:93:cf:71:e3:09:9c:f4:07:
                    f0:ad:a8:0c:82:21:3c:7f:df
                Exponent: 65537 (0x10001)
    Signature Algorithm: md5WithRSAEncryption
        15:3a:ed:cf:b2:fc:33:2b:52:6f:f1:29:e2:ec:4b:43:65:bb:
        02:7c:93:96:09:30:bc:fa:c2:c9:40:d6:b2:c3:b5:7a:cb:4d:
        e1:a0:8f:48:da:da:8a:d7:65:be:40:fb:58:34:ce:fa:54:0b:
        ff:a2:b6:da:96:da:5f:e7:41:55:54:e5:58:df:f3:e0:a4:f5:
        7f:0a:8c:af:6d:7f:e3:90:53:56:2c:ec:1e:2d:da:bf:02:4e:
        2c:72:e5:94:3d:98:d9:3a:cf:1f:65:30:3f:33:e2:94:d0:bb:
        9c:b1:8f:c4:cd:ac:3d:b2:ce:40:c4:93:b5:e7:18:ed:7a:51:
        db:89
-----BEGIN CERTIFICATE-----
MIICvDCCAiUCCQCbJ9fo0boIZTANBgkqhkiG9w0BAQQFADCBlTELMAkGA1UEBhMC
REUxETAPBgNVBAgTCFNhYXJsYW5kMRAwDgYDVQQKEwdNUEktU1dTMSIwIAYDVQQL
ExlEaXN0cmlidXRlZCBTeXN0ZW1zIEdyb3VwMRowGAYDVQQDExFBbmRyZWFzIEhh
ZWJlcmxlbjEhMB8GCSqGSIb3DQEJARYSZGVtb2NhQG9jdGFyaW5lLmRlMB4XDTE1
MDQyMDIwNDcwM1oXDTE2MDQxOTIwNDcwM1owga4xCzAJBgNVBAYTAkRFMREwDwYD
VQQIEwhTYWFybGFuZDEQMA4GA1UEChMHTVBJLVNXUzEiMCAGA1UECxMZRGlzdHJp
YnV0ZWQgU3lzdGVtcyBHcm91cDExMC8GA1UEAxMoMTQ3MzJiODMyY2RjMjE1ZDEw
MTk5YjkwMWE2MjhiNTlmZGQyODY2YTEjMCEGCSqGSIb3DQEJARYUbm9kZTAxNDFA
b2N0YXJpbmUuZGUwgZ8wDQYJKoZIhvcNAQEBBQADgY0AMIGJAoGBAK7Kt2FY2tvT
2Z6glNtTCdWOIbaj9mimZ6YkhP5ePuWiVzuKKQG9K/TNdOSFwBXCH1pCSUCQdRcF
zpZFpB2k17f/FJO/kG3czH6ibC69O4Po/ckNaDRP0RYUv9F9AhfyNyfQE4fFpvQR
UYzNNG72oZPPceMJnPQH8K2oDIIhPH/fAgMBAAEwDQYJKoZIhvcNAQEEBQADgYEA
FTrtz7L8MytSb/Ep4uxLQ2W7AnyTlgkwvPrCyUDWssO1estN4aCPSNraitdlvkD7
WDTO+lQL/6K22pbaX+dBVVTlWN/z4KT1fwqMr21/45BTVizsHi3avwJOLHLllD2Y
2TrPH2UwPzPilNC7nLGPxM2sPbLOQMSTtecY7XpR24k=
-----END CERTIFICATE-----
