Certificate:
    Data:
        Version: 1 (0x0)
        Serial Number:
            9b:27:d7:e8:d1:ba:0b:bb
        Signature Algorithm: md5WithRSAEncryption
        Issuer: C=DE, ST=Saarland, O=MPI-SWS, OU=Distributed Systems Group, CN=Andreas Haeberlen/emailAddress=democa@octarine.de
        Validity
            Not Before: Apr 20 20:47:41 2015 GMT
            Not After : Apr 19 20:47:41 2016 GMT
        Subject: C=DE, ST=Saarland, O=MPI-SWS, OU=Distributed Systems Group, CN=e96429dc9f95a157f1374b1da6938f778ebb7971/emailAddress=node0995@octarine.de
        Subject Public Key Info:
            Public Key Algorithm: rsaEncryption
            RSA Public Key: (1024 bit)
                Modulus (1024 bit):
                    00:c6:52:7b:d8:46:bf:d4:6e:2b:e9:86:75:e6:cc:
                    82:be:67:6e:57:0d:1c:74:cf:df:94:47:c5:98:f6:
                    22:3d:aa:60:40:35:88:6e:41:a7:0e:9c:2f:40:37:
                    33:6d:d2:23:d9:7f:ef:70:97:e9:90:0e:21:0d:51:
                    64:da:b7:40:e2:31:34:c3:27:5b:92:bb:c8:c8:0f:
                    a0:f4:ee:63:d0:17:fc:8e:d3:09:ac:92:99:06:d5:
                    1e:50:65:06:33:49:bd:4a:ae:ad:a7:a9:b5:4f:19:
                    a9:93:b0:50:51:34:b4:8b:d1:0b:40:dc:ed:7e:08:
                    78:ac:ed:31:7e:9e:bf:67:67
                Exponent: 65537 (0x10001)
    Signature Algorithm: md5WithRSAEncryption
        5b:c0:bd:e2:a0:f0:63:85:11:de:ae:45:1e:67:7e:86:4f:19:
        6c:a2:a6:ee:90:e8:c2:c2:79:c6:94:3c:03:72:5f:bd:49:6b:
        ca:e4:26:23:46:e2:66:4d:2b:62:d2:d7:e6:59:8a:2a:f9:82:
        a4:d4:8d:53:cd:56:41:d7:ba:b8:0d:1e:bd:24:11:11:05:2e:
        47:7f:1e:e6:15:5c:82:0c:3c:dc:c9:71:5c:a0:65:e7:dd:e9:
        be:fb:63:fc:fe:b7:29:ec:e6:95:93:32:9b:af:72:ac:16:59:
        d6:65:2c:30:ec:71:38:2c:ea:b8:28:d8:b7:b3:af:e7:c1:58:
        83:0b
-----BEGIN CERTIFICATE-----
MIICvDCCAiUCCQCbJ9fo0boLuzANBgkqhkiG9w0BAQQFADCBlTELMAkGA1UEBhMC
REUxETAPBgNVBAgTCFNhYXJsYW5kMRAwDgYDVQQKEwdNUEktU1dTMSIwIAYDVQQL
ExlEaXN0cmlidXRlZCBTeXN0ZW1zIEdyb3VwMRowGAYDVQQDExFBbmRyZWFzIEhh
ZWJlcmxlbjEhMB8GCSqGSIb3DQEJARYSZGVtb2NhQG9jdGFyaW5lLmRlMB4XDTE1
MDQyMDIwNDc0MVoXDTE2MDQxOTIwNDc0MVowga4xCzAJBgNVBAYTAkRFMREwDwYD
VQQIEwhTYWFybGFuZDEQMA4GA1UEChMHTVBJLVNXUzEiMCAGA1UECxMZRGlzdHJp
YnV0ZWQgU3lzdGVtcyBHcm91cDExMC8GA1UEAxMoZTk2NDI5ZGM5Zjk1YTE1N2Yx
Mzc0YjFkYTY5MzhmNzc4ZWJiNzk3MTEjMCEGCSqGSIb3DQEJARYUbm9kZTA5OTVA
b2N0YXJpbmUuZGUwgZ8wDQYJKoZIhvcNAQEBBQADgY0AMIGJAoGBAMZSe9hGv9Ru
K+mGdebMgr5nblcNHHTP35RHxZj2Ij2qYEA1iG5Bpw6cL0A3M23SI9l/73CX6ZAO
IQ1RZNq3QOIxNMMnW5K7yMgPoPTuY9AX/I7TCaySmQbVHlBlBjNJvUquraeptU8Z
qZOwUFE0tIvRC0Dc7X4IeKztMX6ev2dnAgMBAAEwDQYJKoZIhvcNAQEEBQADgYEA
W8C94qDwY4UR3q5FHmd+hk8ZbKKm7pDowsJ5xpQ8A3JfvUlryuQmI0biZk0rYtLX
5lmKKvmCpNSNU81WQde6uA0evSQREQUuR38e5hVcggw83MlxXKBl593pvvtj/P63
KezmlZMym69yrBZZ1mUsMOxxOCzquCjYt7Ov58FYgws=
-----END CERTIFICATE-----
