Certificate:
    Data:
        Version: 1 (0x0)
        Serial Number:
            9b:27:d7:e8:d1:ba:09:37
        Signature Algorithm: md5WithRSAEncryption
        Issuer: C=DE, ST=Saarland, O=MPI-SWS, OU=Distributed Systems Group, CN=Andreas Haeberlen/emailAddress=democa@octarine.de
        Validity
            Not Before: Apr 20 20:47:12 2015 GMT
            Not After : Apr 19 20:47:12 2016 GMT
        Subject: C=DE, ST=Saarland, O=MPI-SWS, OU=Distributed Systems Group, CN=5469d0346bf913dc60391af64a411867dd0ae4f4/emailAddress=node0351@octarine.de
        Subject Public Key Info:
            Public Key Algorithm: rsaEncryption
            RSA Public Key: (1024 bit)
                Modulus (1024 bit):
                    00:9e:58:d7:b7:c7:8e:83:7c:49:d0:e3:ce:77:83:
                    c8:0f:b5:4b:a9:33:a5:eb:5d:61:ef:b3:62:1d:91:
                    81:b5:25:7b:4b:65:88:9f:c1:c5:6d:f1:10:a1:8a:
                    42:c5:db:d1:df:b5:43:3e:a4:37:cb:7f:c0:70:b1:
                    7a:31:fa:33:8c:fe:98:b7:61:28:42:7b:7b:9e:63:
                    5e:75:2c:26:47:62:53:86:11:54:72:cb:10:a0:80:
                    65:c3:66:22:fc:d3:cf:59:b8:c2:cc:16:32:a3:ab:
                    b6:a6:bb:b2:ed:78:db:8e:60:4e:42:b2:c4:6f:b6:
                    84:30:cb:4a:14:78:7a:ae:ab
                Exponent: 65537 (0x10001)
    Signature Algorithm: md5WithRSAEncryption
        6e:e8:37:06:c3:19:11:56:b4:ad:b2:b9:f9:ee:67:a1:a3:78:
        33:f5:94:5a:49:4b:df:c7:08:22:4f:a6:72:ab:39:83:0f:8f:
        ff:2f:2d:ca:a5:62:36:aa:41:85:2c:4d:d7:fa:af:42:ce:5b:
        11:22:e3:75:93:83:86:5f:a2:e6:cc:6a:19:0c:4e:fa:65:5e:
        05:2a:ff:f9:56:aa:84:1f:61:5f:aa:af:54:2f:0d:5e:48:85:
        ce:72:b2:4c:ec:f0:cf:f7:a6:04:47:16:68:d4:dc:82:92:4c:
        ff:c6:24:4d:b9:89:d0:de:74:8a:2e:c3:d0:2f:c4:fc:a9:43:
        1d:35
-----BEGIN CERTIFICATE-----
MIICvDCCAiUCCQCbJ9fo0boJNzANBgkqhkiG9w0BAQQFADCBlTELMAkGA1UEBhMC
REUxETAPBgNVBAgTCFNhYXJsYW5kMRAwDgYDVQQKEwdNUEktU1dTMSIwIAYDVQQL
ExlEaXN0cmlidXRlZCBTeXN0ZW1zIEdyb3VwMRowGAYDVQQDExFBbmRyZWFzIEhh
ZWJlcmxlbjEhMB8GCSqGSIb3DQEJARYSZGVtb2NhQG9jdGFyaW5lLmRlMB4XDTE1
MDQyMDIwNDcxMloXDTE2MDQxOTIwNDcxMlowga4xCzAJBgNVBAYTAkRFMREwDwYD
VQQIEwhTYWFybGFuZDEQMA4GA1UEChMHTVBJLVNXUzEiMCAGA1UECxMZRGlzdHJp
YnV0ZWQgU3lzdGVtcyBHcm91cDExMC8GA1UEAxMoNTQ2OWQwMzQ2YmY5MTNkYzYw
MzkxYWY2NGE0MTE4NjdkZDBhZTRmNDEjMCEGCSqGSIb3DQEJARYUbm9kZTAzNTFA
b2N0YXJpbmUuZGUwgZ8wDQYJKoZIhvcNAQEBBQADgY0AMIGJAoGBAJ5Y17fHjoN8
SdDjzneDyA+1S6kzpetdYe+zYh2RgbUle0tliJ/BxW3xEKGKQsXb0d+1Qz6kN8t/
wHCxejH6M4z+mLdhKEJ7e55jXnUsJkdiU4YRVHLLEKCAZcNmIvzTz1m4wswWMqOr
tqa7su14245gTkKyxG+2hDDLShR4eq6rAgMBAAEwDQYJKoZIhvcNAQEEBQADgYEA
bug3BsMZEVa0rbK5+e5noaN4M/WUWklL38cIIk+mcqs5gw+P/y8tyqViNqpBhSxN
1/qvQs5bESLjdZODhl+i5sxqGQxO+mVeBSr/+VaqhB9hX6qvVC8NXkiFznKyTOzw
z/emBEcWaNTcgpJM/8YkTbmJ0N50ii7D0C/E/KlDHTU=
-----END CERTIFICATE-----
