Certificate:
    Data:
        Version: 1 (0x0)
        Serial Number:
            9b:27:d7:e8:d1:ba:0b:1d
        Signature Algorithm: md5WithRSAEncryption
        Issuer: C=DE, ST=Saarland, O=MPI-SWS, OU=Distributed Systems Group, CN=Andreas Haeberlen/emailAddress=democa@octarine.de
        Validity
            Not Before: Apr 20 20:47:34 2015 GMT
            Not After : Apr 19 20:47:34 2016 GMT
        Subject: C=DE, ST=Saarland, O=MPI-SWS, OU=Distributed Systems Group, CN=ddf7827968c2b334c7fa4aa4c421a1c8fbf7d704/emailAddress=node0837@octarine.de
        Subject Public Key Info:
            Public Key Algorithm: rsaEncryption
            RSA Public Key: (1024 bit)
                Modulus (1024 bit):
                    00:c5:9a:31:0c:ea:3e:cd:09:85:90:59:d1:25:79:
                    99:7f:51:87:6e:3b:5c:85:02:00:05:f1:57:28:55:
                    9e:42:2d:28:4e:d3:9f:61:26:43:92:1c:c0:d6:ab:
                    68:b1:c2:1f:2d:23:27:34:51:56:16:46:ad:5b:1f:
                    b9:db:89:66:83:9c:2b:25:48:98:10:f9:30:8f:63:
                    6f:be:15:2c:88:ed:43:ed:f6:be:b9:5c:9f:6a:76:
                    55:de:f8:67:a7:86:bb:31:f4:8e:05:bc:2d:81:d6:
                    75:8d:e4:79:96:45:06:68:17:76:90:57:fa:c4:28:
                    87:48:a5:98:f3:6a:72:37:b1
                Exponent: 65537 (0x10001)
    Signature Algorithm: md5WithRSAEncryption
        25:31:46:1c:90:80:9b:93:77:5b:23:d1:e6:09:89:b6:cd:6f:
        b4:6f:51:5d:12:c2:57:20:d3:60:5f:4e:1a:3e:1b:34:9f:67:
        51:ce:8f:64:4a:39:c2:45:4b:23:ab:f5:dc:74:34:8c:d3:5c:
        8b:9e:6e:b5:12:70:aa:44:51:41:9e:d4:4b:61:1c:1c:b1:f7:
        0d:61:e0:37:d7:dd:d0:86:e7:00:54:b5:9e:50:7d:a6:87:c2:
        4e:a7:72:bd:3c:39:2a:95:59:49:30:53:15:3d:7d:45:22:66:
        74:db:31:45:ad:b7:80:c4:e3:72:38:43:14:29:1a:34:e1:c9:
        b3:c6
-----BEGIN CERTIFICATE-----
MIICvDCCAiUCCQCbJ9fo0boLHTANBgkqhkiG9w0BAQQFADCBlTELMAkGA1UEBhMC
REUxETAPBgNVBAgTCFNhYXJsYW5kMRAwDgYDVQQKEwdNUEktU1dTMSIwIAYDVQQL
ExlEaXN0cmlidXRlZCBTeXN0ZW1zIEdyb3VwMRowGAYDVQQDExFBbmRyZWFzIEhh
ZWJlcmxlbjEhMB8GCSqGSIb3DQEJARYSZGVtb2NhQG9jdGFyaW5lLmRlMB4XDTE1
MDQyMDIwNDczNFoXDTE2MDQxOTIwNDczNFowga4xCzAJBgNVBAYTAkRFMREwDwYD
VQQIEwhTYWFybGFuZDEQMA4GA1UEChMHTVBJLVNXUzEiMCAGA1UECxMZRGlzdHJp
YnV0ZWQgU3lzdGVtcyBHcm91cDExMC8GA1UEAxMoZGRmNzgyNzk2OGMyYjMzNGM3
ZmE0YWE0YzQyMWExYzhmYmY3ZDcwNDEjMCEGCSqGSIb3DQEJARYUbm9kZTA4MzdA
b2N0YXJpbmUuZGUwgZ8wDQYJKoZIhvcNAQEBBQADgY0AMIGJAoGBAMWaMQzqPs0J
hZBZ0SV5mX9Rh247XIUCAAXxVyhVnkItKE7Tn2EmQ5IcwNaraLHCHy0jJzRRVhZG
rVsfuduJZoOcKyVImBD5MI9jb74VLIjtQ+32vrlcn2p2Vd74Z6eGuzH0jgW8LYHW
dY3keZZFBmgXdpBX+sQoh0ilmPNqcjexAgMBAAEwDQYJKoZIhvcNAQEEBQADgYEA
JTFGHJCAm5N3WyPR5gmJts1vtG9RXRLCVyDTYF9OGj4bNJ9nUc6PZEo5wkVLI6v1
3HQ0jNNci55utRJwqkRRQZ7US2EcHLH3DWHgN9fd0IbnAFS1nlB9pofCTqdyvTw5
KpVZSTBTFT19RSJmdNsxRa23gMTjcjhDFCkaNOHJs8Y=
-----END CERTIFICATE-----
