Certificate:
    Data:
        Version: 1 (0x0)
        Serial Number:
            9b:27:d7:e8:d1:ba:09:e4
        Signature Algorithm: md5WithRSAEncryption
        Issuer: C=DE, ST=Saarland, O=MPI-SWS, OU=Distributed Systems Group, CN=Andreas Haeberlen/emailAddress=democa@octarine.de
        Validity
            Not Before: Apr 20 20:47:20 2015 GMT
            Not After : Apr 19 20:47:20 2016 GMT
        Subject: C=DE, ST=Saarland, O=MPI-SWS, OU=Distributed Systems Group, CN=d1f419383f9cd9fa612c565dc4c5cb79c7de1064/emailAddress=node0524@octarine.de
        Subject Public Key Info:
            Public Key Algorithm: rsaEncryption
            RSA Public Key: (1024 bit)
                Modulus (1024 bit):
                    00:db:2d:39:66:23:2f:4d:ed:7e:8b:14:2f:c6:30:
                    24:dc:da:b9:15:52:b5:f3:56:d0:ef:b1:68:77:6b:
                    70:3b:67:a9:ab:cd:a7:dd:a6:3e:0e:34:a5:d8:42:
                    ae:3d:4b:e5:c7:53:5e:f4:0e:0c:b3:24:33:eb:e3:
                    d1:fe:5d:47:00:9c:8b:42:4c:87:73:73:a5:4c:4c:
                    c5:f0:51:3b:3e:31:80:9c:09:22:d6:70:9c:47:29:
                    25:ba:41:17:84:61:fa:e2:a7:30:65:12:4d:e5:48:
                    3e:54:3b:13:cd:bd:2d:9d:40:9c:9c:86:ca:a9:f6:
                    d4:ff:d7:56:63:b9:7a:77:61
                Exponent: 65537 (0x10001)
    Signature Algorithm: md5WithRSAEncryption
        4d:6c:89:14:c2:e5:96:3e:fe:02:56:b6:e3:5b:b7:02:ce:c5:
        e3:cb:29:e2:0f:30:68:49:93:07:0c:c9:33:f0:6c:b4:1f:42:
        59:dc:f9:ee:34:f9:20:cc:66:0e:9c:47:77:5d:2a:84:3c:d0:
        6a:75:df:94:8e:37:52:71:64:77:e1:14:b9:43:de:a0:28:54:
        b5:40:f6:54:85:d4:76:df:db:1f:ef:c4:08:ce:c4:7e:a7:14:
        8c:db:14:c4:5e:fc:fe:68:99:21:b2:ad:f7:70:7b:b1:6a:e7:
        4e:7c:e4:70:13:70:c7:fd:0b:ca:20:08:47:13:de:c4:20:39:
        ab:5c
-----BEGIN CERTIFICATE-----
MIICvDCCAiUCCQCbJ9fo0boJ5DANBgkqhkiG9w0BAQQFADCBlTELMAkGA1UEBhMC
REUxETAPBgNVBAgTCFNhYXJsYW5kMRAwDgYDVQQKEwdNUEktU1dTMSIwIAYDVQQL
ExlEaXN0cmlidXRlZCBTeXN0ZW1zIEdyb3VwMRowGAYDVQQDExFBbmRyZWFzIEhh
ZWJlcmxlbjEhMB8GCSqGSIb3DQEJARYSZGVtb2NhQG9jdGFyaW5lLmRlMB4XDTE1
MDQyMDIwNDcyMFoXDTE2MDQxOTIwNDcyMFowga4xCzAJBgNVBAYTAkRFMREwDwYD
VQQIEwhTYWFybGFuZDEQMA4GA1UEChMHTVBJLVNXUzEiMCAGA1UECxMZRGlzdHJp
YnV0ZWQgU3lzdGVtcyBHcm91cDExMC8GA1UEAxMoZDFmNDE5MzgzZjljZDlmYTYx
MmM1NjVkYzRjNWNiNzljN2RlMTA2NDEjMCEGCSqGSIb3DQEJARYUbm9kZTA1MjRA
b2N0YXJpbmUuZGUwgZ8wDQYJKoZIhvcNAQEBBQADgY0AMIGJAoGBANstOWYjL03t
fosUL8YwJNzauRVStfNW0O+xaHdrcDtnqavNp92mPg40pdhCrj1L5cdTXvQODLMk
M+vj0f5dRwCci0JMh3NzpUxMxfBROz4xgJwJItZwnEcpJbpBF4Rh+uKnMGUSTeVI
PlQ7E829LZ1AnJyGyqn21P/XVmO5endhAgMBAAEwDQYJKoZIhvcNAQEEBQADgYEA
TWyJFMLllj7+Ala241u3As7F48sp4g8waEmTBwzJM/BstB9CWdz57jT5IMxmDpxH
d10qhDzQanXflI43UnFkd+EUuUPeoChUtUD2VIXUdt/bH+/ECM7EfqcUjNsUxF78
/miZIbKt93B7sWrnTnzkcBNwx/0LyiAIRxPexCA5q1w=
-----END CERTIFICATE-----
