Certificate:
    Data:
        Version: 1 (0x0)
        Serial Number:
            9b:27:d7:e8:d1:ba:07:f3
        Signature Algorithm: md5WithRSAEncryption
        Issuer: C=DE, ST=Saarland, O=MPI-SWS, OU=Distributed Systems Group, CN=Andreas Haeberlen/emailAddress=democa@octarine.de
        Validity
            Not Before: Apr 20 20:46:58 2015 GMT
            Not After : Apr 19 20:46:58 2016 GMT
        Subject: C=DE, ST=Saarland, O=MPI-SWS, OU=Distributed Systems Group, CN=91064aa299744e80f419d3f1128b4b5ed542ff49/emailAddress=node0027@octarine.de
        Subject Public Key Info:
            Public Key Algorithm: rsaEncryption
            RSA Public Key: (1024 bit)
                Modulus (1024 bit):
                    00:e4:71:ac:c0:62:9e:48:50:e7:da:ab:16:c6:4a:
                    b3:ed:d3:ab:b6:69:f0:3d:d4:41:87:05:32:53:1c:
                    1c:24:e3:66:23:6b:6b:3c:32:52:95:da:70:66:58:
                    5f:cc:ca:34:c8:e0:43:fd:cd:5d:54:42:56:a3:0f:
                    46:19:a1:23:20:ad:46:a0:74:01:d3:3c:b7:6a:ea:
                    f1:2b:32:09:1c:df:84:23:dc:e6:e2:55:06:ef:c1:
                    49:21:34:ea:c2:73:0f:0a:02:39:a5:9e:4d:40:c9:
                    b5:bf:a0:b3:56:80:4b:38:63:48:dd:45:27:92:0d:
                    59:3b:a5:2d:5f:99:d7:29:f9
                Exponent: 65537 (0x10001)
    Signature Algorithm: md5WithRSAEncryption
        25:4f:c5:b4:86:17:94:63:df:71:3b:1b:a9:36:4e:51:d3:a6:
        4a:14:97:f1:65:d4:80:36:4b:77:61:62:83:e9:15:44:ee:bb:
        87:d0:e4:1d:87:33:a8:b7:33:91:8c:29:46:c6:60:ab:3e:9a:
        88:4e:41:12:c8:55:0d:39:77:9c:35:2e:67:5b:7b:32:c5:6b:
        8a:ae:e9:e3:27:9a:1c:7b:c5:f6:4b:f0:99:40:85:04:38:7a:
        1d:96:bf:ab:15:1d:21:02:04:ab:60:86:6f:af:29:af:fc:83:
        fa:3a:df:e2:01:50:41:a5:e6:7d:fe:3f:2e:a2:8a:80:1b:03:
        25:cf
-----BEGIN CERTIFICATE-----
MIICvDCCAiUCCQCbJ9fo0boH8zANBgkqhkiG9w0BAQQFADCBlTELMAkGA1UEBhMC
REUxETAPBgNVBAgTCFNhYXJsYW5kMRAwDgYDVQQKEwdNUEktU1dTMSIwIAYDVQQL
ExlEaXN0cmlidXRlZCBTeXN0ZW1zIEdyb3VwMRowGAYDVQQDExFBbmRyZWFzIEhh
ZWJlcmxlbjEhMB8GCSqGSIb3DQEJARYSZGVtb2NhQG9jdGFyaW5lLmRlMB4XDTE1
MDQyMDIwNDY1OFoXDTE2MDQxOTIwNDY1OFowga4xCzAJBgNVBAYTAkRFMREwDwYD
VQQIEwhTYWFybGFuZDEQMA4GA1UEChMHTVBJLVNXUzEiMCAGA1UECxMZRGlzdHJp
YnV0ZWQgU3lzdGVtcyBHcm91cDExMC8GA1UEAxMoOTEwNjRhYTI5OTc0NGU4MGY0
MTlkM2YxMTI4YjRiNWVkNTQyZmY0OTEjMCEGCSqGSIb3DQEJARYUbm9kZTAwMjdA
b2N0YXJpbmUuZGUwgZ8wDQYJKoZIhvcNAQEBBQADgY0AMIGJAoGBAORxrMBinkhQ
59qrFsZKs+3Tq7Zp8D3UQYcFMlMcHCTjZiNrazwyUpXacGZYX8zKNMjgQ/3NXVRC
VqMPRhmhIyCtRqB0AdM8t2rq8SsyCRzfhCPc5uJVBu/BSSE06sJzDwoCOaWeTUDJ
tb+gs1aASzhjSN1FJ5INWTulLV+Z1yn5AgMBAAEwDQYJKoZIhvcNAQEEBQADgYEA
JU/FtIYXlGPfcTsbqTZOUdOmShSX8WXUgDZLd2Fig+kVRO67h9DkHYczqLczkYwp
RsZgqz6aiE5BEshVDTl3nDUuZ1t7MsVriq7p4yeaHHvF9kvwmUCFBDh6HZa/qxUd
IQIEq2CGb68pr/yD+jrf4gFQQaXmff4/LqKKgBsDJc8=
-----END CERTIFICATE-----
