Certificate:
    Data:
        Version: 1 (0x0)
        Serial Number:
            9b:27:d7:e8:d1:ba:09:39
        Signature Algorithm: md5WithRSAEncryption
        Issuer: C=DE, ST=Saarland, O=MPI-SWS, OU=Distributed Systems Group, CN=Andreas Haeberlen/emailAddress=democa@octarine.de
        Validity
            Not Before: Apr 20 20:47:12 2015 GMT
            Not After : Apr 19 20:47:12 2016 GMT
        Subject: C=DE, ST=Saarland, O=MPI-SWS, OU=Distributed Systems Group, CN=b6c78084992a2898e2c9b543c0dfa1d57adfa544/emailAddress=node0353@octarine.de
        Subject Public Key Info:
            Public Key Algorithm: rsaEncryption
            RSA Public Key: (1024 bit)
                Modulus (1024 bit):
                    00:a9:e8:b1:93:18:98:52:42:dd:af:88:cf:d1:b3:
                    ad:72:67:63:6e:80:14:3b:b2:18:7a:45:ac:6b:dd:
                    56:44:9c:6b:04:4f:08:22:4d:d9:6f:b9:ba:63:f3:
                    ad:d0:d8:33:07:f5:14:70:38:da:08:9f:af:43:bd:
                    cf:2d:7a:c4:5a:c1:57:e9:f7:c1:20:5f:b9:8a:fa:
                    e7:80:00:cb:90:f8:02:8a:60:23:43:02:63:71:e8:
                    38:94:b7:b2:89:b6:e9:52:9f:fe:ca:78:89:8d:d3:
                    1d:bc:19:7b:4d:71:04:21:4a:b9:3e:e0:1b:2b:5e:
                    6c:fe:c1:c1:24:32:49:a4:7b
                Exponent: 65537 (0x10001)
    Signature Algorithm: md5WithRSAEncryption
        72:0b:22:59:1d:73:46:93:68:f8:98:00:b7:1e:cf:f2:b8:0e:
        ea:ce:ec:0e:01:d6:a2:94:44:3b:5f:cc:3a:6b:73:4b:58:6e:
        6d:45:20:22:8a:f7:56:6a:cc:15:cf:3f:6d:d7:4a:5f:98:8e:
        2d:c6:be:7b:eb:b6:4e:1e:92:74:8b:11:2f:ee:0f:4f:b0:af:
        df:37:33:d1:7b:5d:9d:d9:8c:2e:fe:39:3c:51:f2:cd:8e:ec:
        e3:40:4b:9e:a1:55:79:f5:6b:de:28:12:3c:45:9c:50:04:e2:
        c3:e2:bb:6a:c8:54:ed:93:fa:02:3e:61:53:64:0c:a3:89:45:
        46:df
-----BEGIN CERTIFICATE-----
MIICvDCCAiUCCQCbJ9fo0boJOTANBgkqhkiG9w0BAQQFADCBlTELMAkGA1UEBhMC
REUxETAPBgNVBAgTCFNhYXJsYW5kMRAwDgYDVQQKEwdNUEktU1dTMSIwIAYDVQQL
ExlEaXN0cmlidXRlZCBTeXN0ZW1zIEdyb3VwMRowGAYDVQQDExFBbmRyZWFzIEhh
ZWJlcmxlbjEhMB8GCSqGSIb3DQEJARYSZGVtb2NhQG9jdGFyaW5lLmRlMB4XDTE1
MDQyMDIwNDcxMloXDTE2MDQxOTIwNDcxMlowga4xCzAJBgNVBAYTAkRFMREwDwYD
VQQIEwhTYWFybGFuZDEQMA4GA1UEChMHTVBJLVNXUzEiMCAGA1UECxMZRGlzdHJp
YnV0ZWQgU3lzdGVtcyBHcm91cDExMC8GA1UEAxMoYjZjNzgwODQ5OTJhMjg5OGUy
YzliNTQzYzBkZmExZDU3YWRmYTU0NDEjMCEGCSqGSIb3DQEJARYUbm9kZTAzNTNA
b2N0YXJpbmUuZGUwgZ8wDQYJKoZIhvcNAQEBBQADgY0AMIGJAoGBAKnosZMYmFJC
3a+Iz9GzrXJnY26AFDuyGHpFrGvdVkScawRPCCJN2W+5umPzrdDYMwf1FHA42gif
r0O9zy16xFrBV+n3wSBfuYr654AAy5D4AopgI0MCY3HoOJS3som26VKf/sp4iY3T
HbwZe01xBCFKuT7gGytebP7BwSQySaR7AgMBAAEwDQYJKoZIhvcNAQEEBQADgYEA
cgsiWR1zRpNo+JgAtx7P8rgO6s7sDgHWopREO1/MOmtzS1hubUUgIor3VmrMFc8/
bddKX5iOLca+e+u2Th6SdIsRL+4PT7Cv3zcz0XtdndmMLv45PFHyzY7s40BLnqFV
efVr3igSPEWcUATiw+K7ashU7ZP6Aj5hU2QMo4lFRt8=
-----END CERTIFICATE-----
