Certificate:
    Data:
        Version: 1 (0x0)
        Serial Number:
            9b:27:d7:e8:d1:ba:0b:8a
        Signature Algorithm: md5WithRSAEncryption
        Issuer: C=DE, ST=Saarland, O=MPI-SWS, OU=Distributed Systems Group, CN=Andreas Haeberlen/emailAddress=democa@octarine.de
        Validity
            Not Before: Apr 20 20:47:39 2015 GMT
            Not After : Apr 19 20:47:39 2016 GMT
        Subject: C=DE, ST=Saarland, O=MPI-SWS, OU=Distributed Systems Group, CN=83ef99a948a8b94bc6437eaec31e588db7d408e5/emailAddress=node0946@octarine.de
        Subject Public Key Info:
            Public Key Algorithm: rsaEncryption
            RSA Public Key: (1024 bit)
                Modulus (1024 bit):
                    00:d3:24:dd:1c:c7:4c:7b:fd:45:4b:ca:6c:88:f0:
                    0b:c4:8f:5c:da:a6:1c:e7:54:85:28:b5:5b:d0:a0:
                    1e:1d:48:4e:e5:4c:19:41:8d:4a:72:ed:49:ee:18:
                    2c:b4:5f:89:2a:62:a7:b2:96:50:86:d8:d9:18:30:
                    9f:a8:b5:49:e4:15:13:32:93:5f:8e:16:99:50:7d:
                    a9:49:dd:64:e5:d5:b0:b1:49:c0:a7:40:a8:5f:f1:
                    d8:58:88:4b:fa:c5:d1:f5:07:8d:7a:2d:ae:be:22:
                    e2:30:7a:51:4c:ca:71:fb:f3:ed:5d:a4:99:d5:fc:
                    e1:26:f0:37:05:60:dd:d3:a3
                Exponent: 65537 (0x10001)
    Signature Algorithm: md5WithRSAEncryption
        a1:6a:28:e7:9d:a7:d8:00:15:68:31:9d:5a:8f:70:52:ca:69:
        b6:24:e1:38:6b:e0:22:bb:c5:0c:a3:ab:d9:cb:be:11:54:af:
        af:27:e9:aa:b5:9f:41:37:19:ee:b9:e1:7e:88:2a:87:dc:72:
        e2:d6:84:2f:0f:59:04:1b:b5:cf:8a:ba:31:af:23:82:61:d8:
        8f:af:31:94:3d:6c:3f:6f:16:c0:45:09:0e:6f:cf:20:4d:b2:
        2d:64:c3:1e:3b:b3:86:01:34:95:99:91:07:5b:82:15:ae:a4:
        50:40:c0:d9:93:7f:dc:c3:b9:14:4b:90:bc:39:72:90:2f:0c:
        f8:9e
-----BEGIN CERTIFICATE-----
MIICvDCCAiUCCQCbJ9fo0boLijANBgkqhkiG9w0BAQQFADCBlTELMAkGA1UEBhMC
REUxETAPBgNVBAgTCFNhYXJsYW5kMRAwDgYDVQQKEwdNUEktU1dTMSIwIAYDVQQL
ExlEaXN0cmlidXRlZCBTeXN0ZW1zIEdyb3VwMRowGAYDVQQDExFBbmRyZWFzIEhh
ZWJlcmxlbjEhMB8GCSqGSIb3DQEJARYSZGVtb2NhQG9jdGFyaW5lLmRlMB4XDTE1
MDQyMDIwNDczOVoXDTE2MDQxOTIwNDczOVowga4xCzAJBgNVBAYTAkRFMREwDwYD
VQQIEwhTYWFybGFuZDEQMA4GA1UEChMHTVBJLVNXUzEiMCAGA1UECxMZRGlzdHJp
YnV0ZWQgU3lzdGVtcyBHcm91cDExMC8GA1UEAxMoODNlZjk5YTk0OGE4Yjk0YmM2
NDM3ZWFlYzMxZTU4OGRiN2Q0MDhlNTEjMCEGCSqGSIb3DQEJARYUbm9kZTA5NDZA
b2N0YXJpbmUuZGUwgZ8wDQYJKoZIhvcNAQEBBQADgY0AMIGJAoGBANMk3RzHTHv9
RUvKbIjwC8SPXNqmHOdUhSi1W9CgHh1ITuVMGUGNSnLtSe4YLLRfiSpip7KWUIbY
2Rgwn6i1SeQVEzKTX44WmVB9qUndZOXVsLFJwKdAqF/x2FiIS/rF0fUHjXotrr4i
4jB6UUzKcfvz7V2kmdX84SbwNwVg3dOjAgMBAAEwDQYJKoZIhvcNAQEEBQADgYEA
oWoo552n2AAVaDGdWo9wUspptiThOGvgIrvFDKOr2cu+EVSvryfpqrWfQTcZ7rnh
fogqh9xy4taELw9ZBBu1z4q6Ma8jgmHYj68xlD1sP28WwEUJDm/PIE2yLWTDHjuz
hgE0lZmRB1uCFa6kUEDA2ZN/3MO5FEuQvDlykC8M+J4=
-----END CERTIFICATE-----
