Certificate:
    Data:
        Version: 1 (0x0)
        Serial Number:
            9b:27:d7:e8:d1:ba:09:87
        Signature Algorithm: md5WithRSAEncryption
        Issuer: C=DE, ST=Saarland, O=MPI-SWS, OU=Distributed Systems Group, CN=Andreas Haeberlen/emailAddress=democa@octarine.de
        Validity
            Not Before: Apr 20 20:47:15 2015 GMT
            Not After : Apr 19 20:47:15 2016 GMT
        Subject: C=DE, ST=Saarland, O=MPI-SWS, OU=Distributed Systems Group, CN=6f092809726dfb01774da5bfa035471b7149a531/emailAddress=node0431@octarine.de
        Subject Public Key Info:
            Public Key Algorithm: rsaEncryption
            RSA Public Key: (1024 bit)
                Modulus (1024 bit):
                    00:ac:09:71:e7:f3:b5:d6:99:51:9e:f9:c3:c2:ee:
                    f9:80:55:bb:29:df:81:b3:b0:17:6d:df:2e:29:61:
                    39:d0:5e:92:6b:0c:d5:5d:30:66:5e:d7:ff:c1:2d:
                    9d:5d:44:b1:61:63:fd:1e:34:df:80:e5:6d:e3:dd:
                    e3:42:0c:75:25:24:bd:0e:d2:56:7b:43:e9:a8:d1:
                    b1:eb:bb:37:f6:76:55:51:77:29:f2:69:13:05:ab:
                    19:d7:b1:4d:e9:db:e6:e5:40:af:ba:8a:76:d5:db:
                    e2:b3:3e:e8:b2:d6:9b:e5:43:95:e6:08:6b:fb:8d:
                    70:3b:ac:f6:2c:f7:a3:91:ff
                Exponent: 65537 (0x10001)
    Signature Algorithm: md5WithRSAEncryption
        07:07:e2:19:7d:f3:2b:d5:68:92:81:73:d4:12:6e:81:fa:98:
        19:6a:08:b9:d4:f0:85:94:27:99:81:71:0f:0f:d5:29:6f:c1:
        a0:5d:01:c1:56:d4:22:ff:86:79:5b:64:fb:f5:5d:74:0f:e8:
        4c:c1:8f:0b:14:88:cc:d6:2d:75:8b:fe:ea:d3:ef:6d:3b:11:
        2f:30:a1:ba:e4:55:54:eb:a4:05:25:6d:23:5a:84:ef:ae:92:
        3c:a7:a4:1a:2f:43:68:09:d3:2b:58:db:90:80:82:d3:43:ce:
        36:2d:5d:88:a2:65:9a:1d:99:b2:fd:e5:cd:44:0c:cd:82:c9:
        a5:bf
-----BEGIN CERTIFICATE-----
MIICvDCCAiUCCQCbJ9fo0boJhzANBgkqhkiG9w0BAQQFADCBlTELMAkGA1UEBhMC
REUxETAPBgNVBAgTCFNhYXJsYW5kMRAwDgYDVQQKEwdNUEktU1dTMSIwIAYDVQQL
ExlEaXN0cmlidXRlZCBTeXN0ZW1zIEdyb3VwMRowGAYDVQQDExFBbmRyZWFzIEhh
ZWJlcmxlbjEhMB8GCSqGSIb3DQEJARYSZGVtb2NhQG9jdGFyaW5lLmRlMB4XDTE1
MDQyMDIwNDcxNVoXDTE2MDQxOTIwNDcxNVowga4xCzAJBgNVBAYTAkRFMREwDwYD
VQQIEwhTYWFybGFuZDEQMA4GA1UEChMHTVBJLVNXUzEiMCAGA1UECxMZRGlzdHJp
YnV0ZWQgU3lzdGVtcyBHcm91cDExMC8GA1UEAxMoNmYwOTI4MDk3MjZkZmIwMTc3
NGRhNWJmYTAzNTQ3MWI3MTQ5YTUzMTEjMCEGCSqGSIb3DQEJARYUbm9kZTA0MzFA
b2N0YXJpbmUuZGUwgZ8wDQYJKoZIhvcNAQEBBQADgY0AMIGJAoGBAKwJcefztdaZ
UZ75w8Lu+YBVuynfgbOwF23fLilhOdBekmsM1V0wZl7X/8EtnV1EsWFj/R4034Dl
bePd40IMdSUkvQ7SVntD6ajRseu7N/Z2VVF3KfJpEwWrGdexTenb5uVAr7qKdtXb
4rM+6LLWm+VDleYIa/uNcDus9iz3o5H/AgMBAAEwDQYJKoZIhvcNAQEEBQADgYEA
BwfiGX3zK9VokoFz1BJugfqYGWoIudTwhZQnmYFxDw/VKW/BoF0BwVbUIv+GeVtk
+/VddA/oTMGPCxSIzNYtdYv+6tPvbTsRLzChuuRVVOukBSVtI1qE766SPKekGi9D
aAnTK1jbkICC00PONi1diKJlmh2Zsv3lzUQMzYLJpb8=
-----END CERTIFICATE-----
