Certificate:
    Data:
        Version: 1 (0x0)
        Serial Number:
            9b:27:d7:e8:d1:ba:08:f5
        Signature Algorithm: md5WithRSAEncryption
        Issuer: C=DE, ST=Saarland, O=MPI-SWS, OU=Distributed Systems Group, CN=Andreas Haeberlen/emailAddress=democa@octarine.de
        Validity
            Not Before: Apr 20 20:47:09 2015 GMT
            Not After : Apr 19 20:47:09 2016 GMT
        Subject: C=DE, ST=Saarland, O=MPI-SWS, OU=Distributed Systems Group, CN=c0ae2df88003881c2e41b25c001176f37929711f/emailAddress=node0285@octarine.de
        Subject Public Key Info:
            Public Key Algorithm: rsaEncryption
            RSA Public Key: (1024 bit)
                Modulus (1024 bit):
                    00:a5:68:1c:a7:f9:8b:a6:16:41:1f:28:29:20:fb:
                    aa:cf:7d:1d:2e:95:a7:d3:8e:4b:64:19:6c:9e:7c:
                    89:25:6b:7f:04:75:73:aa:c0:25:09:7e:86:9d:1f:
                    00:6d:c5:0c:00:ae:d4:bb:a2:72:8d:31:cd:21:92:
                    68:98:ec:a6:68:33:30:bd:d5:73:87:8f:82:b4:df:
                    3e:cd:d6:5b:04:c3:61:e4:84:ed:bf:80:6c:d4:e7:
                    46:f4:72:7e:91:44:77:f0:c8:cd:6b:63:9c:63:ed:
                    d5:2a:8b:f5:3b:6c:7f:4d:c4:38:65:21:b2:8e:82:
                    f3:b1:44:32:c6:60:f4:7b:15
                Exponent: 65537 (0x10001)
    Signature Algorithm: md5WithRSAEncryption
        23:44:57:70:b7:5e:40:aa:34:82:e6:2c:2d:e3:9a:03:bd:0e:
        48:2b:28:73:54:b1:91:4d:bb:fd:6d:fc:0d:75:35:07:3e:e3:
        25:55:38:95:a8:68:10:cd:ee:f7:5b:82:7a:1d:50:60:c8:68:
        73:8d:3a:4d:2a:6f:47:58:b3:a9:73:2a:ff:e2:8a:7f:3c:ed:
        31:3c:76:7e:63:2c:62:0f:dc:cc:4e:c6:e7:97:7e:e7:a1:72:
        3f:6b:f0:5a:a4:2e:db:f5:94:20:5f:94:56:8d:5c:2e:0d:64:
        19:ea:d9:af:ae:17:38:6c:b7:f2:e8:9b:02:df:b9:9c:be:6d:
        d8:ec
-----BEGIN CERTIFICATE-----
MIICvDCCAiUCCQCbJ9fo0boI9TANBgkqhkiG9w0BAQQFADCBlTELMAkGA1UEBhMC
REUxETAPBgNVBAgTCFNhYXJsYW5kMRAwDgYDVQQKEwdNUEktU1dTMSIwIAYDVQQL
ExlEaXN0cmlidXRlZCBTeXN0ZW1zIEdyb3VwMRowGAYDVQQDExFBbmRyZWFzIEhh
ZWJlcmxlbjEhMB8GCSqGSIb3DQEJARYSZGVtb2NhQG9jdGFyaW5lLmRlMB4XDTE1
MDQyMDIwNDcwOVoXDTE2MDQxOTIwNDcwOVowga4xCzAJBgNVBAYTAkRFMREwDwYD
VQQIEwhTYWFybGFuZDEQMA4GA1UEChMHTVBJLVNXUzEiMCAGA1UECxMZRGlzdHJp
YnV0ZWQgU3lzdGVtcyBHcm91cDExMC8GA1UEAxMoYzBhZTJkZjg4MDAzODgxYzJl
NDFiMjVjMDAxMTc2ZjM3OTI5NzExZjEjMCEGCSqGSIb3DQEJARYUbm9kZTAyODVA
b2N0YXJpbmUuZGUwgZ8wDQYJKoZIhvcNAQEBBQADgY0AMIGJAoGBAKVoHKf5i6YW
QR8oKSD7qs99HS6Vp9OOS2QZbJ58iSVrfwR1c6rAJQl+hp0fAG3FDACu1Luico0x
zSGSaJjspmgzML3Vc4ePgrTfPs3WWwTDYeSE7b+AbNTnRvRyfpFEd/DIzWtjnGPt
1SqL9Ttsf03EOGUhso6C87FEMsZg9HsVAgMBAAEwDQYJKoZIhvcNAQEEBQADgYEA
I0RXcLdeQKo0guYsLeOaA70OSCsoc1SxkU27/W38DXU1Bz7jJVU4lahoEM3u91uC
eh1QYMhoc406TSpvR1izqXMq/+KKfzztMTx2fmMsYg/czE7G55d+56FyP2vwWqQu
2/WUIF+UVo1cLg1kGerZr64XOGy38uibAt+5nL5t2Ow=
-----END CERTIFICATE-----
