Certificate:
    Data:
        Version: 1 (0x0)
        Serial Number:
            9b:27:d7:e8:d1:ba:07:d9
        Signature Algorithm: md5WithRSAEncryption
        Issuer: C=DE, ST=Saarland, O=MPI-SWS, OU=Distributed Systems Group, CN=Andreas Haeberlen/emailAddress=democa@octarine.de
        Validity
            Not Before: Apr 20 20:46:57 2015 GMT
            Not After : Apr 19 20:46:57 2016 GMT
        Subject: C=DE, ST=Saarland, O=MPI-SWS, OU=Distributed Systems Group, CN=886ffcd20ba51ccb981ee3e119c0b203a62a20c2/emailAddress=node0001@octarine.de
        Subject Public Key Info:
            Public Key Algorithm: rsaEncryption
            RSA Public Key: (1024 bit)
                Modulus (1024 bit):
                    00:d1:84:91:2e:ab:6a:98:f0:df:1f:95:c7:cd:6a:
                    76:b6:21:be:92:78:92:a8:e2:d4:7f:37:9a:5c:92:
                    d5:54:7b:3c:9b:72:a9:48:85:54:d8:db:26:54:7a:
                    6d:92:22:ef:f4:f0:79:01:5e:2f:d4:a4:35:81:43:
                    51:86:b8:f2:2e:34:e3:5f:23:d8:e6:0a:c3:6c:e5:
                    90:e7:91:74:20:1b:69:50:8c:eb:d1:a6:75:f7:1a:
                    dd:ba:b5:54:94:a3:7a:c7:46:17:de:f9:44:95:6c:
                    cb:d9:84:e9:02:1c:40:c6:b5:c0:23:86:83:c8:e4:
                    12:d5:3d:82:d0:34:2a:4d:a1
                Exponent: 65537 (0x10001)
    Signature Algorithm: md5WithRSAEncryption
        15:65:7b:96:ae:5b:c8:47:30:21:9f:7f:60:8d:4d:13:7e:f9:
        9c:d9:2f:6f:00:94:e4:be:2d:91:88:7b:f1:68:48:4c:a0:48:
        32:bf:68:d7:e5:02:1a:8f:2c:e7:fd:78:36:98:64:96:d1:29:
        4c:d7:2f:95:a3:5a:e5:d8:89:14:40:53:7c:0e:62:b9:76:25:
        32:df:f3:4c:15:bb:05:d6:09:fc:6a:80:65:41:a9:9a:69:61:
        17:b9:ab:ea:42:e0:a0:95:7e:d3:b9:65:60:10:bb:64:1c:d2:
        cb:30:4d:64:02:58:50:17:de:ed:14:60:76:9d:89:b0:2d:52:
        74:98
-----BEGIN CERTIFICATE-----
MIICvDCCAiUCCQCbJ9fo0boH2TANBgkqhkiG9w0BAQQFADCBlTELMAkGA1UEBhMC
REUxETAPBgNVBAgTCFNhYXJsYW5kMRAwDgYDVQQKEwdNUEktU1dTMSIwIAYDVQQL
ExlEaXN0cmlidXRlZCBTeXN0ZW1zIEdyb3VwMRowGAYDVQQDExFBbmRyZWFzIEhh
ZWJlcmxlbjEhMB8GCSqGSIb3DQEJARYSZGVtb2NhQG9jdGFyaW5lLmRlMB4XDTE1
MDQyMDIwNDY1N1oXDTE2MDQxOTIwNDY1N1owga4xCzAJBgNVBAYTAkRFMREwDwYD
VQQIEwhTYWFybGFuZDEQMA4GA1UEChMHTVBJLVNXUzEiMCAGA1UECxMZRGlzdHJp
YnV0ZWQgU3lzdGVtcyBHcm91cDExMC8GA1UEAxMoODg2ZmZjZDIwYmE1MWNjYjk4
MWVlM2UxMTljMGIyMDNhNjJhMjBjMjEjMCEGCSqGSIb3DQEJARYUbm9kZTAwMDFA
b2N0YXJpbmUuZGUwgZ8wDQYJKoZIhvcNAQEBBQADgY0AMIGJAoGBANGEkS6rapjw
3x+Vx81qdrYhvpJ4kqji1H83mlyS1VR7PJtyqUiFVNjbJlR6bZIi7/TweQFeL9Sk
NYFDUYa48i40418j2OYKw2zlkOeRdCAbaVCM69Gmdfca3bq1VJSjesdGF975RJVs
y9mE6QIcQMa1wCOGg8jkEtU9gtA0Kk2hAgMBAAEwDQYJKoZIhvcNAQEEBQADgYEA
FWV7lq5byEcwIZ9/YI1NE375nNkvbwCU5L4tkYh78WhITKBIMr9o1+UCGo8s5/14
NphkltEpTNcvlaNa5diJFEBTfA5iuXYlMt/zTBW7BdYJ/GqAZUGpmmlhF7mr6kLg
oJV+07llYBC7ZBzSyzBNZAJYUBfe7RRgdp2JsC1SdJg=
-----END CERTIFICATE-----
