Certificate:
    Data:
        Version: 1 (0x0)
        Serial Number:
            9b:27:d7:e8:d1:ba:0a:d8
        Signature Algorithm: md5WithRSAEncryption
        Issuer: C=DE, ST=Saarland, O=MPI-SWS, OU=Distributed Systems Group, CN=Andreas Haeberlen/emailAddress=democa@octarine.de
        Validity
            Not Before: Apr 20 20:47:31 2015 GMT
            Not After : Apr 19 20:47:31 2016 GMT
        Subject: C=DE, ST=Saarland, O=MPI-SWS, OU=Distributed Systems Group, CN=06bdcb0b7e46dbc74d05f0cc4b07eece58c23ddb/emailAddress=node0768@octarine.de
        Subject Public Key Info:
            Public Key Algorithm: rsaEncryption
            RSA Public Key: (1024 bit)
                Modulus (1024 bit):
                    00:bb:13:21:ec:41:eb:3f:1f:be:48:e7:e0:79:54:
                    5c:5d:af:fc:b4:74:c2:cc:65:3b:55:53:8e:a2:c0:
                    ff:4d:da:98:af:87:2c:2d:52:07:76:5c:48:53:36:
                    61:cf:aa:be:0a:6e:0f:91:46:b9:a3:64:81:58:bc:
                    77:04:5f:af:df:62:e5:6c:ae:ba:3a:26:b5:7f:d6:
                    e9:dd:33:aa:45:40:29:66:bf:94:e5:78:2d:41:4c:
                    52:1c:11:20:02:a9:8e:0b:77:64:ed:1b:df:ca:44:
                    ec:5a:f1:c8:3b:dc:46:a6:b8:0b:1d:44:8e:6f:4c:
                    fb:f4:48:ad:fa:30:c8:0a:b5
                Exponent: 65537 (0x10001)
    Signature Algorithm: md5WithRSAEncryption
        98:40:5f:91:c4:de:14:52:30:b8:f6:77:74:bd:98:3f:cd:fb:
        35:51:1b:4e:7f:ec:42:64:92:2f:aa:f6:67:18:31:62:1d:c8:
        e2:bb:07:70:f5:a3:a0:b3:06:aa:4e:98:c0:52:11:b5:9c:d5:
        8b:9c:8f:fe:e0:a5:d7:d6:61:25:ba:b3:6d:fb:ab:c7:8d:1a:
        a4:2c:d1:ac:7c:81:50:32:70:42:b5:8a:5f:af:b2:d5:9a:a2:
        c4:af:61:93:1f:79:41:13:e1:6a:23:ea:42:a8:d6:29:0b:bc:
        3a:9f:f0:7a:98:29:2f:63:c6:13:81:c1:a2:de:0b:5f:84:2b:
        4f:c8
-----BEGIN CERTIFICATE-----
MIICvDCCAiUCCQCbJ9fo0boK2DANBgkqhkiG9w0BAQQFADCBlTELMAkGA1UEBhMC
REUxETAPBgNVBAgTCFNhYXJsYW5kMRAwDgYDVQQKEwdNUEktU1dTMSIwIAYDVQQL
ExlEaXN0cmlidXRlZCBTeXN0ZW1zIEdyb3VwMRowGAYDVQQDExFBbmRyZWFzIEhh
ZWJlcmxlbjEhMB8GCSqGSIb3DQEJARYSZGVtb2NhQG9jdGFyaW5lLmRlMB4XDTE1
MDQyMDIwNDczMVoXDTE2MDQxOTIwNDczMVowga4xCzAJBgNVBAYTAkRFMREwDwYD
VQQIEwhTYWFybGFuZDEQMA4GA1UEChMHTVBJLVNXUzEiMCAGA1UECxMZRGlzdHJp
YnV0ZWQgU3lzdGVtcyBHcm91cDExMC8GA1UEAxMoMDZiZGNiMGI3ZTQ2ZGJjNzRk
MDVmMGNjNGIwN2VlY2U1OGMyM2RkYjEjMCEGCSqGSIb3DQEJARYUbm9kZTA3NjhA
b2N0YXJpbmUuZGUwgZ8wDQYJKoZIhvcNAQEBBQADgY0AMIGJAoGBALsTIexB6z8f
vkjn4HlUXF2v/LR0wsxlO1VTjqLA/03amK+HLC1SB3ZcSFM2Yc+qvgpuD5FGuaNk
gVi8dwRfr99i5WyuujomtX/W6d0zqkVAKWa/lOV4LUFMUhwRIAKpjgt3ZO0b38pE
7FrxyDvcRqa4Cx1Ejm9M+/RIrfowyAq1AgMBAAEwDQYJKoZIhvcNAQEEBQADgYEA
mEBfkcTeFFIwuPZ3dL2YP837NVEbTn/sQmSSL6r2ZxgxYh3I4rsHcPWjoLMGqk6Y
wFIRtZzVi5yP/uCl19ZhJbqzbfurx40apCzRrHyBUDJwQrWKX6+y1ZqixK9hkx95
QRPhaiPqQqjWKQu8Op/wepgpL2PGE4HBot4LX4QrT8g=
-----END CERTIFICATE-----
