Certificate:
    Data:
        Version: 1 (0x0)
        Serial Number:
            9b:27:d7:e8:d1:ba:08:68
        Signature Algorithm: md5WithRSAEncryption
        Issuer: C=DE, ST=Saarland, O=MPI-SWS, OU=Distributed Systems Group, CN=Andreas Haeberlen/emailAddress=democa@octarine.de
        Validity
            Not Before: Apr 20 20:47:03 2015 GMT
            Not After : Apr 19 20:47:03 2016 GMT
        Subject: C=DE, ST=Saarland, O=MPI-SWS, OU=Distributed Systems Group, CN=1953b7c142011b4f82992c23f1178e3a88d30a44/emailAddress=node0144@octarine.de
        Subject Public Key Info:
            Public Key Algorithm: rsaEncryption
            RSA Public Key: (1024 bit)
                Modulus (1024 bit):
                    00:de:21:10:1d:ee:ed:c7:f8:1d:2f:0b:04:ca:7e:
                    c1:c6:41:ba:bb:d2:9f:80:14:a1:99:72:95:d3:a4:
                    36:92:ff:e2:d3:63:d1:ba:13:36:8b:c8:84:e3:35:
                    3e:47:18:05:3b:f3:05:ea:a9:4a:b0:22:a6:90:99:
                    39:a5:42:a4:52:e6:c4:90:7a:4c:d5:2a:08:69:ff:
                    f8:ab:c0:81:80:eb:31:b7:e6:70:bc:14:96:be:94:
                    09:f4:06:ec:95:7e:86:1d:c4:42:87:16:95:e4:7b:
                    7d:bd:c9:50:d1:8a:0b:c6:95:24:62:c8:d5:95:d6:
                    71:72:65:34:79:78:a4:ab:c5
                Exponent: 65537 (0x10001)
    Signature Algorithm: md5WithRSAEncryption
        b9:2a:76:80:50:64:86:ba:1c:ae:6c:32:4f:3e:e4:d8:d2:a9:
        2f:59:97:38:29:8c:a4:17:50:fa:49:84:b5:32:33:33:e8:fa:
        12:a3:4b:5b:46:eb:9f:f9:6f:b0:86:5e:72:ce:36:36:9f:2f:
        66:6d:b8:b4:87:84:5f:60:9e:58:8e:64:fe:f5:4d:e7:cf:d8:
        77:4d:6c:39:aa:3d:65:cd:04:cb:ad:cd:e0:0a:03:ec:78:9e:
        f1:e0:80:c6:cc:7a:43:52:7b:7c:ce:77:31:d6:aa:ed:d9:d5:
        6f:49:53:df:15:1b:77:6a:cb:2b:77:2e:1a:61:69:59:dc:9a:
        30:92
-----BEGIN CERTIFICATE-----
MIICvDCCAiUCCQCbJ9fo0boIaDANBgkqhkiG9w0BAQQFADCBlTELMAkGA1UEBhMC
REUxETAPBgNVBAgTCFNhYXJsYW5kMRAwDgYDVQQKEwdNUEktU1dTMSIwIAYDVQQL
ExlEaXN0cmlidXRlZCBTeXN0ZW1zIEdyb3VwMRowGAYDVQQDExFBbmRyZWFzIEhh
ZWJlcmxlbjEhMB8GCSqGSIb3DQEJARYSZGVtb2NhQG9jdGFyaW5lLmRlMB4XDTE1
MDQyMDIwNDcwM1oXDTE2MDQxOTIwNDcwM1owga4xCzAJBgNVBAYTAkRFMREwDwYD
VQQIEwhTYWFybGFuZDEQMA4GA1UEChMHTVBJLVNXUzEiMCAGA1UECxMZRGlzdHJp
YnV0ZWQgU3lzdGVtcyBHcm91cDExMC8GA1UEAxMoMTk1M2I3YzE0MjAxMWI0Zjgy
OTkyYzIzZjExNzhlM2E4OGQzMGE0NDEjMCEGCSqGSIb3DQEJARYUbm9kZTAxNDRA
b2N0YXJpbmUuZGUwgZ8wDQYJKoZIhvcNAQEBBQADgY0AMIGJAoGBAN4hEB3u7cf4
HS8LBMp+wcZBurvSn4AUoZlyldOkNpL/4tNj0boTNovIhOM1PkcYBTvzBeqpSrAi
ppCZOaVCpFLmxJB6TNUqCGn/+KvAgYDrMbfmcLwUlr6UCfQG7JV+hh3EQocWleR7
fb3JUNGKC8aVJGLI1ZXWcXJlNHl4pKvFAgMBAAEwDQYJKoZIhvcNAQEEBQADgYEA
uSp2gFBkhrocrmwyTz7k2NKpL1mXOCmMpBdQ+kmEtTIzM+j6EqNLW0brn/lvsIZe
cs42Np8vZm24tIeEX2CeWI5k/vVN58/Yd01sOao9Zc0Ey63N4AoD7Hie8eCAxsx6
Q1J7fM53Mdaq7dnVb0lT3xUbd2rLK3cuGmFpWdyaMJI=
-----END CERTIFICATE-----
