Certificate:
    Data:
        Version: 1 (0x0)
        Serial Number:
            9b:27:d7:e8:d1:ba:0b:34
        Signature Algorithm: md5WithRSAEncryption
        Issuer: C=DE, ST=Saarland, O=MPI-SWS, OU=Distributed Systems Group, CN=Andreas Haeberlen/emailAddress=democa@octarine.de
        Validity
            Not Before: Apr 20 20:47:35 2015 GMT
            Not After : Apr 19 20:47:35 2016 GMT
        Subject: C=DE, ST=Saarland, O=MPI-SWS, OU=Distributed Systems Group, CN=22b2dc0c962f6b59e0387f512a0e985ca0e7df46/emailAddress=node0860@octarine.de
        Subject Public Key Info:
            Public Key Algorithm: rsaEncryption
            RSA Public Key: (1024 bit)
                Modulus (1024 bit):
                    00:e8:81:a0:ad:16:d0:85:b7:ca:72:ed:2c:20:55:
                    07:ac:e9:66:58:55:11:6e:8b:65:46:dc:02:50:c0:
                    fe:c8:05:06:e6:e6:f4:b1:ee:45:11:d5:61:09:05:
                    1d:62:42:30:80:6e:2c:d0:1c:e1:8d:cf:50:05:dc:
                    7d:7f:88:a6:7c:3f:a4:c9:a4:a7:ec:af:70:12:39:
                    3b:19:19:6b:d3:4c:ca:cf:3e:a4:cb:aa:3f:ba:8e:
                    d9:c1:67:91:11:f5:3a:f9:b1:8e:4c:11:f5:e1:6b:
                    0b:26:48:43:a0:e7:62:43:8d:f8:b5:d8:33:c7:51:
                    0a:45:9d:71:01:1c:79:7a:99
                Exponent: 65537 (0x10001)
    Signature Algorithm: md5WithRSAEncryption
        2a:d8:ef:4a:0c:e9:4d:e2:1b:1e:cf:0b:b2:e9:53:db:2d:88:
        c2:11:ec:83:4a:e6:de:c9:d1:d1:ed:0c:1d:f9:ed:6f:b6:8a:
        0a:f5:4a:c6:df:6d:c5:f3:da:9c:1c:c0:84:be:5c:9e:76:18:
        9c:71:e9:44:dc:51:a6:23:f7:cb:f1:2c:2f:48:ad:25:7c:ba:
        a6:ae:85:52:66:5b:af:12:3b:cf:a3:9b:3b:e2:de:7e:34:4f:
        6a:f6:30:99:b9:d7:38:1e:a7:e7:a2:d6:b1:fc:4a:ad:19:7b:
        85:1c:a2:db:97:82:95:23:5e:5e:5b:30:b9:df:d7:62:26:44:
        23:db
-----BEGIN CERTIFICATE-----
MIICvDCCAiUCCQCbJ9fo0boLNDANBgkqhkiG9w0BAQQFADCBlTELMAkGA1UEBhMC
REUxETAPBgNVBAgTCFNhYXJsYW5kMRAwDgYDVQQKEwdNUEktU1dTMSIwIAYDVQQL
ExlEaXN0cmlidXRlZCBTeXN0ZW1zIEdyb3VwMRowGAYDVQQDExFBbmRyZWFzIEhh
ZWJlcmxlbjEhMB8GCSqGSIb3DQEJARYSZGVtb2NhQG9jdGFyaW5lLmRlMB4XDTE1
MDQyMDIwNDczNVoXDTE2MDQxOTIwNDczNVowga4xCzAJBgNVBAYTAkRFMREwDwYD
VQQIEwhTYWFybGFuZDEQMA4GA1UEChMHTVBJLVNXUzEiMCAGA1UECxMZRGlzdHJp
YnV0ZWQgU3lzdGVtcyBHcm91cDExMC8GA1UEAxMoMjJiMmRjMGM5NjJmNmI1OWUw
Mzg3ZjUxMmEwZTk4NWNhMGU3ZGY0NjEjMCEGCSqGSIb3DQEJARYUbm9kZTA4NjBA
b2N0YXJpbmUuZGUwgZ8wDQYJKoZIhvcNAQEBBQADgY0AMIGJAoGBAOiBoK0W0IW3
ynLtLCBVB6zpZlhVEW6LZUbcAlDA/sgFBubm9LHuRRHVYQkFHWJCMIBuLNAc4Y3P
UAXcfX+Ipnw/pMmkp+yvcBI5OxkZa9NMys8+pMuqP7qO2cFnkRH1OvmxjkwR9eFr
CyZIQ6DnYkON+LXYM8dRCkWdcQEceXqZAgMBAAEwDQYJKoZIhvcNAQEEBQADgYEA
KtjvSgzpTeIbHs8LsulT2y2IwhHsg0rm3snR0e0MHfntb7aKCvVKxt9txfPanBzA
hL5cnnYYnHHpRNxRpiP3y/EsL0itJXy6pq6FUmZbrxI7z6ObO+LefjRPavYwmbnX
OB6n56LWsfxKrRl7hRyi25eClSNeXlswud/XYiZEI9s=
-----END CERTIFICATE-----
