Certificate:
    Data:
        Version: 1 (0x0)
        Serial Number:
            9b:27:d7:e8:d1:ba:0a:0f
        Signature Algorithm: md5WithRSAEncryption
        Issuer: C=DE, ST=Saarland, O=MPI-SWS, OU=Distributed Systems Group, CN=Andreas Haeberlen/emailAddress=democa@octarine.de
        Validity
            Not Before: Apr 20 20:47:22 2015 GMT
            Not After : Apr 19 20:47:22 2016 GMT
        Subject: C=DE, ST=Saarland, O=MPI-SWS, OU=Distributed Systems Group, CN=c8c07f4847e103af81d2299575de7483c54349c9/emailAddress=node0567@octarine.de
        Subject Public Key Info:
            Public Key Algorithm: rsaEncryption
            RSA Public Key: (1024 bit)
                Modulus (1024 bit):
                    00:d6:fe:a1:21:c6:33:36:27:45:5d:94:f3:0b:15:
                    3d:66:6c:78:a8:5c:bc:04:f8:c1:01:aa:ee:40:bd:
                    7c:bc:f7:64:38:11:ee:b0:ca:0e:8f:4e:9b:ac:81:
                    1c:f5:5a:36:d1:65:d9:bf:74:b4:d9:63:f9:f9:18:
                    58:f0:93:95:ae:7d:8c:e8:26:02:f4:19:42:10:4a:
                    56:2d:d8:b5:e5:42:e3:a6:43:89:18:2a:db:d8:01:
                    65:72:65:e7:57:88:55:bd:4a:3d:96:43:47:84:cb:
                    8f:38:11:39:b1:e5:55:81:0f:cb:74:e4:68:66:f9:
                    14:13:58:2b:1f:c6:15:2d:37
                Exponent: 65537 (0x10001)
    Signature Algorithm: md5WithRSAEncryption
        c5:95:ee:4e:f4:64:3a:82:d9:a3:37:e6:59:26:51:64:4c:bc:
        13:b3:ac:2c:da:79:cf:b5:b9:e3:6a:31:e9:19:e9:ee:56:5f:
        54:af:15:54:cc:d9:6f:1a:bd:7c:83:6f:c8:68:ae:cd:9c:18:
        db:3d:16:a7:78:a9:03:a3:11:89:3a:35:c3:ed:43:50:42:91:
        52:4e:26:38:71:cb:b4:7f:90:4b:58:52:2b:55:40:7a:cb:20:
        68:22:38:76:a3:28:84:0f:46:00:0c:23:d8:04:ec:d2:ca:b4:
        f8:ca:b2:e2:28:2d:b1:77:71:ee:33:3a:38:64:50:04:f6:9c:
        c4:b4
-----BEGIN CERTIFICATE-----
MIICvDCCAiUCCQCbJ9fo0boKDzANBgkqhkiG9w0BAQQFADCBlTELMAkGA1UEBhMC
REUxETAPBgNVBAgTCFNhYXJsYW5kMRAwDgYDVQQKEwdNUEktU1dTMSIwIAYDVQQL
ExlEaXN0cmlidXRlZCBTeXN0ZW1zIEdyb3VwMRowGAYDVQQDExFBbmRyZWFzIEhh
ZWJlcmxlbjEhMB8GCSqGSIb3DQEJARYSZGVtb2NhQG9jdGFyaW5lLmRlMB4XDTE1
MDQyMDIwNDcyMloXDTE2MDQxOTIwNDcyMlowga4xCzAJBgNVBAYTAkRFMREwDwYD
VQQIEwhTYWFybGFuZDEQMA4GA1UEChMHTVBJLVNXUzEiMCAGA1UECxMZRGlzdHJp
YnV0ZWQgU3lzdGVtcyBHcm91cDExMC8GA1UEAxMoYzhjMDdmNDg0N2UxMDNhZjgx
ZDIyOTk1NzVkZTc0ODNjNTQzNDljOTEjMCEGCSqGSIb3DQEJARYUbm9kZTA1NjdA
b2N0YXJpbmUuZGUwgZ8wDQYJKoZIhvcNAQEBBQADgY0AMIGJAoGBANb+oSHGMzYn
RV2U8wsVPWZseKhcvAT4wQGq7kC9fLz3ZDgR7rDKDo9Om6yBHPVaNtFl2b90tNlj
+fkYWPCTla59jOgmAvQZQhBKVi3YteVC46ZDiRgq29gBZXJl51eIVb1KPZZDR4TL
jzgRObHlVYEPy3TkaGb5FBNYKx/GFS03AgMBAAEwDQYJKoZIhvcNAQEEBQADgYEA
xZXuTvRkOoLZozfmWSZRZEy8E7OsLNp5z7W542ox6Rnp7lZfVK8VVMzZbxq9fINv
yGiuzZwY2z0Wp3ipA6MRiTo1w+1DUEKRUk4mOHHLtH+QS1hSK1VAessgaCI4dqMo
hA9GAAwj2ATs0sq0+Mqy4igtsXdx7jM6OGRQBPacxLQ=
-----END CERTIFICATE-----
