Certificate:
    Data:
        Version: 1 (0x0)
        Serial Number:
            9b:27:d7:e8:d1:ba:0a:2f
        Signature Algorithm: md5WithRSAEncryption
        Issuer: C=DE, ST=Saarland, O=MPI-SWS, OU=Distributed Systems Group, CN=Andreas Haeberlen/emailAddress=democa@octarine.de
        Validity
            Not Before: Apr 20 20:47:23 2015 GMT
            Not After : Apr 19 20:47:23 2016 GMT
        Subject: C=DE, ST=Saarland, O=MPI-SWS, OU=Distributed Systems Group, CN=4ee4b0384605357840098abab6bfaafe9e35e6d3/emailAddress=node0599@octarine.de
        Subject Public Key Info:
            Public Key Algorithm: rsaEncryption
            RSA Public Key: (1024 bit)
                Modulus (1024 bit):
                    00:cc:20:b4:3a:9d:82:22:ad:f3:5f:45:cd:f9:a2:
                    52:6d:12:30:58:f3:34:22:a7:12:1c:d9:ce:02:7a:
                    c9:02:07:f1:22:c4:b5:a7:5a:bd:61:b8:3e:f7:c1:
                    e5:86:e9:76:93:86:51:31:af:b1:65:4b:c5:92:54:
                    c0:06:22:05:49:a4:5a:d9:86:80:ec:55:4b:80:9a:
                    01:52:8b:86:e0:af:85:c4:eb:91:ab:60:08:e0:ef:
                    f4:9b:60:6a:e8:9b:8d:97:93:44:2e:fd:0e:0e:93:
                    92:d4:de:04:f7:76:bc:ce:98:19:34:74:35:7a:df:
                    a9:27:57:92:5b:ff:55:ca:c9
                Exponent: 65537 (0x10001)
    Signature Algorithm: md5WithRSAEncryption
        58:75:b0:4e:76:ac:81:67:88:1e:62:04:a2:f7:7f:85:e5:db:
        9b:d6:79:bb:2a:f9:20:49:b6:31:31:53:1e:da:4a:89:47:ef:
        c2:13:84:58:f3:57:b5:a5:96:7e:66:e9:32:c1:a7:c0:b8:33:
        b7:66:f9:b8:31:6b:14:93:42:9b:15:32:96:1a:88:3c:63:b8:
        e5:4f:6f:a6:ba:7b:bc:bc:12:81:39:71:54:b9:d7:fc:52:88:
        70:cd:c8:7b:b1:53:46:06:4b:29:28:df:8f:a9:e3:42:c1:7f:
        ac:7c:4d:02:f6:bc:86:6d:74:f7:a8:e2:5a:b9:50:e7:18:4e:
        e1:f0
-----BEGIN CERTIFICATE-----
MIICvDCCAiUCCQCbJ9fo0boKLzANBgkqhkiG9w0BAQQFADCBlTELMAkGA1UEBhMC
REUxETAPBgNVBAgTCFNhYXJsYW5kMRAwDgYDVQQKEwdNUEktU1dTMSIwIAYDVQQL
ExlEaXN0cmlidXRlZCBTeXN0ZW1zIEdyb3VwMRowGAYDVQQDExFBbmRyZWFzIEhh
ZWJlcmxlbjEhMB8GCSqGSIb3DQEJARYSZGVtb2NhQG9jdGFyaW5lLmRlMB4XDTE1
MDQyMDIwNDcyM1oXDTE2MDQxOTIwNDcyM1owga4xCzAJBgNVBAYTAkRFMREwDwYD
VQQIEwhTYWFybGFuZDEQMA4GA1UEChMHTVBJLVNXUzEiMCAGA1UECxMZRGlzdHJp
YnV0ZWQgU3lzdGVtcyBHcm91cDExMC8GA1UEAxMoNGVlNGIwMzg0NjA1MzU3ODQw
MDk4YWJhYjZiZmFhZmU5ZTM1ZTZkMzEjMCEGCSqGSIb3DQEJARYUbm9kZTA1OTlA
b2N0YXJpbmUuZGUwgZ8wDQYJKoZIhvcNAQEBBQADgY0AMIGJAoGBAMwgtDqdgiKt
819FzfmiUm0SMFjzNCKnEhzZzgJ6yQIH8SLEtadavWG4PvfB5YbpdpOGUTGvsWVL
xZJUwAYiBUmkWtmGgOxVS4CaAVKLhuCvhcTrkatgCODv9JtgauibjZeTRC79Dg6T
ktTeBPd2vM6YGTR0NXrfqSdXklv/VcrJAgMBAAEwDQYJKoZIhvcNAQEEBQADgYEA
WHWwTnasgWeIHmIEovd/heXbm9Z5uyr5IEm2MTFTHtpKiUfvwhOEWPNXtaWWfmbp
MsGnwLgzt2b5uDFrFJNCmxUylhqIPGO45U9vprp7vLwSgTlxVLnX/FKIcM3Ie7FT
RgZLKSjfj6njQsF/rHxNAva8hm1096jiWrlQ5xhO4fA=
-----END CERTIFICATE-----
