Certificate:
    Data:
        Version: 1 (0x0)
        Serial Number:
            9b:27:d7:e8:d1:ba:0a:44
        Signature Algorithm: md5WithRSAEncryption
        Issuer: C=DE, ST=Saarland, O=MPI-SWS, OU=Distributed Systems Group, CN=Andreas Haeberlen/emailAddress=democa@octarine.de
        Validity
            Not Before: Apr 20 20:47:24 2015 GMT
            Not After : Apr 19 20:47:24 2016 GMT
        Subject: C=DE, ST=Saarland, O=MPI-SWS, OU=Distributed Systems Group, CN=fa09c076e1b4130fd8f5bf74875e0570f79b7026/emailAddress=node0620@octarine.de
        Subject Public Key Info:
            Public Key Algorithm: rsaEncryption
            RSA Public Key: (1024 bit)
                Modulus (1024 bit):
                    00:e1:1e:6b:c9:8d:bd:8f:88:c9:ff:5f:01:9e:68:
                    10:dd:67:94:16:3d:c1:15:fd:63:ea:97:35:43:de:
                    b1:7b:4f:f5:f8:eb:03:c4:73:cc:c6:45:1b:79:6d:
                    c7:90:94:8e:bb:ba:0e:75:5f:02:1c:82:c9:7a:f3:
                    bd:32:90:25:ba:20:06:13:4b:18:7e:7a:e3:eb:66:
                    20:1c:38:db:82:67:06:51:80:07:4f:00:cc:ef:c4:
                    2b:12:e9:30:8f:ac:ea:8d:a2:2b:0d:8d:9e:81:53:
                    83:bf:91:0b:71:af:11:a0:90:82:9c:a4:3b:07:eb:
                    a2:7b:63:e5:e0:9b:ba:63:bb
                Exponent: 65537 (0x10001)
    Signature Algorithm: md5WithRSAEncryption
        bf:cd:4b:e0:22:08:ca:bb:15:d7:a3:58:c2:30:77:6c:e8:12:
        39:42:37:f9:03:bb:8c:90:35:14:d7:b2:9f:fc:16:bf:01:1a:
        1a:32:86:99:5c:fc:32:67:a2:a4:65:4d:ea:37:08:54:18:b6:
        dd:82:39:b0:a1:d9:40:7c:a6:a9:5d:4f:18:0e:19:31:61:aa:
        10:50:05:e4:2d:e6:e2:13:c4:8b:e8:8e:70:5a:67:fa:c0:95:
        ce:d7:e8:32:61:80:69:4f:01:f5:4d:4e:40:82:6a:c7:91:9a:
        9e:21:ae:80:b2:e9:86:5d:df:f1:10:79:77:77:2b:84:da:84:
        7a:f5
-----BEGIN CERTIFICATE-----
MIICvDCCAiUCCQCbJ9fo0boKRDANBgkqhkiG9w0BAQQFADCBlTELMAkGA1UEBhMC
REUxETAPBgNVBAgTCFNhYXJsYW5kMRAwDgYDVQQKEwdNUEktU1dTMSIwIAYDVQQL
ExlEaXN0cmlidXRlZCBTeXN0ZW1zIEdyb3VwMRowGAYDVQQDExFBbmRyZWFzIEhh
ZWJlcmxlbjEhMB8GCSqGSIb3DQEJARYSZGVtb2NhQG9jdGFyaW5lLmRlMB4XDTE1
MDQyMDIwNDcyNFoXDTE2MDQxOTIwNDcyNFowga4xCzAJBgNVBAYTAkRFMREwDwYD
VQQIEwhTYWFybGFuZDEQMA4GA1UEChMHTVBJLVNXUzEiMCAGA1UECxMZRGlzdHJp
YnV0ZWQgU3lzdGVtcyBHcm91cDExMC8GA1UEAxMoZmEwOWMwNzZlMWI0MTMwZmQ4
ZjViZjc0ODc1ZTA1NzBmNzliNzAyNjEjMCEGCSqGSIb3DQEJARYUbm9kZTA2MjBA
b2N0YXJpbmUuZGUwgZ8wDQYJKoZIhvcNAQEBBQADgY0AMIGJAoGBAOEea8mNvY+I
yf9fAZ5oEN1nlBY9wRX9Y+qXNUPesXtP9fjrA8RzzMZFG3ltx5CUjru6DnVfAhyC
yXrzvTKQJbogBhNLGH564+tmIBw424JnBlGAB08AzO/EKxLpMI+s6o2iKw2NnoFT
g7+RC3GvEaCQgpykOwfrontj5eCbumO7AgMBAAEwDQYJKoZIhvcNAQEEBQADgYEA
v81L4CIIyrsV16NYwjB3bOgSOUI3+QO7jJA1FNeyn/wWvwEaGjKGmVz8MmeipGVN
6jcIVBi23YI5sKHZQHymqV1PGA4ZMWGqEFAF5C3m4hPEi+iOcFpn+sCVztfoMmGA
aU8B9U1OQIJqx5GaniGugLLphl3f8RB5d3crhNqEevU=
-----END CERTIFICATE-----
