Certificate:
    Data:
        Version: 1 (0x0)
        Serial Number:
            9b:27:d7:e8:d1:ba:0b:47
        Signature Algorithm: md5WithRSAEncryption
        Issuer: C=DE, ST=Saarland, O=MPI-SWS, OU=Distributed Systems Group, CN=Andreas Haeberlen/emailAddress=democa@octarine.de
        Validity
            Not Before: Apr 20 20:47:36 2015 GMT
            Not After : Apr 19 20:47:36 2016 GMT
        Subject: C=DE, ST=Saarland, O=MPI-SWS, OU=Distributed Systems Group, CN=e8937d6f8a89f2a53729515840d34f137a7f8df0/emailAddress=node0879@octarine.de
        Subject Public Key Info:
            Public Key Algorithm: rsaEncryption
            RSA Public Key: (1024 bit)
                Modulus (1024 bit):
                    00:c6:51:a2:96:7b:51:8a:9d:0a:09:12:93:f0:cc:
                    fc:63:d6:76:ed:a2:06:9a:ae:65:fd:35:dd:8b:f8:
                    d4:e3:84:16:f2:cc:b0:a0:62:27:74:2f:21:1d:91:
                    98:a6:97:3b:2f:ad:72:cc:e9:f1:4b:a7:58:4c:f3:
                    cf:7a:74:78:5f:d6:51:76:b4:cc:52:db:28:87:cc:
                    ba:95:d6:b5:77:de:0b:25:af:9e:0a:56:d2:5a:2e:
                    b2:f6:3c:a9:d2:52:b0:5d:bb:f3:0e:33:fe:2d:29:
                    42:eb:7e:25:ed:82:3b:cc:78:93:9d:14:fb:ab:38:
                    5a:9d:b6:b4:bf:e1:9d:d0:5b
                Exponent: 65537 (0x10001)
    Signature Algorithm: md5WithRSAEncryption
        ac:fa:bd:b3:1e:99:b9:46:b5:5d:86:58:55:af:df:d3:0c:0b:
        b4:0a:59:22:91:af:5c:e2:96:ad:c1:3e:1e:e4:4f:b8:90:af:
        21:1d:dc:17:69:91:9f:29:e7:5a:5e:9d:17:91:c4:40:77:cc:
        7d:a6:59:6c:62:20:ea:de:6e:af:77:be:c6:c8:d7:27:57:42:
        3b:43:8c:aa:b6:8e:9b:9b:14:65:9c:8b:6e:4a:62:20:7d:7f:
        53:98:b6:ad:95:cc:6f:c1:12:e7:68:74:e6:92:fb:64:cf:ec:
        6b:c8:67:d3:29:3d:61:82:aa:c1:d5:84:74:78:a5:ab:aa:50:
        0f:56
-----BEGIN CERTIFICATE-----
MIICvDCCAiUCCQCbJ9fo0boLRzANBgkqhkiG9w0BAQQFADCBlTELMAkGA1UEBhMC
REUxETAPBgNVBAgTCFNhYXJsYW5kMRAwDgYDVQQKEwdNUEktU1dTMSIwIAYDVQQL
ExlEaXN0cmlidXRlZCBTeXN0ZW1zIEdyb3VwMRowGAYDVQQDExFBbmRyZWFzIEhh
ZWJlcmxlbjEhMB8GCSqGSIb3DQEJARYSZGVtb2NhQG9jdGFyaW5lLmRlMB4XDTE1
MDQyMDIwNDczNloXDTE2MDQxOTIwNDczNlowga4xCzAJBgNVBAYTAkRFMREwDwYD
VQQIEwhTYWFybGFuZDEQMA4GA1UEChMHTVBJLVNXUzEiMCAGA1UECxMZRGlzdHJp
YnV0ZWQgU3lzdGVtcyBHcm91cDExMC8GA1UEAxMoZTg5MzdkNmY4YTg5ZjJhNTM3
Mjk1MTU4NDBkMzRmMTM3YTdmOGRmMDEjMCEGCSqGSIb3DQEJARYUbm9kZTA4NzlA
b2N0YXJpbmUuZGUwgZ8wDQYJKoZIhvcNAQEBBQADgY0AMIGJAoGBAMZRopZ7UYqd
CgkSk/DM/GPWdu2iBpquZf013Yv41OOEFvLMsKBiJ3QvIR2RmKaXOy+tcszp8Uun
WEzzz3p0eF/WUXa0zFLbKIfMupXWtXfeCyWvngpW0lousvY8qdJSsF278w4z/i0p
Qut+Je2CO8x4k50U+6s4Wp22tL/hndBbAgMBAAEwDQYJKoZIhvcNAQEEBQADgYEA
rPq9sx6ZuUa1XYZYVa/f0wwLtApZIpGvXOKWrcE+HuRPuJCvIR3cF2mRnynnWl6d
F5HEQHfMfaZZbGIg6t5ur3e+xsjXJ1dCO0OMqraOm5sUZZyLbkpiIH1/U5i2rZXM
b8ES52h05pL7ZM/sa8hn0yk9YYKqwdWEdHilq6pQD1Y=
-----END CERTIFICATE-----
