Certificate:
    Data:
        Version: 1 (0x0)
        Serial Number:
            9b:27:d7:e8:d1:ba:08:05
        Signature Algorithm: md5WithRSAEncryption
        Issuer: C=DE, ST=Saarland, O=MPI-SWS, OU=Distributed Systems Group, CN=Andreas Haeberlen/emailAddress=democa@octarine.de
        Validity
            Not Before: Apr 20 20:46:59 2015 GMT
            Not After : Apr 19 20:46:59 2016 GMT
        Subject: C=DE, ST=Saarland, O=MPI-SWS, OU=Distributed Systems Group, CN=a65f499dc16cf023a223b89ed6bd99e30334dc29/emailAddress=node0045@octarine.de
        Subject Public Key Info:
            Public Key Algorithm: rsaEncryption
            RSA Public Key: (1024 bit)
                Modulus (1024 bit):
                    00:b0:10:ef:72:eb:36:c3:71:19:d7:46:ab:a6:ed:
                    fd:98:56:60:a5:ea:e5:38:6f:24:cb:21:08:00:38:
                    da:45:50:3e:b5:6a:e2:50:a6:79:e1:34:23:d3:66:
                    15:c5:7d:80:5b:60:5f:25:88:4f:f4:eb:80:30:ec:
                    c5:96:5a:bc:11:6d:0b:05:aa:e8:64:09:26:5c:a1:
                    39:33:e0:72:00:10:68:22:36:9c:53:bc:78:5b:50:
                    75:f3:d1:c4:2e:83:f4:8a:62:73:49:07:43:00:ff:
                    d2:9f:4b:4c:3f:a9:55:50:aa:b7:d7:72:43:75:cc:
                    59:ec:86:b1:88:58:48:e2:95
                Exponent: 65537 (0x10001)
    Signature Algorithm: md5WithRSAEncryption
        18:57:7e:c3:db:64:87:3f:38:12:05:38:91:37:b7:2a:1c:d2:
        9b:71:42:fb:36:60:2a:a3:10:75:c8:e0:08:d1:c8:d8:ed:8b:
        15:e2:50:bf:e2:28:bd:5a:84:60:c8:f5:05:02:01:7d:69:1c:
        83:d2:ed:be:44:29:b0:86:b5:d8:07:24:ff:3b:5d:04:e8:f0:
        07:a9:e0:5c:56:af:ba:63:c7:49:57:68:45:91:f0:37:79:e8:
        05:6c:29:8d:79:66:44:f5:b5:5b:4f:38:ad:dc:1e:8b:e1:97:
        5c:c2:3c:45:df:18:15:97:09:b0:fd:7b:16:d5:1f:d2:6b:2b:
        e9:8a
-----BEGIN CERTIFICATE-----
MIICvDCCAiUCCQCbJ9fo0boIBTANBgkqhkiG9w0BAQQFADCBlTELMAkGA1UEBhMC
REUxETAPBgNVBAgTCFNhYXJsYW5kMRAwDgYDVQQKEwdNUEktU1dTMSIwIAYDVQQL
ExlEaXN0cmlidXRlZCBTeXN0ZW1zIEdyb3VwMRowGAYDVQQDExFBbmRyZWFzIEhh
ZWJlcmxlbjEhMB8GCSqGSIb3DQEJARYSZGVtb2NhQG9jdGFyaW5lLmRlMB4XDTE1
MDQyMDIwNDY1OVoXDTE2MDQxOTIwNDY1OVowga4xCzAJBgNVBAYTAkRFMREwDwYD
VQQIEwhTYWFybGFuZDEQMA4GA1UEChMHTVBJLVNXUzEiMCAGA1UECxMZRGlzdHJp
YnV0ZWQgU3lzdGVtcyBHcm91cDExMC8GA1UEAxMoYTY1ZjQ5OWRjMTZjZjAyM2Ey
MjNiODllZDZiZDk5ZTMwMzM0ZGMyOTEjMCEGCSqGSIb3DQEJARYUbm9kZTAwNDVA
b2N0YXJpbmUuZGUwgZ8wDQYJKoZIhvcNAQEBBQADgY0AMIGJAoGBALAQ73LrNsNx
GddGq6bt/ZhWYKXq5ThvJMshCAA42kVQPrVq4lCmeeE0I9NmFcV9gFtgXyWIT/Tr
gDDsxZZavBFtCwWq6GQJJlyhOTPgcgAQaCI2nFO8eFtQdfPRxC6D9Ipic0kHQwD/
0p9LTD+pVVCqt9dyQ3XMWeyGsYhYSOKVAgMBAAEwDQYJKoZIhvcNAQEEBQADgYEA
GFd+w9tkhz84EgU4kTe3KhzSm3FC+zZgKqMQdcjgCNHI2O2LFeJQv+IovVqEYMj1
BQIBfWkcg9LtvkQpsIa12Ack/ztdBOjwB6ngXFavumPHSVdoRZHwN3noBWwpjXlm
RPW1W084rdwei+GXXMI8Rd8YFZcJsP17FtUf0msr6Yo=
-----END CERTIFICATE-----
