Certificate:
    Data:
        Version: 1 (0x0)
        Serial Number:
            9b:27:d7:e8:d1:ba:0a:a8
        Signature Algorithm: md5WithRSAEncryption
        Issuer: C=DE, ST=Saarland, O=MPI-SWS, OU=Distributed Systems Group, CN=Andreas Haeberlen/emailAddress=democa@octarine.de
        Validity
            Not Before: Apr 20 20:47:28 2015 GMT
            Not After : Apr 19 20:47:28 2016 GMT
        Subject: C=DE, ST=Saarland, O=MPI-SWS, OU=Distributed Systems Group, CN=ef2078ce8fb0704fa0da8ef4fe368ef7d275a442/emailAddress=node0720@octarine.de
        Subject Public Key Info:
            Public Key Algorithm: rsaEncryption
            RSA Public Key: (1024 bit)
                Modulus (1024 bit):
                    00:ba:ee:d9:44:1b:f3:6f:fc:05:8d:89:3c:c4:6e:
                    99:f5:6a:d0:ac:cf:f3:c9:51:73:16:f3:5e:26:57:
                    f3:55:68:a9:54:2f:18:17:02:ad:44:00:c9:6e:7b:
                    79:93:65:4b:5c:26:87:6b:cf:b0:79:1d:59:38:74:
                    dd:57:65:2c:48:63:42:ee:67:9f:c0:bd:aa:fc:45:
                    d8:ca:77:86:93:04:7e:f2:4f:b7:5c:7b:70:2c:42:
                    f2:db:7e:83:3d:4f:cf:1f:16:e7:2c:b7:e2:73:84:
                    05:42:b7:cf:30:f6:db:1b:6d:f1:b3:64:58:90:5d:
                    62:8a:55:67:eb:04:56:30:03
                Exponent: 65537 (0x10001)
    Signature Algorithm: md5WithRSAEncryption
        5a:f4:15:00:74:38:fb:2a:55:a2:06:08:c1:a3:99:4a:1d:3f:
        58:ea:36:34:44:d8:9f:c7:77:3c:9a:2c:91:a4:f8:81:11:a6:
        2d:9b:de:81:ef:9b:7e:59:67:9d:87:a7:7c:ca:17:23:89:15:
        19:6d:b6:73:3d:9a:5e:4d:2b:4f:5d:6e:16:8c:75:c4:3a:7f:
        92:48:5b:1e:b5:9b:05:bb:d8:fa:ae:e0:ad:1b:c8:af:70:6d:
        ce:b1:99:08:82:f7:bc:79:f1:77:ef:1d:91:b8:de:99:5a:0c:
        32:ae:ad:25:f8:09:73:d5:7d:4a:a8:4d:88:92:20:49:3c:d4:
        ed:1c
-----BEGIN CERTIFICATE-----
MIICvDCCAiUCCQCbJ9fo0boKqDANBgkqhkiG9w0BAQQFADCBlTELMAkGA1UEBhMC
REUxETAPBgNVBAgTCFNhYXJsYW5kMRAwDgYDVQQKEwdNUEktU1dTMSIwIAYDVQQL
ExlEaXN0cmlidXRlZCBTeXN0ZW1zIEdyb3VwMRowGAYDVQQDExFBbmRyZWFzIEhh
ZWJlcmxlbjEhMB8GCSqGSIb3DQEJARYSZGVtb2NhQG9jdGFyaW5lLmRlMB4XDTE1
MDQyMDIwNDcyOFoXDTE2MDQxOTIwNDcyOFowga4xCzAJBgNVBAYTAkRFMREwDwYD
VQQIEwhTYWFybGFuZDEQMA4GA1UEChMHTVBJLVNXUzEiMCAGA1UECxMZRGlzdHJp
YnV0ZWQgU3lzdGVtcyBHcm91cDExMC8GA1UEAxMoZWYyMDc4Y2U4ZmIwNzA0ZmEw
ZGE4ZWY0ZmUzNjhlZjdkMjc1YTQ0MjEjMCEGCSqGSIb3DQEJARYUbm9kZTA3MjBA
b2N0YXJpbmUuZGUwgZ8wDQYJKoZIhvcNAQEBBQADgY0AMIGJAoGBALru2UQb82/8
BY2JPMRumfVq0KzP88lRcxbzXiZX81VoqVQvGBcCrUQAyW57eZNlS1wmh2vPsHkd
WTh03VdlLEhjQu5nn8C9qvxF2Mp3hpMEfvJPt1x7cCxC8tt+gz1Pzx8W5yy34nOE
BUK3zzD22xtt8bNkWJBdYopVZ+sEVjADAgMBAAEwDQYJKoZIhvcNAQEEBQADgYEA
WvQVAHQ4+ypVogYIwaOZSh0/WOo2NETYn8d3PJoskaT4gRGmLZvege+bfllnnYen
fMoXI4kVGW22cz2aXk0rT11uFox1xDp/kkhbHrWbBbvY+q7grRvIr3BtzrGZCIL3
vHnxd+8dkbjemVoMMq6tJfgJc9V9SqhNiJIgSTzU7Rw=
-----END CERTIFICATE-----
