Certificate:
    Data:
        Version: 1 (0x0)
        Serial Number:
            9b:27:d7:e8:d1:ba:0a:95
        Signature Algorithm: md5WithRSAEncryption
        Issuer: C=DE, ST=Saarland, O=MPI-SWS, OU=Distributed Systems Group, CN=Andreas Haeberlen/emailAddress=democa@octarine.de
        Validity
            Not Before: Apr 20 20:47:28 2015 GMT
            Not After : Apr 19 20:47:28 2016 GMT
        Subject: C=DE, ST=Saarland, O=MPI-SWS, OU=Distributed Systems Group, CN=e67c1d19d9d8670a10dcc5e6e0ec9ed74546250f/emailAddress=node0701@octarine.de
        Subject Public Key Info:
            Public Key Algorithm: rsaEncryption
            RSA Public Key: (1024 bit)
                Modulus (1024 bit):
                    00:96:4b:b1:28:6e:92:03:6e:5d:11:94:e5:d7:c2:
                    db:50:dd:45:f1:f2:65:b7:b9:5b:e1:36:a9:81:6d:
                    a7:fe:92:2c:49:cc:f1:8f:21:16:c3:50:51:96:a5:
                    46:35:a1:4a:e5:21:f0:c1:29:7f:3f:7b:33:7b:3e:
                    00:14:ef:79:bc:08:cb:c4:fd:ff:8f:dd:df:bf:a4:
                    77:d1:5a:55:9c:7c:dc:4f:35:72:3e:c2:9a:ae:92:
                    fb:50:63:13:4d:46:61:63:b9:6d:16:78:bf:43:65:
                    65:b4:aa:7e:39:f9:12:90:46:ff:ee:45:0a:2e:17:
                    ca:41:32:fc:db:c9:04:a6:c7
                Exponent: 65537 (0x10001)
    Signature Algorithm: md5WithRSAEncryption
        a5:f6:6c:b4:ce:d7:15:5d:86:e4:ad:79:e3:03:f4:90:0f:c9:
        98:e1:89:17:54:66:a0:d8:51:b2:7e:6e:4b:db:cc:84:f8:b1:
        44:be:0d:07:71:58:59:f7:29:09:9d:48:e0:fb:4c:a0:96:3c:
        59:51:88:ef:0d:ff:2b:fc:df:46:99:14:cb:de:1c:57:d5:b2:
        89:36:0a:c6:2f:86:67:d5:c9:14:c3:0e:22:ac:52:7b:3d:36:
        c5:f2:05:37:32:83:94:42:eb:21:5e:8c:5f:25:e7:3c:73:d0:
        46:aa:ac:38:d8:42:43:50:e6:f0:7d:81:86:db:2e:c6:a8:1e:
        a6:b7
-----BEGIN CERTIFICATE-----
MIICvDCCAiUCCQCbJ9fo0boKlTANBgkqhkiG9w0BAQQFADCBlTELMAkGA1UEBhMC
REUxETAPBgNVBAgTCFNhYXJsYW5kMRAwDgYDVQQKEwdNUEktU1dTMSIwIAYDVQQL
ExlEaXN0cmlidXRlZCBTeXN0ZW1zIEdyb3VwMRowGAYDVQQDExFBbmRyZWFzIEhh
ZWJlcmxlbjEhMB8GCSqGSIb3DQEJARYSZGVtb2NhQG9jdGFyaW5lLmRlMB4XDTE1
MDQyMDIwNDcyOFoXDTE2MDQxOTIwNDcyOFowga4xCzAJBgNVBAYTAkRFMREwDwYD
VQQIEwhTYWFybGFuZDEQMA4GA1UEChMHTVBJLVNXUzEiMCAGA1UECxMZRGlzdHJp
YnV0ZWQgU3lzdGVtcyBHcm91cDExMC8GA1UEAxMoZTY3YzFkMTlkOWQ4NjcwYTEw
ZGNjNWU2ZTBlYzllZDc0NTQ2MjUwZjEjMCEGCSqGSIb3DQEJARYUbm9kZTA3MDFA
b2N0YXJpbmUuZGUwgZ8wDQYJKoZIhvcNAQEBBQADgY0AMIGJAoGBAJZLsShukgNu
XRGU5dfC21DdRfHyZbe5W+E2qYFtp/6SLEnM8Y8hFsNQUZalRjWhSuUh8MEpfz97
M3s+ABTvebwIy8T9/4/d37+kd9FaVZx83E81cj7Cmq6S+1BjE01GYWO5bRZ4v0Nl
ZbSqfjn5EpBG/+5FCi4XykEy/NvJBKbHAgMBAAEwDQYJKoZIhvcNAQEEBQADgYEA
pfZstM7XFV2G5K154wP0kA/JmOGJF1RmoNhRsn5uS9vMhPixRL4NB3FYWfcpCZ1I
4PtMoJY8WVGI7w3/K/zfRpkUy94cV9WyiTYKxi+GZ9XJFMMOIqxSez02xfIFNzKD
lELrIV6MXyXnPHPQRqqsONhCQ1Dm8H2Bhtsuxqgeprc=
-----END CERTIFICATE-----
