Certificate:
    Data:
        Version: 1 (0x0)
        Serial Number:
            9b:27:d7:e8:d1:ba:0a:c6
        Signature Algorithm: md5WithRSAEncryption
        Issuer: C=DE, ST=Saarland, O=MPI-SWS, OU=Distributed Systems Group, CN=Andreas Haeberlen/emailAddress=democa@octarine.de
        Validity
            Not Before: Apr 20 20:47:30 2015 GMT
            Not After : Apr 19 20:47:30 2016 GMT
        Subject: C=DE, ST=Saarland, O=MPI-SWS, OU=Distributed Systems Group, CN=4b00a62b8dbae391d55962d16f74a28fd9f7f238/emailAddress=node0750@octarine.de
        Subject Public Key Info:
            Public Key Algorithm: rsaEncryption
            RSA Public Key: (1024 bit)
                Modulus (1024 bit):
                    00:eb:21:61:2d:cd:c6:83:0f:2b:f8:47:10:a0:a0:
                    ba:85:25:28:d6:ed:13:4b:65:d4:e5:5f:bd:99:d7:
                    25:ec:1a:78:40:c4:d9:32:e3:44:5c:ad:e1:c1:e4:
                    88:96:af:22:ab:6d:29:ae:a9:e4:25:2f:f1:73:4d:
                    c7:0e:e7:8e:ae:57:a0:4e:08:48:12:5d:a0:d1:09:
                    03:fd:06:d7:71:96:f8:69:df:a6:d8:82:e8:48:77:
                    85:a7:0f:f9:74:a8:6d:cf:4e:9e:59:04:9f:0a:d3:
                    bf:f3:ff:dd:f9:dd:a8:54:67:e0:85:8d:19:e6:97:
                    eb:3e:f4:3b:a0:e6:13:69:4f
                Exponent: 65537 (0x10001)
    Signature Algorithm: md5WithRSAEncryption
        a4:fb:ac:4c:e0:de:98:4c:18:08:f0:0f:ba:3b:9d:eb:24:0b:
        ec:9a:37:b7:e0:70:52:c2:c6:34:01:64:98:19:b1:73:11:a9:
        d4:b2:59:14:1a:bb:38:7f:0a:1b:e0:41:f4:46:24:e2:76:74:
        ee:0d:eb:40:77:b6:9b:2e:59:df:38:99:1b:65:4e:61:46:88:
        be:5b:b1:33:7b:3e:e1:2c:83:d5:01:3c:a9:7d:5c:ed:e4:e6:
        b9:11:b6:b4:58:04:c2:6b:d8:03:d6:4c:f5:ea:71:79:76:13:
        c6:bc:52:9a:24:e8:04:12:31:fa:ab:94:e9:d4:e7:67:55:9e:
        ac:7e
-----BEGIN CERTIFICATE-----
MIICvDCCAiUCCQCbJ9fo0boKxjANBgkqhkiG9w0BAQQFADCBlTELMAkGA1UEBhMC
REUxETAPBgNVBAgTCFNhYXJsYW5kMRAwDgYDVQQKEwdNUEktU1dTMSIwIAYDVQQL
ExlEaXN0cmlidXRlZCBTeXN0ZW1zIEdyb3VwMRowGAYDVQQDExFBbmRyZWFzIEhh
ZWJlcmxlbjEhMB8GCSqGSIb3DQEJARYSZGVtb2NhQG9jdGFyaW5lLmRlMB4XDTE1
MDQyMDIwNDczMFoXDTE2MDQxOTIwNDczMFowga4xCzAJBgNVBAYTAkRFMREwDwYD
VQQIEwhTYWFybGFuZDEQMA4GA1UEChMHTVBJLVNXUzEiMCAGA1UECxMZRGlzdHJp
YnV0ZWQgU3lzdGVtcyBHcm91cDExMC8GA1UEAxMoNGIwMGE2MmI4ZGJhZTM5MWQ1
NTk2MmQxNmY3NGEyOGZkOWY3ZjIzODEjMCEGCSqGSIb3DQEJARYUbm9kZTA3NTBA
b2N0YXJpbmUuZGUwgZ8wDQYJKoZIhvcNAQEBBQADgY0AMIGJAoGBAOshYS3NxoMP
K/hHEKCguoUlKNbtE0tl1OVfvZnXJewaeEDE2TLjRFyt4cHkiJavIqttKa6p5CUv
8XNNxw7njq5XoE4ISBJdoNEJA/0G13GW+GnfptiC6Eh3hacP+XSobc9OnlkEnwrT
v/P/3fndqFRn4IWNGeaX6z70O6DmE2lPAgMBAAEwDQYJKoZIhvcNAQEEBQADgYEA
pPusTODemEwYCPAPujud6yQL7Jo3t+BwUsLGNAFkmBmxcxGp1LJZFBq7OH8KG+BB
9EYk4nZ07g3rQHe2my5Z3ziZG2VOYUaIvluxM3s+4SyD1QE8qX1c7eTmuRG2tFgE
wmvYA9ZM9epxeXYTxrxSmiToBBIx+quU6dTnZ1WerH4=
-----END CERTIFICATE-----
