Certificate:
    Data:
        Version: 1 (0x0)
        Serial Number:
            9b:27:d7:e8:d1:ba:0b:50
        Signature Algorithm: md5WithRSAEncryption
        Issuer: C=DE, ST=Saarland, O=MPI-SWS, OU=Distributed Systems Group, CN=Andreas Haeberlen/emailAddress=democa@octarine.de
        Validity
            Not Before: Apr 20 20:47:36 2015 GMT
            Not After : Apr 19 20:47:36 2016 GMT
        Subject: C=DE, ST=Saarland, O=MPI-SWS, OU=Distributed Systems Group, CN=92916181519378e4354b14cdb3128e120b47dc92/emailAddress=node0888@octarine.de
        Subject Public Key Info:
            Public Key Algorithm: rsaEncryption
            RSA Public Key: (1024 bit)
                Modulus (1024 bit):
                    00:d0:73:2e:c4:1f:4a:1b:da:1c:c2:90:2d:df:dc:
                    39:95:6c:ea:54:ba:fe:f8:22:fc:de:ec:69:eb:e7:
                    df:b8:d2:68:73:0f:8e:21:ab:fe:23:99:16:4c:06:
                    1d:4a:88:2e:14:e1:ee:d8:30:60:51:71:c8:42:1d:
                    4a:0d:7a:6a:dd:65:8d:a0:27:4e:a1:6c:b4:5e:6d:
                    8b:18:81:ed:f4:b5:fd:43:c9:3b:15:59:7b:9c:30:
                    da:7b:35:02:37:22:4e:d2:58:9a:ff:69:43:5e:83:
                    ca:18:0f:c7:d2:90:9a:4a:a4:b2:22:e5:d8:e9:33:
                    07:6f:6c:db:98:5c:0d:b1:47
                Exponent: 65537 (0x10001)
    Signature Algorithm: md5WithRSAEncryption
        13:84:7c:b8:40:c0:de:79:d1:7d:b5:83:bf:b3:4b:90:a2:96:
        32:db:22:fe:44:37:55:49:7d:3d:e5:33:29:64:5e:fa:36:43:
        f8:13:f1:3b:40:75:21:5a:9b:4d:4c:a3:40:dc:7f:cf:35:39:
        ee:f1:52:9b:ce:95:6f:c4:5a:06:64:fe:d1:a5:e4:48:fc:25:
        28:9e:40:1a:5f:46:30:dd:09:f1:8c:d0:13:ad:91:72:bd:63:
        6a:f7:c2:1c:08:b3:d5:31:46:fb:74:62:37:47:53:91:8a:67:
        61:bb:29:b4:5b:ae:69:b7:95:83:0b:a8:6f:57:30:1e:32:58:
        02:ca
-----BEGIN CERTIFICATE-----
MIICvDCCAiUCCQCbJ9fo0boLUDANBgkqhkiG9w0BAQQFADCBlTELMAkGA1UEBhMC
REUxETAPBgNVBAgTCFNhYXJsYW5kMRAwDgYDVQQKEwdNUEktU1dTMSIwIAYDVQQL
ExlEaXN0cmlidXRlZCBTeXN0ZW1zIEdyb3VwMRowGAYDVQQDExFBbmRyZWFzIEhh
ZWJlcmxlbjEhMB8GCSqGSIb3DQEJARYSZGVtb2NhQG9jdGFyaW5lLmRlMB4XDTE1
MDQyMDIwNDczNloXDTE2MDQxOTIwNDczNlowga4xCzAJBgNVBAYTAkRFMREwDwYD
VQQIEwhTYWFybGFuZDEQMA4GA1UEChMHTVBJLVNXUzEiMCAGA1UECxMZRGlzdHJp
YnV0ZWQgU3lzdGVtcyBHcm91cDExMC8GA1UEAxMoOTI5MTYxODE1MTkzNzhlNDM1
NGIxNGNkYjMxMjhlMTIwYjQ3ZGM5MjEjMCEGCSqGSIb3DQEJARYUbm9kZTA4ODhA
b2N0YXJpbmUuZGUwgZ8wDQYJKoZIhvcNAQEBBQADgY0AMIGJAoGBANBzLsQfShva
HMKQLd/cOZVs6lS6/vgi/N7saevn37jSaHMPjiGr/iOZFkwGHUqILhTh7tgwYFFx
yEIdSg16at1ljaAnTqFstF5tixiB7fS1/UPJOxVZe5ww2ns1AjciTtJYmv9pQ16D
yhgPx9KQmkqksiLl2OkzB29s25hcDbFHAgMBAAEwDQYJKoZIhvcNAQEEBQADgYEA
E4R8uEDA3nnRfbWDv7NLkKKWMtsi/kQ3VUl9PeUzKWRe+jZD+BPxO0B1IVqbTUyj
QNx/zzU57vFSm86Vb8RaBmT+0aXkSPwlKJ5AGl9GMN0J8YzQE62Rcr1javfCHAiz
1TFG+3RiN0dTkYpnYbsptFuuabeVgwuob1cwHjJYAso=
-----END CERTIFICATE-----
