Certificate:
    Data:
        Version: 1 (0x0)
        Serial Number:
            9b:27:d7:e8:d1:ba:08:61
        Signature Algorithm: md5WithRSAEncryption
        Issuer: C=DE, ST=Saarland, O=MPI-SWS, OU=Distributed Systems Group, CN=Andreas Haeberlen/emailAddress=democa@octarine.de
        Validity
            Not Before: Apr 20 20:47:03 2015 GMT
            Not After : Apr 19 20:47:03 2016 GMT
        Subject: C=DE, ST=Saarland, O=MPI-SWS, OU=Distributed Systems Group, CN=742a6584b8faa8bca34e4dc1e2c58bc0feb54390/emailAddress=node0137@octarine.de
        Subject Public Key Info:
            Public Key Algorithm: rsaEncryption
            RSA Public Key: (1024 bit)
                Modulus (1024 bit):
                    00:bb:7b:3d:fa:4c:0c:56:af:23:30:6a:9c:eb:fe:
                    c2:f4:41:73:2c:91:18:a6:33:9b:45:1b:f3:87:56:
                    62:57:e5:46:96:9b:34:60:f9:00:ac:ab:b1:bf:eb:
                    3b:dd:02:54:7f:be:8e:62:1a:d7:21:27:53:9a:7a:
                    e2:9e:76:fc:cc:36:f0:4a:df:04:ee:fc:7c:28:36:
                    cd:8e:80:82:d2:ae:de:37:d4:97:aa:84:d8:cf:61:
                    8a:3e:c7:50:2a:36:3c:42:1c:e5:8a:77:ca:75:16:
                    0f:94:0a:8c:b1:ea:58:50:7f:5e:17:b9:de:2c:0f:
                    70:65:4b:1a:b8:fc:38:76:95
                Exponent: 65537 (0x10001)
    Signature Algorithm: md5WithRSAEncryption
        c3:a9:73:e2:d8:45:a5:e3:40:78:da:9e:6a:92:41:7a:a4:7f:
        0c:5a:46:dd:fb:ff:01:ac:69:73:fd:ab:64:21:c3:9c:8f:a2:
        3d:bb:ce:2d:05:bd:85:0b:c9:07:56:94:87:a4:e3:db:28:07:
        c6:c8:ed:2c:a5:dd:a1:e3:9e:7b:dd:d3:22:3c:a0:ab:1b:e9:
        e5:a7:d3:83:6c:48:e9:2c:b6:bf:13:66:14:ec:a0:2f:fe:1b:
        d8:7a:68:86:c1:8f:dd:88:38:0c:44:47:f2:9d:70:e6:14:88:
        d6:21:c9:1c:b9:3c:d1:6a:42:b0:89:42:ee:b3:f6:8b:26:1e:
        6a:75
-----BEGIN CERTIFICATE-----
MIICvDCCAiUCCQCbJ9fo0boIYTANBgkqhkiG9w0BAQQFADCBlTELMAkGA1UEBhMC
REUxETAPBgNVBAgTCFNhYXJsYW5kMRAwDgYDVQQKEwdNUEktU1dTMSIwIAYDVQQL
ExlEaXN0cmlidXRlZCBTeXN0ZW1zIEdyb3VwMRowGAYDVQQDExFBbmRyZWFzIEhh
ZWJlcmxlbjEhMB8GCSqGSIb3DQEJARYSZGVtb2NhQG9jdGFyaW5lLmRlMB4XDTE1
MDQyMDIwNDcwM1oXDTE2MDQxOTIwNDcwM1owga4xCzAJBgNVBAYTAkRFMREwDwYD
VQQIEwhTYWFybGFuZDEQMA4GA1UEChMHTVBJLVNXUzEiMCAGA1UECxMZRGlzdHJp
YnV0ZWQgU3lzdGVtcyBHcm91cDExMC8GA1UEAxMoNzQyYTY1ODRiOGZhYThiY2Ez
NGU0ZGMxZTJjNThiYzBmZWI1NDM5MDEjMCEGCSqGSIb3DQEJARYUbm9kZTAxMzdA
b2N0YXJpbmUuZGUwgZ8wDQYJKoZIhvcNAQEBBQADgY0AMIGJAoGBALt7PfpMDFav
IzBqnOv+wvRBcyyRGKYzm0Ub84dWYlflRpabNGD5AKyrsb/rO90CVH++jmIa1yEn
U5p64p52/Mw28ErfBO78fCg2zY6AgtKu3jfUl6qE2M9hij7HUCo2PEIc5Yp3ynUW
D5QKjLHqWFB/Xhe53iwPcGVLGrj8OHaVAgMBAAEwDQYJKoZIhvcNAQEEBQADgYEA
w6lz4thFpeNAeNqeapJBeqR/DFpG3fv/Aaxpc/2rZCHDnI+iPbvOLQW9hQvJB1aU
h6Tj2ygHxsjtLKXdoeOee93TIjygqxvp5afTg2xI6Sy2vxNmFOygL/4b2HpohsGP
3Yg4DERH8p1w5hSI1iHJHLk80WpCsIlC7rP2iyYeanU=
-----END CERTIFICATE-----
