Certificate:
    Data:
        Version: 1 (0x0)
        Serial Number:
            9b:27:d7:e8:d1:ba:0a:f7
        Signature Algorithm: md5WithRSAEncryption
        Issuer: C=DE, ST=Saarland, O=MPI-SWS, OU=Distributed Systems Group, CN=Andreas Haeberlen/emailAddress=democa@octarine.de
        Validity
            Not Before: Apr 20 20:47:32 2015 GMT
            Not After : Apr 19 20:47:32 2016 GMT
        Subject: C=DE, ST=Saarland, O=MPI-SWS, OU=Distributed Systems Group, CN=2209689bd287a7533de34f3c23a109c2cdc355e3/emailAddress=node0799@octarine.de
        Subject Public Key Info:
            Public Key Algorithm: rsaEncryption
            RSA Public Key: (1024 bit)
                Modulus (1024 bit):
                    00:e2:51:2a:a4:20:f2:80:1f:af:6c:40:58:81:76:
                    ea:a4:0f:82:55:47:89:9e:9f:4d:eb:18:46:b5:18:
                    73:e8:80:cf:0c:b1:17:ad:23:46:72:a6:bb:73:17:
                    42:76:9e:9c:d7:6e:4f:65:72:66:33:d5:e7:b4:fc:
                    c5:0a:3b:6e:59:2a:f8:35:2c:d9:ae:25:af:cb:7e:
                    4a:dd:45:03:22:b4:59:dd:1d:95:94:b0:f7:8b:f7:
                    1e:59:fe:f5:a7:2f:02:ff:5f:24:86:5a:9b:95:e5:
                    d9:7a:2c:57:ad:00:e3:db:06:14:7c:7e:d3:23:df:
                    9c:a0:e4:2a:48:b0:67:c6:d3
                Exponent: 65537 (0x10001)
    Signature Algorithm: md5WithRSAEncryption
        0e:9f:ae:4c:c0:31:7d:e9:db:c9:6c:55:61:ef:43:f4:38:b1:
        0d:46:5c:6e:0c:0e:8d:b3:f1:e8:7e:7e:1e:a0:55:5f:d0:0b:
        be:69:67:f2:e0:4b:3d:f5:69:91:84:c0:59:f1:30:91:c4:cf:
        a0:22:ed:5c:53:78:53:a7:e5:97:7c:a4:08:f0:2c:71:ef:0a:
        1f:69:74:ee:54:d7:35:79:c4:14:6c:30:b8:fc:fc:a2:55:d9:
        69:33:af:3b:e0:58:dd:04:a2:79:6e:14:c8:e8:61:6f:62:11:
        3c:7e:ba:1d:45:c3:18:27:9f:9f:f6:33:d2:79:1e:b4:66:11:
        84:e8
-----BEGIN CERTIFICATE-----
MIICvDCCAiUCCQCbJ9fo0boK9zANBgkqhkiG9w0BAQQFADCBlTELMAkGA1UEBhMC
REUxETAPBgNVBAgTCFNhYXJsYW5kMRAwDgYDVQQKEwdNUEktU1dTMSIwIAYDVQQL
ExlEaXN0cmlidXRlZCBTeXN0ZW1zIEdyb3VwMRowGAYDVQQDExFBbmRyZWFzIEhh
ZWJlcmxlbjEhMB8GCSqGSIb3DQEJARYSZGVtb2NhQG9jdGFyaW5lLmRlMB4XDTE1
MDQyMDIwNDczMloXDTE2MDQxOTIwNDczMlowga4xCzAJBgNVBAYTAkRFMREwDwYD
VQQIEwhTYWFybGFuZDEQMA4GA1UEChMHTVBJLVNXUzEiMCAGA1UECxMZRGlzdHJp
YnV0ZWQgU3lzdGVtcyBHcm91cDExMC8GA1UEAxMoMjIwOTY4OWJkMjg3YTc1MzNk
ZTM0ZjNjMjNhMTA5YzJjZGMzNTVlMzEjMCEGCSqGSIb3DQEJARYUbm9kZTA3OTlA
b2N0YXJpbmUuZGUwgZ8wDQYJKoZIhvcNAQEBBQADgY0AMIGJAoGBAOJRKqQg8oAf
r2xAWIF26qQPglVHiZ6fTesYRrUYc+iAzwyxF60jRnKmu3MXQnaenNduT2VyZjPV
57T8xQo7blkq+DUs2a4lr8t+St1FAyK0Wd0dlZSw94v3Hln+9acvAv9fJIZam5Xl
2XosV60A49sGFHx+0yPfnKDkKkiwZ8bTAgMBAAEwDQYJKoZIhvcNAQEEBQADgYEA
Dp+uTMAxfenbyWxVYe9D9DixDUZcbgwOjbPx6H5+HqBVX9ALvmln8uBLPfVpkYTA
WfEwkcTPoCLtXFN4U6fll3ykCPAsce8KH2l07lTXNXnEFGwwuPz8olXZaTOvO+BY
3QSieW4UyOhhb2IRPH66HUXDGCefn/Yz0nketGYRhOg=
-----END CERTIFICATE-----
