Certificate:
    Data:
        Version: 1 (0x0)
        Serial Number:
            9b:27:d7:e8:d1:ba:08:f4
        Signature Algorithm: md5WithRSAEncryption
        Issuer: C=DE, ST=Saarland, O=MPI-SWS, OU=Distributed Systems Group, CN=Andreas Haeberlen/emailAddress=democa@octarine.de
        Validity
            Not Before: Apr 20 20:47:09 2015 GMT
            Not After : Apr 19 20:47:09 2016 GMT
        Subject: C=DE, ST=Saarland, O=MPI-SWS, OU=Distributed Systems Group, CN=440743aec6cc11216a08b88d49c7fdd31eb5164d/emailAddress=node0284@octarine.de
        Subject Public Key Info:
            Public Key Algorithm: rsaEncryption
            RSA Public Key: (1024 bit)
                Modulus (1024 bit):
                    00:cb:f1:50:63:f0:a8:4d:f9:26:ab:dd:55:ca:3e:
                    5c:e8:8d:cd:85:a4:91:b3:6b:c7:b0:8d:02:51:50:
                    53:04:f9:0e:85:79:c1:84:5e:05:b6:87:af:40:57:
                    8c:b5:83:73:27:8c:b1:d7:4f:fe:e7:0d:b1:9b:fa:
                    62:9c:97:df:96:dc:31:21:25:e6:9a:3b:11:d6:1c:
                    a2:4c:b7:c2:50:ff:8b:11:10:af:0a:cc:ba:a4:32:
                    ef:43:d7:15:e1:71:ed:e3:d7:b2:cc:40:01:32:a7:
                    a9:69:99:d8:0f:ec:d1:43:1a:7d:71:dc:1b:f8:0e:
                    bd:f0:b3:7d:9c:c7:46:31:e1
                Exponent: 65537 (0x10001)
    Signature Algorithm: md5WithRSAEncryption
        a6:ce:b6:34:d7:aa:f9:ad:c5:2a:d1:63:78:5e:43:2d:b2:a1:
        82:bb:ea:02:4f:4e:95:2e:e5:26:0f:fc:16:28:43:44:8f:e0:
        76:15:73:4d:fe:20:c8:67:ad:ba:23:ca:ef:ab:98:0b:c6:f2:
        14:39:bb:e8:0b:83:e4:31:96:41:0a:b8:1d:10:93:f1:1c:65:
        07:0c:3f:c2:03:0d:b5:c4:e1:27:41:17:79:09:79:7f:93:2b:
        55:6b:98:63:3d:2b:79:c9:c8:5d:d7:ee:ba:a2:a3:f7:52:f8:
        c6:e9:c4:bc:27:05:88:78:7d:4f:0c:31:10:f3:22:6c:0a:dc:
        8b:40
-----BEGIN CERTIFICATE-----
MIICvDCCAiUCCQCbJ9fo0boI9DANBgkqhkiG9w0BAQQFADCBlTELMAkGA1UEBhMC
REUxETAPBgNVBAgTCFNhYXJsYW5kMRAwDgYDVQQKEwdNUEktU1dTMSIwIAYDVQQL
ExlEaXN0cmlidXRlZCBTeXN0ZW1zIEdyb3VwMRowGAYDVQQDExFBbmRyZWFzIEhh
ZWJlcmxlbjEhMB8GCSqGSIb3DQEJARYSZGVtb2NhQG9jdGFyaW5lLmRlMB4XDTE1
MDQyMDIwNDcwOVoXDTE2MDQxOTIwNDcwOVowga4xCzAJBgNVBAYTAkRFMREwDwYD
VQQIEwhTYWFybGFuZDEQMA4GA1UEChMHTVBJLVNXUzEiMCAGA1UECxMZRGlzdHJp
YnV0ZWQgU3lzdGVtcyBHcm91cDExMC8GA1UEAxMoNDQwNzQzYWVjNmNjMTEyMTZh
MDhiODhkNDljN2ZkZDMxZWI1MTY0ZDEjMCEGCSqGSIb3DQEJARYUbm9kZTAyODRA
b2N0YXJpbmUuZGUwgZ8wDQYJKoZIhvcNAQEBBQADgY0AMIGJAoGBAMvxUGPwqE35
JqvdVco+XOiNzYWkkbNrx7CNAlFQUwT5DoV5wYReBbaHr0BXjLWDcyeMsddP/ucN
sZv6YpyX35bcMSEl5po7EdYcoky3wlD/ixEQrwrMuqQy70PXFeFx7ePXssxAATKn
qWmZ2A/s0UMafXHcG/gOvfCzfZzHRjHhAgMBAAEwDQYJKoZIhvcNAQEEBQADgYEA
ps62NNeq+a3FKtFjeF5DLbKhgrvqAk9OlS7lJg/8FihDRI/gdhVzTf4gyGetuiPK
76uYC8byFDm76AuD5DGWQQq4HRCT8RxlBww/wgMNtcThJ0EXeQl5f5MrVWuYYz0r
ecnIXdfuuqKj91L4xunEvCcFiHh9TwwxEPMibArci0A=
-----END CERTIFICATE-----
