Certificate:
    Data:
        Version: 1 (0x0)
        Serial Number:
            9b:27:d7:e8:d1:ba:09:ec
        Signature Algorithm: md5WithRSAEncryption
        Issuer: C=DE, ST=Saarland, O=MPI-SWS, OU=Distributed Systems Group, CN=Andreas Haeberlen/emailAddress=democa@octarine.de
        Validity
            Not Before: Apr 20 20:47:20 2015 GMT
            Not After : Apr 19 20:47:20 2016 GMT
        Subject: C=DE, ST=Saarland, O=MPI-SWS, OU=Distributed Systems Group, CN=65bfc00172c5b2e24d06717e182f534c80b50b68/emailAddress=node0532@octarine.de
        Subject Public Key Info:
            Public Key Algorithm: rsaEncryption
            RSA Public Key: (1024 bit)
                Modulus (1024 bit):
                    00:b3:00:72:14:bf:9d:46:74:87:22:f9:98:08:ec:
                    65:37:65:f0:1e:77:3b:d7:ff:87:ee:2f:d5:7a:16:
                    3e:e2:bf:cc:1e:f6:dc:66:d3:cb:f9:0b:d3:1c:7d:
                    6e:1c:e3:f1:19:85:b2:7a:35:cb:9f:ce:ad:95:3e:
                    c2:62:05:a5:58:9d:50:43:8b:47:2e:0d:72:61:0b:
                    5b:54:14:50:56:ac:d3:ef:fb:de:5b:b6:33:4d:14:
                    29:2d:89:5b:63:a6:93:90:fd:a7:ba:0b:3b:62:77:
                    3c:3d:db:33:7c:f6:51:c4:4d:f5:f0:51:a0:2c:4b:
                    a4:75:72:cd:3c:63:83:10:8b
                Exponent: 65537 (0x10001)
    Signature Algorithm: md5WithRSAEncryption
        14:37:af:80:c1:d1:69:f7:7e:86:bb:aa:43:a0:a8:f7:c0:a4:
        7f:7a:50:c8:0c:33:01:60:47:b1:ca:69:df:70:05:31:8c:21:
        b0:f7:e9:e3:86:f9:4e:c9:30:a9:a9:c2:33:a3:16:53:67:86:
        6e:69:27:45:37:6a:32:26:7b:2f:5a:8e:a0:44:f7:81:48:4f:
        95:81:69:30:6c:1d:2b:a8:88:44:11:34:96:b2:d6:be:68:aa:
        14:4b:2c:35:c5:df:0f:e3:7e:8f:31:b1:c8:e5:17:a0:87:4d:
        2b:b2:95:41:4e:90:f7:66:ec:2d:3b:f1:d9:34:d1:02:33:a5:
        8f:9b
-----BEGIN CERTIFICATE-----
MIICvDCCAiUCCQCbJ9fo0boJ7DANBgkqhkiG9w0BAQQFADCBlTELMAkGA1UEBhMC
REUxETAPBgNVBAgTCFNhYXJsYW5kMRAwDgYDVQQKEwdNUEktU1dTMSIwIAYDVQQL
ExlEaXN0cmlidXRlZCBTeXN0ZW1zIEdyb3VwMRowGAYDVQQDExFBbmRyZWFzIEhh
ZWJlcmxlbjEhMB8GCSqGSIb3DQEJARYSZGVtb2NhQG9jdGFyaW5lLmRlMB4XDTE1
MDQyMDIwNDcyMFoXDTE2MDQxOTIwNDcyMFowga4xCzAJBgNVBAYTAkRFMREwDwYD
VQQIEwhTYWFybGFuZDEQMA4GA1UEChMHTVBJLVNXUzEiMCAGA1UECxMZRGlzdHJp
YnV0ZWQgU3lzdGVtcyBHcm91cDExMC8GA1UEAxMoNjViZmMwMDE3MmM1YjJlMjRk
MDY3MTdlMTgyZjUzNGM4MGI1MGI2ODEjMCEGCSqGSIb3DQEJARYUbm9kZTA1MzJA
b2N0YXJpbmUuZGUwgZ8wDQYJKoZIhvcNAQEBBQADgY0AMIGJAoGBALMAchS/nUZ0
hyL5mAjsZTdl8B53O9f/h+4v1XoWPuK/zB723GbTy/kL0xx9bhzj8RmFsno1y5/O
rZU+wmIFpVidUEOLRy4NcmELW1QUUFas0+/73lu2M00UKS2JW2Omk5D9p7oLO2J3
PD3bM3z2UcRN9fBRoCxLpHVyzTxjgxCLAgMBAAEwDQYJKoZIhvcNAQEEBQADgYEA
FDevgMHRafd+hruqQ6Co98Ckf3pQyAwzAWBHscpp33AFMYwhsPfp44b5TskwqanC
M6MWU2eGbmknRTdqMiZ7L1qOoET3gUhPlYFpMGwdK6iIRBE0lrLWvmiqFEssNcXf
D+N+jzGxyOUXoIdNK7KVQU6Q92bsLTvx2TTRAjOlj5s=
-----END CERTIFICATE-----
