Certificate:
    Data:
        Version: 1 (0x0)
        Serial Number:
            9b:27:d7:e8:d1:ba:0b:9c
        Signature Algorithm: md5WithRSAEncryption
        Issuer: C=DE, ST=Saarland, O=MPI-SWS, OU=Distributed Systems Group, CN=Andreas Haeberlen/emailAddress=democa@octarine.de
        Validity
            Not Before: Apr 20 20:47:40 2015 GMT
            Not After : Apr 19 20:47:40 2016 GMT
        Subject: C=DE, ST=Saarland, O=MPI-SWS, OU=Distributed Systems Group, CN=79234120efc25442fa4f1a18df6d7e5e882c94c7/emailAddress=node0964@octarine.de
        Subject Public Key Info:
            Public Key Algorithm: rsaEncryption
            RSA Public Key: (1024 bit)
                Modulus (1024 bit):
                    00:c7:01:72:91:23:23:b3:ed:93:17:d9:6c:73:a5:
                    56:28:f5:58:0c:25:5e:26:24:1b:c9:f2:b0:6f:f0:
                    e5:8c:e7:ea:1f:57:e7:80:4f:8c:a3:a1:2a:c7:49:
                    64:d9:55:20:8f:a4:b5:18:a8:58:ba:a3:eb:91:fd:
                    72:52:9f:8c:9f:ee:c3:93:6a:f0:4e:76:f9:e2:47:
                    b3:1e:64:10:65:00:72:ff:2d:1c:e4:5f:db:28:3e:
                    21:18:89:3f:e1:36:56:4b:1a:1b:d5:d6:07:1a:4a:
                    78:15:90:1a:a7:2e:74:23:e3:e1:89:42:88:69:62:
                    71:52:4d:2d:11:33:f5:ec:ad
                Exponent: 65537 (0x10001)
    Signature Algorithm: md5WithRSAEncryption
        11:6d:ec:11:db:30:81:88:7e:56:77:1a:e2:f5:68:b7:d5:86:
        76:3a:cc:d5:d0:55:e4:97:ea:e3:79:8c:e0:62:c9:a7:c2:a2:
        82:9d:a2:0a:e4:47:1a:96:80:4e:16:8c:88:95:98:12:8d:e0:
        21:53:bc:14:61:f7:21:7b:df:2c:66:3b:3d:30:79:de:31:d7:
        c3:8b:b9:7e:10:67:10:5c:39:b0:3f:8f:84:61:bf:37:99:8e:
        af:50:e2:c8:7c:b7:d6:16:8c:60:5b:e5:21:7b:8d:5b:67:05:
        9e:5a:fc:b1:43:29:64:47:34:63:91:a0:fb:ae:a6:4e:1f:f5:
        bb:b4
-----BEGIN CERTIFICATE-----
MIICvDCCAiUCCQCbJ9fo0boLnDANBgkqhkiG9w0BAQQFADCBlTELMAkGA1UEBhMC
REUxETAPBgNVBAgTCFNhYXJsYW5kMRAwDgYDVQQKEwdNUEktU1dTMSIwIAYDVQQL
ExlEaXN0cmlidXRlZCBTeXN0ZW1zIEdyb3VwMRowGAYDVQQDExFBbmRyZWFzIEhh
ZWJlcmxlbjEhMB8GCSqGSIb3DQEJARYSZGVtb2NhQG9jdGFyaW5lLmRlMB4XDTE1
MDQyMDIwNDc0MFoXDTE2MDQxOTIwNDc0MFowga4xCzAJBgNVBAYTAkRFMREwDwYD
VQQIEwhTYWFybGFuZDEQMA4GA1UEChMHTVBJLVNXUzEiMCAGA1UECxMZRGlzdHJp
YnV0ZWQgU3lzdGVtcyBHcm91cDExMC8GA1UEAxMoNzkyMzQxMjBlZmMyNTQ0MmZh
NGYxYTE4ZGY2ZDdlNWU4ODJjOTRjNzEjMCEGCSqGSIb3DQEJARYUbm9kZTA5NjRA
b2N0YXJpbmUuZGUwgZ8wDQYJKoZIhvcNAQEBBQADgY0AMIGJAoGBAMcBcpEjI7Pt
kxfZbHOlVij1WAwlXiYkG8nysG/w5Yzn6h9X54BPjKOhKsdJZNlVII+ktRioWLqj
65H9clKfjJ/uw5Nq8E52+eJHsx5kEGUAcv8tHORf2yg+IRiJP+E2VksaG9XWBxpK
eBWQGqcudCPj4YlCiGlicVJNLREz9eytAgMBAAEwDQYJKoZIhvcNAQEEBQADgYEA
EW3sEdswgYh+Vnca4vVot9WGdjrM1dBV5Jfq43mM4GLJp8Kigp2iCuRHGpaAThaM
iJWYEo3gIVO8FGH3IXvfLGY7PTB53jHXw4u5fhBnEFw5sD+PhGG/N5mOr1DiyHy3
1haMYFvlIXuNW2cFnlr8sUMpZEc0Y5Gg+66mTh/1u7Q=
-----END CERTIFICATE-----
