Certificate:
    Data:
        Version: 1 (0x0)
        Serial Number:
            9b:27:d7:e8:d1:ba:0a:de
        Signature Algorithm: md5WithRSAEncryption
        Issuer: C=DE, ST=Saarland, O=MPI-SWS, OU=Distributed Systems Group, CN=Andreas Haeberlen/emailAddress=democa@octarine.de
        Validity
            Not Before: Apr 20 20:47:31 2015 GMT
            Not After : Apr 19 20:47:31 2016 GMT
        Subject: C=DE, ST=Saarland, O=MPI-SWS, OU=Distributed Systems Group, CN=1ba312f2b372bce2fca4011d857766282cb3eb59/emailAddress=node0774@octarine.de
        Subject Public Key Info:
            Public Key Algorithm: rsaEncryption
            RSA Public Key: (1024 bit)
                Modulus (1024 bit):
                    00:b4:c7:d7:e3:28:56:60:f0:cd:93:b5:1b:d0:39:
                    b5:95:4a:de:d7:40:6f:8b:b5:e5:da:e0:66:b9:a9:
                    32:e8:97:48:9e:64:ad:09:cc:02:96:8f:fe:8a:b5:
                    85:47:b9:77:3b:2b:70:8e:50:e3:65:57:ae:fd:73:
                    64:2d:d6:4c:16:77:7e:62:3f:c4:24:42:50:a9:82:
                    80:ec:a0:9c:10:68:f0:01:95:05:de:4e:81:28:41:
                    fb:ed:71:46:6e:2f:d4:3e:e5:55:e5:28:30:05:29:
                    69:b4:c6:0b:03:d3:6c:c0:65:87:fc:57:52:32:ea:
                    7a:97:a9:ef:53:f7:0d:2f:a9
                Exponent: 65537 (0x10001)
    Signature Algorithm: md5WithRSAEncryption
        04:e4:2a:1e:4e:06:fd:bf:31:f1:63:9d:3b:7f:b2:53:51:5b:
        c4:8c:6f:4d:4b:15:70:69:46:5f:5c:17:2b:6c:7a:7e:73:7d:
        c9:d6:42:f2:27:73:29:a6:ce:47:bd:56:ee:12:e1:76:ef:22:
        42:63:ec:0f:07:dc:2e:75:d4:fb:94:c8:a5:b3:fb:bb:a9:a9:
        3d:44:4b:a1:08:14:cd:15:d6:a4:ce:59:d6:2c:ec:41:18:15:
        22:97:ae:64:4a:31:c5:24:5d:a7:1b:3d:15:68:df:40:b6:a2:
        44:ad:5c:30:56:77:38:48:33:35:37:c5:76:3e:05:9a:bc:21:
        b2:ca
-----BEGIN CERTIFICATE-----
MIICvDCCAiUCCQCbJ9fo0boK3jANBgkqhkiG9w0BAQQFADCBlTELMAkGA1UEBhMC
REUxETAPBgNVBAgTCFNhYXJsYW5kMRAwDgYDVQQKEwdNUEktU1dTMSIwIAYDVQQL
ExlEaXN0cmlidXRlZCBTeXN0ZW1zIEdyb3VwMRowGAYDVQQDExFBbmRyZWFzIEhh
ZWJlcmxlbjEhMB8GCSqGSIb3DQEJARYSZGVtb2NhQG9jdGFyaW5lLmRlMB4XDTE1
MDQyMDIwNDczMVoXDTE2MDQxOTIwNDczMVowga4xCzAJBgNVBAYTAkRFMREwDwYD
VQQIEwhTYWFybGFuZDEQMA4GA1UEChMHTVBJLVNXUzEiMCAGA1UECxMZRGlzdHJp
YnV0ZWQgU3lzdGVtcyBHcm91cDExMC8GA1UEAxMoMWJhMzEyZjJiMzcyYmNlMmZj
YTQwMTFkODU3NzY2MjgyY2IzZWI1OTEjMCEGCSqGSIb3DQEJARYUbm9kZTA3NzRA
b2N0YXJpbmUuZGUwgZ8wDQYJKoZIhvcNAQEBBQADgY0AMIGJAoGBALTH1+MoVmDw
zZO1G9A5tZVK3tdAb4u15drgZrmpMuiXSJ5krQnMApaP/oq1hUe5dzsrcI5Q42VX
rv1zZC3WTBZ3fmI/xCRCUKmCgOygnBBo8AGVBd5OgShB++1xRm4v1D7lVeUoMAUp
abTGCwPTbMBlh/xXUjLqepep71P3DS+pAgMBAAEwDQYJKoZIhvcNAQEEBQADgYEA
BOQqHk4G/b8x8WOdO3+yU1FbxIxvTUsVcGlGX1wXK2x6fnN9ydZC8idzKabOR71W
7hLhdu8iQmPsDwfcLnXU+5TIpbP7u6mpPURLoQgUzRXWpM5Z1izsQRgVIpeuZEox
xSRdpxs9FWjfQLaiRK1cMFZ3OEgzNTfFdj4Fmrwhsso=
-----END CERTIFICATE-----
