Certificate:
    Data:
        Version: 1 (0x0)
        Serial Number:
            9b:27:d7:e8:d1:ba:0b:45
        Signature Algorithm: md5WithRSAEncryption
        Issuer: C=DE, ST=Saarland, O=MPI-SWS, OU=Distributed Systems Group, CN=Andreas Haeberlen/emailAddress=democa@octarine.de
        Validity
            Not Before: Apr 20 20:47:36 2015 GMT
            Not After : Apr 19 20:47:36 2016 GMT
        Subject: C=DE, ST=Saarland, O=MPI-SWS, OU=Distributed Systems Group, CN=0905a5d7a1129e88a019eb98d7511601017b6421/emailAddress=node0877@octarine.de
        Subject Public Key Info:
            Public Key Algorithm: rsaEncryption
            RSA Public Key: (1024 bit)
                Modulus (1024 bit):
                    00:d1:df:5f:5b:f6:74:d8:2c:c9:0b:64:d3:50:67:
                    a3:ac:ef:30:00:b1:07:7d:81:c8:fe:ae:bf:f9:65:
                    7c:c2:6a:d3:17:7a:24:55:c6:82:60:0d:80:c9:5c:
                    68:d8:5c:34:f9:72:0a:7a:1a:0d:3c:77:c4:a7:12:
                    83:b1:b7:d8:f5:6a:0a:0b:b6:d9:ad:b3:6d:7e:07:
                    72:41:59:ed:fc:ff:e5:f7:a5:20:57:a2:4a:bd:71:
                    17:71:e3:56:18:c8:8f:35:13:85:9c:9f:7c:17:a4:
                    52:0b:8b:2b:31:74:7f:5b:9c:45:2e:52:b7:7b:70:
                    0e:a7:b1:4f:4e:a2:1d:33:65
                Exponent: 65537 (0x10001)
    Signature Algorithm: md5WithRSAEncryption
        cd:23:17:b8:4c:78:12:69:05:cf:46:00:90:4c:0e:39:f1:41:
        7d:f4:21:2a:8a:44:61:71:5a:aa:b1:6c:77:f9:bd:b8:b5:66:
        59:d5:87:09:cc:81:72:20:29:bb:5b:18:bf:c4:f4:85:c6:c9:
        12:1b:3e:92:f2:d3:5c:d3:3f:68:72:33:bd:36:27:aa:a2:de:
        18:a5:2d:50:42:95:58:3e:03:b3:a0:ae:a1:e8:2d:5d:1f:d6:
        57:d2:25:8f:7b:c4:d9:cc:32:87:ab:92:28:c5:e1:d2:26:76:
        d3:3c:9c:51:6b:89:73:2b:be:a5:33:90:e9:15:5a:f6:fa:5c:
        85:6b
-----BEGIN CERTIFICATE-----
MIICvDCCAiUCCQCbJ9fo0boLRTANBgkqhkiG9w0BAQQFADCBlTELMAkGA1UEBhMC
REUxETAPBgNVBAgTCFNhYXJsYW5kMRAwDgYDVQQKEwdNUEktU1dTMSIwIAYDVQQL
ExlEaXN0cmlidXRlZCBTeXN0ZW1zIEdyb3VwMRowGAYDVQQDExFBbmRyZWFzIEhh
ZWJlcmxlbjEhMB8GCSqGSIb3DQEJARYSZGVtb2NhQG9jdGFyaW5lLmRlMB4XDTE1
MDQyMDIwNDczNloXDTE2MDQxOTIwNDczNlowga4xCzAJBgNVBAYTAkRFMREwDwYD
VQQIEwhTYWFybGFuZDEQMA4GA1UEChMHTVBJLVNXUzEiMCAGA1UECxMZRGlzdHJp
YnV0ZWQgU3lzdGVtcyBHcm91cDExMC8GA1UEAxMoMDkwNWE1ZDdhMTEyOWU4OGEw
MTllYjk4ZDc1MTE2MDEwMTdiNjQyMTEjMCEGCSqGSIb3DQEJARYUbm9kZTA4NzdA
b2N0YXJpbmUuZGUwgZ8wDQYJKoZIhvcNAQEBBQADgY0AMIGJAoGBANHfX1v2dNgs
yQtk01Bno6zvMACxB32ByP6uv/llfMJq0xd6JFXGgmANgMlcaNhcNPlyCnoaDTx3
xKcSg7G32PVqCgu22a2zbX4HckFZ7fz/5felIFeiSr1xF3HjVhjIjzUThZyffBek
UguLKzF0f1ucRS5St3twDqexT06iHTNlAgMBAAEwDQYJKoZIhvcNAQEEBQADgYEA
zSMXuEx4EmkFz0YAkEwOOfFBffQhKopEYXFaqrFsd/m9uLVmWdWHCcyBciApu1sY
v8T0hcbJEhs+kvLTXNM/aHIzvTYnqqLeGKUtUEKVWD4Ds6CuoegtXR/WV9Ilj3vE
2cwyh6uSKMXh0iZ20zycUWuJcyu+pTOQ6RVa9vpchWs=
-----END CERTIFICATE-----
