Certificate:
    Data:
        Version: 1 (0x0)
        Serial Number:
            9b:27:d7:e8:d1:ba:07:de
        Signature Algorithm: md5WithRSAEncryption
        Issuer: C=DE, ST=Saarland, O=MPI-SWS, OU=Distributed Systems Group, CN=Andreas Haeberlen/emailAddress=democa@octarine.de
        Validity
            Not Before: Apr 20 20:46:57 2015 GMT
            Not After : Apr 19 20:46:57 2016 GMT
        Subject: C=DE, ST=Saarland, O=MPI-SWS, OU=Distributed Systems Group, CN=47e69eee482fc70c1c9f584e02100e8556bf5ae9/emailAddress=node0006@octarine.de
        Subject Public Key Info:
            Public Key Algorithm: rsaEncryption
            RSA Public Key: (1024 bit)
                Modulus (1024 bit):
                    00:a6:6b:cb:54:74:c4:ef:cf:98:59:0e:02:af:68:
                    8c:e8:e8:57:de:9e:a5:1b:0a:7f:e0:ae:2b:f1:d7:
                    02:b0:d0:0b:2d:53:31:4e:b3:2d:f9:f4:da:3d:20:
                    e5:b1:1d:88:29:07:f4:ca:db:e7:0d:c6:23:3f:35:
                    0e:b9:3a:8f:c4:c1:b1:b4:38:ef:37:dc:20:3b:1e:
                    b9:b2:44:17:f2:97:23:20:db:13:f0:1a:f3:22:cc:
                    d6:8f:d3:78:14:dc:84:06:75:b2:1c:d9:da:0d:99:
                    b6:6d:ed:7e:d7:2b:85:bb:d6:a0:1f:af:dd:71:f4:
                    c9:d3:c7:e9:01:3e:ef:04:7f
                Exponent: 65537 (0x10001)
    Signature Algorithm: md5WithRSAEncryption
        78:6b:58:70:bc:42:4e:48:9c:49:03:e0:d0:4d:1f:cc:84:be:
        6a:35:f7:2b:27:77:79:b3:85:82:7e:ea:78:bb:19:be:ef:22:
        22:cb:3c:fc:30:10:96:c5:cd:90:07:cc:1c:88:2e:ca:10:f4:
        e9:3b:e9:09:37:e4:9c:7e:8a:dc:23:73:bb:bb:3e:53:b2:25:
        82:85:46:e3:3b:5e:d3:aa:15:51:9c:37:40:f9:ff:b3:50:5f:
        06:38:c2:27:56:be:92:55:0e:63:51:a7:b5:b8:49:6d:95:15:
        53:d2:c8:93:eb:fb:3d:a4:df:2b:ca:1b:0f:d8:05:7b:1f:30:
        4d:9c
-----BEGIN CERTIFICATE-----
MIICvDCCAiUCCQCbJ9fo0boH3jANBgkqhkiG9w0BAQQFADCBlTELMAkGA1UEBhMC
REUxETAPBgNVBAgTCFNhYXJsYW5kMRAwDgYDVQQKEwdNUEktU1dTMSIwIAYDVQQL
ExlEaXN0cmlidXRlZCBTeXN0ZW1zIEdyb3VwMRowGAYDVQQDExFBbmRyZWFzIEhh
ZWJlcmxlbjEhMB8GCSqGSIb3DQEJARYSZGVtb2NhQG9jdGFyaW5lLmRlMB4XDTE1
MDQyMDIwNDY1N1oXDTE2MDQxOTIwNDY1N1owga4xCzAJBgNVBAYTAkRFMREwDwYD
VQQIEwhTYWFybGFuZDEQMA4GA1UEChMHTVBJLVNXUzEiMCAGA1UECxMZRGlzdHJp
YnV0ZWQgU3lzdGVtcyBHcm91cDExMC8GA1UEAxMoNDdlNjllZWU0ODJmYzcwYzFj
OWY1ODRlMDIxMDBlODU1NmJmNWFlOTEjMCEGCSqGSIb3DQEJARYUbm9kZTAwMDZA
b2N0YXJpbmUuZGUwgZ8wDQYJKoZIhvcNAQEBBQADgY0AMIGJAoGBAKZry1R0xO/P
mFkOAq9ojOjoV96epRsKf+CuK/HXArDQCy1TMU6zLfn02j0g5bEdiCkH9Mrb5w3G
Iz81Drk6j8TBsbQ47zfcIDseubJEF/KXIyDbE/Aa8yLM1o/TeBTchAZ1shzZ2g2Z
tm3tftcrhbvWoB+v3XH0ydPH6QE+7wR/AgMBAAEwDQYJKoZIhvcNAQEEBQADgYEA
eGtYcLxCTkicSQPg0E0fzIS+ajX3Kyd3ebOFgn7qeLsZvu8iIss8/DAQlsXNkAfM
HIguyhD06TvpCTfknH6K3CNzu7s+U7IlgoVG4zte06oVUZw3QPn/s1BfBjjCJ1a+
klUOY1GntbhJbZUVU9LIk+v7PaTfK8obD9gFex8wTZw=
-----END CERTIFICATE-----
