Certificate:
    Data:
        Version: 1 (0x0)
        Serial Number:
            9b:27:d7:e8:d1:ba:09:bc
        Signature Algorithm: md5WithRSAEncryption
        Issuer: C=DE, ST=Saarland, O=MPI-SWS, OU=Distributed Systems Group, CN=Andreas Haeberlen/emailAddress=democa@octarine.de
        Validity
            Not Before: Apr 20 20:47:18 2015 GMT
            Not After : Apr 19 20:47:18 2016 GMT
        Subject: C=DE, ST=Saarland, O=MPI-SWS, OU=Distributed Systems Group, CN=129d98541070f078307e55cb62e026949312b77d/emailAddress=node0484@octarine.de
        Subject Public Key Info:
            Public Key Algorithm: rsaEncryption
            RSA Public Key: (1024 bit)
                Modulus (1024 bit):
                    00:95:b5:66:ff:04:31:87:ae:e9:e6:c0:91:64:4d:
                    23:f8:a2:a2:47:e8:78:19:05:d3:59:c6:88:35:f1:
                    fc:14:bc:76:23:bd:2e:61:7e:53:49:f5:9b:29:75:
                    16:eb:ef:cc:6c:ad:74:53:65:c1:c7:5d:5e:40:94:
                    e4:22:45:d2:b8:d1:f7:24:cb:e6:09:4d:f1:bc:6e:
                    2a:41:8f:15:9f:8a:09:a2:67:37:be:ed:d9:9f:92:
                    60:a1:b7:7f:ee:84:21:c7:ee:2d:0b:61:54:c4:95:
                    f1:51:c4:6c:ac:f8:b6:3c:80:50:94:0a:fb:e1:83:
                    c5:d8:e5:42:b1:f2:77:2f:d9
                Exponent: 65537 (0x10001)
    Signature Algorithm: md5WithRSAEncryption
        60:1a:e7:13:65:a9:8d:75:2f:e0:ec:f7:89:d2:65:eb:03:56:
        cb:cd:e0:fc:b0:ec:7d:35:0a:b7:9d:6c:52:51:58:85:a0:c4:
        25:f4:9f:45:91:99:99:52:78:9e:83:2d:a6:c5:80:32:a2:e0:
        b0:0b:d8:51:d5:1f:29:8c:7f:85:e2:7b:b0:a1:94:00:aa:31:
        d7:96:40:4e:f1:2b:f3:ac:63:d1:b3:86:83:86:2d:df:4e:ab:
        72:5f:6f:c7:e0:5c:81:62:f0:aa:d9:e2:6e:29:e0:58:4d:1a:
        de:78:2e:c6:a2:ec:e9:df:91:a3:f0:7b:6e:2f:6a:80:5d:33:
        c7:73
-----BEGIN CERTIFICATE-----
MIICvDCCAiUCCQCbJ9fo0boJvDANBgkqhkiG9w0BAQQFADCBlTELMAkGA1UEBhMC
REUxETAPBgNVBAgTCFNhYXJsYW5kMRAwDgYDVQQKEwdNUEktU1dTMSIwIAYDVQQL
ExlEaXN0cmlidXRlZCBTeXN0ZW1zIEdyb3VwMRowGAYDVQQDExFBbmRyZWFzIEhh
ZWJlcmxlbjEhMB8GCSqGSIb3DQEJARYSZGVtb2NhQG9jdGFyaW5lLmRlMB4XDTE1
MDQyMDIwNDcxOFoXDTE2MDQxOTIwNDcxOFowga4xCzAJBgNVBAYTAkRFMREwDwYD
VQQIEwhTYWFybGFuZDEQMA4GA1UEChMHTVBJLVNXUzEiMCAGA1UECxMZRGlzdHJp
YnV0ZWQgU3lzdGVtcyBHcm91cDExMC8GA1UEAxMoMTI5ZDk4NTQxMDcwZjA3ODMw
N2U1NWNiNjJlMDI2OTQ5MzEyYjc3ZDEjMCEGCSqGSIb3DQEJARYUbm9kZTA0ODRA
b2N0YXJpbmUuZGUwgZ8wDQYJKoZIhvcNAQEBBQADgY0AMIGJAoGBAJW1Zv8EMYeu
6ebAkWRNI/iiokfoeBkF01nGiDXx/BS8diO9LmF+U0n1myl1FuvvzGytdFNlwcdd
XkCU5CJF0rjR9yTL5glN8bxuKkGPFZ+KCaJnN77t2Z+SYKG3f+6EIcfuLQthVMSV
8VHEbKz4tjyAUJQK++GDxdjlQrHydy/ZAgMBAAEwDQYJKoZIhvcNAQEEBQADgYEA
YBrnE2WpjXUv4Oz3idJl6wNWy83g/LDsfTUKt51sUlFYhaDEJfSfRZGZmVJ4noMt
psWAMqLgsAvYUdUfKYx/heJ7sKGUAKox15ZATvEr86xj0bOGg4Yt306rcl9vx+Bc
gWLwqtnibingWE0a3nguxqLs6d+Ro/B7bi9qgF0zx3M=
-----END CERTIFICATE-----
