Certificate:
    Data:
        Version: 1 (0x0)
        Serial Number:
            9b:27:d7:e8:d1:ba:0b:6f
        Signature Algorithm: md5WithRSAEncryption
        Issuer: C=DE, ST=Saarland, O=MPI-SWS, OU=Distributed Systems Group, CN=Andreas Haeberlen/emailAddress=democa@octarine.de
        Validity
            Not Before: Apr 20 20:47:38 2015 GMT
            Not After : Apr 19 20:47:38 2016 GMT
        Subject: C=DE, ST=Saarland, O=MPI-SWS, OU=Distributed Systems Group, CN=a37d73d469a9b72284d6ab8b82a6370eb7c2b961/emailAddress=node0919@octarine.de
        Subject Public Key Info:
            Public Key Algorithm: rsaEncryption
            RSA Public Key: (1024 bit)
                Modulus (1024 bit):
                    00:b8:9e:6e:7e:66:dc:49:eb:f7:0b:36:cf:d8:bc:
                    14:05:5a:25:85:ae:ff:50:56:68:c2:60:67:ae:4b:
                    ec:73:e4:b6:31:04:f9:f2:7f:3b:fc:91:ba:23:91:
                    30:d4:f7:ad:b8:95:2d:2c:6c:15:7b:b5:e1:60:0b:
                    5e:47:59:df:40:fe:ca:1d:8d:dd:33:a0:3a:84:c5:
                    aa:ca:2d:b5:24:c4:f2:5c:fa:2a:7c:8c:90:4b:01:
                    d4:d9:63:f1:93:ba:69:a5:3b:52:a6:a6:67:04:b4:
                    57:28:0d:d6:af:66:03:aa:9d:24:47:fa:91:b5:36:
                    11:9f:b0:8d:9d:51:ce:86:6f
                Exponent: 65537 (0x10001)
    Signature Algorithm: md5WithRSAEncryption
        6d:2b:3e:27:04:0c:27:2b:c4:2e:65:25:27:c3:ed:d7:dc:3b:
        db:b6:22:96:ca:93:0e:70:58:ee:ec:e3:a8:7e:86:7f:17:0f:
        d0:eb:27:d0:96:58:bb:12:e4:17:bb:14:ef:89:9c:2a:8f:c4:
        bb:f6:ec:20:47:67:41:0a:a7:77:06:6f:73:f2:dd:e1:65:ea:
        c0:34:fb:b0:b7:f0:07:7e:33:27:a0:d3:db:b3:f8:76:a5:c8:
        1d:98:59:28:15:2e:96:90:d0:7b:46:3a:93:32:33:06:39:f7:
        63:9b:d0:14:5e:c8:fa:21:f5:ba:47:e8:f0:12:5c:b5:b4:fa:
        62:f1
-----BEGIN CERTIFICATE-----
MIICvDCCAiUCCQCbJ9fo0boLbzANBgkqhkiG9w0BAQQFADCBlTELMAkGA1UEBhMC
REUxETAPBgNVBAgTCFNhYXJsYW5kMRAwDgYDVQQKEwdNUEktU1dTMSIwIAYDVQQL
ExlEaXN0cmlidXRlZCBTeXN0ZW1zIEdyb3VwMRowGAYDVQQDExFBbmRyZWFzIEhh
ZWJlcmxlbjEhMB8GCSqGSIb3DQEJARYSZGVtb2NhQG9jdGFyaW5lLmRlMB4XDTE1
MDQyMDIwNDczOFoXDTE2MDQxOTIwNDczOFowga4xCzAJBgNVBAYTAkRFMREwDwYD
VQQIEwhTYWFybGFuZDEQMA4GA1UEChMHTVBJLVNXUzEiMCAGA1UECxMZRGlzdHJp
YnV0ZWQgU3lzdGVtcyBHcm91cDExMC8GA1UEAxMoYTM3ZDczZDQ2OWE5YjcyMjg0
ZDZhYjhiODJhNjM3MGViN2MyYjk2MTEjMCEGCSqGSIb3DQEJARYUbm9kZTA5MTlA
b2N0YXJpbmUuZGUwgZ8wDQYJKoZIhvcNAQEBBQADgY0AMIGJAoGBALiebn5m3Enr
9ws2z9i8FAVaJYWu/1BWaMJgZ65L7HPktjEE+fJ/O/yRuiORMNT3rbiVLSxsFXu1
4WALXkdZ30D+yh2N3TOgOoTFqsottSTE8lz6KnyMkEsB1Nlj8ZO6aaU7UqamZwS0
VygN1q9mA6qdJEf6kbU2EZ+wjZ1RzoZvAgMBAAEwDQYJKoZIhvcNAQEEBQADgYEA
bSs+JwQMJyvELmUlJ8Pt19w727YilsqTDnBY7uzjqH6GfxcP0Osn0JZYuxLkF7sU
74mcKo/Eu/bsIEdnQQqndwZvc/Ld4WXqwDT7sLfwB34zJ6DT27P4dqXIHZhZKBUu
lpDQe0Y6kzIzBjn3Y5vQFF7I+iH1ukfo8BJctbT6YvE=
-----END CERTIFICATE-----
