Certificate:
    Data:
        Version: 1 (0x0)
        Serial Number:
            9b:27:d7:e8:d1:ba:07:ea
        Signature Algorithm: md5WithRSAEncryption
        Issuer: C=DE, ST=Saarland, O=MPI-SWS, OU=Distributed Systems Group, CN=Andreas Haeberlen/emailAddress=democa@octarine.de
        Validity
            Not Before: Apr 20 20:46:57 2015 GMT
            Not After : Apr 19 20:46:57 2016 GMT
        Subject: C=DE, ST=Saarland, O=MPI-SWS, OU=Distributed Systems Group, CN=9708ebcb3b08ca5bf248a851b063674ff47d0394/emailAddress=node0018@octarine.de
        Subject Public Key Info:
            Public Key Algorithm: rsaEncryption
            RSA Public Key: (1024 bit)
                Modulus (1024 bit):
                    00:b3:b8:f0:19:83:d5:4e:5f:0f:34:3a:6f:24:3f:
                    b4:c3:98:14:d8:e7:47:44:81:dd:a8:ce:c7:18:cd:
                    8f:33:d8:f8:dd:e6:72:31:07:7c:83:2b:a9:90:9a:
                    0c:6d:94:92:2e:d2:99:5f:30:57:c5:f0:4a:90:f6:
                    7b:89:65:c7:04:b3:0e:ef:23:3b:4e:1e:a2:f2:73:
                    42:ba:3f:81:94:66:b8:b3:90:7f:ea:10:55:70:e3:
                    3c:3b:c5:3a:1f:60:f9:7f:2b:80:e2:7c:d4:d4:2a:
                    86:28:9a:81:19:8b:ce:57:cc:b3:3d:ba:71:db:9b:
                    6a:a4:23:a6:24:e5:88:67:fd
                Exponent: 65537 (0x10001)
    Signature Algorithm: md5WithRSAEncryption
        57:48:7c:6f:6e:aa:7a:fa:be:0c:c6:b7:2b:6e:37:60:6c:b4:
        fe:1e:db:aa:9e:d1:b8:d5:1b:51:ed:0d:38:5a:65:dd:97:5a:
        73:10:06:a5:39:50:38:e1:c0:10:24:e8:48:59:03:89:d5:53:
        35:b5:e5:4a:11:56:72:ef:0e:9b:7e:70:1f:03:2b:41:df:b0:
        2a:fc:d3:d1:1f:5e:bb:0d:df:a4:1f:60:2d:c9:fa:ff:32:6f:
        e9:64:b8:bf:94:71:3c:55:4a:58:87:ef:da:40:3f:28:b7:54:
        be:93:10:a2:20:13:eb:06:9d:71:54:61:a0:30:55:98:71:d8:
        b6:89
-----BEGIN CERTIFICATE-----
MIICvDCCAiUCCQCbJ9fo0boH6jANBgkqhkiG9w0BAQQFADCBlTELMAkGA1UEBhMC
REUxETAPBgNVBAgTCFNhYXJsYW5kMRAwDgYDVQQKEwdNUEktU1dTMSIwIAYDVQQL
ExlEaXN0cmlidXRlZCBTeXN0ZW1zIEdyb3VwMRowGAYDVQQDExFBbmRyZWFzIEhh
ZWJlcmxlbjEhMB8GCSqGSIb3DQEJARYSZGVtb2NhQG9jdGFyaW5lLmRlMB4XDTE1
MDQyMDIwNDY1N1oXDTE2MDQxOTIwNDY1N1owga4xCzAJBgNVBAYTAkRFMREwDwYD
VQQIEwhTYWFybGFuZDEQMA4GA1UEChMHTVBJLVNXUzEiMCAGA1UECxMZRGlzdHJp
YnV0ZWQgU3lzdGVtcyBHcm91cDExMC8GA1UEAxMoOTcwOGViY2IzYjA4Y2E1YmYy
NDhhODUxYjA2MzY3NGZmNDdkMDM5NDEjMCEGCSqGSIb3DQEJARYUbm9kZTAwMThA
b2N0YXJpbmUuZGUwgZ8wDQYJKoZIhvcNAQEBBQADgY0AMIGJAoGBALO48BmD1U5f
DzQ6byQ/tMOYFNjnR0SB3ajOxxjNjzPY+N3mcjEHfIMrqZCaDG2Uki7SmV8wV8Xw
SpD2e4llxwSzDu8jO04eovJzQro/gZRmuLOQf+oQVXDjPDvFOh9g+X8rgOJ81NQq
hiiagRmLzlfMsz26cdubaqQjpiTliGf9AgMBAAEwDQYJKoZIhvcNAQEEBQADgYEA
V0h8b26qevq+DMa3K243YGy0/h7bqp7RuNUbUe0NOFpl3ZdacxAGpTlQOOHAECTo
SFkDidVTNbXlShFWcu8Om35wHwMrQd+wKvzT0R9euw3fpB9gLcn6/zJv6WS4v5Rx
PFVKWIfv2kA/KLdUvpMQoiAT6wadcVRhoDBVmHHYtok=
-----END CERTIFICATE-----
