Certificate:
    Data:
        Version: 1 (0x0)
        Serial Number:
            9b:27:d7:e8:d1:ba:0a:57
        Signature Algorithm: md5WithRSAEncryption
        Issuer: C=DE, ST=Saarland, O=MPI-SWS, OU=Distributed Systems Group, CN=Andreas Haeberlen/emailAddress=democa@octarine.de
        Validity
            Not Before: Apr 20 20:47:25 2015 GMT
            Not After : Apr 19 20:47:25 2016 GMT
        Subject: C=DE, ST=Saarland, O=MPI-SWS, OU=Distributed Systems Group, CN=76101f8eff2cc5975ea8ae03cde0555dc6dd66b5/emailAddress=node0639@octarine.de
        Subject Public Key Info:
            Public Key Algorithm: rsaEncryption
            RSA Public Key: (1024 bit)
                Modulus (1024 bit):
                    00:b9:bd:d1:06:23:06:6f:8b:4d:5c:22:dd:7c:57:
                    07:5a:1a:31:7f:09:47:df:37:1d:e6:68:23:63:0e:
                    b7:e5:b8:29:82:3d:88:b7:fb:9c:17:d5:b8:5f:4f:
                    4e:8d:98:52:ee:a3:29:3a:fc:ee:26:40:80:a7:e9:
                    1a:0a:78:78:57:40:98:de:15:12:92:a5:92:dd:84:
                    29:86:3e:e4:62:2b:ed:ed:29:47:5e:0e:e8:7b:30:
                    82:40:54:7e:9b:e3:7e:3b:b6:cd:eb:08:84:54:82:
                    06:ac:28:bb:a8:e9:39:35:fe:1b:70:14:0a:f4:f7:
                    bb:4a:dc:1a:f1:a6:0e:94:29
                Exponent: 65537 (0x10001)
    Signature Algorithm: md5WithRSAEncryption
        8c:7e:b0:2d:e2:7f:68:ce:ed:7a:db:e1:6c:1b:dd:58:c5:75:
        33:44:dd:da:15:ed:b2:6d:c1:92:19:4d:ef:12:7f:0a:8e:ba:
        a1:ec:1d:a9:ae:b6:60:3b:50:b9:c2:c0:8d:a1:71:91:61:ec:
        24:55:4b:e5:56:79:33:33:29:55:6e:70:45:3e:d4:66:3b:0c:
        04:ef:09:01:a4:2e:1a:fa:96:fa:60:18:96:66:e3:59:af:dc:
        35:aa:cb:62:dc:ee:29:6f:f4:69:90:2f:72:bb:63:c9:b8:fc:
        63:b5:21:ac:57:a3:a8:1a:4a:09:83:fa:b9:f5:dd:a3:b5:6f:
        e6:1d
-----BEGIN CERTIFICATE-----
MIICvDCCAiUCCQCbJ9fo0boKVzANBgkqhkiG9w0BAQQFADCBlTELMAkGA1UEBhMC
REUxETAPBgNVBAgTCFNhYXJsYW5kMRAwDgYDVQQKEwdNUEktU1dTMSIwIAYDVQQL
ExlEaXN0cmlidXRlZCBTeXN0ZW1zIEdyb3VwMRowGAYDVQQDExFBbmRyZWFzIEhh
ZWJlcmxlbjEhMB8GCSqGSIb3DQEJARYSZGVtb2NhQG9jdGFyaW5lLmRlMB4XDTE1
MDQyMDIwNDcyNVoXDTE2MDQxOTIwNDcyNVowga4xCzAJBgNVBAYTAkRFMREwDwYD
VQQIEwhTYWFybGFuZDEQMA4GA1UEChMHTVBJLVNXUzEiMCAGA1UECxMZRGlzdHJp
YnV0ZWQgU3lzdGVtcyBHcm91cDExMC8GA1UEAxMoNzYxMDFmOGVmZjJjYzU5NzVl
YThhZTAzY2RlMDU1NWRjNmRkNjZiNTEjMCEGCSqGSIb3DQEJARYUbm9kZTA2MzlA
b2N0YXJpbmUuZGUwgZ8wDQYJKoZIhvcNAQEBBQADgY0AMIGJAoGBALm90QYjBm+L
TVwi3XxXB1oaMX8JR983HeZoI2MOt+W4KYI9iLf7nBfVuF9PTo2YUu6jKTr87iZA
gKfpGgp4eFdAmN4VEpKlkt2EKYY+5GIr7e0pR14O6HswgkBUfpvjfju2zesIhFSC
Bqwou6jpOTX+G3AUCvT3u0rcGvGmDpQpAgMBAAEwDQYJKoZIhvcNAQEEBQADgYEA
jH6wLeJ/aM7tetvhbBvdWMV1M0Td2hXtsm3BkhlN7xJ/Co66oewdqa62YDtQucLA
jaFxkWHsJFVL5VZ5MzMpVW5wRT7UZjsMBO8JAaQuGvqW+mAYlmbjWa/cNarLYtzu
KW/0aZAvcrtjybj8Y7UhrFejqBpKCYP6ufXdo7Vv5h0=
-----END CERTIFICATE-----
