Certificate:
    Data:
        Version: 1 (0x0)
        Serial Number:
            9b:27:d7:e8:d1:ba:08:25
        Signature Algorithm: md5WithRSAEncryption
        Issuer: C=DE, ST=Saarland, O=MPI-SWS, OU=Distributed Systems Group, CN=Andreas Haeberlen/emailAddress=democa@octarine.de
        Validity
            Not Before: Apr 20 20:47:00 2015 GMT
            Not After : Apr 19 20:47:00 2016 GMT
        Subject: C=DE, ST=Saarland, O=MPI-SWS, OU=Distributed Systems Group, CN=6cd3328555afc5e1544bdf14414d9b0f8d3b0b16/emailAddress=node0077@octarine.de
        Subject Public Key Info:
            Public Key Algorithm: rsaEncryption
            RSA Public Key: (1024 bit)
                Modulus (1024 bit):
                    00:db:57:80:71:6c:a8:3b:87:6c:bf:3b:fe:51:2e:
                    a7:dd:d8:a6:95:3b:8e:a0:94:64:0f:5f:0f:ea:6a:
                    18:56:81:10:2b:71:b0:a3:ad:da:d3:07:07:3f:ab:
                    22:1f:ca:de:a6:16:e8:e9:67:73:c3:d9:66:98:6a:
                    b8:9f:f3:95:27:69:a9:3e:cd:49:67:67:14:8b:90:
                    2e:91:00:f0:04:8e:dd:69:37:3b:ae:a5:fa:21:c3:
                    3a:0b:b7:d1:73:17:fe:e1:e1:bc:c7:87:30:ee:74:
                    89:33:1e:75:b4:ae:96:d7:f3:50:2c:8b:73:32:3b:
                    31:3d:cb:73:8d:a9:a5:21:45
                Exponent: 65537 (0x10001)
    Signature Algorithm: md5WithRSAEncryption
        2a:b0:9d:9c:22:3d:39:f0:62:b3:63:a0:ff:f8:1e:d0:22:8a:
        ec:5b:27:70:e9:34:07:e2:1f:9d:cd:91:46:f6:df:6e:aa:35:
        a5:80:e3:71:22:6b:67:ce:cc:10:ef:96:09:d8:75:24:6c:f7:
        eb:a9:a7:f5:0a:b3:ff:32:a1:6b:e7:f8:06:c9:88:fa:69:86:
        60:c6:29:df:48:bb:54:66:37:41:fa:1a:bc:a9:05:43:ca:48:
        d3:59:ef:7f:ff:86:a5:0d:0f:94:5a:90:fb:45:99:a4:5a:44:
        1e:c7:9e:45:de:85:24:9e:f5:73:46:27:06:08:ea:76:ef:c6:
        4d:12
-----BEGIN CERTIFICATE-----
MIICvDCCAiUCCQCbJ9fo0boIJTANBgkqhkiG9w0BAQQFADCBlTELMAkGA1UEBhMC
REUxETAPBgNVBAgTCFNhYXJsYW5kMRAwDgYDVQQKEwdNUEktU1dTMSIwIAYDVQQL
ExlEaXN0cmlidXRlZCBTeXN0ZW1zIEdyb3VwMRowGAYDVQQDExFBbmRyZWFzIEhh
ZWJlcmxlbjEhMB8GCSqGSIb3DQEJARYSZGVtb2NhQG9jdGFyaW5lLmRlMB4XDTE1
MDQyMDIwNDcwMFoXDTE2MDQxOTIwNDcwMFowga4xCzAJBgNVBAYTAkRFMREwDwYD
VQQIEwhTYWFybGFuZDEQMA4GA1UEChMHTVBJLVNXUzEiMCAGA1UECxMZRGlzdHJp
YnV0ZWQgU3lzdGVtcyBHcm91cDExMC8GA1UEAxMoNmNkMzMyODU1NWFmYzVlMTU0
NGJkZjE0NDE0ZDliMGY4ZDNiMGIxNjEjMCEGCSqGSIb3DQEJARYUbm9kZTAwNzdA
b2N0YXJpbmUuZGUwgZ8wDQYJKoZIhvcNAQEBBQADgY0AMIGJAoGBANtXgHFsqDuH
bL87/lEup93YppU7jqCUZA9fD+pqGFaBECtxsKOt2tMHBz+rIh/K3qYW6Olnc8PZ
ZphquJ/zlSdpqT7NSWdnFIuQLpEA8ASO3Wk3O66l+iHDOgu30XMX/uHhvMeHMO50
iTMedbSultfzUCyLczI7MT3Lc42ppSFFAgMBAAEwDQYJKoZIhvcNAQEEBQADgYEA
KrCdnCI9OfBis2Og//ge0CKK7FsncOk0B+Ifnc2RRvbfbqo1pYDjcSJrZ87MEO+W
Cdh1JGz366mn9Qqz/zKha+f4BsmI+mmGYMYp30i7VGY3QfoavKkFQ8pI01nvf/+G
pQ0PlFqQ+0WZpFpEHseeRd6FJJ71c0YnBgjqdu/GTRI=
-----END CERTIFICATE-----
