Certificate:
    Data:
        Version: 1 (0x0)
        Serial Number:
            9b:27:d7:e8:d1:ba:08:71
        Signature Algorithm: md5WithRSAEncryption
        Issuer: C=DE, ST=Saarland, O=MPI-SWS, OU=Distributed Systems Group, CN=Andreas Haeberlen/emailAddress=democa@octarine.de
        Validity
            Not Before: Apr 20 20:47:03 2015 GMT
            Not After : Apr 19 20:47:03 2016 GMT
        Subject: C=DE, ST=Saarland, O=MPI-SWS, OU=Distributed Systems Group, CN=128f00ffd71ccfa40e6a591f3bcb6dc7056056f2/emailAddress=node0153@octarine.de
        Subject Public Key Info:
            Public Key Algorithm: rsaEncryption
            RSA Public Key: (1024 bit)
                Modulus (1024 bit):
                    00:d2:01:c3:8f:56:09:aa:60:a1:2d:a9:44:00:91:
                    7b:4c:ef:7c:4e:ed:2c:9f:c5:1b:57:bb:1f:66:e6:
                    96:80:1e:54:51:bd:6e:96:d6:fb:6b:20:b5:e0:f4:
                    10:61:68:0b:ef:91:bd:10:f6:e8:f7:25:e2:9f:fe:
                    f8:81:15:4b:b8:03:4b:2f:c1:6e:35:89:87:58:50:
                    29:41:58:f2:23:59:6b:e0:1a:2b:40:4d:d4:af:e6:
                    82:21:7e:69:d8:31:aa:9d:82:7e:03:48:14:6f:a7:
                    e0:ff:c1:f4:3a:aa:b5:b0:29:e6:78:f5:0b:27:37:
                    35:0d:c6:4d:16:f6:82:eb:b9
                Exponent: 65537 (0x10001)
    Signature Algorithm: md5WithRSAEncryption
        a5:18:0d:bd:25:63:c9:56:83:d1:d6:e9:72:fe:81:b6:85:51:
        85:cc:01:cd:50:c2:23:5c:67:02:61:28:b6:c5:03:fe:f2:7b:
        08:8e:f8:cb:78:d9:c9:77:3b:a3:a3:ce:68:7d:15:1c:bc:8a:
        57:11:fb:7e:e3:8e:85:94:ee:84:ae:37:0b:ea:53:fc:99:a1:
        2c:4b:c0:3e:7e:41:e1:9a:20:83:96:0e:a1:20:41:43:31:da:
        95:7b:d0:62:9a:c9:d1:eb:d2:c3:e8:1e:24:71:5e:b0:2a:48:
        ce:50:b7:a6:30:38:bc:48:79:e9:f9:1d:11:be:f9:e6:cf:20:
        06:fd
-----BEGIN CERTIFICATE-----
MIICvDCCAiUCCQCbJ9fo0boIcTANBgkqhkiG9w0BAQQFADCBlTELMAkGA1UEBhMC
REUxETAPBgNVBAgTCFNhYXJsYW5kMRAwDgYDVQQKEwdNUEktU1dTMSIwIAYDVQQL
ExlEaXN0cmlidXRlZCBTeXN0ZW1zIEdyb3VwMRowGAYDVQQDExFBbmRyZWFzIEhh
ZWJlcmxlbjEhMB8GCSqGSIb3DQEJARYSZGVtb2NhQG9jdGFyaW5lLmRlMB4XDTE1
MDQyMDIwNDcwM1oXDTE2MDQxOTIwNDcwM1owga4xCzAJBgNVBAYTAkRFMREwDwYD
VQQIEwhTYWFybGFuZDEQMA4GA1UEChMHTVBJLVNXUzEiMCAGA1UECxMZRGlzdHJp
YnV0ZWQgU3lzdGVtcyBHcm91cDExMC8GA1UEAxMoMTI4ZjAwZmZkNzFjY2ZhNDBl
NmE1OTFmM2JjYjZkYzcwNTYwNTZmMjEjMCEGCSqGSIb3DQEJARYUbm9kZTAxNTNA
b2N0YXJpbmUuZGUwgZ8wDQYJKoZIhvcNAQEBBQADgY0AMIGJAoGBANIBw49WCapg
oS2pRACRe0zvfE7tLJ/FG1e7H2bmloAeVFG9bpbW+2sgteD0EGFoC++RvRD26Pcl
4p/++IEVS7gDSy/BbjWJh1hQKUFY8iNZa+AaK0BN1K/mgiF+adgxqp2CfgNIFG+n
4P/B9DqqtbAp5nj1Cyc3NQ3GTRb2guu5AgMBAAEwDQYJKoZIhvcNAQEEBQADgYEA
pRgNvSVjyVaD0dbpcv6BtoVRhcwBzVDCI1xnAmEotsUD/vJ7CI74y3jZyXc7o6PO
aH0VHLyKVxH7fuOOhZTuhK43C+pT/JmhLEvAPn5B4Zogg5YOoSBBQzHalXvQYprJ
0evSw+geJHFesCpIzlC3pjA4vEh56fkdEb755s8gBv0=
-----END CERTIFICATE-----
