Certificate:
    Data:
        Version: 1 (0x0)
        Serial Number:
            9b:27:d7:e8:d1:ba:09:41
        Signature Algorithm: md5WithRSAEncryption
        Issuer: C=DE, ST=Saarland, O=MPI-SWS, OU=Distributed Systems Group, CN=Andreas Haeberlen/emailAddress=democa@octarine.de
        Validity
            Not Before: Apr 20 20:47:12 2015 GMT
            Not After : Apr 19 20:47:12 2016 GMT
        Subject: C=DE, ST=Saarland, O=MPI-SWS, OU=Distributed Systems Group, CN=ec92a86845708988f7fd197dca3ae6ad33fdc560/emailAddress=node0361@octarine.de
        Subject Public Key Info:
            Public Key Algorithm: rsaEncryption
            RSA Public Key: (1024 bit)
                Modulus (1024 bit):
                    00:94:5a:ed:30:96:2a:9b:d1:95:f6:cf:8a:23:84:
                    80:2d:5c:8f:be:f3:6b:39:bd:bc:5b:48:de:22:e5:
                    61:f0:26:f6:1d:29:83:02:95:bd:76:b3:b5:1e:07:
                    3a:23:63:b8:85:07:d1:d1:57:df:4e:65:95:5d:4e:
                    8a:ae:cb:76:4a:1c:23:5a:65:c3:e8:97:37:ac:15:
                    e1:44:2f:f2:04:46:fd:08:ce:9b:c4:c6:e9:ab:5e:
                    8f:74:59:81:fa:85:2e:8b:30:1f:2a:ea:c2:cd:7a:
                    4b:79:3f:21:f3:e9:4b:c3:76:a4:99:f3:64:bf:a5:
                    f9:f8:ea:39:25:56:38:03:ed
                Exponent: 65537 (0x10001)
    Signature Algorithm: md5WithRSAEncryption
        cc:07:eb:ff:25:5d:e9:fd:8f:15:b3:50:79:08:81:e2:12:92:
        d4:78:59:f6:61:7f:df:fe:88:db:a6:27:fd:a8:93:b7:0e:0b:
        dc:25:1b:d8:62:49:2c:8e:f5:b9:5a:b8:66:b4:3a:e6:ac:cb:
        79:8a:60:70:db:bf:52:c4:08:eb:76:9d:9b:89:58:94:5a:31:
        d8:08:b0:df:1b:9c:23:49:98:40:ad:32:cc:bb:c2:5e:68:ae:
        dc:85:7f:6c:b0:d1:2d:e2:38:a9:7c:b7:04:ed:8b:2e:77:7a:
        e9:83:41:dd:0a:1e:d4:14:89:34:46:3d:45:5a:4c:93:8f:06:
        99:39
-----BEGIN CERTIFICATE-----
MIICvDCCAiUCCQCbJ9fo0boJQTANBgkqhkiG9w0BAQQFADCBlTELMAkGA1UEBhMC
REUxETAPBgNVBAgTCFNhYXJsYW5kMRAwDgYDVQQKEwdNUEktU1dTMSIwIAYDVQQL
ExlEaXN0cmlidXRlZCBTeXN0ZW1zIEdyb3VwMRowGAYDVQQDExFBbmRyZWFzIEhh
ZWJlcmxlbjEhMB8GCSqGSIb3DQEJARYSZGVtb2NhQG9jdGFyaW5lLmRlMB4XDTE1
MDQyMDIwNDcxMloXDTE2MDQxOTIwNDcxMlowga4xCzAJBgNVBAYTAkRFMREwDwYD
VQQIEwhTYWFybGFuZDEQMA4GA1UEChMHTVBJLVNXUzEiMCAGA1UECxMZRGlzdHJp
YnV0ZWQgU3lzdGVtcyBHcm91cDExMC8GA1UEAxMoZWM5MmE4Njg0NTcwODk4OGY3
ZmQxOTdkY2EzYWU2YWQzM2ZkYzU2MDEjMCEGCSqGSIb3DQEJARYUbm9kZTAzNjFA
b2N0YXJpbmUuZGUwgZ8wDQYJKoZIhvcNAQEBBQADgY0AMIGJAoGBAJRa7TCWKpvR
lfbPiiOEgC1cj77zazm9vFtI3iLlYfAm9h0pgwKVvXaztR4HOiNjuIUH0dFX305l
lV1Oiq7LdkocI1plw+iXN6wV4UQv8gRG/QjOm8TG6atej3RZgfqFLoswHyrqws16
S3k/IfPpS8N2pJnzZL+l+fjqOSVWOAPtAgMBAAEwDQYJKoZIhvcNAQEEBQADgYEA
zAfr/yVd6f2PFbNQeQiB4hKS1HhZ9mF/3/6I26Yn/aiTtw4L3CUb2GJJLI71uVq4
ZrQ65qzLeYpgcNu/UsQI63adm4lYlFox2Aiw3xucI0mYQK0yzLvCXmiu3IV/bLDR
LeI4qXy3BO2LLnd66YNB3Qoe1BSJNEY9RVpMk48GmTk=
-----END CERTIFICATE-----
