Certificate:
    Data:
        Version: 1 (0x0)
        Serial Number:
            9b:27:d7:e8:d1:ba:0b:0f
        Signature Algorithm: md5WithRSAEncryption
        Issuer: C=DE, ST=Saarland, O=MPI-SWS, OU=Distributed Systems Group, CN=Andreas Haeberlen/emailAddress=democa@octarine.de
        Validity
            Not Before: Apr 20 20:47:33 2015 GMT
            Not After : Apr 19 20:47:33 2016 GMT
        Subject: C=DE, ST=Saarland, O=MPI-SWS, OU=Distributed Systems Group, CN=ef356851cb8469d8f9ef1c57ac6d8b17a4c0d22a/emailAddress=node0823@octarine.de
        Subject Public Key Info:
            Public Key Algorithm: rsaEncryption
            RSA Public Key: (1024 bit)
                Modulus (1024 bit):
                    00:ea:7b:79:c4:16:8c:f8:48:6d:4c:b0:42:68:66:
                    52:aa:75:b3:21:7b:cd:ff:c3:c2:fb:c9:ad:ec:cc:
                    0a:e3:8e:99:5c:1f:a6:ed:3c:26:17:4e:92:a7:f8:
                    7b:15:22:40:df:38:5b:d1:4e:c9:18:6d:01:41:31:
                    9e:d5:b6:f1:58:09:04:88:35:10:f5:f1:4a:ca:50:
                    83:72:a5:a3:99:81:a8:cf:69:b5:a0:3f:a5:bb:f1:
                    13:f4:47:ff:2f:cd:13:3f:ed:cf:28:eb:26:e1:c8:
                    3c:b1:75:b6:d5:d0:7b:0b:3d:f3:17:71:87:84:92:
                    6d:f4:17:b8:87:85:8b:eb:db
                Exponent: 65537 (0x10001)
    Signature Algorithm: md5WithRSAEncryption
        5f:64:2e:72:56:8e:50:4d:51:5c:2f:5f:e4:c2:a2:a5:f4:cf:
        b8:79:82:06:70:fa:36:93:6b:01:15:00:da:8c:37:ae:57:ff:
        e1:bf:73:07:90:33:6c:d0:74:21:0a:66:2e:51:dc:43:a9:b0:
        c6:08:35:4a:c3:34:b4:5c:69:72:ce:e4:ce:b6:43:2b:17:29:
        c4:57:89:bb:02:50:dd:02:ee:20:26:b0:4f:fa:34:1d:a2:12:
        c8:44:ac:f6:f9:ec:3c:f8:a3:22:c0:8c:b5:78:db:d4:a7:45:
        ee:7a:d5:f1:54:ca:b1:83:a5:b1:fc:f8:b4:40:ab:9a:f3:e2:
        99:93
-----BEGIN CERTIFICATE-----
MIICvDCCAiUCCQCbJ9fo0boLDzANBgkqhkiG9w0BAQQFADCBlTELMAkGA1UEBhMC
REUxETAPBgNVBAgTCFNhYXJsYW5kMRAwDgYDVQQKEwdNUEktU1dTMSIwIAYDVQQL
ExlEaXN0cmlidXRlZCBTeXN0ZW1zIEdyb3VwMRowGAYDVQQDExFBbmRyZWFzIEhh
ZWJlcmxlbjEhMB8GCSqGSIb3DQEJARYSZGVtb2NhQG9jdGFyaW5lLmRlMB4XDTE1
MDQyMDIwNDczM1oXDTE2MDQxOTIwNDczM1owga4xCzAJBgNVBAYTAkRFMREwDwYD
VQQIEwhTYWFybGFuZDEQMA4GA1UEChMHTVBJLVNXUzEiMCAGA1UECxMZRGlzdHJp
YnV0ZWQgU3lzdGVtcyBHcm91cDExMC8GA1UEAxMoZWYzNTY4NTFjYjg0NjlkOGY5
ZWYxYzU3YWM2ZDhiMTdhNGMwZDIyYTEjMCEGCSqGSIb3DQEJARYUbm9kZTA4MjNA
b2N0YXJpbmUuZGUwgZ8wDQYJKoZIhvcNAQEBBQADgY0AMIGJAoGBAOp7ecQWjPhI
bUywQmhmUqp1syF7zf/DwvvJrezMCuOOmVwfpu08JhdOkqf4exUiQN84W9FOyRht
AUExntW28VgJBIg1EPXxSspQg3Klo5mBqM9ptaA/pbvxE/RH/y/NEz/tzyjrJuHI
PLF1ttXQews98xdxh4SSbfQXuIeFi+vbAgMBAAEwDQYJKoZIhvcNAQEEBQADgYEA
X2QuclaOUE1RXC9f5MKipfTPuHmCBnD6NpNrARUA2ow3rlf/4b9zB5AzbNB0IQpm
LlHcQ6mwxgg1SsM0tFxpcs7kzrZDKxcpxFeJuwJQ3QLuICawT/o0HaISyESs9vns
PPijIsCMtXjb1KdF7nrV8VTKsYOlsfz4tECrmvPimZM=
-----END CERTIFICATE-----
