Certificate:
    Data:
        Version: 1 (0x0)
        Serial Number:
            9b:27:d7:e8:d1:ba:0a:db
        Signature Algorithm: md5WithRSAEncryption
        Issuer: C=DE, ST=Saarland, O=MPI-SWS, OU=Distributed Systems Group, CN=Andreas Haeberlen/emailAddress=democa@octarine.de
        Validity
            Not Before: Apr 20 20:47:31 2015 GMT
            Not After : Apr 19 20:47:31 2016 GMT
        Subject: C=DE, ST=Saarland, O=MPI-SWS, OU=Distributed Systems Group, CN=00f2516402ad13769d0d0b083490f2b03b28c9dd/emailAddress=node0771@octarine.de
        Subject Public Key Info:
            Public Key Algorithm: rsaEncryption
            RSA Public Key: (1024 bit)
                Modulus (1024 bit):
                    00:cf:b8:26:82:13:b1:bc:9b:73:14:e0:96:d7:f8:
                    e1:d0:3f:3b:50:d6:df:41:65:c1:70:4a:d2:e4:be:
                    ba:d4:ac:c6:6d:95:9a:08:c0:81:66:2a:34:93:35:
                    30:7a:6e:4b:5a:ab:1e:12:50:05:0c:3c:8e:10:58:
                    2b:6a:dd:56:ab:6d:f5:82:9e:45:65:30:9b:10:d7:
                    9f:54:37:00:b2:9f:eb:8e:10:9f:8b:f3:05:4b:7b:
                    57:42:ca:f2:35:10:6e:e2:58:82:48:eb:de:4b:26:
                    81:14:7d:77:90:c5:b1:9a:2a:96:fd:a7:8d:06:df:
                    19:8a:a0:b6:5f:dd:ee:40:27
                Exponent: 65537 (0x10001)
    Signature Algorithm: md5WithRSAEncryption
        3a:33:e1:0f:2a:a2:bd:d0:f5:34:1c:93:25:b1:2f:a1:93:42:
        62:a1:92:af:81:3e:e5:d6:df:8e:97:e9:66:71:9a:68:c2:6c:
        1b:2a:a7:0f:43:0b:a9:be:90:ab:a8:24:a8:8b:92:5d:8c:2b:
        d8:93:db:c8:59:00:d5:4f:1f:e2:5e:b9:f2:d1:5f:4f:2f:ac:
        da:25:a8:37:d6:95:db:c2:8c:62:72:c3:cc:f5:e2:c7:bb:86:
        2a:18:26:c4:5c:60:e6:60:0c:04:7e:e9:a2:13:97:59:ac:1f:
        53:81:6c:75:0b:88:d4:04:0f:3d:c4:2e:c2:7e:ff:f3:44:d2:
        7a:8c
-----BEGIN CERTIFICATE-----
MIICvDCCAiUCCQCbJ9fo0boK2zANBgkqhkiG9w0BAQQFADCBlTELMAkGA1UEBhMC
REUxETAPBgNVBAgTCFNhYXJsYW5kMRAwDgYDVQQKEwdNUEktU1dTMSIwIAYDVQQL
ExlEaXN0cmlidXRlZCBTeXN0ZW1zIEdyb3VwMRowGAYDVQQDExFBbmRyZWFzIEhh
ZWJlcmxlbjEhMB8GCSqGSIb3DQEJARYSZGVtb2NhQG9jdGFyaW5lLmRlMB4XDTE1
MDQyMDIwNDczMVoXDTE2MDQxOTIwNDczMVowga4xCzAJBgNVBAYTAkRFMREwDwYD
VQQIEwhTYWFybGFuZDEQMA4GA1UEChMHTVBJLVNXUzEiMCAGA1UECxMZRGlzdHJp
YnV0ZWQgU3lzdGVtcyBHcm91cDExMC8GA1UEAxMoMDBmMjUxNjQwMmFkMTM3Njlk
MGQwYjA4MzQ5MGYyYjAzYjI4YzlkZDEjMCEGCSqGSIb3DQEJARYUbm9kZTA3NzFA
b2N0YXJpbmUuZGUwgZ8wDQYJKoZIhvcNAQEBBQADgY0AMIGJAoGBAM+4JoITsbyb
cxTgltf44dA/O1DW30FlwXBK0uS+utSsxm2VmgjAgWYqNJM1MHpuS1qrHhJQBQw8
jhBYK2rdVqtt9YKeRWUwmxDXn1Q3ALKf644Qn4vzBUt7V0LK8jUQbuJYgkjr3ksm
gRR9d5DFsZoqlv2njQbfGYqgtl/d7kAnAgMBAAEwDQYJKoZIhvcNAQEEBQADgYEA
OjPhDyqivdD1NByTJbEvoZNCYqGSr4E+5dbfjpfpZnGaaMJsGyqnD0MLqb6Qq6gk
qIuSXYwr2JPbyFkA1U8f4l658tFfTy+s2iWoN9aV28KMYnLDzPXix7uGKhgmxFxg
5mAMBH7pohOXWawfU4FsdQuI1AQPPcQuwn7/80TSeow=
-----END CERTIFICATE-----
