Certificate:
    Data:
        Version: 1 (0x0)
        Serial Number:
            9b:27:d7:e8:d1:ba:0b:03
        Signature Algorithm: md5WithRSAEncryption
        Issuer: C=DE, ST=Saarland, O=MPI-SWS, OU=Distributed Systems Group, CN=Andreas Haeberlen/emailAddress=democa@octarine.de
        Validity
            Not Before: Apr 20 20:47:33 2015 GMT
            Not After : Apr 19 20:47:33 2016 GMT
        Subject: C=DE, ST=Saarland, O=MPI-SWS, OU=Distributed Systems Group, CN=c69c15b0c321dd45a056a63ba72910ed6797d57a/emailAddress=node0811@octarine.de
        Subject Public Key Info:
            Public Key Algorithm: rsaEncryption
            RSA Public Key: (1024 bit)
                Modulus (1024 bit):
                    00:a8:8d:44:62:c8:c8:02:60:d7:05:35:7b:78:44:
                    80:86:9d:dc:e9:8d:88:88:a8:69:3d:2f:ee:ab:38:
                    91:23:d8:b1:f6:a5:88:01:d0:33:50:c9:55:44:20:
                    f9:dc:1c:2f:1a:83:47:f1:07:e8:ff:08:7e:2c:7f:
                    fd:e6:ff:f7:fa:1a:c7:68:01:8e:b8:fc:1a:c2:5d:
                    ea:68:94:da:dc:de:c7:b8:a1:b7:e9:62:c7:4e:8f:
                    fc:40:62:78:c0:23:94:94:46:91:0f:fc:df:1d:b9:
                    c5:a6:53:c2:5d:75:d5:b8:f5:17:c4:9f:07:c1:c9:
                    9d:c8:31:20:85:2d:c1:73:11
                Exponent: 65537 (0x10001)
    Signature Algorithm: md5WithRSAEncryption
        45:8f:fa:20:93:db:b8:36:8e:94:ee:69:69:17:00:11:f8:7e:
        46:67:8f:73:59:04:93:41:35:fd:dc:e5:81:57:2e:bd:ea:15:
        40:c2:b4:45:56:35:1c:a2:fb:5c:b0:e9:af:d6:52:62:ad:0e:
        24:91:77:8f:0e:48:fa:6d:90:b9:82:82:de:a9:9e:cf:dc:b4:
        b0:49:2c:17:f6:11:d4:47:a6:88:a3:cd:97:4a:6d:af:a5:bf:
        11:51:35:2d:44:d0:ed:d4:5c:6a:0b:8a:87:ce:2b:39:be:27:
        95:77:58:8e:c8:eb:d3:45:16:6e:6b:3e:48:f8:01:e4:2b:80:
        2f:0e
-----BEGIN CERTIFICATE-----
MIICvDCCAiUCCQCbJ9fo0boLAzANBgkqhkiG9w0BAQQFADCBlTELMAkGA1UEBhMC
REUxETAPBgNVBAgTCFNhYXJsYW5kMRAwDgYDVQQKEwdNUEktU1dTMSIwIAYDVQQL
ExlEaXN0cmlidXRlZCBTeXN0ZW1zIEdyb3VwMRowGAYDVQQDExFBbmRyZWFzIEhh
ZWJlcmxlbjEhMB8GCSqGSIb3DQEJARYSZGVtb2NhQG9jdGFyaW5lLmRlMB4XDTE1
MDQyMDIwNDczM1oXDTE2MDQxOTIwNDczM1owga4xCzAJBgNVBAYTAkRFMREwDwYD
VQQIEwhTYWFybGFuZDEQMA4GA1UEChMHTVBJLVNXUzEiMCAGA1UECxMZRGlzdHJp
YnV0ZWQgU3lzdGVtcyBHcm91cDExMC8GA1UEAxMoYzY5YzE1YjBjMzIxZGQ0NWEw
NTZhNjNiYTcyOTEwZWQ2Nzk3ZDU3YTEjMCEGCSqGSIb3DQEJARYUbm9kZTA4MTFA
b2N0YXJpbmUuZGUwgZ8wDQYJKoZIhvcNAQEBBQADgY0AMIGJAoGBAKiNRGLIyAJg
1wU1e3hEgIad3OmNiIioaT0v7qs4kSPYsfaliAHQM1DJVUQg+dwcLxqDR/EH6P8I
fix//eb/9/oax2gBjrj8GsJd6miU2tzex7iht+lix06P/EBieMAjlJRGkQ/83x25
xaZTwl111bj1F8SfB8HJncgxIIUtwXMRAgMBAAEwDQYJKoZIhvcNAQEEBQADgYEA
RY/6IJPbuDaOlO5paRcAEfh+RmePc1kEk0E1/dzlgVcuveoVQMK0RVY1HKL7XLDp
r9ZSYq0OJJF3jw5I+m2QuYKC3qmez9y0sEksF/YR1EemiKPNl0ptr6W/EVE1LUTQ
7dRcaguKh84rOb4nlXdYjsjr00UWbms+SPgB5CuALw4=
-----END CERTIFICATE-----
