Certificate:
    Data:
        Version: 1 (0x0)
        Serial Number:
            9b:27:d7:e8:d1:ba:0b:1c
        Signature Algorithm: md5WithRSAEncryption
        Issuer: C=DE, ST=Saarland, O=MPI-SWS, OU=Distributed Systems Group, CN=Andreas Haeberlen/emailAddress=democa@octarine.de
        Validity
            Not Before: Apr 20 20:47:34 2015 GMT
            Not After : Apr 19 20:47:34 2016 GMT
        Subject: C=DE, ST=Saarland, O=MPI-SWS, OU=Distributed Systems Group, CN=137ad2b157e49a300403b361893becaff2ad46fa/emailAddress=node0836@octarine.de
        Subject Public Key Info:
            Public Key Algorithm: rsaEncryption
            RSA Public Key: (1024 bit)
                Modulus (1024 bit):
                    00:d7:06:bf:8f:11:68:d8:d4:7f:6c:e8:59:63:1e:
                    65:ba:1f:e9:bf:24:47:a6:55:5f:3d:a4:14:06:ad:
                    24:dd:32:04:d8:81:0a:5b:97:c8:de:75:41:c6:8c:
                    ce:e9:85:24:8e:9e:73:fd:1d:a1:11:ca:77:62:82:
                    b8:d9:26:e9:47:34:e5:59:ad:fb:ca:c6:1c:a6:5a:
                    06:1b:87:1a:52:c1:8b:eb:09:58:7a:2c:ae:bd:06:
                    f5:2f:77:bf:d5:1a:e0:42:97:8a:88:cc:a7:2d:66:
                    4e:75:eb:ee:ed:e8:17:db:54:3f:fb:a6:ea:1b:a6:
                    c8:e7:d8:36:38:a7:05:b6:35
                Exponent: 65537 (0x10001)
    Signature Algorithm: md5WithRSAEncryption
        2c:c7:5e:4b:0c:c4:b1:70:f0:d6:c5:10:6f:79:eb:98:7a:e6:
        f0:37:9b:db:fb:a6:5d:af:36:44:53:24:71:44:ac:41:56:29:
        f6:83:7c:93:df:26:b8:59:e7:f4:49:8a:97:ad:1e:27:2f:c2:
        e7:4d:81:65:07:59:5b:68:14:7a:d5:1d:5c:92:15:94:0e:dd:
        a0:b2:ca:4d:f1:1b:58:f0:bd:67:b9:c8:dd:05:2e:0e:ee:cb:
        7e:5f:7f:b9:93:9b:96:63:15:a7:85:e6:81:02:b9:81:27:b7:
        5c:ec:a8:c1:7f:ab:58:fd:c4:5f:28:e2:2c:56:3d:a6:ea:64:
        66:13
-----BEGIN CERTIFICATE-----
MIICvDCCAiUCCQCbJ9fo0boLHDANBgkqhkiG9w0BAQQFADCBlTELMAkGA1UEBhMC
REUxETAPBgNVBAgTCFNhYXJsYW5kMRAwDgYDVQQKEwdNUEktU1dTMSIwIAYDVQQL
ExlEaXN0cmlidXRlZCBTeXN0ZW1zIEdyb3VwMRowGAYDVQQDExFBbmRyZWFzIEhh
ZWJlcmxlbjEhMB8GCSqGSIb3DQEJARYSZGVtb2NhQG9jdGFyaW5lLmRlMB4XDTE1
MDQyMDIwNDczNFoXDTE2MDQxOTIwNDczNFowga4xCzAJBgNVBAYTAkRFMREwDwYD
VQQIEwhTYWFybGFuZDEQMA4GA1UEChMHTVBJLVNXUzEiMCAGA1UECxMZRGlzdHJp
YnV0ZWQgU3lzdGVtcyBHcm91cDExMC8GA1UEAxMoMTM3YWQyYjE1N2U0OWEzMDA0
MDNiMzYxODkzYmVjYWZmMmFkNDZmYTEjMCEGCSqGSIb3DQEJARYUbm9kZTA4MzZA
b2N0YXJpbmUuZGUwgZ8wDQYJKoZIhvcNAQEBBQADgY0AMIGJAoGBANcGv48RaNjU
f2zoWWMeZbof6b8kR6ZVXz2kFAatJN0yBNiBCluXyN51QcaMzumFJI6ec/0doRHK
d2KCuNkm6Uc05Vmt+8rGHKZaBhuHGlLBi+sJWHosrr0G9S93v9Ua4EKXiojMpy1m
TnXr7u3oF9tUP/um6humyOfYNjinBbY1AgMBAAEwDQYJKoZIhvcNAQEEBQADgYEA
LMdeSwzEsXDw1sUQb3nrmHrm8Deb2/umXa82RFMkcUSsQVYp9oN8k98muFnn9EmK
l60eJy/C502BZQdZW2gUetUdXJIVlA7doLLKTfEbWPC9Z7nI3QUuDu7Lfl9/uZOb
lmMVp4XmgQK5gSe3XOyowX+rWP3EXyjiLFY9pupkZhM=
-----END CERTIFICATE-----
