Certificate:
    Data:
        Version: 1 (0x0)
        Serial Number:
            9b:27:d7:e8:d1:ba:0b:74
        Signature Algorithm: md5WithRSAEncryption
        Issuer: C=DE, ST=Saarland, O=MPI-SWS, OU=Distributed Systems Group, CN=Andreas Haeberlen/emailAddress=democa@octarine.de
        Validity
            Not Before: Apr 20 20:47:38 2015 GMT
            Not After : Apr 19 20:47:38 2016 GMT
        Subject: C=DE, ST=Saarland, O=MPI-SWS, OU=Distributed Systems Group, CN=289e93fac8afb67432cc55d241a968381c6b065c/emailAddress=node0924@octarine.de
        Subject Public Key Info:
            Public Key Algorithm: rsaEncryption
            RSA Public Key: (1024 bit)
                Modulus (1024 bit):
                    00:d3:fb:88:f3:92:d2:4b:63:48:91:fc:64:35:7e:
                    b5:75:aa:06:8e:16:e4:d9:6b:79:1e:1a:48:d6:a8:
                    74:d8:78:ec:a5:be:27:43:49:0d:44:43:f7:6f:b4:
                    d9:7c:4a:d7:f9:ba:e9:d4:04:26:ee:55:cc:0e:8b:
                    b7:40:6a:18:89:ad:9b:41:38:46:53:0c:87:6f:c1:
                    e0:03:61:06:48:07:b4:72:e5:e2:46:5e:b6:0e:7c:
                    23:38:3a:d6:76:e7:01:b5:77:a0:b7:a4:62:06:47:
                    2b:33:52:e7:9c:ed:9e:1d:b8:9b:d2:ed:31:c8:0d:
                    e9:58:23:af:31:d9:75:78:91
                Exponent: 65537 (0x10001)
    Signature Algorithm: md5WithRSAEncryption
        10:bc:de:b0:c6:1a:e4:aa:45:ec:b2:a5:99:d5:9e:f9:04:1a:
        14:07:fa:55:30:61:42:ad:e0:b6:22:c8:52:d5:02:56:3d:b7:
        c1:8e:3c:0f:3b:d2:f1:20:77:82:76:32:b7:86:f8:ff:33:6a:
        c8:53:20:92:f0:84:99:c8:7d:e3:56:1b:24:f4:57:24:69:46:
        1d:06:e4:c2:af:31:9f:c9:f1:db:e6:c6:e0:ba:56:a5:96:6c:
        cb:45:b5:92:3d:34:ce:2d:71:bc:c2:d5:ee:1b:ce:d7:12:75:
        cd:21:39:89:cc:e2:7e:bc:6e:3c:5a:f5:85:01:c0:c5:b6:97:
        df:f0
-----BEGIN CERTIFICATE-----
MIICvDCCAiUCCQCbJ9fo0boLdDANBgkqhkiG9w0BAQQFADCBlTELMAkGA1UEBhMC
REUxETAPBgNVBAgTCFNhYXJsYW5kMRAwDgYDVQQKEwdNUEktU1dTMSIwIAYDVQQL
ExlEaXN0cmlidXRlZCBTeXN0ZW1zIEdyb3VwMRowGAYDVQQDExFBbmRyZWFzIEhh
ZWJlcmxlbjEhMB8GCSqGSIb3DQEJARYSZGVtb2NhQG9jdGFyaW5lLmRlMB4XDTE1
MDQyMDIwNDczOFoXDTE2MDQxOTIwNDczOFowga4xCzAJBgNVBAYTAkRFMREwDwYD
VQQIEwhTYWFybGFuZDEQMA4GA1UEChMHTVBJLVNXUzEiMCAGA1UECxMZRGlzdHJp
YnV0ZWQgU3lzdGVtcyBHcm91cDExMC8GA1UEAxMoMjg5ZTkzZmFjOGFmYjY3NDMy
Y2M1NWQyNDFhOTY4MzgxYzZiMDY1YzEjMCEGCSqGSIb3DQEJARYUbm9kZTA5MjRA
b2N0YXJpbmUuZGUwgZ8wDQYJKoZIhvcNAQEBBQADgY0AMIGJAoGBANP7iPOS0ktj
SJH8ZDV+tXWqBo4W5NlreR4aSNaodNh47KW+J0NJDURD92+02XxK1/m66dQEJu5V
zA6Lt0BqGImtm0E4RlMMh2/B4ANhBkgHtHLl4kZetg58Izg61nbnAbV3oLekYgZH
KzNS55ztnh24m9LtMcgN6VgjrzHZdXiRAgMBAAEwDQYJKoZIhvcNAQEEBQADgYEA
ELzesMYa5KpF7LKlmdWe+QQaFAf6VTBhQq3gtiLIUtUCVj23wY48DzvS8SB3gnYy
t4b4/zNqyFMgkvCEmch941YbJPRXJGlGHQbkwq8xn8nx2+bG4LpWpZZsy0W1kj00
zi1xvMLV7hvO1xJ1zSE5iczifrxuPFr1hQHAxbaX3/A=
-----END CERTIFICATE-----
