Certificate:
    Data:
        Version: 1 (0x0)
        Serial Number:
            9b:27:d7:e8:d1:ba:08:87
        Signature Algorithm: md5WithRSAEncryption
        Issuer: C=DE, ST=Saarland, O=MPI-SWS, OU=Distributed Systems Group, CN=Andreas Haeberlen/emailAddress=democa@octarine.de
        Validity
            Not Before: Apr 20 20:47:04 2015 GMT
            Not After : Apr 19 20:47:04 2016 GMT
        Subject: C=DE, ST=Saarland, O=MPI-SWS, OU=Distributed Systems Group, CN=b8d9dbce88b5ac40ae1b676eae4e0eeb7b45603f/emailAddress=node0175@octarine.de
        Subject Public Key Info:
            Public Key Algorithm: rsaEncryption
            RSA Public Key: (1024 bit)
                Modulus (1024 bit):
                    00:a9:16:9a:ef:cd:5d:09:85:56:72:27:20:08:37:
                    5a:70:26:90:81:aa:20:60:b9:f7:8b:fb:7e:b2:50:
                    f4:a7:c9:51:5d:d4:f9:5a:67:83:16:22:a0:43:f3:
                    25:02:68:3e:d6:80:ec:b6:16:ba:3e:10:5e:20:4b:
                    7b:d6:a1:af:d9:da:ac:c8:6e:b7:0f:23:2f:bf:50:
                    24:ce:d6:09:d4:2c:14:ac:29:26:a6:cd:2d:ed:eb:
                    a0:e1:50:f9:17:90:c3:48:5c:fa:d9:0d:7f:c3:98:
                    a7:c4:e4:1f:ee:0f:96:a3:45:87:e3:8b:d8:79:01:
                    18:56:8a:ed:28:b7:12:68:07
                Exponent: 65537 (0x10001)
    Signature Algorithm: md5WithRSAEncryption
        73:8f:4e:86:d8:e1:4f:aa:76:0e:80:f0:d6:2c:cf:0b:e5:4f:
        90:94:a0:4c:7d:88:cf:ea:99:dc:c2:0c:5f:34:e2:c4:42:e0:
        5e:29:9d:47:3c:0b:54:30:ec:25:37:72:b8:60:f9:76:bd:db:
        7d:67:f3:c7:57:24:39:0c:77:d9:37:36:e6:16:41:eb:d5:2f:
        29:d8:40:92:75:25:80:1c:6b:e3:5d:6c:0d:36:bf:f4:24:f7:
        b6:96:6a:ed:cb:9c:f6:06:3e:c8:94:fa:58:38:a2:6c:b7:0d:
        09:4b:76:0e:3b:ba:94:b8:97:2a:fa:a9:94:6a:81:e8:92:df:
        f2:5f
-----BEGIN CERTIFICATE-----
MIICvDCCAiUCCQCbJ9fo0boIhzANBgkqhkiG9w0BAQQFADCBlTELMAkGA1UEBhMC
REUxETAPBgNVBAgTCFNhYXJsYW5kMRAwDgYDVQQKEwdNUEktU1dTMSIwIAYDVQQL
ExlEaXN0cmlidXRlZCBTeXN0ZW1zIEdyb3VwMRowGAYDVQQDExFBbmRyZWFzIEhh
ZWJlcmxlbjEhMB8GCSqGSIb3DQEJARYSZGVtb2NhQG9jdGFyaW5lLmRlMB4XDTE1
MDQyMDIwNDcwNFoXDTE2MDQxOTIwNDcwNFowga4xCzAJBgNVBAYTAkRFMREwDwYD
VQQIEwhTYWFybGFuZDEQMA4GA1UEChMHTVBJLVNXUzEiMCAGA1UECxMZRGlzdHJp
YnV0ZWQgU3lzdGVtcyBHcm91cDExMC8GA1UEAxMoYjhkOWRiY2U4OGI1YWM0MGFl
MWI2NzZlYWU0ZTBlZWI3YjQ1NjAzZjEjMCEGCSqGSIb3DQEJARYUbm9kZTAxNzVA
b2N0YXJpbmUuZGUwgZ8wDQYJKoZIhvcNAQEBBQADgY0AMIGJAoGBAKkWmu/NXQmF
VnInIAg3WnAmkIGqIGC594v7frJQ9KfJUV3U+VpngxYioEPzJQJoPtaA7LYWuj4Q
XiBLe9ahr9narMhutw8jL79QJM7WCdQsFKwpJqbNLe3roOFQ+ReQw0hc+tkNf8OY
p8TkH+4PlqNFh+OL2HkBGFaK7Si3EmgHAgMBAAEwDQYJKoZIhvcNAQEEBQADgYEA
c49OhtjhT6p2DoDw1izPC+VPkJSgTH2Iz+qZ3MIMXzTixELgXimdRzwLVDDsJTdy
uGD5dr3bfWfzx1ckOQx32Tc25hZB69UvKdhAknUlgBxr411sDTa/9CT3tpZq7cuc
9gY+yJT6WDiibLcNCUt2Dju6lLiXKvqplGqB6JLf8l8=
-----END CERTIFICATE-----
