Certificate:
    Data:
        Version: 1 (0x0)
        Serial Number:
            9b:27:d7:e8:d1:ba:08:e8
        Signature Algorithm: md5WithRSAEncryption
        Issuer: C=DE, ST=Saarland, O=MPI-SWS, OU=Distributed Systems Group, CN=Andreas Haeberlen/emailAddress=democa@octarine.de
        Validity
            Not Before: Apr 20 20:47:08 2015 GMT
            Not After : Apr 19 20:47:08 2016 GMT
        Subject: C=DE, ST=Saarland, O=MPI-SWS, OU=Distributed Systems Group, CN=332ff8cc44da601a7c1e32837b6187fbb1ba976e/emailAddress=node0272@octarine.de
        Subject Public Key Info:
            Public Key Algorithm: rsaEncryption
            RSA Public Key: (1024 bit)
                Modulus (1024 bit):
                    00:b0:eb:d0:9b:76:2a:ef:94:b0:87:56:1a:b8:bf:
                    be:a8:7a:c3:2f:3f:64:44:f2:fb:18:96:5f:ed:bb:
                    ba:8a:a9:6a:b1:28:81:d1:ad:2d:59:28:2a:88:61:
                    eb:c7:fb:56:ec:c4:02:58:ef:6a:ac:90:39:09:e2:
                    29:4f:2d:d6:cd:07:51:54:95:6f:82:04:b9:e1:86:
                    b4:32:ae:4f:39:f6:28:97:d2:e9:8e:b5:0f:de:75:
                    4e:43:6b:e0:e9:8f:1f:37:db:58:ef:50:92:19:19:
                    8f:91:6b:e1:7d:55:1b:c8:dd:62:ce:76:32:bc:42:
                    9d:72:af:18:91:44:16:4f:23
                Exponent: 65537 (0x10001)
    Signature Algorithm: md5WithRSAEncryption
        01:e1:0c:a7:23:83:b8:37:bc:c0:74:c9:6c:77:6e:e7:05:c9:
        24:db:0f:46:c9:ae:b1:a6:fb:21:8b:47:04:e6:cd:c1:6d:6f:
        51:42:37:b3:71:38:29:e9:64:b7:3f:45:3a:16:9d:58:09:6d:
        42:a2:db:d7:bf:0e:38:34:52:71:48:c4:4f:f1:ef:54:1e:97:
        d0:5b:ae:83:d0:5e:2c:61:7e:de:56:8f:c5:6d:ff:bd:55:ed:
        60:fc:0e:50:6a:0b:ee:22:13:cb:fa:65:93:c1:e5:e3:6f:f3:
        c7:70:71:b6:8b:d4:3f:c4:94:d1:c1:fe:af:50:42:b2:86:4a:
        d1:21
-----BEGIN CERTIFICATE-----
MIICvDCCAiUCCQCbJ9fo0boI6DANBgkqhkiG9w0BAQQFADCBlTELMAkGA1UEBhMC
REUxETAPBgNVBAgTCFNhYXJsYW5kMRAwDgYDVQQKEwdNUEktU1dTMSIwIAYDVQQL
ExlEaXN0cmlidXRlZCBTeXN0ZW1zIEdyb3VwMRowGAYDVQQDExFBbmRyZWFzIEhh
ZWJlcmxlbjEhMB8GCSqGSIb3DQEJARYSZGVtb2NhQG9jdGFyaW5lLmRlMB4XDTE1
MDQyMDIwNDcwOFoXDTE2MDQxOTIwNDcwOFowga4xCzAJBgNVBAYTAkRFMREwDwYD
VQQIEwhTYWFybGFuZDEQMA4GA1UEChMHTVBJLVNXUzEiMCAGA1UECxMZRGlzdHJp
YnV0ZWQgU3lzdGVtcyBHcm91cDExMC8GA1UEAxMoMzMyZmY4Y2M0NGRhNjAxYTdj
MWUzMjgzN2I2MTg3ZmJiMWJhOTc2ZTEjMCEGCSqGSIb3DQEJARYUbm9kZTAyNzJA
b2N0YXJpbmUuZGUwgZ8wDQYJKoZIhvcNAQEBBQADgY0AMIGJAoGBALDr0Jt2Ku+U
sIdWGri/vqh6wy8/ZETy+xiWX+27uoqparEogdGtLVkoKohh68f7VuzEAljvaqyQ
OQniKU8t1s0HUVSVb4IEueGGtDKuTzn2KJfS6Y61D951TkNr4OmPHzfbWO9QkhkZ
j5Fr4X1VG8jdYs52MrxCnXKvGJFEFk8jAgMBAAEwDQYJKoZIhvcNAQEEBQADgYEA
AeEMpyODuDe8wHTJbHdu5wXJJNsPRsmusab7IYtHBObNwW1vUUI3s3E4Kelktz9F
OhadWAltQqLb178OODRScUjET/HvVB6X0Fuug9BeLGF+3laPxW3/vVXtYPwOUGoL
7iITy/plk8Hl42/zx3BxtovUP8SU0cH+r1BCsoZK0SE=
-----END CERTIFICATE-----
