Certificate:
    Data:
        Version: 1 (0x0)
        Serial Number:
            9b:27:d7:e8:d1:ba:08:81
        Signature Algorithm: md5WithRSAEncryption
        Issuer: C=DE, ST=Saarland, O=MPI-SWS, OU=Distributed Systems Group, CN=Andreas Haeberlen/emailAddress=democa@octarine.de
        Validity
            Not Before: Apr 20 20:47:04 2015 GMT
            Not After : Apr 19 20:47:04 2016 GMT
        Subject: C=DE, ST=Saarland, O=MPI-SWS, OU=Distributed Systems Group, CN=6637ef783de1c9335a8e2af6ef42ee1555c443c8/emailAddress=node0169@octarine.de
        Subject Public Key Info:
            Public Key Algorithm: rsaEncryption
            RSA Public Key: (1024 bit)
                Modulus (1024 bit):
                    00:ba:b9:f8:65:c9:42:fd:e2:eb:bc:1b:4e:77:19:
                    d3:8c:f9:18:5c:eb:d3:f9:13:11:12:c8:a0:48:96:
                    66:ab:48:67:45:6f:8d:58:60:52:85:56:12:0b:7d:
                    8d:67:69:ed:c8:83:51:dc:6b:48:63:03:42:28:52:
                    cc:a3:84:7c:df:da:04:4e:72:75:f5:bb:8e:01:06:
                    91:ad:89:7a:ce:f2:e7:b1:df:55:6c:97:d8:c6:57:
                    67:d3:e5:d9:eb:63:8f:84:b5:30:a1:f0:d7:a3:43:
                    70:41:eb:60:2f:81:5a:72:40:8f:b4:f2:64:31:53:
                    4d:28:4c:b4:17:18:9d:64:93
                Exponent: 65537 (0x10001)
    Signature Algorithm: md5WithRSAEncryption
        bc:19:cd:63:dd:9a:ea:44:1d:8b:53:b7:a8:4e:87:8c:9a:c9:
        ad:60:4c:7f:59:71:ba:4d:47:4c:c1:f9:a0:8d:2b:f2:50:c5:
        0a:5c:2f:16:08:01:57:e7:b7:5f:47:7f:f6:3c:96:42:00:75:
        62:45:2b:0e:4f:eb:a2:43:e7:0d:05:a9:3b:ef:e2:e1:a8:31:
        95:a0:ed:8d:0c:af:3a:cc:b0:eb:b9:39:ae:e3:b8:54:d5:c1:
        e7:41:d4:07:2b:f0:f2:d0:56:06:24:bc:64:09:40:b5:e9:e7:
        67:a4:f5:ea:d9:c0:a1:17:cb:6b:20:46:b5:76:99:83:44:76:
        68:f8
-----BEGIN CERTIFICATE-----
MIICvDCCAiUCCQCbJ9fo0boIgTANBgkqhkiG9w0BAQQFADCBlTELMAkGA1UEBhMC
REUxETAPBgNVBAgTCFNhYXJsYW5kMRAwDgYDVQQKEwdNUEktU1dTMSIwIAYDVQQL
ExlEaXN0cmlidXRlZCBTeXN0ZW1zIEdyb3VwMRowGAYDVQQDExFBbmRyZWFzIEhh
ZWJlcmxlbjEhMB8GCSqGSIb3DQEJARYSZGVtb2NhQG9jdGFyaW5lLmRlMB4XDTE1
MDQyMDIwNDcwNFoXDTE2MDQxOTIwNDcwNFowga4xCzAJBgNVBAYTAkRFMREwDwYD
VQQIEwhTYWFybGFuZDEQMA4GA1UEChMHTVBJLVNXUzEiMCAGA1UECxMZRGlzdHJp
YnV0ZWQgU3lzdGVtcyBHcm91cDExMC8GA1UEAxMoNjYzN2VmNzgzZGUxYzkzMzVh
OGUyYWY2ZWY0MmVlMTU1NWM0NDNjODEjMCEGCSqGSIb3DQEJARYUbm9kZTAxNjlA
b2N0YXJpbmUuZGUwgZ8wDQYJKoZIhvcNAQEBBQADgY0AMIGJAoGBALq5+GXJQv3i
67wbTncZ04z5GFzr0/kTERLIoEiWZqtIZ0VvjVhgUoVWEgt9jWdp7ciDUdxrSGMD
QihSzKOEfN/aBE5ydfW7jgEGka2Jes7y57HfVWyX2MZXZ9Pl2etjj4S1MKHw16ND
cEHrYC+BWnJAj7TyZDFTTShMtBcYnWSTAgMBAAEwDQYJKoZIhvcNAQEEBQADgYEA
vBnNY92a6kQdi1O3qE6HjJrJrWBMf1lxuk1HTMH5oI0r8lDFClwvFggBV+e3X0d/
9jyWQgB1YkUrDk/rokPnDQWpO+/i4agxlaDtjQyvOsyw67k5ruO4VNXB50HUByvw
8tBWBiS8ZAlAtennZ6T16tnAoRfLayBGtXaZg0R2aPg=
-----END CERTIFICATE-----
