Certificate:
    Data:
        Version: 1 (0x0)
        Serial Number:
            9b:27:d7:e8:d1:ba:0a:26
        Signature Algorithm: md5WithRSAEncryption
        Issuer: C=DE, ST=Saarland, O=MPI-SWS, OU=Distributed Systems Group, CN=Andreas Haeberlen/emailAddress=democa@octarine.de
        Validity
            Not Before: Apr 20 20:47:23 2015 GMT
            Not After : Apr 19 20:47:23 2016 GMT
        Subject: C=DE, ST=Saarland, O=MPI-SWS, OU=Distributed Systems Group, CN=72f782389c2c87e44eef00aa5ff081c04c7ceb58/emailAddress=node0590@octarine.de
        Subject Public Key Info:
            Public Key Algorithm: rsaEncryption
            RSA Public Key: (1024 bit)
                Modulus (1024 bit):
                    00:f7:97:2d:e4:fc:12:7c:40:77:4d:f9:ee:50:cd:
                    c7:48:7e:1a:01:ad:d2:ef:a4:25:44:94:99:62:38:
                    68:55:19:fe:c7:a9:0c:fb:7e:6a:a4:ca:26:c3:3b:
                    67:95:2c:76:aa:16:29:eb:7e:bf:70:d5:cc:8d:b2:
                    03:5d:7d:21:18:8b:5b:c4:09:03:64:9f:4a:e4:28:
                    01:e7:91:6c:46:ca:f8:b6:ca:e7:9b:0a:7b:1b:2f:
                    28:c4:7f:45:c5:ff:5a:b3:28:04:6c:31:f1:b8:58:
                    db:a2:31:15:81:9e:91:11:b6:8b:f9:77:d7:48:bb:
                    49:2d:bb:40:99:52:8b:b9:bd
                Exponent: 65537 (0x10001)
    Signature Algorithm: md5WithRSAEncryption
        00:02:79:6b:c7:ca:4b:80:1b:23:bd:83:9f:ab:65:39:3f:ba:
        5f:d4:c3:01:e8:24:dd:24:f3:25:6a:f6:10:b8:e9:a6:19:89:
        33:1e:73:46:de:97:c5:3f:a4:94:0f:74:a2:43:dc:25:3d:8b:
        ab:f9:fc:74:dc:ad:c3:59:01:28:95:f6:27:ee:ed:87:e2:c0:
        94:fb:9b:7c:38:b6:51:46:f9:24:1c:55:26:6b:ba:57:d4:ef:
        8b:c4:da:81:dc:6a:4a:a3:2a:ae:bb:2e:99:e6:82:a6:39:c3:
        30:5c:8f:76:bf:38:15:51:90:9c:57:d9:90:40:c1:17:36:ed:
        d1:2c
-----BEGIN CERTIFICATE-----
MIICvDCCAiUCCQCbJ9fo0boKJjANBgkqhkiG9w0BAQQFADCBlTELMAkGA1UEBhMC
REUxETAPBgNVBAgTCFNhYXJsYW5kMRAwDgYDVQQKEwdNUEktU1dTMSIwIAYDVQQL
ExlEaXN0cmlidXRlZCBTeXN0ZW1zIEdyb3VwMRowGAYDVQQDExFBbmRyZWFzIEhh
ZWJlcmxlbjEhMB8GCSqGSIb3DQEJARYSZGVtb2NhQG9jdGFyaW5lLmRlMB4XDTE1
MDQyMDIwNDcyM1oXDTE2MDQxOTIwNDcyM1owga4xCzAJBgNVBAYTAkRFMREwDwYD
VQQIEwhTYWFybGFuZDEQMA4GA1UEChMHTVBJLVNXUzEiMCAGA1UECxMZRGlzdHJp
YnV0ZWQgU3lzdGVtcyBHcm91cDExMC8GA1UEAxMoNzJmNzgyMzg5YzJjODdlNDRl
ZWYwMGFhNWZmMDgxYzA0YzdjZWI1ODEjMCEGCSqGSIb3DQEJARYUbm9kZTA1OTBA
b2N0YXJpbmUuZGUwgZ8wDQYJKoZIhvcNAQEBBQADgY0AMIGJAoGBAPeXLeT8EnxA
d0357lDNx0h+GgGt0u+kJUSUmWI4aFUZ/sepDPt+aqTKJsM7Z5UsdqoWKet+v3DV
zI2yA119IRiLW8QJA2SfSuQoAeeRbEbK+LbK55sKexsvKMR/RcX/WrMoBGwx8bhY
26IxFYGekRG2i/l310i7SS27QJlSi7m9AgMBAAEwDQYJKoZIhvcNAQEEBQADgYEA
AAJ5a8fKS4AbI72Dn6tlOT+6X9TDAegk3STzJWr2ELjpphmJMx5zRt6XxT+klA90
okPcJT2Lq/n8dNytw1kBKJX2J+7th+LAlPubfDi2UUb5JBxVJmu6V9Tvi8Tagdxq
SqMqrrsumeaCpjnDMFyPdr84FVGQnFfZkEDBFzbt0Sw=
-----END CERTIFICATE-----
