Certificate:
    Data:
        Version: 1 (0x0)
        Serial Number:
            9b:27:d7:e8:d1:ba:0a:dd
        Signature Algorithm: md5WithRSAEncryption
        Issuer: C=DE, ST=Saarland, O=MPI-SWS, OU=Distributed Systems Group, CN=Andreas Haeberlen/emailAddress=democa@octarine.de
        Validity
            Not Before: Apr 20 20:47:31 2015 GMT
            Not After : Apr 19 20:47:31 2016 GMT
        Subject: C=DE, ST=Saarland, O=MPI-SWS, OU=Distributed Systems Group, CN=79f8c8c5a1df157c0835785c72d7537cd649f0ea/emailAddress=node0773@octarine.de
        Subject Public Key Info:
            Public Key Algorithm: rsaEncryption
            RSA Public Key: (1024 bit)
                Modulus (1024 bit):
                    00:aa:8c:00:46:85:10:3a:b9:f1:3b:9e:ee:13:43:
                    15:57:64:33:8e:6a:e3:50:43:c8:f9:30:d4:26:64:
                    b2:21:b0:ac:3d:aa:90:f1:7d:6f:1e:5e:8c:15:07:
                    53:43:a1:f5:33:35:84:6a:61:64:06:ee:c7:c7:36:
                    52:cd:94:45:d1:5b:ff:4c:f0:74:7a:49:38:ae:0b:
                    b7:14:bc:fe:0a:d5:ff:62:96:45:e0:34:00:49:90:
                    ba:c7:30:4d:c5:2b:0d:87:ff:cd:63:7a:e4:8c:e2:
                    f1:a2:28:44:8a:c0:22:07:67:f4:a1:bd:33:d6:54:
                    62:0b:a5:6b:c7:b9:51:e3:f1
                Exponent: 65537 (0x10001)
    Signature Algorithm: md5WithRSAEncryption
        7b:2c:7b:6d:4e:cc:44:89:9d:d8:cb:97:a8:2c:a7:f4:0f:e7:
        f4:b5:31:dc:fb:b7:86:ae:8f:e2:7d:3c:32:f9:51:34:7c:94:
        7e:a9:a1:2e:09:4e:c8:01:60:9f:11:34:c3:47:01:ab:a0:07:
        2e:d2:41:10:58:cd:65:30:53:0c:09:7e:6d:9c:a3:b7:93:32:
        68:b0:ac:00:c5:d0:27:66:aa:57:e6:2f:90:f4:49:9a:a7:a8:
        2b:36:cb:c6:62:8d:45:74:c3:9b:da:14:a9:82:c7:e5:dd:d4:
        f3:ea:bf:ed:2f:23:15:2a:07:11:a8:ab:b4:2a:f2:16:41:80:
        cc:1c
-----BEGIN CERTIFICATE-----
MIICvDCCAiUCCQCbJ9fo0boK3TANBgkqhkiG9w0BAQQFADCBlTELMAkGA1UEBhMC
REUxETAPBgNVBAgTCFNhYXJsYW5kMRAwDgYDVQQKEwdNUEktU1dTMSIwIAYDVQQL
ExlEaXN0cmlidXRlZCBTeXN0ZW1zIEdyb3VwMRowGAYDVQQDExFBbmRyZWFzIEhh
ZWJlcmxlbjEhMB8GCSqGSIb3DQEJARYSZGVtb2NhQG9jdGFyaW5lLmRlMB4XDTE1
MDQyMDIwNDczMVoXDTE2MDQxOTIwNDczMVowga4xCzAJBgNVBAYTAkRFMREwDwYD
VQQIEwhTYWFybGFuZDEQMA4GA1UEChMHTVBJLVNXUzEiMCAGA1UECxMZRGlzdHJp
YnV0ZWQgU3lzdGVtcyBHcm91cDExMC8GA1UEAxMoNzlmOGM4YzVhMWRmMTU3YzA4
MzU3ODVjNzJkNzUzN2NkNjQ5ZjBlYTEjMCEGCSqGSIb3DQEJARYUbm9kZTA3NzNA
b2N0YXJpbmUuZGUwgZ8wDQYJKoZIhvcNAQEBBQADgY0AMIGJAoGBAKqMAEaFEDq5
8Tue7hNDFVdkM45q41BDyPkw1CZksiGwrD2qkPF9bx5ejBUHU0Oh9TM1hGphZAbu
x8c2Us2URdFb/0zwdHpJOK4LtxS8/grV/2KWReA0AEmQuscwTcUrDYf/zWN65Izi
8aIoRIrAIgdn9KG9M9ZUYgula8e5UePxAgMBAAEwDQYJKoZIhvcNAQEEBQADgYEA
eyx7bU7MRImd2MuXqCyn9A/n9LUx3Pu3hq6P4n08MvlRNHyUfqmhLglOyAFgnxE0
w0cBq6AHLtJBEFjNZTBTDAl+bZyjt5MyaLCsAMXQJ2aqV+YvkPRJmqeoKzbLxmKN
RXTDm9oUqYLH5d3U8+q/7S8jFSoHEairtCryFkGAzBw=
-----END CERTIFICATE-----
