Certificate:
    Data:
        Version: 1 (0x0)
        Serial Number:
            9b:27:d7:e8:d1:ba:0b:b6
        Signature Algorithm: md5WithRSAEncryption
        Issuer: C=DE, ST=Saarland, O=MPI-SWS, OU=Distributed Systems Group, CN=Andreas Haeberlen/emailAddress=democa@octarine.de
        Validity
            Not Before: Apr 20 20:47:41 2015 GMT
            Not After : Apr 19 20:47:41 2016 GMT
        Subject: C=DE, ST=Saarland, O=MPI-SWS, OU=Distributed Systems Group, CN=da44c0880e3ccff79cffd0acb5bd5432e77b8f38/emailAddress=node0990@octarine.de
        Subject Public Key Info:
            Public Key Algorithm: rsaEncryption
            RSA Public Key: (1024 bit)
                Modulus (1024 bit):
                    00:b7:7f:45:49:e3:eb:aa:67:83:3a:79:ec:3e:c1:
                    86:b7:5b:c4:35:c4:33:d2:4a:bc:2f:d3:f0:aa:c2:
                    da:1a:f9:15:6b:50:84:4b:6f:3c:b1:85:74:0f:e9:
                    dd:70:c8:12:3e:87:db:6b:11:8d:a7:b7:75:71:f9:
                    a7:96:36:6c:da:db:42:cf:30:12:49:a7:09:f4:1a:
                    c1:65:49:bc:d6:57:c4:7f:8a:65:7d:3a:b2:af:4b:
                    90:b1:ff:8c:37:b3:ae:74:7e:fa:60:6c:0d:43:57:
                    ca:c4:b9:3b:48:e6:12:aa:0a:80:c6:c8:fe:28:0b:
                    da:56:aa:4f:3b:ad:6b:1f:ab
                Exponent: 65537 (0x10001)
    Signature Algorithm: md5WithRSAEncryption
        b0:ce:27:f1:f5:30:58:10:34:32:bc:9e:50:74:ce:2b:61:d3:
        40:bb:4b:28:68:2c:62:5f:bf:3f:94:ce:8a:6c:cb:d2:6f:e7:
        2b:ab:1b:41:7f:23:d2:53:76:f8:f1:17:47:0d:67:22:df:66:
        62:68:6b:09:51:b8:ef:e0:85:83:6c:df:44:60:d5:f3:25:4a:
        ae:ba:2e:fe:d4:03:3a:83:e4:54:3a:11:34:b1:5a:19:30:8b:
        2e:a0:94:30:76:0a:89:01:4c:88:bf:66:6b:df:db:6c:25:70:
        de:2e:05:81:3e:11:dd:c4:11:c6:f6:90:3b:e4:78:a3:67:05:
        82:b7
-----BEGIN CERTIFICATE-----
MIICvDCCAiUCCQCbJ9fo0boLtjANBgkqhkiG9w0BAQQFADCBlTELMAkGA1UEBhMC
REUxETAPBgNVBAgTCFNhYXJsYW5kMRAwDgYDVQQKEwdNUEktU1dTMSIwIAYDVQQL
ExlEaXN0cmlidXRlZCBTeXN0ZW1zIEdyb3VwMRowGAYDVQQDExFBbmRyZWFzIEhh
ZWJlcmxlbjEhMB8GCSqGSIb3DQEJARYSZGVtb2NhQG9jdGFyaW5lLmRlMB4XDTE1
MDQyMDIwNDc0MVoXDTE2MDQxOTIwNDc0MVowga4xCzAJBgNVBAYTAkRFMREwDwYD
VQQIEwhTYWFybGFuZDEQMA4GA1UEChMHTVBJLVNXUzEiMCAGA1UECxMZRGlzdHJp
YnV0ZWQgU3lzdGVtcyBHcm91cDExMC8GA1UEAxMoZGE0NGMwODgwZTNjY2ZmNzlj
ZmZkMGFjYjViZDU0MzJlNzdiOGYzODEjMCEGCSqGSIb3DQEJARYUbm9kZTA5OTBA
b2N0YXJpbmUuZGUwgZ8wDQYJKoZIhvcNAQEBBQADgY0AMIGJAoGBALd/RUnj66pn
gzp57D7BhrdbxDXEM9JKvC/T8KrC2hr5FWtQhEtvPLGFdA/p3XDIEj6H22sRjae3
dXH5p5Y2bNrbQs8wEkmnCfQawWVJvNZXxH+KZX06sq9LkLH/jDezrnR++mBsDUNX
ysS5O0jmEqoKgMbI/igL2laqTzutax+rAgMBAAEwDQYJKoZIhvcNAQEEBQADgYEA
sM4n8fUwWBA0MryeUHTOK2HTQLtLKGgsYl+/P5TOimzL0m/nK6sbQX8j0lN2+PEX
Rw1nIt9mYmhrCVG47+CFg2zfRGDV8yVKrrou/tQDOoPkVDoRNLFaGTCLLqCUMHYK
iQFMiL9ma9/bbCVw3i4FgT4R3cQRxvaQO+R4o2cFgrc=
-----END CERTIFICATE-----
