Certificate:
    Data:
        Version: 1 (0x0)
        Serial Number:
            9b:27:d7:e8:d1:ba:0a:43
        Signature Algorithm: md5WithRSAEncryption
        Issuer: C=DE, ST=Saarland, O=MPI-SWS, OU=Distributed Systems Group, CN=Andreas Haeberlen/emailAddress=democa@octarine.de
        Validity
            Not Before: Apr 20 20:47:24 2015 GMT
            Not After : Apr 19 20:47:24 2016 GMT
        Subject: C=DE, ST=Saarland, O=MPI-SWS, OU=Distributed Systems Group, CN=a69d7b9f369791feae94608bea7f73f299f05908/emailAddress=node0619@octarine.de
        Subject Public Key Info:
            Public Key Algorithm: rsaEncryption
            RSA Public Key: (1024 bit)
                Modulus (1024 bit):
                    00:da:09:54:eb:3f:d5:bb:36:7b:04:cc:88:12:82:
                    e7:cc:d0:87:2d:3f:98:24:ca:ad:dc:42:86:1e:61:
                    04:21:0e:65:e6:73:1f:8f:9c:8a:4c:31:f2:7c:18:
                    d4:88:ea:77:de:7b:b4:af:64:f2:e1:3e:93:86:a0:
                    dc:57:a4:fa:60:7c:fd:ae:71:6c:23:a0:13:78:bf:
                    29:4b:e4:79:c9:d6:43:20:9b:08:5d:77:49:be:a9:
                    a4:9f:1b:6f:3b:f8:9c:20:7d:a5:91:ab:09:18:ff:
                    bd:36:d0:09:b6:4a:27:20:bd:9c:17:33:5d:b1:bc:
                    3e:9c:27:1c:63:aa:8d:40:df
                Exponent: 65537 (0x10001)
    Signature Algorithm: md5WithRSAEncryption
        ba:fb:bd:24:7c:e4:5b:91:36:c8:c8:44:5a:09:11:75:e8:6c:
        6b:25:30:b6:f9:15:e2:87:cf:b6:51:4e:4c:ab:82:14:a1:50:
        ca:fd:e1:16:c2:7d:05:61:5d:d0:b0:6a:3a:13:2a:1a:70:f5:
        28:8b:e0:5e:35:ce:e1:db:88:51:83:8c:6b:21:82:be:48:42:
        8d:0e:2a:01:b1:f6:93:23:a4:9a:10:b8:af:d7:ff:0b:b3:ab:
        a9:0a:a5:8e:d3:6d:48:3a:60:7c:b5:7b:3e:06:72:ea:dc:77:
        c2:d6:82:0a:34:93:a9:b5:69:65:a6:e0:e7:1d:2e:53:2b:91:
        52:1e
-----BEGIN CERTIFICATE-----
MIICvDCCAiUCCQCbJ9fo0boKQzANBgkqhkiG9w0BAQQFADCBlTELMAkGA1UEBhMC
REUxETAPBgNVBAgTCFNhYXJsYW5kMRAwDgYDVQQKEwdNUEktU1dTMSIwIAYDVQQL
ExlEaXN0cmlidXRlZCBTeXN0ZW1zIEdyb3VwMRowGAYDVQQDExFBbmRyZWFzIEhh
ZWJlcmxlbjEhMB8GCSqGSIb3DQEJARYSZGVtb2NhQG9jdGFyaW5lLmRlMB4XDTE1
MDQyMDIwNDcyNFoXDTE2MDQxOTIwNDcyNFowga4xCzAJBgNVBAYTAkRFMREwDwYD
VQQIEwhTYWFybGFuZDEQMA4GA1UEChMHTVBJLVNXUzEiMCAGA1UECxMZRGlzdHJp
YnV0ZWQgU3lzdGVtcyBHcm91cDExMC8GA1UEAxMoYTY5ZDdiOWYzNjk3OTFmZWFl
OTQ2MDhiZWE3ZjczZjI5OWYwNTkwODEjMCEGCSqGSIb3DQEJARYUbm9kZTA2MTlA
b2N0YXJpbmUuZGUwgZ8wDQYJKoZIhvcNAQEBBQADgY0AMIGJAoGBANoJVOs/1bs2
ewTMiBKC58zQhy0/mCTKrdxChh5hBCEOZeZzH4+cikwx8nwY1Ijqd957tK9k8uE+
k4ag3Fek+mB8/a5xbCOgE3i/KUvkecnWQyCbCF13Sb6ppJ8bbzv4nCB9pZGrCRj/
vTbQCbZKJyC9nBczXbG8PpwnHGOqjUDfAgMBAAEwDQYJKoZIhvcNAQEEBQADgYEA
uvu9JHzkW5E2yMhEWgkRdehsayUwtvkV4ofPtlFOTKuCFKFQyv3hFsJ9BWFd0LBq
OhMqGnD1KIvgXjXO4duIUYOMayGCvkhCjQ4qAbH2kyOkmhC4r9f/C7OrqQqljtNt
SDpgfLV7PgZy6tx3wtaCCjSTqbVpZabg5x0uUyuRUh4=
-----END CERTIFICATE-----
