Certificate:
    Data:
        Version: 1 (0x0)
        Serial Number:
            9b:27:d7:e8:d1:ba:0b:aa
        Signature Algorithm: md5WithRSAEncryption
        Issuer: C=DE, ST=Saarland, O=MPI-SWS, OU=Distributed Systems Group, CN=Andreas Haeberlen/emailAddress=democa@octarine.de
        Validity
            Not Before: Apr 20 20:47:40 2015 GMT
            Not After : Apr 19 20:47:40 2016 GMT
        Subject: C=DE, ST=Saarland, O=MPI-SWS, OU=Distributed Systems Group, CN=fc5ab87248ebe87ddcdcca791c34e90e5581e032/emailAddress=node0978@octarine.de
        Subject Public Key Info:
            Public Key Algorithm: rsaEncryption
            RSA Public Key: (1024 bit)
                Modulus (1024 bit):
                    00:c6:ec:88:8d:48:1a:98:f2:1a:8b:a0:64:19:ab:
                    9f:3f:8b:d5:37:8f:bf:37:6e:e3:0f:d3:33:ed:16:
                    98:71:33:d0:d3:36:b1:99:5a:c4:ec:14:3d:ae:70:
                    77:ca:3f:e7:fa:9f:8c:18:b6:55:75:de:1d:4e:0e:
                    cd:fe:6a:ab:42:2e:66:c2:07:8e:29:63:c3:d9:1a:
                    c8:a9:a2:78:36:e1:8c:69:74:79:44:26:f8:89:55:
                    9a:fd:60:ef:83:32:b3:97:37:48:8e:a1:39:8d:fe:
                    62:d2:5c:c4:c8:fe:40:a0:d8:3d:b8:a6:6d:64:72:
                    f1:eb:21:54:4b:44:b6:ee:a1
                Exponent: 65537 (0x10001)
    Signature Algorithm: md5WithRSAEncryption
        82:0d:a5:8d:86:6c:10:62:9d:30:c6:58:46:da:e2:a9:95:c9:
        ea:e6:ed:12:31:88:6d:37:9d:34:de:9b:fc:84:39:b3:9c:56:
        3a:6c:b6:d2:51:c1:f7:93:12:9c:6a:70:5e:f8:af:7e:34:16:
        7a:b1:4f:67:ca:fb:ea:70:f5:0c:42:12:3e:fb:18:29:1a:d1:
        8d:2c:87:05:5f:46:f5:f4:88:fa:e2:6f:12:f1:d2:20:08:e9:
        43:ea:82:e9:b8:64:82:f0:9a:8c:4c:54:ff:43:e8:a2:c5:ba:
        45:a4:19:f7:59:dc:c5:11:3a:63:d5:58:bf:2f:57:83:f0:f7:
        12:a0
-----BEGIN CERTIFICATE-----
MIICvDCCAiUCCQCbJ9fo0boLqjANBgkqhkiG9w0BAQQFADCBlTELMAkGA1UEBhMC
REUxETAPBgNVBAgTCFNhYXJsYW5kMRAwDgYDVQQKEwdNUEktU1dTMSIwIAYDVQQL
ExlEaXN0cmlidXRlZCBTeXN0ZW1zIEdyb3VwMRowGAYDVQQDExFBbmRyZWFzIEhh
ZWJlcmxlbjEhMB8GCSqGSIb3DQEJARYSZGVtb2NhQG9jdGFyaW5lLmRlMB4XDTE1
MDQyMDIwNDc0MFoXDTE2MDQxOTIwNDc0MFowga4xCzAJBgNVBAYTAkRFMREwDwYD
VQQIEwhTYWFybGFuZDEQMA4GA1UEChMHTVBJLVNXUzEiMCAGA1UECxMZRGlzdHJp
YnV0ZWQgU3lzdGVtcyBHcm91cDExMC8GA1UEAxMoZmM1YWI4NzI0OGViZTg3ZGRj
ZGNjYTc5MWMzNGU5MGU1NTgxZTAzMjEjMCEGCSqGSIb3DQEJARYUbm9kZTA5NzhA
b2N0YXJpbmUuZGUwgZ8wDQYJKoZIhvcNAQEBBQADgY0AMIGJAoGBAMbsiI1IGpjy
GougZBmrnz+L1TePvzdu4w/TM+0WmHEz0NM2sZlaxOwUPa5wd8o/5/qfjBi2VXXe
HU4Ozf5qq0IuZsIHjiljw9kayKmieDbhjGl0eUQm+IlVmv1g74Mys5c3SI6hOY3+
YtJcxMj+QKDYPbimbWRy8eshVEtEtu6hAgMBAAEwDQYJKoZIhvcNAQEEBQADgYEA
gg2ljYZsEGKdMMZYRtriqZXJ6ubtEjGIbTedNN6b/IQ5s5xWOmy20lHB95MSnGpw
XvivfjQWerFPZ8r76nD1DEISPvsYKRrRjSyHBV9G9fSI+uJvEvHSIAjpQ+qC6bhk
gvCajExU/0PoosW6RaQZ91ncxRE6Y9VYvy9Xg/D3EqA=
-----END CERTIFICATE-----
