Certificate:
    Data:
        Version: 1 (0x0)
        Serial Number:
            9b:27:d7:e8:d1:ba:08:f1
        Signature Algorithm: md5WithRSAEncryption
        Issuer: C=DE, ST=Saarland, O=MPI-SWS, OU=Distributed Systems Group, CN=Andreas Haeberlen/emailAddress=democa@octarine.de
        Validity
            Not Before: Apr 20 20:47:09 2015 GMT
            Not After : Apr 19 20:47:09 2016 GMT
        Subject: C=DE, ST=Saarland, O=MPI-SWS, OU=Distributed Systems Group, CN=34fede01d60e6b53bd3142150b86acad0abe9bf6/emailAddress=node0281@octarine.de
        Subject Public Key Info:
            Public Key Algorithm: rsaEncryption
            RSA Public Key: (1024 bit)
                Modulus (1024 bit):
                    00:b0:89:f3:30:14:b2:aa:dd:e3:d2:c2:2c:05:11:
                    b2:c3:26:c5:e7:73:e9:91:32:d4:22:16:05:9b:0f:
                    45:12:1f:cb:a5:0e:b7:97:d6:23:53:e3:25:f0:ba:
                    c0:00:73:3c:64:d5:cd:11:7e:1f:64:4c:33:33:59:
                    77:cf:32:e7:c4:df:15:bf:7e:bb:1a:ef:f9:a3:34:
                    74:12:3e:3c:bf:6f:80:3d:9b:31:11:04:41:a6:b9:
                    71:0a:17:d9:eb:8a:9c:6d:11:44:af:03:58:a5:5e:
                    c7:9b:d0:6e:e4:64:bb:06:3b:3c:32:89:41:e4:f0:
                    90:00:6d:33:06:04:27:b7:91
                Exponent: 65537 (0x10001)
    Signature Algorithm: md5WithRSAEncryption
        a5:bb:99:b0:6a:0a:69:6c:ab:e5:24:14:c2:10:9d:ec:9b:94:
        31:b4:5b:d5:33:4d:46:44:fb:a4:59:db:82:0a:f5:b8:40:54:
        c5:67:3a:78:8d:76:d7:93:4c:d8:78:d6:d0:5f:fd:a5:72:f6:
        bf:a3:dd:f9:ad:3c:6d:34:5f:7a:64:1a:a0:81:02:30:73:8c:
        ae:dc:04:4f:f5:1f:c5:e8:58:ee:6a:e5:73:9f:b9:6d:0b:2d:
        c1:95:3f:84:3d:81:b2:42:ea:2a:e6:92:51:85:d5:81:95:d1:
        33:1b:b4:29:88:2f:15:4b:96:cd:53:38:c9:c6:c7:8b:2a:86:
        ee:9a
-----BEGIN CERTIFICATE-----
MIICvDCCAiUCCQCbJ9fo0boI8TANBgkqhkiG9w0BAQQFADCBlTELMAkGA1UEBhMC
REUxETAPBgNVBAgTCFNhYXJsYW5kMRAwDgYDVQQKEwdNUEktU1dTMSIwIAYDVQQL
ExlEaXN0cmlidXRlZCBTeXN0ZW1zIEdyb3VwMRowGAYDVQQDExFBbmRyZWFzIEhh
ZWJlcmxlbjEhMB8GCSqGSIb3DQEJARYSZGVtb2NhQG9jdGFyaW5lLmRlMB4XDTE1
MDQyMDIwNDcwOVoXDTE2MDQxOTIwNDcwOVowga4xCzAJBgNVBAYTAkRFMREwDwYD
VQQIEwhTYWFybGFuZDEQMA4GA1UEChMHTVBJLVNXUzEiMCAGA1UECxMZRGlzdHJp
YnV0ZWQgU3lzdGVtcyBHcm91cDExMC8GA1UEAxMoMzRmZWRlMDFkNjBlNmI1M2Jk
MzE0MjE1MGI4NmFjYWQwYWJlOWJmNjEjMCEGCSqGSIb3DQEJARYUbm9kZTAyODFA
b2N0YXJpbmUuZGUwgZ8wDQYJKoZIhvcNAQEBBQADgY0AMIGJAoGBALCJ8zAUsqrd
49LCLAURssMmxedz6ZEy1CIWBZsPRRIfy6UOt5fWI1PjJfC6wABzPGTVzRF+H2RM
MzNZd88y58TfFb9+uxrv+aM0dBI+PL9vgD2bMREEQaa5cQoX2euKnG0RRK8DWKVe
x5vQbuRkuwY7PDKJQeTwkABtMwYEJ7eRAgMBAAEwDQYJKoZIhvcNAQEEBQADgYEA
pbuZsGoKaWyr5SQUwhCd7JuUMbRb1TNNRkT7pFnbggr1uEBUxWc6eI1215NM2HjW
0F/9pXL2v6Pd+a08bTRfemQaoIECMHOMrtwET/UfxehY7mrlc5+5bQstwZU/hD2B
skLqKuaSUYXVgZXRMxu0KYgvFUuWzVM4ycbHiyqG7po=
-----END CERTIFICATE-----
