Certificate:
    Data:
        Version: 1 (0x0)
        Serial Number:
            9b:27:d7:e8:d1:ba:0a:24
        Signature Algorithm: md5WithRSAEncryption
        Issuer: C=DE, ST=Saarland, O=MPI-SWS, OU=Distributed Systems Group, CN=Andreas Haeberlen/emailAddress=democa@octarine.de
        Validity
            Not Before: Apr 20 20:47:23 2015 GMT
            Not After : Apr 19 20:47:23 2016 GMT
        Subject: C=DE, ST=Saarland, O=MPI-SWS, OU=Distributed Systems Group, CN=13ddfd32a38b91192ab4415eca3c9c2bf08edc08/emailAddress=node0588@octarine.de
        Subject Public Key Info:
            Public Key Algorithm: rsaEncryption
            RSA Public Key: (1024 bit)
                Modulus (1024 bit):
                    00:cb:dc:22:6a:80:a4:47:d4:3f:bd:20:7a:58:39:
                    65:8a:d0:ad:4e:17:b0:1e:85:1a:e8:2e:e8:31:de:
                    46:f5:44:35:f4:e2:73:85:47:08:90:71:1c:93:6c:
                    1e:8c:b2:4b:63:5e:bd:40:0e:e0:60:bf:f1:d6:65:
                    74:86:a1:7f:fe:cb:3e:ec:19:6a:1d:75:e2:48:2e:
                    10:c8:89:c9:31:de:9d:16:8f:9e:55:79:0f:f2:3c:
                    bf:57:3c:8c:aa:84:1a:ce:07:85:a8:d4:08:87:ed:
                    b4:f7:20:7d:4c:70:2d:68:06:48:d1:d7:a9:4c:eb:
                    75:63:54:62:66:c9:44:fd:0d
                Exponent: 65537 (0x10001)
    Signature Algorithm: md5WithRSAEncryption
        5a:fd:43:c0:43:72:77:ac:c5:4e:b4:7d:92:3d:00:a7:90:1a:
        b4:a3:ae:29:5a:84:2d:48:de:76:47:19:6c:31:55:6d:81:98:
        d3:85:ce:27:6a:03:00:29:6f:23:60:a4:34:64:ce:94:82:4b:
        9c:fe:90:44:5a:3c:ef:58:d8:40:d0:9d:6f:0b:eb:1d:a8:3d:
        f4:d4:16:66:2d:7c:fb:ee:88:4b:67:53:db:75:83:9f:57:b4:
        1b:7e:58:33:b3:f0:b0:d7:11:31:c9:e2:80:1d:c9:1e:fd:fe:
        69:aa:30:40:bf:7f:3b:8b:72:e1:e0:4e:db:35:0a:81:c5:70:
        19:14
-----BEGIN CERTIFICATE-----
MIICvDCCAiUCCQCbJ9fo0boKJDANBgkqhkiG9w0BAQQFADCBlTELMAkGA1UEBhMC
REUxETAPBgNVBAgTCFNhYXJsYW5kMRAwDgYDVQQKEwdNUEktU1dTMSIwIAYDVQQL
ExlEaXN0cmlidXRlZCBTeXN0ZW1zIEdyb3VwMRowGAYDVQQDExFBbmRyZWFzIEhh
ZWJlcmxlbjEhMB8GCSqGSIb3DQEJARYSZGVtb2NhQG9jdGFyaW5lLmRlMB4XDTE1
MDQyMDIwNDcyM1oXDTE2MDQxOTIwNDcyM1owga4xCzAJBgNVBAYTAkRFMREwDwYD
VQQIEwhTYWFybGFuZDEQMA4GA1UEChMHTVBJLVNXUzEiMCAGA1UECxMZRGlzdHJp
YnV0ZWQgU3lzdGVtcyBHcm91cDExMC8GA1UEAxMoMTNkZGZkMzJhMzhiOTExOTJh
YjQ0MTVlY2EzYzljMmJmMDhlZGMwODEjMCEGCSqGSIb3DQEJARYUbm9kZTA1ODhA
b2N0YXJpbmUuZGUwgZ8wDQYJKoZIhvcNAQEBBQADgY0AMIGJAoGBAMvcImqApEfU
P70gelg5ZYrQrU4XsB6FGugu6DHeRvVENfTic4VHCJBxHJNsHoyyS2NevUAO4GC/
8dZldIahf/7LPuwZah114kguEMiJyTHenRaPnlV5D/I8v1c8jKqEGs4HhajUCIft
tPcgfUxwLWgGSNHXqUzrdWNUYmbJRP0NAgMBAAEwDQYJKoZIhvcNAQEEBQADgYEA
Wv1DwENyd6zFTrR9kj0Ap5AatKOuKVqELUjedkcZbDFVbYGY04XOJ2oDAClvI2Ck
NGTOlIJLnP6QRFo871jYQNCdbwvrHag99NQWZi18++6IS2dT23WDn1e0G35YM7Pw
sNcRMcnigB3JHv3+aaowQL9/O4ty4eBO2zUKgcVwGRQ=
-----END CERTIFICATE-----
