Certificate:
    Data:
        Version: 1 (0x0)
        Serial Number:
            9b:27:d7:e8:d1:ba:0b:b3
        Signature Algorithm: md5WithRSAEncryption
        Issuer: C=DE, ST=Saarland, O=MPI-SWS, OU=Distributed Systems Group, CN=Andreas Haeberlen/emailAddress=democa@octarine.de
        Validity
            Not Before: Apr 20 20:47:41 2015 GMT
            Not After : Apr 19 20:47:41 2016 GMT
        Subject: C=DE, ST=Saarland, O=MPI-SWS, OU=Distributed Systems Group, CN=4d2371b12c1ca7c08bbd42be83b52106f3974587/emailAddress=node0987@octarine.de
        Subject Public Key Info:
            Public Key Algorithm: rsaEncryption
            RSA Public Key: (1024 bit)
                Modulus (1024 bit):
                    00:cb:99:62:d2:69:6d:90:a2:03:0e:d7:5b:70:97:
                    ce:44:fb:70:6a:6f:3d:8a:1c:8b:9d:ed:c1:ff:bc:
                    94:ea:26:09:b9:cd:93:f8:31:92:49:88:9f:5f:e4:
                    b7:c8:a7:96:6a:de:37:33:8b:b4:6e:64:0e:89:07:
                    1c:61:a4:4e:2f:11:6d:7b:b9:f5:22:62:92:3e:72:
                    8e:97:bb:67:fc:45:02:47:18:fc:c2:36:09:71:53:
                    90:62:d8:3f:3c:16:10:90:cb:8d:03:99:58:ed:1b:
                    d7:38:d1:1a:34:47:d2:f7:11:47:f7:13:d9:55:9f:
                    f4:02:53:ad:05:6f:a4:05:c5
                Exponent: 65537 (0x10001)
    Signature Algorithm: md5WithRSAEncryption
        1c:37:0d:35:29:e8:a2:f5:e8:39:98:54:fb:64:f9:b5:66:b3:
        9a:7f:89:1d:ed:b2:ad:c7:3c:ef:f8:bc:cd:ea:d9:2c:55:1c:
        f1:16:5d:d0:2d:ff:db:24:71:fe:54:d7:98:2e:be:8b:a7:75:
        d8:ea:09:e1:81:62:1d:ec:b3:3a:48:f3:d3:a6:e5:c0:46:cb:
        b8:6c:1c:54:03:61:03:40:fe:c2:03:cb:cb:c8:44:4b:17:cb:
        04:e2:f0:a4:72:14:a9:a7:cf:01:bc:55:ac:13:6c:b3:a3:1b:
        4c:96:39:1b:33:21:82:b9:b7:39:21:c6:1a:d9:8c:b3:9f:02:
        6c:35
-----BEGIN CERTIFICATE-----
MIICvDCCAiUCCQCbJ9fo0boLszANBgkqhkiG9w0BAQQFADCBlTELMAkGA1UEBhMC
REUxETAPBgNVBAgTCFNhYXJsYW5kMRAwDgYDVQQKEwdNUEktU1dTMSIwIAYDVQQL
ExlEaXN0cmlidXRlZCBTeXN0ZW1zIEdyb3VwMRowGAYDVQQDExFBbmRyZWFzIEhh
ZWJlcmxlbjEhMB8GCSqGSIb3DQEJARYSZGVtb2NhQG9jdGFyaW5lLmRlMB4XDTE1
MDQyMDIwNDc0MVoXDTE2MDQxOTIwNDc0MVowga4xCzAJBgNVBAYTAkRFMREwDwYD
VQQIEwhTYWFybGFuZDEQMA4GA1UEChMHTVBJLVNXUzEiMCAGA1UECxMZRGlzdHJp
YnV0ZWQgU3lzdGVtcyBHcm91cDExMC8GA1UEAxMoNGQyMzcxYjEyYzFjYTdjMDhi
YmQ0MmJlODNiNTIxMDZmMzk3NDU4NzEjMCEGCSqGSIb3DQEJARYUbm9kZTA5ODdA
b2N0YXJpbmUuZGUwgZ8wDQYJKoZIhvcNAQEBBQADgY0AMIGJAoGBAMuZYtJpbZCi
Aw7XW3CXzkT7cGpvPYoci53twf+8lOomCbnNk/gxkkmIn1/kt8inlmreNzOLtG5k
DokHHGGkTi8RbXu59SJikj5yjpe7Z/xFAkcY/MI2CXFTkGLYPzwWEJDLjQOZWO0b
1zjRGjRH0vcRR/cT2VWf9AJTrQVvpAXFAgMBAAEwDQYJKoZIhvcNAQEEBQADgYEA
HDcNNSnoovXoOZhU+2T5tWazmn+JHe2yrcc87/i8zerZLFUc8RZd0C3/2yRx/lTX
mC6+i6d12OoJ4YFiHeyzOkjz06blwEbLuGwcVANhA0D+wgPLy8hESxfLBOLwpHIU
qafPAbxVrBNss6MbTJY5GzMhgrm3OSHGGtmMs58CbDU=
-----END CERTIFICATE-----
