Certificate:
    Data:
        Version: 1 (0x0)
        Serial Number:
            9b:27:d7:e8:d1:ba:08:1f
        Signature Algorithm: md5WithRSAEncryption
        Issuer: C=DE, ST=Saarland, O=MPI-SWS, OU=Distributed Systems Group, CN=Andreas Haeberlen/emailAddress=democa@octarine.de
        Validity
            Not Before: Apr 20 20:47:00 2015 GMT
            Not After : Apr 19 20:47:00 2016 GMT
        Subject: C=DE, ST=Saarland, O=MPI-SWS, OU=Distributed Systems Group, CN=d73f7411f923ef1c667ef0378a953df1530d71e7/emailAddress=node0071@octarine.de
        Subject Public Key Info:
            Public Key Algorithm: rsaEncryption
            RSA Public Key: (1024 bit)
                Modulus (1024 bit):
                    00:dc:13:d6:55:09:9a:42:3b:68:99:49:5d:e1:53:
                    87:02:39:74:3c:38:61:56:a2:5c:68:0a:b2:37:c4:
                    73:b2:6a:05:9e:27:c3:3a:9b:9e:1f:23:cf:85:05:
                    56:3e:85:7f:64:55:de:b8:fb:de:9b:6e:1c:84:93:
                    6d:7b:d8:9f:3c:8c:b0:79:74:82:02:fd:86:0a:98:
                    e7:f0:8a:30:5d:29:c7:f0:82:53:79:ea:e3:07:f7:
                    94:d7:eb:e2:03:e5:cd:fb:fc:2e:8c:df:ca:e9:72:
                    44:f8:6f:3d:d5:5a:64:b8:a8:63:7d:4f:9c:cf:0a:
                    8e:8d:94:c3:76:b4:fa:b8:13
                Exponent: 65537 (0x10001)
    Signature Algorithm: md5WithRSAEncryption
        11:e4:eb:3f:9a:62:cc:3a:03:7b:5a:8a:00:47:9f:88:2e:fe:
        80:21:61:c6:b0:14:af:63:0a:28:16:63:8f:99:b2:87:49:9b:
        46:84:09:86:f1:a8:2d:b0:2a:ac:37:f0:87:ae:27:2e:15:25:
        4b:cd:77:5d:a8:ac:f3:64:9e:7a:b7:ab:db:7e:05:78:63:9f:
        10:ce:79:90:88:83:5e:40:9b:9f:6e:e2:9b:ec:7a:eb:6f:7d:
        7b:eb:d7:41:e7:d0:b3:15:12:2a:00:82:43:44:2b:bc:52:b0:
        fa:ad:a1:f5:f9:f3:69:aa:83:1a:83:41:5c:78:09:11:2e:72:
        ab:ce
-----BEGIN CERTIFICATE-----
MIICvDCCAiUCCQCbJ9fo0boIHzANBgkqhkiG9w0BAQQFADCBlTELMAkGA1UEBhMC
REUxETAPBgNVBAgTCFNhYXJsYW5kMRAwDgYDVQQKEwdNUEktU1dTMSIwIAYDVQQL
ExlEaXN0cmlidXRlZCBTeXN0ZW1zIEdyb3VwMRowGAYDVQQDExFBbmRyZWFzIEhh
ZWJlcmxlbjEhMB8GCSqGSIb3DQEJARYSZGVtb2NhQG9jdGFyaW5lLmRlMB4XDTE1
MDQyMDIwNDcwMFoXDTE2MDQxOTIwNDcwMFowga4xCzAJBgNVBAYTAkRFMREwDwYD
VQQIEwhTYWFybGFuZDEQMA4GA1UEChMHTVBJLVNXUzEiMCAGA1UECxMZRGlzdHJp
YnV0ZWQgU3lzdGVtcyBHcm91cDExMC8GA1UEAxMoZDczZjc0MTFmOTIzZWYxYzY2
N2VmMDM3OGE5NTNkZjE1MzBkNzFlNzEjMCEGCSqGSIb3DQEJARYUbm9kZTAwNzFA
b2N0YXJpbmUuZGUwgZ8wDQYJKoZIhvcNAQEBBQADgY0AMIGJAoGBANwT1lUJmkI7
aJlJXeFThwI5dDw4YVaiXGgKsjfEc7JqBZ4nwzqbnh8jz4UFVj6Ff2RV3rj73ptu
HISTbXvYnzyMsHl0ggL9hgqY5/CKMF0px/CCU3nq4wf3lNfr4gPlzfv8Lozfyuly
RPhvPdVaZLioY31PnM8Kjo2Uw3a0+rgTAgMBAAEwDQYJKoZIhvcNAQEEBQADgYEA
EeTrP5pizDoDe1qKAEefiC7+gCFhxrAUr2MKKBZjj5myh0mbRoQJhvGoLbAqrDfw
h64nLhUlS813Xais82Seerer234FeGOfEM55kIiDXkCbn27im+x66299e+vXQefQ
sxUSKgCCQ0QrvFKw+q2h9fnzaaqDGoNBXHgJES5yq84=
-----END CERTIFICATE-----
