Certificate:
    Data:
        Version: 1 (0x0)
        Serial Number:
            9b:27:d7:e8:d1:ba:09:eb
        Signature Algorithm: md5WithRSAEncryption
        Issuer: C=DE, ST=Saarland, O=MPI-SWS, OU=Distributed Systems Group, CN=Andreas Haeberlen/emailAddress=democa@octarine.de
        Validity
            Not Before: Apr 20 20:47:20 2015 GMT
            Not After : Apr 19 20:47:20 2016 GMT
        Subject: C=DE, ST=Saarland, O=MPI-SWS, OU=Distributed Systems Group, CN=fc0fdccc89468741472bd95962ee19016004dc05/emailAddress=node0531@octarine.de
        Subject Public Key Info:
            Public Key Algorithm: rsaEncryption
            RSA Public Key: (1024 bit)
                Modulus (1024 bit):
                    00:af:27:11:05:21:34:74:52:ee:e1:45:5d:f1:01:
                    5d:12:54:4a:26:d8:1d:16:60:9f:ec:7f:54:01:c7:
                    8d:74:83:a6:cc:ad:38:66:f8:94:51:ab:63:9e:6b:
                    55:40:62:5f:ab:66:05:57:6b:71:18:35:87:a3:63:
                    1c:39:e8:ac:ba:0e:c8:a6:0f:0a:67:db:de:0c:28:
                    a9:87:1e:f7:6c:46:4f:d9:9d:8c:c4:03:4e:67:0c:
                    cb:94:77:bc:16:74:e1:ce:82:14:1c:7e:25:e8:a4:
                    3b:74:aa:82:04:6c:ef:59:d6:14:6f:33:3b:af:b7:
                    33:a7:a4:e8:78:6f:cb:f5:4f
                Exponent: 65537 (0x10001)
    Signature Algorithm: md5WithRSAEncryption
        93:89:c3:fe:e4:4a:99:e0:04:9e:88:fc:ef:58:be:7c:48:16:
        21:be:64:ba:cb:b1:76:1a:d2:c4:a8:68:bd:d7:9b:84:1c:31:
        ea:4f:32:b4:b4:5b:9a:9f:b8:d7:ed:de:ad:f2:59:11:57:59:
        50:ba:f9:25:8d:04:0c:7a:64:e5:70:85:22:f7:44:e1:f0:16:
        d4:e6:f6:18:5c:da:3b:c9:c5:59:c1:f4:36:9c:80:a8:f9:5c:
        d7:09:32:3c:18:68:b0:e9:2f:8e:9b:42:bf:4e:45:89:ad:d6:
        a4:45:08:ac:c1:97:c5:74:17:b4:44:bb:0c:35:c0:a7:e0:67:
        fc:d4
-----BEGIN CERTIFICATE-----
MIICvDCCAiUCCQCbJ9fo0boJ6zANBgkqhkiG9w0BAQQFADCBlTELMAkGA1UEBhMC
REUxETAPBgNVBAgTCFNhYXJsYW5kMRAwDgYDVQQKEwdNUEktU1dTMSIwIAYDVQQL
ExlEaXN0cmlidXRlZCBTeXN0ZW1zIEdyb3VwMRowGAYDVQQDExFBbmRyZWFzIEhh
ZWJlcmxlbjEhMB8GCSqGSIb3DQEJARYSZGVtb2NhQG9jdGFyaW5lLmRlMB4XDTE1
MDQyMDIwNDcyMFoXDTE2MDQxOTIwNDcyMFowga4xCzAJBgNVBAYTAkRFMREwDwYD
VQQIEwhTYWFybGFuZDEQMA4GA1UEChMHTVBJLVNXUzEiMCAGA1UECxMZRGlzdHJp
YnV0ZWQgU3lzdGVtcyBHcm91cDExMC8GA1UEAxMoZmMwZmRjY2M4OTQ2ODc0MTQ3
MmJkOTU5NjJlZTE5MDE2MDA0ZGMwNTEjMCEGCSqGSIb3DQEJARYUbm9kZTA1MzFA
b2N0YXJpbmUuZGUwgZ8wDQYJKoZIhvcNAQEBBQADgY0AMIGJAoGBAK8nEQUhNHRS
7uFFXfEBXRJUSibYHRZgn+x/VAHHjXSDpsytOGb4lFGrY55rVUBiX6tmBVdrcRg1
h6NjHDnorLoOyKYPCmfb3gwoqYce92xGT9mdjMQDTmcMy5R3vBZ04c6CFBx+Jeik
O3SqggRs71nWFG8zO6+3M6ek6Hhvy/VPAgMBAAEwDQYJKoZIhvcNAQEEBQADgYEA
k4nD/uRKmeAEnoj871i+fEgWIb5kusuxdhrSxKhovdebhBwx6k8ytLRbmp+41+3e
rfJZEVdZULr5JY0EDHpk5XCFIvdE4fAW1Ob2GFzaO8nFWcH0NpyAqPlc1wkyPBho
sOkvjptCv05Fia3WpEUIrMGXxXQXtES7DDXAp+Bn/NQ=
-----END CERTIFICATE-----
