Certificate:
    Data:
        Version: 1 (0x0)
        Serial Number:
            9b:27:d7:e8:d1:ba:07:f8
        Signature Algorithm: md5WithRSAEncryption
        Issuer: C=DE, ST=Saarland, O=MPI-SWS, OU=Distributed Systems Group, CN=Andreas Haeberlen/emailAddress=democa@octarine.de
        Validity
            Not Before: Apr 20 20:46:58 2015 GMT
            Not After : Apr 19 20:46:58 2016 GMT
        Subject: C=DE, ST=Saarland, O=MPI-SWS, OU=Distributed Systems Group, CN=d38fc796f47b1dce33aab834e8b996e7a677e1dd/emailAddress=node0032@octarine.de
        Subject Public Key Info:
            Public Key Algorithm: rsaEncryption
            RSA Public Key: (1024 bit)
                Modulus (1024 bit):
                    00:b2:03:09:d6:e2:85:18:34:6b:79:d4:70:e8:d2:
                    65:17:00:af:c5:3d:30:dd:dd:37:92:7c:ba:2b:b4:
                    fd:51:54:07:df:37:57:cb:22:62:87:6c:30:6a:c8:
                    5c:22:fb:8b:88:85:58:94:22:d8:34:86:4f:13:6c:
                    db:f1:22:54:c2:ad:a7:ec:ac:06:0d:a7:47:53:14:
                    d0:a1:32:bc:c7:4c:59:46:92:b6:6c:6d:8f:8e:c2:
                    82:30:8a:35:b9:bb:b6:00:86:86:90:52:55:67:75:
                    11:cc:b4:9e:e6:21:5b:03:bc:8f:21:30:fa:10:01:
                    1a:02:76:28:87:f5:ce:b0:c5
                Exponent: 65537 (0x10001)
    Signature Algorithm: md5WithRSAEncryption
        98:35:44:8f:5a:da:ad:2d:8e:67:2f:0e:a5:96:40:d5:e3:e2:
        65:13:bb:ab:e6:b6:5b:25:30:69:d2:b6:a7:54:81:17:6c:7e:
        10:51:5c:a7:18:d0:9a:64:e7:45:e6:88:55:34:3d:c7:06:5e:
        1c:16:ff:90:18:7e:95:95:43:6e:f9:f7:b9:c0:66:06:af:6d:
        a1:b1:fe:97:84:63:ff:58:bd:01:0d:cc:a8:8d:4d:bf:0f:d7:
        c8:c5:cb:2c:cd:cf:e7:ef:08:53:94:a6:e9:ad:e3:c5:7a:f8:
        60:5a:7d:b8:2b:07:c6:6d:4e:a7:a9:cd:df:6d:47:0c:47:5d:
        3c:d6
-----BEGIN CERTIFICATE-----
MIICvDCCAiUCCQCbJ9fo0boH+DANBgkqhkiG9w0BAQQFADCBlTELMAkGA1UEBhMC
REUxETAPBgNVBAgTCFNhYXJsYW5kMRAwDgYDVQQKEwdNUEktU1dTMSIwIAYDVQQL
ExlEaXN0cmlidXRlZCBTeXN0ZW1zIEdyb3VwMRowGAYDVQQDExFBbmRyZWFzIEhh
ZWJlcmxlbjEhMB8GCSqGSIb3DQEJARYSZGVtb2NhQG9jdGFyaW5lLmRlMB4XDTE1
MDQyMDIwNDY1OFoXDTE2MDQxOTIwNDY1OFowga4xCzAJBgNVBAYTAkRFMREwDwYD
VQQIEwhTYWFybGFuZDEQMA4GA1UEChMHTVBJLVNXUzEiMCAGA1UECxMZRGlzdHJp
YnV0ZWQgU3lzdGVtcyBHcm91cDExMC8GA1UEAxMoZDM4ZmM3OTZmNDdiMWRjZTMz
YWFiODM0ZThiOTk2ZTdhNjc3ZTFkZDEjMCEGCSqGSIb3DQEJARYUbm9kZTAwMzJA
b2N0YXJpbmUuZGUwgZ8wDQYJKoZIhvcNAQEBBQADgY0AMIGJAoGBALIDCdbihRg0
a3nUcOjSZRcAr8U9MN3dN5J8uiu0/VFUB983V8siYodsMGrIXCL7i4iFWJQi2DSG
TxNs2/EiVMKtp+ysBg2nR1MU0KEyvMdMWUaStmxtj47CgjCKNbm7tgCGhpBSVWd1
Ecy0nuYhWwO8jyEw+hABGgJ2KIf1zrDFAgMBAAEwDQYJKoZIhvcNAQEEBQADgYEA
mDVEj1rarS2OZy8OpZZA1ePiZRO7q+a2WyUwadK2p1SBF2x+EFFcpxjQmmTnReaI
VTQ9xwZeHBb/kBh+lZVDbvn3ucBmBq9tobH+l4Rj/1i9AQ3MqI1Nvw/XyMXLLM3P
5+8IU5Sm6a3jxXr4YFp9uCsHxm1Op6nN321HDEddPNY=
-----END CERTIFICATE-----
