Certificate:
    Data:
        Version: 1 (0x0)
        Serial Number:
            9b:27:d7:e8:d1:ba:0a:41
        Signature Algorithm: md5WithRSAEncryption
        Issuer: C=DE, ST=Saarland, O=MPI-SWS, OU=Distributed Systems Group, CN=Andreas Haeberlen/emailAddress=democa@octarine.de
        Validity
            Not Before: Apr 20 20:47:24 2015 GMT
            Not After : Apr 19 20:47:24 2016 GMT
        Subject: C=DE, ST=Saarland, O=MPI-SWS, OU=Distributed Systems Group, CN=c6b22403484c48cd8a1bb468a7501d6e3106619b/emailAddress=node0617@octarine.de
        Subject Public Key Info:
            Public Key Algorithm: rsaEncryption
            RSA Public Key: (1024 bit)
                Modulus (1024 bit):
                    00:d7:f6:53:b6:d7:7e:f5:0b:ed:c4:9d:33:19:1b:
                    41:4f:1c:30:54:be:15:c6:93:4a:4a:fb:e1:ae:83:
                    89:34:9d:e4:a1:14:19:f5:39:be:29:1f:30:24:23:
                    92:0b:46:0b:fa:50:3e:93:fb:30:aa:6b:70:a8:43:
                    77:a5:b1:42:c6:ff:ba:22:e1:41:98:17:a9:98:16:
                    2b:c4:70:dd:4e:f0:8a:35:3d:e4:26:04:13:64:87:
                    f3:86:6e:44:fb:a3:34:fd:43:ae:03:0a:14:65:d8:
                    c3:33:99:ae:38:7b:2f:31:cb:f4:ec:5c:71:7b:f4:
                    f0:ec:00:9c:d5:2f:0a:c4:5b
                Exponent: 65537 (0x10001)
    Signature Algorithm: md5WithRSAEncryption
        a7:60:d5:96:85:ec:90:ee:0f:2f:68:d2:c7:13:38:97:f3:0f:
        d7:5e:18:c1:b4:89:36:61:2f:25:2f:61:94:95:1b:1a:bb:68:
        46:df:3b:6e:fe:4d:9c:64:30:0e:80:20:65:41:09:2a:e2:9a:
        dd:22:89:b9:b2:5f:ac:df:a7:4e:46:00:6d:64:49:9c:f2:b5:
        14:b5:8e:58:f1:e6:cb:8f:d6:5a:94:9e:6f:ea:68:c8:72:0e:
        a4:e9:c6:45:c2:65:4c:2d:c9:89:65:7b:dc:66:45:62:8b:05:
        e1:3d:fb:ad:c0:de:08:b7:7c:13:b6:32:28:d8:04:a2:65:82:
        52:8b
-----BEGIN CERTIFICATE-----
MIICvDCCAiUCCQCbJ9fo0boKQTANBgkqhkiG9w0BAQQFADCBlTELMAkGA1UEBhMC
REUxETAPBgNVBAgTCFNhYXJsYW5kMRAwDgYDVQQKEwdNUEktU1dTMSIwIAYDVQQL
ExlEaXN0cmlidXRlZCBTeXN0ZW1zIEdyb3VwMRowGAYDVQQDExFBbmRyZWFzIEhh
ZWJlcmxlbjEhMB8GCSqGSIb3DQEJARYSZGVtb2NhQG9jdGFyaW5lLmRlMB4XDTE1
MDQyMDIwNDcyNFoXDTE2MDQxOTIwNDcyNFowga4xCzAJBgNVBAYTAkRFMREwDwYD
VQQIEwhTYWFybGFuZDEQMA4GA1UEChMHTVBJLVNXUzEiMCAGA1UECxMZRGlzdHJp
YnV0ZWQgU3lzdGVtcyBHcm91cDExMC8GA1UEAxMoYzZiMjI0MDM0ODRjNDhjZDhh
MWJiNDY4YTc1MDFkNmUzMTA2NjE5YjEjMCEGCSqGSIb3DQEJARYUbm9kZTA2MTdA
b2N0YXJpbmUuZGUwgZ8wDQYJKoZIhvcNAQEBBQADgY0AMIGJAoGBANf2U7bXfvUL
7cSdMxkbQU8cMFS+FcaTSkr74a6DiTSd5KEUGfU5vikfMCQjkgtGC/pQPpP7MKpr
cKhDd6WxQsb/uiLhQZgXqZgWK8Rw3U7wijU95CYEE2SH84ZuRPujNP1DrgMKFGXY
wzOZrjh7LzHL9OxccXv08OwAnNUvCsRbAgMBAAEwDQYJKoZIhvcNAQEEBQADgYEA
p2DVloXskO4PL2jSxxM4l/MP114YwbSJNmEvJS9hlJUbGrtoRt87bv5NnGQwDoAg
ZUEJKuKa3SKJubJfrN+nTkYAbWRJnPK1FLWOWPHmy4/WWpSeb+poyHIOpOnGRcJl
TC3JiWV73GZFYosF4T37rcDeCLd8E7YyKNgEomWCUos=
-----END CERTIFICATE-----
