Certificate:
    Data:
        Version: 1 (0x0)
        Serial Number:
            9b:27:d7:e8:d1:ba:08:b6
        Signature Algorithm: md5WithRSAEncryption
        Issuer: C=DE, ST=Saarland, O=MPI-SWS, OU=Distributed Systems Group, CN=Andreas Haeberlen/emailAddress=democa@octarine.de
        Validity
            Not Before: Apr 20 20:47:06 2015 GMT
            Not After : Apr 19 20:47:06 2016 GMT
        Subject: C=DE, ST=Saarland, O=MPI-SWS, OU=Distributed Systems Group, CN=e8ffde1b2543dd676769f7fbaa3b4242b4182345/emailAddress=node0222@octarine.de
        Subject Public Key Info:
            Public Key Algorithm: rsaEncryption
            RSA Public Key: (1024 bit)
                Modulus (1024 bit):
                    00:f0:9f:ee:d5:a2:50:b1:92:2f:34:bf:3d:6e:09:
                    ae:4a:e0:0f:17:df:63:1f:1e:07:66:75:07:7c:eb:
                    98:5f:5b:6a:42:8a:44:d5:ba:6d:ab:4b:56:15:ff:
                    99:ba:7f:fa:90:1e:7a:a9:e5:14:24:b8:e8:a1:f8:
                    9e:2d:b1:d7:f9:36:d4:b9:14:ed:01:94:46:ec:c2:
                    07:58:4a:47:a5:a5:c3:34:be:c4:dc:be:72:3e:4d:
                    ec:80:a4:2f:17:01:c9:1b:90:60:95:cb:2b:78:c2:
                    de:f2:db:27:8a:41:c1:65:f0:38:8f:f1:7e:a7:e6:
                    4e:74:b3:ac:9d:83:53:53:e3
                Exponent: 65537 (0x10001)
    Signature Algorithm: md5WithRSAEncryption
        77:a9:5c:62:d7:e6:c8:bc:1a:48:52:45:dc:8d:1f:a7:1c:c8:
        66:fc:2b:7e:20:db:09:82:94:86:33:f2:6e:92:83:d2:1c:89:
        a4:e4:90:76:ac:33:29:9b:2d:6a:e7:af:de:1e:5d:1f:68:ae:
        23:bb:9b:1e:77:c3:67:b5:29:05:3a:48:c8:f9:56:0e:df:d8:
        bd:17:9c:80:cf:7b:e0:89:f3:cd:ce:59:e0:1c:9e:3f:1c:c8:
        43:09:1c:f5:b9:98:eb:11:aa:bf:8f:e9:73:40:7d:57:ea:b7:
        2b:4b:a2:d9:49:e1:a1:db:58:f1:ef:23:e6:11:d0:1f:a3:dd:
        45:b1
-----BEGIN CERTIFICATE-----
MIICvDCCAiUCCQCbJ9fo0boItjANBgkqhkiG9w0BAQQFADCBlTELMAkGA1UEBhMC
REUxETAPBgNVBAgTCFNhYXJsYW5kMRAwDgYDVQQKEwdNUEktU1dTMSIwIAYDVQQL
ExlEaXN0cmlidXRlZCBTeXN0ZW1zIEdyb3VwMRowGAYDVQQDExFBbmRyZWFzIEhh
ZWJlcmxlbjEhMB8GCSqGSIb3DQEJARYSZGVtb2NhQG9jdGFyaW5lLmRlMB4XDTE1
MDQyMDIwNDcwNloXDTE2MDQxOTIwNDcwNlowga4xCzAJBgNVBAYTAkRFMREwDwYD
VQQIEwhTYWFybGFuZDEQMA4GA1UEChMHTVBJLVNXUzEiMCAGA1UECxMZRGlzdHJp
YnV0ZWQgU3lzdGVtcyBHcm91cDExMC8GA1UEAxMoZThmZmRlMWIyNTQzZGQ2NzY3
NjlmN2ZiYWEzYjQyNDJiNDE4MjM0NTEjMCEGCSqGSIb3DQEJARYUbm9kZTAyMjJA
b2N0YXJpbmUuZGUwgZ8wDQYJKoZIhvcNAQEBBQADgY0AMIGJAoGBAPCf7tWiULGS
LzS/PW4JrkrgDxffYx8eB2Z1B3zrmF9bakKKRNW6batLVhX/mbp/+pAeeqnlFCS4
6KH4ni2x1/k21LkU7QGURuzCB1hKR6WlwzS+xNy+cj5N7ICkLxcByRuQYJXLK3jC
3vLbJ4pBwWXwOI/xfqfmTnSzrJ2DU1PjAgMBAAEwDQYJKoZIhvcNAQEEBQADgYEA
d6lcYtfmyLwaSFJF3I0fpxzIZvwrfiDbCYKUhjPybpKD0hyJpOSQdqwzKZstauev
3h5dH2iuI7ubHnfDZ7UpBTpIyPlWDt/YvRecgM974Inzzc5Z4ByePxzIQwkc9bmY
6xGqv4/pc0B9V+q3K0ui2UnhodtY8e8j5hHQH6PdRbE=
-----END CERTIFICATE-----
