Certificate:
    Data:
        Version: 1 (0x0)
        Serial Number:
            9b:27:d7:e8:d1:ba:0a:15
        Signature Algorithm: md5WithRSAEncryption
        Issuer: C=DE, ST=Saarland, O=MPI-SWS, OU=Distributed Systems Group, CN=Andreas Haeberlen/emailAddress=democa@octarine.de
        Validity
            Not Before: Apr 20 20:47:22 2015 GMT
            Not After : Apr 19 20:47:22 2016 GMT
        Subject: C=DE, ST=Saarland, O=MPI-SWS, OU=Distributed Systems Group, CN=766f46b857867e0b547e42153611376aeca236a8/emailAddress=node0573@octarine.de
        Subject Public Key Info:
            Public Key Algorithm: rsaEncryption
            RSA Public Key: (1024 bit)
                Modulus (1024 bit):
                    00:bc:b3:9d:47:fb:ec:0e:d7:24:b5:a0:24:e3:f0:
                    f2:81:d3:77:2e:88:8a:88:e9:eb:18:d3:0a:f8:61:
                    bb:9c:72:07:b2:25:fd:cd:bd:a2:7a:7b:34:9f:33:
                    a5:04:fe:e1:b0:d1:8b:56:d2:5a:df:a1:ef:9b:cb:
                    87:e1:44:e8:14:18:5c:57:19:de:fe:1c:20:f6:3a:
                    3b:65:c1:12:22:f8:f7:28:23:7a:33:6a:ed:4a:a1:
                    86:51:11:92:9c:56:f6:70:a7:98:8d:a1:04:cc:c6:
                    1f:ae:bc:f8:a5:16:0e:90:33:cb:15:a3:73:3a:77:
                    27:d4:ec:95:a3:c2:e6:ed:3d
                Exponent: 65537 (0x10001)
    Signature Algorithm: md5WithRSAEncryption
        96:46:7a:5c:ab:94:11:aa:6a:70:98:64:26:36:be:07:89:6f:
        01:cb:82:21:f2:1d:b6:cd:6b:b2:69:38:ab:d6:ec:55:6f:87:
        86:49:89:83:ad:52:3f:90:66:96:36:97:a6:b2:97:15:7f:ff:
        69:06:d8:b4:29:d2:71:25:e8:05:9d:9f:11:be:05:88:01:5c:
        1b:ce:11:3d:77:68:0e:86:5d:a6:f2:29:5c:66:03:9a:86:1d:
        46:40:e3:cf:ce:fc:48:ee:89:73:2a:13:83:24:08:bf:52:80:
        6f:c4:ef:2d:67:f9:6a:3a:38:e2:73:0e:96:bc:85:a3:2a:37:
        a6:2b
-----BEGIN CERTIFICATE-----
MIICvDCCAiUCCQCbJ9fo0boKFTANBgkqhkiG9w0BAQQFADCBlTELMAkGA1UEBhMC
REUxETAPBgNVBAgTCFNhYXJsYW5kMRAwDgYDVQQKEwdNUEktU1dTMSIwIAYDVQQL
ExlEaXN0cmlidXRlZCBTeXN0ZW1zIEdyb3VwMRowGAYDVQQDExFBbmRyZWFzIEhh
ZWJlcmxlbjEhMB8GCSqGSIb3DQEJARYSZGVtb2NhQG9jdGFyaW5lLmRlMB4XDTE1
MDQyMDIwNDcyMloXDTE2MDQxOTIwNDcyMlowga4xCzAJBgNVBAYTAkRFMREwDwYD
VQQIEwhTYWFybGFuZDEQMA4GA1UEChMHTVBJLVNXUzEiMCAGA1UECxMZRGlzdHJp
YnV0ZWQgU3lzdGVtcyBHcm91cDExMC8GA1UEAxMoNzY2ZjQ2Yjg1Nzg2N2UwYjU0
N2U0MjE1MzYxMTM3NmFlY2EyMzZhODEjMCEGCSqGSIb3DQEJARYUbm9kZTA1NzNA
b2N0YXJpbmUuZGUwgZ8wDQYJKoZIhvcNAQEBBQADgY0AMIGJAoGBALyznUf77A7X
JLWgJOPw8oHTdy6Iiojp6xjTCvhhu5xyB7Il/c29onp7NJ8zpQT+4bDRi1bSWt+h
75vLh+FE6BQYXFcZ3v4cIPY6O2XBEiL49ygjejNq7UqhhlERkpxW9nCnmI2hBMzG
H668+KUWDpAzyxWjczp3J9TslaPC5u09AgMBAAEwDQYJKoZIhvcNAQEEBQADgYEA
lkZ6XKuUEapqcJhkJja+B4lvAcuCIfIdts1rsmk4q9bsVW+HhkmJg61SP5BmljaX
prKXFX//aQbYtCnScSXoBZ2fEb4FiAFcG84RPXdoDoZdpvIpXGYDmoYdRkDjz878
SO6JcyoTgyQIv1KAb8TvLWf5ajo44nMOlryFoyo3pis=
-----END CERTIFICATE-----
