Certificate:
    Data:
        Version: 1 (0x0)
        Serial Number:
            9b:27:d7:e8:d1:ba:0a:3f
        Signature Algorithm: md5WithRSAEncryption
        Issuer: C=DE, ST=Saarland, O=MPI-SWS, OU=Distributed Systems Group, CN=Andreas Haeberlen/emailAddress=democa@octarine.de
        Validity
            Not Before: Apr 20 20:47:24 2015 GMT
            Not After : Apr 19 20:47:24 2016 GMT
        Subject: C=DE, ST=Saarland, O=MPI-SWS, OU=Distributed Systems Group, CN=42665f9333b2e3f29e9553c38579f6539caeb31e/emailAddress=node0615@octarine.de
        Subject Public Key Info:
            Public Key Algorithm: rsaEncryption
            RSA Public Key: (1024 bit)
                Modulus (1024 bit):
                    00:bb:4b:a0:a2:59:57:43:8b:51:61:de:19:b7:56:
                    d8:fd:e6:4f:7f:b1:d6:e4:6b:b8:37:3b:57:25:82:
                    3a:90:7c:44:5d:84:77:34:a1:ab:4d:0a:af:79:24:
                    1c:08:61:bd:95:2d:cf:39:f8:81:fa:db:c3:8a:84:
                    4b:ad:10:81:be:7d:ab:c4:6f:ef:bc:4a:c2:b1:40:
                    d5:66:06:6e:e6:d9:3c:cf:e9:61:6d:9b:3f:bd:0e:
                    0b:73:bd:d8:9e:77:76:16:d1:02:3c:70:ed:d3:27:
                    11:53:1c:b9:2a:60:f8:c7:d8:93:ac:cb:42:24:ce:
                    48:d7:94:90:14:51:cc:b3:0b
                Exponent: 65537 (0x10001)
    Signature Algorithm: md5WithRSAEncryption
        01:10:1c:e1:3b:a7:92:33:c9:db:57:4a:60:99:33:ec:19:67:
        b7:c5:9c:c2:d9:04:fc:26:5b:e2:a8:42:56:23:c8:72:92:e4:
        0e:7f:a7:ee:a9:5e:8e:2e:01:f1:7a:b5:24:94:ee:16:c8:67:
        3e:ed:74:79:aa:a1:b0:03:f2:99:11:d2:7b:ec:c0:72:c1:95:
        04:c5:ae:32:3b:e6:12:6d:3e:4e:e7:3e:96:04:b1:c2:87:15:
        af:cc:dd:dd:88:ee:e1:57:1f:2c:b1:df:07:f8:94:d0:67:99:
        0e:d4:99:38:e8:fd:6e:72:fb:f6:f7:01:cd:c1:5a:77:67:3c:
        0a:04
-----BEGIN CERTIFICATE-----
MIICvDCCAiUCCQCbJ9fo0boKPzANBgkqhkiG9w0BAQQFADCBlTELMAkGA1UEBhMC
REUxETAPBgNVBAgTCFNhYXJsYW5kMRAwDgYDVQQKEwdNUEktU1dTMSIwIAYDVQQL
ExlEaXN0cmlidXRlZCBTeXN0ZW1zIEdyb3VwMRowGAYDVQQDExFBbmRyZWFzIEhh
ZWJlcmxlbjEhMB8GCSqGSIb3DQEJARYSZGVtb2NhQG9jdGFyaW5lLmRlMB4XDTE1
MDQyMDIwNDcyNFoXDTE2MDQxOTIwNDcyNFowga4xCzAJBgNVBAYTAkRFMREwDwYD
VQQIEwhTYWFybGFuZDEQMA4GA1UEChMHTVBJLVNXUzEiMCAGA1UECxMZRGlzdHJp
YnV0ZWQgU3lzdGVtcyBHcm91cDExMC8GA1UEAxMoNDI2NjVmOTMzM2IyZTNmMjll
OTU1M2MzODU3OWY2NTM5Y2FlYjMxZTEjMCEGCSqGSIb3DQEJARYUbm9kZTA2MTVA
b2N0YXJpbmUuZGUwgZ8wDQYJKoZIhvcNAQEBBQADgY0AMIGJAoGBALtLoKJZV0OL
UWHeGbdW2P3mT3+x1uRruDc7VyWCOpB8RF2EdzShq00Kr3kkHAhhvZUtzzn4gfrb
w4qES60Qgb59q8Rv77xKwrFA1WYGbubZPM/pYW2bP70OC3O92J53dhbRAjxw7dMn
EVMcuSpg+MfYk6zLQiTOSNeUkBRRzLMLAgMBAAEwDQYJKoZIhvcNAQEEBQADgYEA
ARAc4TunkjPJ21dKYJkz7Blnt8WcwtkE/CZb4qhCViPIcpLkDn+n7qleji4B8Xq1
JJTuFshnPu10eaqhsAPymRHSe+zAcsGVBMWuMjvmEm0+Tuc+lgSxwocVr8zd3Yju
4VcfLLHfB/iU0GeZDtSZOOj9bnL79vcBzcFad2c8CgQ=
-----END CERTIFICATE-----
