Certificate:
    Data:
        Version: 1 (0x0)
        Serial Number:
            9b:27:d7:e8:d1:ba:0a:cb
        Signature Algorithm: md5WithRSAEncryption
        Issuer: C=DE, ST=Saarland, O=MPI-SWS, OU=Distributed Systems Group, CN=Andreas Haeberlen/emailAddress=democa@octarine.de
        Validity
            Not Before: Apr 20 20:47:30 2015 GMT
            Not After : Apr 19 20:47:30 2016 GMT
        Subject: C=DE, ST=Saarland, O=MPI-SWS, OU=Distributed Systems Group, CN=d941ff53dde2c983d2a5ae52c4ca3680fc1ec72a/emailAddress=node0755@octarine.de
        Subject Public Key Info:
            Public Key Algorithm: rsaEncryption
            RSA Public Key: (1024 bit)
                Modulus (1024 bit):
                    00:c8:77:14:aa:15:cd:99:7a:4b:1c:f2:47:e1:ad:
                    fe:82:58:2f:39:e4:28:2e:b9:54:ce:dd:09:ae:3f:
                    af:23:49:2b:f3:f0:3a:b2:da:6a:10:2e:3c:0d:88:
                    58:47:5a:b8:16:b6:f7:95:7e:87:27:72:5c:33:e1:
                    70:61:6d:3a:c2:df:0d:2f:51:3a:80:7a:cc:7a:fe:
                    1b:8a:d4:0b:a1:00:b6:72:5d:9d:5d:a1:53:55:d7:
                    9f:8f:3e:f6:74:26:0c:1e:68:8d:3b:d6:54:7b:27:
                    41:4b:55:03:7d:1d:4e:bf:f2:92:fd:b8:df:93:66:
                    d8:28:1a:b6:52:81:f8:3d:c5
                Exponent: 65537 (0x10001)
    Signature Algorithm: md5WithRSAEncryption
        3e:5f:6b:ab:de:68:cf:bf:cb:dc:bd:7c:8c:ad:5f:47:d9:67:
        ba:e9:e6:f6:24:6e:62:8a:46:89:a4:03:91:43:3f:c0:25:11:
        9a:8f:48:c6:d1:3b:c2:32:38:ba:14:37:2b:9d:a3:75:de:fe:
        bb:01:20:4b:7b:71:f9:cb:2a:8a:9b:3d:a2:42:e5:f1:43:49:
        c0:05:c7:e8:6e:8c:34:9f:21:78:63:80:a5:54:a2:87:0e:1c:
        2d:4d:87:6b:66:2c:5d:80:40:27:fe:68:bd:b7:97:89:84:94:
        13:7c:d3:21:8a:1a:04:0c:14:34:9c:65:11:bd:93:aa:48:24:
        50:d2
-----BEGIN CERTIFICATE-----
MIICvDCCAiUCCQCbJ9fo0boKyzANBgkqhkiG9w0BAQQFADCBlTELMAkGA1UEBhMC
REUxETAPBgNVBAgTCFNhYXJsYW5kMRAwDgYDVQQKEwdNUEktU1dTMSIwIAYDVQQL
ExlEaXN0cmlidXRlZCBTeXN0ZW1zIEdyb3VwMRowGAYDVQQDExFBbmRyZWFzIEhh
ZWJlcmxlbjEhMB8GCSqGSIb3DQEJARYSZGVtb2NhQG9jdGFyaW5lLmRlMB4XDTE1
MDQyMDIwNDczMFoXDTE2MDQxOTIwNDczMFowga4xCzAJBgNVBAYTAkRFMREwDwYD
VQQIEwhTYWFybGFuZDEQMA4GA1UEChMHTVBJLVNXUzEiMCAGA1UECxMZRGlzdHJp
YnV0ZWQgU3lzdGVtcyBHcm91cDExMC8GA1UEAxMoZDk0MWZmNTNkZGUyYzk4M2Qy
YTVhZTUyYzRjYTM2ODBmYzFlYzcyYTEjMCEGCSqGSIb3DQEJARYUbm9kZTA3NTVA
b2N0YXJpbmUuZGUwgZ8wDQYJKoZIhvcNAQEBBQADgY0AMIGJAoGBAMh3FKoVzZl6
SxzyR+Gt/oJYLznkKC65VM7dCa4/ryNJK/PwOrLaahAuPA2IWEdauBa295V+hydy
XDPhcGFtOsLfDS9ROoB6zHr+G4rUC6EAtnJdnV2hU1XXn48+9nQmDB5ojTvWVHsn
QUtVA30dTr/ykv2435Nm2CgatlKB+D3FAgMBAAEwDQYJKoZIhvcNAQEEBQADgYEA
Pl9rq95oz7/L3L18jK1fR9lnuunm9iRuYopGiaQDkUM/wCURmo9IxtE7wjI4uhQ3
K52jdd7+uwEgS3tx+csqips9okLl8UNJwAXH6G6MNJ8heGOApVSihw4cLU2Ha2Ys
XYBAJ/5ovbeXiYSUE3zTIYoaBAwUNJxlEb2TqkgkUNI=
-----END CERTIFICATE-----
