Certificate:
    Data:
        Version: 1 (0x0)
        Serial Number:
            9b:27:d7:e8:d1:ba:08:09
        Signature Algorithm: md5WithRSAEncryption
        Issuer: C=DE, ST=Saarland, O=MPI-SWS, OU=Distributed Systems Group, CN=Andreas Haeberlen/emailAddress=democa@octarine.de
        Validity
            Not Before: Apr 20 20:46:59 2015 GMT
            Not After : Apr 19 20:46:59 2016 GMT
        Subject: C=DE, ST=Saarland, O=MPI-SWS, OU=Distributed Systems Group, CN=419226aa4a97df93a4116b3df3b3b6ff781afc54/emailAddress=node0049@octarine.de
        Subject Public Key Info:
            Public Key Algorithm: rsaEncryption
            RSA Public Key: (1024 bit)
                Modulus (1024 bit):
                    00:c5:c4:a8:57:ed:6b:65:cf:20:72:d6:45:66:d0:
                    1e:99:ab:24:93:13:fd:82:ff:8c:b5:fc:fe:87:9a:
                    62:c8:60:b0:db:cb:8b:a1:be:df:66:6e:74:05:b7:
                    30:09:52:3a:93:45:6a:86:ba:e8:81:6a:f1:7b:b0:
                    c8:b4:b7:84:8c:6a:40:cf:e3:bd:e9:a7:ed:bb:f5:
                    2e:f3:5f:17:ff:be:a7:06:a7:9b:d8:3b:06:b3:38:
                    9d:af:5e:b4:56:bc:ec:52:2a:70:e2:1e:36:db:01:
                    27:73:ee:96:be:cb:cc:2c:af:f1:7f:14:d8:9c:8f:
                    0d:95:29:ae:c9:37:ed:ad:f7
                Exponent: 65537 (0x10001)
    Signature Algorithm: md5WithRSAEncryption
        a7:4b:1e:e0:1f:69:45:45:b1:4d:01:d0:2d:ea:d5:45:57:24:
        26:e8:ca:19:9c:9e:f7:1e:05:2a:00:d3:23:e5:7c:11:f8:71:
        7a:8a:86:fe:3b:1a:7b:3c:e9:99:53:63:cb:5f:22:87:1d:59:
        ce:ac:b6:25:0f:4e:88:9e:25:75:0d:16:b1:6f:9f:80:41:51:
        a4:c8:53:24:b8:56:20:f8:cd:be:ba:79:58:8e:71:bb:3b:da:
        da:07:36:0f:97:d0:37:5e:a4:88:89:60:be:19:68:1a:53:5f:
        e2:6f:de:fb:33:dd:95:4e:4b:9f:3a:96:c5:d4:fd:78:99:75:
        65:b2
-----BEGIN CERTIFICATE-----
MIICvDCCAiUCCQCbJ9fo0boICTANBgkqhkiG9w0BAQQFADCBlTELMAkGA1UEBhMC
REUxETAPBgNVBAgTCFNhYXJsYW5kMRAwDgYDVQQKEwdNUEktU1dTMSIwIAYDVQQL
ExlEaXN0cmlidXRlZCBTeXN0ZW1zIEdyb3VwMRowGAYDVQQDExFBbmRyZWFzIEhh
ZWJlcmxlbjEhMB8GCSqGSIb3DQEJARYSZGVtb2NhQG9jdGFyaW5lLmRlMB4XDTE1
MDQyMDIwNDY1OVoXDTE2MDQxOTIwNDY1OVowga4xCzAJBgNVBAYTAkRFMREwDwYD
VQQIEwhTYWFybGFuZDEQMA4GA1UEChMHTVBJLVNXUzEiMCAGA1UECxMZRGlzdHJp
YnV0ZWQgU3lzdGVtcyBHcm91cDExMC8GA1UEAxMoNDE5MjI2YWE0YTk3ZGY5M2E0
MTE2YjNkZjNiM2I2ZmY3ODFhZmM1NDEjMCEGCSqGSIb3DQEJARYUbm9kZTAwNDlA
b2N0YXJpbmUuZGUwgZ8wDQYJKoZIhvcNAQEBBQADgY0AMIGJAoGBAMXEqFfta2XP
IHLWRWbQHpmrJJMT/YL/jLX8/oeaYshgsNvLi6G+32ZudAW3MAlSOpNFaoa66IFq
8XuwyLS3hIxqQM/jvemn7bv1LvNfF/++pwanm9g7BrM4na9etFa87FIqcOIeNtsB
J3Pulr7LzCyv8X8U2JyPDZUprsk37a33AgMBAAEwDQYJKoZIhvcNAQEEBQADgYEA
p0se4B9pRUWxTQHQLerVRVckJujKGZye9x4FKgDTI+V8EfhxeoqG/jsaezzpmVNj
y18ihx1Zzqy2JQ9OiJ4ldQ0WsW+fgEFRpMhTJLhWIPjNvrp5WI5xuzva2gc2D5fQ
N16kiIlgvhloGlNf4m/e+zPdlU5LnzqWxdT9eJl1ZbI=
-----END CERTIFICATE-----
