Certificate:
    Data:
        Version: 1 (0x0)
        Serial Number:
            9b:27:d7:e8:d1:ba:07:f9
        Signature Algorithm: md5WithRSAEncryption
        Issuer: C=DE, ST=Saarland, O=MPI-SWS, OU=Distributed Systems Group, CN=Andreas Haeberlen/emailAddress=democa@octarine.de
        Validity
            Not Before: Apr 20 20:46:58 2015 GMT
            Not After : Apr 19 20:46:58 2016 GMT
        Subject: C=DE, ST=Saarland, O=MPI-SWS, OU=Distributed Systems Group, CN=5487255680049488d417a0e475b5692bea20f878/emailAddress=node0033@octarine.de
        Subject Public Key Info:
            Public Key Algorithm: rsaEncryption
            RSA Public Key: (1024 bit)
                Modulus (1024 bit):
                    00:d3:09:d6:4e:7b:a5:d7:ca:f0:a4:ff:76:6b:d0:
                    5d:5f:1f:3f:c1:c8:fe:a8:3b:23:5b:6b:f9:a0:ea:
                    e5:75:c2:3d:0c:e0:20:69:f7:4d:2f:38:d2:75:27:
                    3d:a1:37:1c:11:1e:64:12:8d:e2:64:da:78:b0:d0:
                    8c:f9:a5:71:df:f5:7c:02:63:84:02:19:b3:fa:82:
                    8e:17:22:db:e4:95:a2:a6:a6:87:d8:0c:78:95:4e:
                    26:32:42:f3:1b:18:74:11:4a:b8:b7:98:20:df:99:
                    fc:6b:b2:eb:3c:8d:3a:98:0e:15:80:78:bd:43:0f:
                    c2:d0:06:e8:ca:83:be:92:9b
                Exponent: 65537 (0x10001)
    Signature Algorithm: md5WithRSAEncryption
        bc:31:0f:cf:b7:de:ad:97:25:8b:8e:b9:df:00:35:cc:f5:ef:
        57:46:50:5e:8e:da:96:a8:8d:6d:94:7b:eb:7f:bf:15:46:33:
        39:2f:18:14:71:e9:f3:26:5d:c3:65:ae:55:8e:34:03:41:d7:
        a7:33:6d:cf:67:ac:80:5a:0b:b8:e2:61:77:9a:57:80:cb:99:
        10:64:65:b0:69:16:29:79:1f:70:3a:53:77:26:5f:ac:1a:5c:
        bb:ca:3d:c4:fa:80:c3:9b:f4:e1:6e:35:47:da:68:11:1d:3e:
        59:3b:73:88:73:a1:de:e3:e7:24:06:3a:5e:0c:f2:cf:87:b2:
        b4:3a
-----BEGIN CERTIFICATE-----
MIICvDCCAiUCCQCbJ9fo0boH+TANBgkqhkiG9w0BAQQFADCBlTELMAkGA1UEBhMC
REUxETAPBgNVBAgTCFNhYXJsYW5kMRAwDgYDVQQKEwdNUEktU1dTMSIwIAYDVQQL
ExlEaXN0cmlidXRlZCBTeXN0ZW1zIEdyb3VwMRowGAYDVQQDExFBbmRyZWFzIEhh
ZWJlcmxlbjEhMB8GCSqGSIb3DQEJARYSZGVtb2NhQG9jdGFyaW5lLmRlMB4XDTE1
MDQyMDIwNDY1OFoXDTE2MDQxOTIwNDY1OFowga4xCzAJBgNVBAYTAkRFMREwDwYD
VQQIEwhTYWFybGFuZDEQMA4GA1UEChMHTVBJLVNXUzEiMCAGA1UECxMZRGlzdHJp
YnV0ZWQgU3lzdGVtcyBHcm91cDExMC8GA1UEAxMoNTQ4NzI1NTY4MDA0OTQ4OGQ0
MTdhMGU0NzViNTY5MmJlYTIwZjg3ODEjMCEGCSqGSIb3DQEJARYUbm9kZTAwMzNA
b2N0YXJpbmUuZGUwgZ8wDQYJKoZIhvcNAQEBBQADgY0AMIGJAoGBANMJ1k57pdfK
8KT/dmvQXV8fP8HI/qg7I1tr+aDq5XXCPQzgIGn3TS840nUnPaE3HBEeZBKN4mTa
eLDQjPmlcd/1fAJjhAIZs/qCjhci2+SVoqamh9gMeJVOJjJC8xsYdBFKuLeYIN+Z
/Guy6zyNOpgOFYB4vUMPwtAG6MqDvpKbAgMBAAEwDQYJKoZIhvcNAQEEBQADgYEA
vDEPz7ferZcli4653wA1zPXvV0ZQXo7alqiNbZR763+/FUYzOS8YFHHp8yZdw2Wu
VY40A0HXpzNtz2esgFoLuOJhd5pXgMuZEGRlsGkWKXkfcDpTdyZfrBpcu8o9xPqA
w5v04W41R9poER0+WTtziHOh3uPnJAY6Xgzyz4eytDo=
-----END CERTIFICATE-----
