Certificate:
    Data:
        Version: 1 (0x0)
        Serial Number:
            9b:27:d7:e8:d1:ba:0a:90
        Signature Algorithm: md5WithRSAEncryption
        Issuer: C=DE, ST=Saarland, O=MPI-SWS, OU=Distributed Systems Group, CN=Andreas Haeberlen/emailAddress=democa@octarine.de
        Validity
            Not Before: Apr 20 20:47:27 2015 GMT
            Not After : Apr 19 20:47:27 2016 GMT
        Subject: C=DE, ST=Saarland, O=MPI-SWS, OU=Distributed Systems Group, CN=c10f4bee57042c3f11b9f1792391029d3ad75b6b/emailAddress=node0696@octarine.de
        Subject Public Key Info:
            Public Key Algorithm: rsaEncryption
            RSA Public Key: (1024 bit)
                Modulus (1024 bit):
                    00:d0:75:df:00:b2:5f:92:73:0b:ba:51:69:ef:dd:
                    67:45:98:bd:13:c8:b8:d5:56:8c:21:49:bd:fa:14:
                    67:00:5c:ad:fa:e3:fb:60:ee:88:5b:dc:00:d3:38:
                    06:57:99:ae:33:74:d3:22:01:b5:49:70:f4:14:9b:
                    90:60:16:08:7c:68:b8:a0:e9:80:50:f0:f1:d7:7c:
                    4e:ff:5b:fd:07:52:3c:63:5e:d9:2f:52:fe:4d:5c:
                    0a:1c:94:3b:f3:bf:5b:e5:57:4d:17:4d:a3:c5:5a:
                    2d:ac:ea:9d:a7:e2:b4:40:d9:de:d4:1f:92:fa:1d:
                    f8:47:a9:81:0e:60:c7:fc:c3
                Exponent: 65537 (0x10001)
    Signature Algorithm: md5WithRSAEncryption
        2e:81:f0:53:da:01:a2:1b:4c:26:20:ce:62:e2:c1:81:32:01:
        a2:8d:66:f7:da:3d:49:f4:1b:5c:22:5d:e8:20:3f:e1:25:a5:
        6e:ec:1f:74:e8:12:56:f2:c9:21:40:76:f7:5a:7c:12:b2:65:
        08:9a:e9:0c:67:c3:81:b8:c4:e9:e9:c3:97:89:44:0d:89:b7:
        f2:b5:b9:72:88:2b:27:61:8d:dc:88:b0:8b:d1:d2:a4:a0:e4:
        88:7e:1b:8a:d3:9f:e8:bc:a5:c1:91:0f:c4:98:b1:bc:28:87:
        12:e7:09:73:0b:0c:c6:cc:8a:c1:19:8f:50:af:77:d0:e0:2a:
        09:0c
-----BEGIN CERTIFICATE-----
MIICvDCCAiUCCQCbJ9fo0boKkDANBgkqhkiG9w0BAQQFADCBlTELMAkGA1UEBhMC
REUxETAPBgNVBAgTCFNhYXJsYW5kMRAwDgYDVQQKEwdNUEktU1dTMSIwIAYDVQQL
ExlEaXN0cmlidXRlZCBTeXN0ZW1zIEdyb3VwMRowGAYDVQQDExFBbmRyZWFzIEhh
ZWJlcmxlbjEhMB8GCSqGSIb3DQEJARYSZGVtb2NhQG9jdGFyaW5lLmRlMB4XDTE1
MDQyMDIwNDcyN1oXDTE2MDQxOTIwNDcyN1owga4xCzAJBgNVBAYTAkRFMREwDwYD
VQQIEwhTYWFybGFuZDEQMA4GA1UEChMHTVBJLVNXUzEiMCAGA1UECxMZRGlzdHJp
YnV0ZWQgU3lzdGVtcyBHcm91cDExMC8GA1UEAxMoYzEwZjRiZWU1NzA0MmMzZjEx
YjlmMTc5MjM5MTAyOWQzYWQ3NWI2YjEjMCEGCSqGSIb3DQEJARYUbm9kZTA2OTZA
b2N0YXJpbmUuZGUwgZ8wDQYJKoZIhvcNAQEBBQADgY0AMIGJAoGBANB13wCyX5Jz
C7pRae/dZ0WYvRPIuNVWjCFJvfoUZwBcrfrj+2DuiFvcANM4BleZrjN00yIBtUlw
9BSbkGAWCHxouKDpgFDw8dd8Tv9b/QdSPGNe2S9S/k1cChyUO/O/W+VXTRdNo8Va
LazqnafitEDZ3tQfkvod+EepgQ5gx/zDAgMBAAEwDQYJKoZIhvcNAQEEBQADgYEA
LoHwU9oBohtMJiDOYuLBgTIBoo1m99o9SfQbXCJd6CA/4SWlbuwfdOgSVvLJIUB2
91p8ErJlCJrpDGfDgbjE6enDl4lEDYm38rW5cogrJ2GN3Iiwi9HSpKDkiH4bitOf
6LylwZEPxJixvCiHEucJcwsMxsyKwRmPUK930OAqCQw=
-----END CERTIFICATE-----
