Certificate:
    Data:
        Version: 1 (0x0)
        Serial Number:
            9b:27:d7:e8:d1:ba:0b:87
        Signature Algorithm: md5WithRSAEncryption
        Issuer: C=DE, ST=Saarland, O=MPI-SWS, OU=Distributed Systems Group, CN=Andreas Haeberlen/emailAddress=democa@octarine.de
        Validity
            Not Before: Apr 20 20:47:39 2015 GMT
            Not After : Apr 19 20:47:39 2016 GMT
        Subject: C=DE, ST=Saarland, O=MPI-SWS, OU=Distributed Systems Group, CN=d0f32a1b4b74506b77a007c73376174f832bd472/emailAddress=node0943@octarine.de
        Subject Public Key Info:
            Public Key Algorithm: rsaEncryption
            RSA Public Key: (1024 bit)
                Modulus (1024 bit):
                    00:d6:81:fd:3c:5d:8e:ac:cc:7f:6e:9f:3c:76:cd:
                    0e:42:95:54:40:ed:5e:1f:a1:61:14:15:44:f3:c7:
                    eb:f5:00:0c:21:35:b6:aa:7f:50:fb:f1:ed:32:24:
                    ee:be:5c:3e:ce:50:cd:80:30:d2:df:62:70:9c:9b:
                    8c:6e:cb:08:78:ea:46:70:c1:b6:a4:6d:33:49:7f:
                    91:d4:3d:87:95:2f:09:63:47:46:37:12:5e:2b:c5:
                    83:05:c5:00:ad:3c:8b:39:69:65:2c:33:8e:81:0b:
                    94:d2:1e:b9:11:6c:9f:f2:97:15:21:18:14:d3:5c:
                    82:e7:90:1c:13:50:6d:12:1f
                Exponent: 65537 (0x10001)
    Signature Algorithm: md5WithRSAEncryption
        60:47:18:0d:9f:4e:c7:d1:bb:0b:32:49:f6:61:30:28:4d:e0:
        0f:bd:b2:ce:0e:7e:01:87:6c:ad:a0:b1:06:53:13:cc:81:a7:
        be:c4:6e:62:ab:ed:f7:d3:99:d5:ea:c9:80:29:64:ea:c7:4a:
        13:6c:3a:0f:a5:07:ac:84:0c:56:5d:41:52:fe:0c:73:67:7c:
        f7:76:ae:88:e7:0f:ca:fb:8d:f3:54:5c:07:5d:96:82:0a:d6:
        93:f2:9b:50:41:c2:6e:af:5b:28:fa:1b:6f:c4:43:9c:65:df:
        69:92:1b:e5:2c:05:06:b7:a5:1c:dd:26:8b:87:90:af:ec:4e:
        64:42
-----BEGIN CERTIFICATE-----
MIICvDCCAiUCCQCbJ9fo0boLhzANBgkqhkiG9w0BAQQFADCBlTELMAkGA1UEBhMC
REUxETAPBgNVBAgTCFNhYXJsYW5kMRAwDgYDVQQKEwdNUEktU1dTMSIwIAYDVQQL
ExlEaXN0cmlidXRlZCBTeXN0ZW1zIEdyb3VwMRowGAYDVQQDExFBbmRyZWFzIEhh
ZWJlcmxlbjEhMB8GCSqGSIb3DQEJARYSZGVtb2NhQG9jdGFyaW5lLmRlMB4XDTE1
MDQyMDIwNDczOVoXDTE2MDQxOTIwNDczOVowga4xCzAJBgNVBAYTAkRFMREwDwYD
VQQIEwhTYWFybGFuZDEQMA4GA1UEChMHTVBJLVNXUzEiMCAGA1UECxMZRGlzdHJp
YnV0ZWQgU3lzdGVtcyBHcm91cDExMC8GA1UEAxMoZDBmMzJhMWI0Yjc0NTA2Yjc3
YTAwN2M3MzM3NjE3NGY4MzJiZDQ3MjEjMCEGCSqGSIb3DQEJARYUbm9kZTA5NDNA
b2N0YXJpbmUuZGUwgZ8wDQYJKoZIhvcNAQEBBQADgY0AMIGJAoGBANaB/TxdjqzM
f26fPHbNDkKVVEDtXh+hYRQVRPPH6/UADCE1tqp/UPvx7TIk7r5cPs5QzYAw0t9i
cJybjG7LCHjqRnDBtqRtM0l/kdQ9h5UvCWNHRjcSXivFgwXFAK08izlpZSwzjoEL
lNIeuRFsn/KXFSEYFNNcgueQHBNQbRIfAgMBAAEwDQYJKoZIhvcNAQEEBQADgYEA
YEcYDZ9Ox9G7CzJJ9mEwKE3gD72yzg5+AYdsraCxBlMTzIGnvsRuYqvt99OZ1erJ
gClk6sdKE2w6D6UHrIQMVl1BUv4Mc2d893auiOcPyvuN81RcB12WggrWk/KbUEHC
bq9bKPobb8RDnGXfaZIb5SwFBrelHN0mi4eQr+xOZEI=
-----END CERTIFICATE-----
