Certificate:
    Data:
        Version: 1 (0x0)
        Serial Number:
            9b:27:d7:e8:d1:ba:0b:c0
        Signature Algorithm: md5WithRSAEncryption
        Issuer: C=DE, ST=Saarland, O=MPI-SWS, OU=Distributed Systems Group, CN=Andreas Haeberlen/emailAddress=democa@octarine.de
        Validity
            Not Before: Apr 20 20:47:41 2015 GMT
            Not After : Apr 19 20:47:41 2016 GMT
        Subject: C=DE, ST=Saarland, O=MPI-SWS, OU=Distributed Systems Group, CN=be4b6558a17f766da04964ef12f0b807653da865/emailAddress=node1000@octarine.de
        Subject Public Key Info:
            Public Key Algorithm: rsaEncryption
            RSA Public Key: (1024 bit)
                Modulus (1024 bit):
                    00:be:d3:71:26:9d:be:6c:87:08:45:2e:c3:b5:25:
                    bb:43:ab:49:77:3e:a3:cd:1a:0e:ae:4a:6a:71:8e:
                    33:55:8f:85:ef:19:26:08:a5:2a:da:ad:14:0c:21:
                    bf:6c:e1:97:08:9e:7c:2c:77:d9:e7:98:03:9f:c7:
                    6b:93:88:7d:8d:13:db:f5:43:4c:88:2c:cb:c7:87:
                    c5:18:f6:64:78:d8:22:a1:9c:53:e9:f2:46:b7:51:
                    fa:2b:a5:0c:38:82:ac:eb:54:39:f9:7b:b8:76:f3:
                    04:4c:2b:df:40:91:53:03:89:ff:35:c9:8a:7b:17:
                    8b:0f:c8:93:bf:85:fe:3b:81
                Exponent: 65537 (0x10001)
    Signature Algorithm: md5WithRSAEncryption
        30:78:54:b8:3e:10:1d:67:b6:71:77:ef:ee:75:c6:d4:87:75:
        e2:03:5f:cc:f7:ba:95:9c:2b:e1:a0:cf:4c:0d:40:66:8d:b0:
        79:22:bc:a5:b3:20:c4:9b:61:06:e1:f2:80:36:6d:bf:3f:f6:
        8a:85:44:bd:16:d1:43:2c:d3:d0:49:43:8f:0f:83:c0:a7:16:
        3c:da:1d:1a:4a:bc:35:49:39:64:c4:ba:55:f2:d7:e8:38:d7:
        59:7e:c6:cc:a6:8f:fe:97:1e:d3:d6:2c:8f:ee:1d:09:7b:4d:
        ff:28:79:dd:d2:db:48:8f:bc:5c:2d:63:53:46:b2:b4:2d:41:
        90:d3
-----BEGIN CERTIFICATE-----
MIICvDCCAiUCCQCbJ9fo0boLwDANBgkqhkiG9w0BAQQFADCBlTELMAkGA1UEBhMC
REUxETAPBgNVBAgTCFNhYXJsYW5kMRAwDgYDVQQKEwdNUEktU1dTMSIwIAYDVQQL
ExlEaXN0cmlidXRlZCBTeXN0ZW1zIEdyb3VwMRowGAYDVQQDExFBbmRyZWFzIEhh
ZWJlcmxlbjEhMB8GCSqGSIb3DQEJARYSZGVtb2NhQG9jdGFyaW5lLmRlMB4XDTE1
MDQyMDIwNDc0MVoXDTE2MDQxOTIwNDc0MVowga4xCzAJBgNVBAYTAkRFMREwDwYD
VQQIEwhTYWFybGFuZDEQMA4GA1UEChMHTVBJLVNXUzEiMCAGA1UECxMZRGlzdHJp
YnV0ZWQgU3lzdGVtcyBHcm91cDExMC8GA1UEAxMoYmU0YjY1NThhMTdmNzY2ZGEw
NDk2NGVmMTJmMGI4MDc2NTNkYTg2NTEjMCEGCSqGSIb3DQEJARYUbm9kZTEwMDBA
b2N0YXJpbmUuZGUwgZ8wDQYJKoZIhvcNAQEBBQADgY0AMIGJAoGBAL7TcSadvmyH
CEUuw7Ulu0OrSXc+o80aDq5KanGOM1WPhe8ZJgilKtqtFAwhv2zhlwiefCx32eeY
A5/Ha5OIfY0T2/VDTIgsy8eHxRj2ZHjYIqGcU+nyRrdR+iulDDiCrOtUOfl7uHbz
BEwr30CRUwOJ/zXJinsXiw/Ik7+F/juBAgMBAAEwDQYJKoZIhvcNAQEEBQADgYEA
MHhUuD4QHWe2cXfv7nXG1Id14gNfzPe6lZwr4aDPTA1AZo2weSK8pbMgxJthBuHy
gDZtvz/2ioVEvRbRQyzT0ElDjw+DwKcWPNodGkq8NUk5ZMS6VfLX6DjXWX7GzKaP
/pce09Ysj+4dCXtN/yh53dLbSI+8XC1jU0aytC1BkNM=
-----END CERTIFICATE-----
