Certificate:
    Data:
        Version: 1 (0x0)
        Serial Number:
            9b:27:d7:e8:d1:ba:0a:81
        Signature Algorithm: md5WithRSAEncryption
        Issuer: C=DE, ST=Saarland, O=MPI-SWS, OU=Distributed Systems Group, CN=Andreas Haeberlen/emailAddress=democa@octarine.de
        Validity
            Not Before: Apr 20 20:47:27 2015 GMT
            Not After : Apr 19 20:47:27 2016 GMT
        Subject: C=DE, ST=Saarland, O=MPI-SWS, OU=Distributed Systems Group, CN=31fecfdeda6a3eaf41c0465bb798eeb10bfcadb7/emailAddress=node0681@octarine.de
        Subject Public Key Info:
            Public Key Algorithm: rsaEncryption
            RSA Public Key: (1024 bit)
                Modulus (1024 bit):
                    00:be:33:0c:14:00:4a:a8:1b:23:8d:9d:0d:7d:d5:
                    f7:95:5f:f0:42:86:db:fd:e8:01:2e:2e:90:1c:90:
                    1c:b7:c6:84:a1:30:03:50:34:db:78:d8:01:ed:8b:
                    8c:9a:16:c3:e1:0a:10:0a:33:e6:4b:ba:cb:bf:63:
                    03:1c:d5:dd:f7:79:52:78:e4:f1:4e:e3:09:58:7a:
                    0e:b9:ca:6c:ba:34:3d:a3:e3:9e:1f:52:f3:2e:e3:
                    e0:88:ac:b8:51:fe:bd:53:ac:a6:b1:a4:6d:41:87:
                    e6:f3:5c:ed:bb:67:32:2c:b1:7b:9e:8b:1b:a6:71:
                    39:5d:af:be:4c:ea:ef:50:8f
                Exponent: 65537 (0x10001)
    Signature Algorithm: md5WithRSAEncryption
        62:8e:b3:e4:7a:8b:30:72:aa:6f:4d:ea:73:62:dc:f0:17:06:
        bb:93:22:d2:11:d7:73:49:4d:ae:fb:1b:98:55:0d:31:21:b2:
        9a:75:d6:31:65:9b:c9:1f:aa:60:6c:f5:ed:d2:88:53:7e:dd:
        3a:fc:ee:55:16:b2:f1:79:ff:72:0d:25:32:e3:d3:ad:50:9c:
        50:9c:f6:15:17:74:95:72:11:98:50:c1:91:8f:f3:09:7f:5d:
        86:28:7e:da:a0:76:74:3e:b3:65:d5:1b:4b:22:46:a7:61:a0:
        f3:ed:d0:25:d8:27:73:2b:63:38:4d:b0:7f:00:e6:85:d0:89:
        d1:5e
-----BEGIN CERTIFICATE-----
MIICvDCCAiUCCQCbJ9fo0boKgTANBgkqhkiG9w0BAQQFADCBlTELMAkGA1UEBhMC
REUxETAPBgNVBAgTCFNhYXJsYW5kMRAwDgYDVQQKEwdNUEktU1dTMSIwIAYDVQQL
ExlEaXN0cmlidXRlZCBTeXN0ZW1zIEdyb3VwMRowGAYDVQQDExFBbmRyZWFzIEhh
ZWJlcmxlbjEhMB8GCSqGSIb3DQEJARYSZGVtb2NhQG9jdGFyaW5lLmRlMB4XDTE1
MDQyMDIwNDcyN1oXDTE2MDQxOTIwNDcyN1owga4xCzAJBgNVBAYTAkRFMREwDwYD
VQQIEwhTYWFybGFuZDEQMA4GA1UEChMHTVBJLVNXUzEiMCAGA1UECxMZRGlzdHJp
YnV0ZWQgU3lzdGVtcyBHcm91cDExMC8GA1UEAxMoMzFmZWNmZGVkYTZhM2VhZjQx
YzA0NjViYjc5OGVlYjEwYmZjYWRiNzEjMCEGCSqGSIb3DQEJARYUbm9kZTA2ODFA
b2N0YXJpbmUuZGUwgZ8wDQYJKoZIhvcNAQEBBQADgY0AMIGJAoGBAL4zDBQASqgb
I42dDX3V95Vf8EKG2/3oAS4ukByQHLfGhKEwA1A023jYAe2LjJoWw+EKEAoz5ku6
y79jAxzV3fd5Unjk8U7jCVh6DrnKbLo0PaPjnh9S8y7j4IisuFH+vVOsprGkbUGH
5vNc7btnMiyxe56LG6ZxOV2vvkzq71CPAgMBAAEwDQYJKoZIhvcNAQEEBQADgYEA
Yo6z5HqLMHKqb03qc2Lc8BcGu5Mi0hHXc0lNrvsbmFUNMSGymnXWMWWbyR+qYGz1
7dKIU37dOvzuVRay8Xn/cg0lMuPTrVCcUJz2FRd0lXIRmFDBkY/zCX9dhih+2qB2
dD6zZdUbSyJGp2Gg8+3QJdgncytjOE2wfwDmhdCJ0V4=
-----END CERTIFICATE-----
