Certificate:
    Data:
        Version: 1 (0x0)
        Serial Number:
            9b:27:d7:e8:d1:ba:0b:b8
        Signature Algorithm: md5WithRSAEncryption
        Issuer: C=DE, ST=Saarland, O=MPI-SWS, OU=Distributed Systems Group, CN=Andreas Haeberlen/emailAddress=democa@octarine.de
        Validity
            Not Before: Apr 20 20:47:41 2015 GMT
            Not After : Apr 19 20:47:41 2016 GMT
        Subject: C=DE, ST=Saarland, O=MPI-SWS, OU=Distributed Systems Group, CN=a6ec1892e48821082472be09a8eb24bdaa9c33e1/emailAddress=node0992@octarine.de
        Subject Public Key Info:
            Public Key Algorithm: rsaEncryption
            RSA Public Key: (1024 bit)
                Modulus (1024 bit):
                    00:b1:95:a2:22:b0:70:1b:34:37:fa:04:ed:dc:dc:
                    b8:2b:c1:ff:e8:91:1f:20:61:59:2a:1c:73:83:63:
                    f7:9a:f1:ab:04:b0:2b:3b:25:b9:88:d7:28:1a:4c:
                    4b:45:c7:56:ea:8f:ab:60:9a:98:e4:d3:41:52:b8:
                    71:61:f1:4a:d6:3b:a3:13:b7:b3:01:47:98:98:45:
                    e7:59:70:bd:1f:69:36:69:cc:4a:3a:6f:dd:e0:83:
                    d4:eb:bc:fa:6b:c3:28:b2:38:ec:01:46:25:ce:ad:
                    47:b9:e4:1a:91:44:f5:3e:1d:7a:e8:d9:2f:42:12:
                    02:4d:30:5b:18:bc:a3:fc:ff
                Exponent: 65537 (0x10001)
    Signature Algorithm: md5WithRSAEncryption
        32:e3:ee:4e:e5:dd:0b:56:dc:28:81:f9:47:92:65:61:4c:d5:
        a9:cc:b6:6e:74:de:50:3d:07:15:77:08:a0:c3:39:a8:72:7d:
        f6:1a:3a:cb:7f:48:b0:d8:ab:49:96:d1:b6:a7:8b:61:a8:4f:
        0a:c8:2a:76:dc:d2:2c:ab:5f:a4:fe:e4:74:01:5f:d1:cb:d4:
        cd:85:b4:58:cb:35:f1:f2:84:f2:be:1c:8b:8d:f8:ef:27:ad:
        7d:e7:73:99:38:54:bc:22:3c:80:5c:2e:67:ec:0c:89:e7:d4:
        d2:32:60:c8:6a:80:d4:63:94:78:49:f7:ea:e8:05:b8:8b:0e:
        13:9a
-----BEGIN CERTIFICATE-----
MIICvDCCAiUCCQCbJ9fo0boLuDANBgkqhkiG9w0BAQQFADCBlTELMAkGA1UEBhMC
REUxETAPBgNVBAgTCFNhYXJsYW5kMRAwDgYDVQQKEwdNUEktU1dTMSIwIAYDVQQL
ExlEaXN0cmlidXRlZCBTeXN0ZW1zIEdyb3VwMRowGAYDVQQDExFBbmRyZWFzIEhh
ZWJlcmxlbjEhMB8GCSqGSIb3DQEJARYSZGVtb2NhQG9jdGFyaW5lLmRlMB4XDTE1
MDQyMDIwNDc0MVoXDTE2MDQxOTIwNDc0MVowga4xCzAJBgNVBAYTAkRFMREwDwYD
VQQIEwhTYWFybGFuZDEQMA4GA1UEChMHTVBJLVNXUzEiMCAGA1UECxMZRGlzdHJp
YnV0ZWQgU3lzdGVtcyBHcm91cDExMC8GA1UEAxMoYTZlYzE4OTJlNDg4MjEwODI0
NzJiZTA5YThlYjI0YmRhYTljMzNlMTEjMCEGCSqGSIb3DQEJARYUbm9kZTA5OTJA
b2N0YXJpbmUuZGUwgZ8wDQYJKoZIhvcNAQEBBQADgY0AMIGJAoGBALGVoiKwcBs0
N/oE7dzcuCvB/+iRHyBhWSocc4Nj95rxqwSwKzsluYjXKBpMS0XHVuqPq2CamOTT
QVK4cWHxStY7oxO3swFHmJhF51lwvR9pNmnMSjpv3eCD1Ou8+mvDKLI47AFGJc6t
R7nkGpFE9T4deujZL0ISAk0wWxi8o/z/AgMBAAEwDQYJKoZIhvcNAQEEBQADgYEA
MuPuTuXdC1bcKIH5R5JlYUzVqcy2bnTeUD0HFXcIoMM5qHJ99ho6y39IsNirSZbR
tqeLYahPCsgqdtzSLKtfpP7kdAFf0cvUzYW0WMs18fKE8r4ci4347yetfedzmThU
vCI8gFwuZ+wMiefU0jJgyGqA1GOUeEn36ugFuIsOE5o=
-----END CERTIFICATE-----
