Certificate:
    Data:
        Version: 1 (0x0)
        Serial Number:
            9b:27:d7:e8:d1:ba:09:8b
        Signature Algorithm: md5WithRSAEncryption
        Issuer: C=DE, ST=Saarland, O=MPI-SWS, OU=Distributed Systems Group, CN=Andreas Haeberlen/emailAddress=democa@octarine.de
        Validity
            Not Before: Apr 20 20:47:15 2015 GMT
            Not After : Apr 19 20:47:15 2016 GMT
        Subject: C=DE, ST=Saarland, O=MPI-SWS, OU=Distributed Systems Group, CN=845763adf1396db169f2b0c82fd6c5b490b045d4/emailAddress=node0435@octarine.de
        Subject Public Key Info:
            Public Key Algorithm: rsaEncryption
            RSA Public Key: (1024 bit)
                Modulus (1024 bit):
                    00:af:d2:f5:a6:db:5e:c0:c2:23:2d:c9:85:32:86:
                    b7:34:33:43:6e:2c:81:a1:f2:79:46:4b:52:0c:89:
                    b7:33:e5:f4:df:33:98:58:10:c4:fd:40:67:2e:a6:
                    34:b5:1f:fc:7e:1e:72:a5:9c:01:36:17:ee:8e:f4:
                    87:69:63:94:c3:eb:79:2c:5a:bd:5c:a6:e8:46:8c:
                    5e:62:5e:0b:f3:e8:3a:60:2f:4c:20:0e:b8:c5:05:
                    91:d1:14:67:3e:11:cc:14:df:0a:9e:77:12:ec:a3:
                    ef:a4:01:95:00:ea:65:99:ed:f2:7f:0d:c6:a1:ca:
                    a5:ab:9f:f2:bf:0a:5a:4d:87
                Exponent: 65537 (0x10001)
    Signature Algorithm: md5WithRSAEncryption
        4f:5a:82:f0:8c:b0:69:19:a9:c6:23:b5:f9:ab:d7:48:cb:61:
        6f:eb:03:f8:26:64:fa:9a:19:1b:9f:4b:ff:7d:2f:ec:da:d3:
        03:ab:ef:88:bc:66:3d:30:1e:ac:b4:e9:58:b0:4a:86:02:2e:
        33:c2:b5:d7:50:aa:a2:f3:c0:91:ce:84:aa:91:a5:3a:79:77:
        f4:4e:25:9a:89:74:28:ad:a9:06:9f:d1:11:07:5b:27:86:19:
        14:1a:d4:b2:f9:63:97:0d:5b:54:f9:7f:49:ae:26:cc:c0:ab:
        cb:7d:be:68:32:af:a7:5f:76:55:44:e8:51:3c:66:ee:b6:45:
        94:a7
-----BEGIN CERTIFICATE-----
MIICvDCCAiUCCQCbJ9fo0boJizANBgkqhkiG9w0BAQQFADCBlTELMAkGA1UEBhMC
REUxETAPBgNVBAgTCFNhYXJsYW5kMRAwDgYDVQQKEwdNUEktU1dTMSIwIAYDVQQL
ExlEaXN0cmlidXRlZCBTeXN0ZW1zIEdyb3VwMRowGAYDVQQDExFBbmRyZWFzIEhh
ZWJlcmxlbjEhMB8GCSqGSIb3DQEJARYSZGVtb2NhQG9jdGFyaW5lLmRlMB4XDTE1
MDQyMDIwNDcxNVoXDTE2MDQxOTIwNDcxNVowga4xCzAJBgNVBAYTAkRFMREwDwYD
VQQIEwhTYWFybGFuZDEQMA4GA1UEChMHTVBJLVNXUzEiMCAGA1UECxMZRGlzdHJp
YnV0ZWQgU3lzdGVtcyBHcm91cDExMC8GA1UEAxMoODQ1NzYzYWRmMTM5NmRiMTY5
ZjJiMGM4MmZkNmM1YjQ5MGIwNDVkNDEjMCEGCSqGSIb3DQEJARYUbm9kZTA0MzVA
b2N0YXJpbmUuZGUwgZ8wDQYJKoZIhvcNAQEBBQADgY0AMIGJAoGBAK/S9abbXsDC
Iy3JhTKGtzQzQ24sgaHyeUZLUgyJtzPl9N8zmFgQxP1AZy6mNLUf/H4ecqWcATYX
7o70h2ljlMPreSxavVym6EaMXmJeC/PoOmAvTCAOuMUFkdEUZz4RzBTfCp53Euyj
76QBlQDqZZnt8n8NxqHKpauf8r8KWk2HAgMBAAEwDQYJKoZIhvcNAQEEBQADgYEA
T1qC8IywaRmpxiO1+avXSMthb+sD+CZk+poZG59L/30v7NrTA6vviLxmPTAerLTp
WLBKhgIuM8K111CqovPAkc6EqpGlOnl39E4lmol0KK2pBp/REQdbJ4YZFBrUsvlj
lw1bVPl/Sa4mzMCry32+aDKvp192VUToUTxm7rZFlKc=
-----END CERTIFICATE-----
