Certificate:
    Data:
        Version: 1 (0x0)
        Serial Number:
            9b:27:d7:e8:d1:ba:09:13
        Signature Algorithm: md5WithRSAEncryption
        Issuer: C=DE, ST=Saarland, O=MPI-SWS, OU=Distributed Systems Group, CN=Andreas Haeberlen/emailAddress=democa@octarine.de
        Validity
            Not Before: Apr 20 20:47:10 2015 GMT
            Not After : Apr 19 20:47:10 2016 GMT
        Subject: C=DE, ST=Saarland, O=MPI-SWS, OU=Distributed Systems Group, CN=c43f00f531f8f8537b62d1b09cf0b847c77c761b/emailAddress=node0315@octarine.de
        Subject Public Key Info:
            Public Key Algorithm: rsaEncryption
            RSA Public Key: (1024 bit)
                Modulus (1024 bit):
                    00:cc:f4:c3:82:2f:d8:5c:2c:78:65:72:77:1c:32:
                    08:97:5f:8a:5b:d4:8d:7d:ac:63:77:f7:8a:e6:c4:
                    90:57:81:8a:1f:de:11:d0:6b:63:8a:de:57:a5:fa:
                    fd:31:c5:84:8d:60:6a:87:92:08:ed:9e:02:a6:c2:
                    65:ad:de:5e:1b:59:d8:78:d6:88:f4:32:44:1e:db:
                    49:ee:64:12:a3:51:96:65:f1:69:57:1b:c1:93:25:
                    6e:d1:06:8a:92:46:a4:a9:ff:4c:e4:1f:e5:91:46:
                    0a:6c:44:5f:a9:17:79:64:7e:13:56:37:85:6f:11:
                    cd:f6:0c:11:28:3c:e7:68:a1
                Exponent: 65537 (0x10001)
    Signature Algorithm: md5WithRSAEncryption
        bd:55:90:91:9a:a5:ee:51:b3:37:f4:25:c2:19:6f:e5:42:1c:
        f7:7f:c6:86:22:a6:09:ae:60:e4:7f:fd:5f:4d:88:6d:e5:17:
        29:eb:dd:fc:a8:80:40:6e:08:cb:32:bf:61:d6:ed:77:10:65:
        28:66:ec:de:52:9d:20:f2:12:b9:3b:ed:2f:36:c3:d2:bd:a5:
        da:b8:9f:a4:70:16:c3:15:b3:25:49:7c:9b:30:0d:f0:82:04:
        c8:2f:1f:cb:d4:45:10:c0:1b:55:0a:06:b8:a0:8d:1d:bb:f7:
        c8:1d:61:4a:d1:c2:88:86:1d:81:f8:f1:19:00:49:11:f4:ac:
        0d:1a
-----BEGIN CERTIFICATE-----
MIICvDCCAiUCCQCbJ9fo0boJEzANBgkqhkiG9w0BAQQFADCBlTELMAkGA1UEBhMC
REUxETAPBgNVBAgTCFNhYXJsYW5kMRAwDgYDVQQKEwdNUEktU1dTMSIwIAYDVQQL
ExlEaXN0cmlidXRlZCBTeXN0ZW1zIEdyb3VwMRowGAYDVQQDExFBbmRyZWFzIEhh
ZWJlcmxlbjEhMB8GCSqGSIb3DQEJARYSZGVtb2NhQG9jdGFyaW5lLmRlMB4XDTE1
MDQyMDIwNDcxMFoXDTE2MDQxOTIwNDcxMFowga4xCzAJBgNVBAYTAkRFMREwDwYD
VQQIEwhTYWFybGFuZDEQMA4GA1UEChMHTVBJLVNXUzEiMCAGA1UECxMZRGlzdHJp
YnV0ZWQgU3lzdGVtcyBHcm91cDExMC8GA1UEAxMoYzQzZjAwZjUzMWY4Zjg1Mzdi
NjJkMWIwOWNmMGI4NDdjNzdjNzYxYjEjMCEGCSqGSIb3DQEJARYUbm9kZTAzMTVA
b2N0YXJpbmUuZGUwgZ8wDQYJKoZIhvcNAQEBBQADgY0AMIGJAoGBAMz0w4Iv2Fws
eGVydxwyCJdfilvUjX2sY3f3iubEkFeBih/eEdBrY4reV6X6/THFhI1gaoeSCO2e
AqbCZa3eXhtZ2HjWiPQyRB7bSe5kEqNRlmXxaVcbwZMlbtEGipJGpKn/TOQf5ZFG
CmxEX6kXeWR+E1Y3hW8RzfYMESg852ihAgMBAAEwDQYJKoZIhvcNAQEEBQADgYEA
vVWQkZql7lGzN/Qlwhlv5UIc93/GhiKmCa5g5H/9X02IbeUXKevd/KiAQG4IyzK/
YdbtdxBlKGbs3lKdIPISuTvtLzbD0r2l2rifpHAWwxWzJUl8mzAN8IIEyC8fy9RF
EMAbVQoGuKCNHbv3yB1hStHCiIYdgfjxGQBJEfSsDRo=
-----END CERTIFICATE-----
