Certificate:
    Data:
        Version: 1 (0x0)
        Serial Number:
            9b:27:d7:e8:d1:ba:08:99
        Signature Algorithm: md5WithRSAEncryption
        Issuer: C=DE, ST=Saarland, O=MPI-SWS, OU=Distributed Systems Group, CN=Andreas Haeberlen/emailAddress=democa@octarine.de
        Validity
            Not Before: Apr 20 20:47:05 2015 GMT
            Not After : Apr 19 20:47:05 2016 GMT
        Subject: C=DE, ST=Saarland, O=MPI-SWS, OU=Distributed Systems Group, CN=1ace22e5d64bb7239adb4e020bced0cea9ddcb2a/emailAddress=node0193@octarine.de
        Subject Public Key Info:
            Public Key Algorithm: rsaEncryption
            RSA Public Key: (1024 bit)
                Modulus (1024 bit):
                    00:a2:58:88:1d:b7:c6:9c:ad:01:1c:f5:7f:28:dd:
                    79:24:06:21:56:6d:05:93:7c:ea:62:2b:dd:16:3b:
                    01:d5:7f:b3:0c:2b:bb:a3:f6:11:d7:98:95:ee:99:
                    f6:d8:65:db:20:78:d1:b4:20:57:d5:fe:3a:37:be:
                    82:fe:9a:54:30:33:bf:14:dd:e6:e6:78:70:1b:b3:
                    1b:8a:cf:b5:22:53:4c:92:c6:67:dd:cd:cb:81:b3:
                    ce:4f:f7:1f:57:38:19:84:3c:40:08:30:45:ff:45:
                    6a:45:7a:7f:17:f9:87:25:1c:95:79:2d:9d:68:f3:
                    e5:bf:66:89:27:94:1f:5e:bb
                Exponent: 65537 (0x10001)
    Signature Algorithm: md5WithRSAEncryption
        69:ba:57:c5:d0:7b:08:29:b3:68:bf:5f:62:93:c2:50:75:11:
        a4:bb:af:ec:c9:b8:af:e1:76:f0:af:a7:88:a1:b3:8d:a0:14:
        d7:a7:1d:9f:80:11:9d:82:04:f5:78:da:61:40:5a:55:81:f7:
        1d:b7:4e:53:a5:aa:5f:df:b4:46:fc:91:a7:d2:10:bb:d3:6a:
        ba:10:73:5d:96:1d:32:7f:4a:a1:d9:1d:7b:13:bb:69:21:83:
        0c:6f:d5:da:2f:e4:a3:70:d4:32:23:6e:e6:80:86:31:ec:af:
        06:b0:be:ab:7b:ff:bc:fa:3e:d5:b0:61:d6:ab:2b:5b:c5:02:
        97:a7
-----BEGIN CERTIFICATE-----
MIICvDCCAiUCCQCbJ9fo0boImTANBgkqhkiG9w0BAQQFADCBlTELMAkGA1UEBhMC
REUxETAPBgNVBAgTCFNhYXJsYW5kMRAwDgYDVQQKEwdNUEktU1dTMSIwIAYDVQQL
ExlEaXN0cmlidXRlZCBTeXN0ZW1zIEdyb3VwMRowGAYDVQQDExFBbmRyZWFzIEhh
ZWJlcmxlbjEhMB8GCSqGSIb3DQEJARYSZGVtb2NhQG9jdGFyaW5lLmRlMB4XDTE1
MDQyMDIwNDcwNVoXDTE2MDQxOTIwNDcwNVowga4xCzAJBgNVBAYTAkRFMREwDwYD
VQQIEwhTYWFybGFuZDEQMA4GA1UEChMHTVBJLVNXUzEiMCAGA1UECxMZRGlzdHJp
YnV0ZWQgU3lzdGVtcyBHcm91cDExMC8GA1UEAxMoMWFjZTIyZTVkNjRiYjcyMzlh
ZGI0ZTAyMGJjZWQwY2VhOWRkY2IyYTEjMCEGCSqGSIb3DQEJARYUbm9kZTAxOTNA
b2N0YXJpbmUuZGUwgZ8wDQYJKoZIhvcNAQEBBQADgY0AMIGJAoGBAKJYiB23xpyt
ARz1fyjdeSQGIVZtBZN86mIr3RY7AdV/swwru6P2EdeYle6Z9thl2yB40bQgV9X+
Oje+gv6aVDAzvxTd5uZ4cBuzG4rPtSJTTJLGZ93Ny4Gzzk/3H1c4GYQ8QAgwRf9F
akV6fxf5hyUclXktnWjz5b9miSeUH167AgMBAAEwDQYJKoZIhvcNAQEEBQADgYEA
abpXxdB7CCmzaL9fYpPCUHURpLuv7Mm4r+F28K+niKGzjaAU16cdn4ARnYIE9Xja
YUBaVYH3HbdOU6WqX9+0RvyRp9IQu9NquhBzXZYdMn9KodkdexO7aSGDDG/V2i/k
o3DUMiNu5oCGMeyvBrC+q3v/vPo+1bBh1qsrW8UCl6c=
-----END CERTIFICATE-----
