Certificate:
    Data:
        Version: 1 (0x0)
        Serial Number:
            9b:27:d7:e8:d1:ba:0a:d6
        Signature Algorithm: md5WithRSAEncryption
        Issuer: C=DE, ST=Saarland, O=MPI-SWS, OU=Distributed Systems Group, CN=Andreas Haeberlen/emailAddress=democa@octarine.de
        Validity
            Not Before: Apr 20 20:47:31 2015 GMT
            Not After : Apr 19 20:47:31 2016 GMT
        Subject: C=DE, ST=Saarland, O=MPI-SWS, OU=Distributed Systems Group, CN=639164738cbc2bab439c5ff958ca921f6a1ce9f7/emailAddress=node0766@octarine.de
        Subject Public Key Info:
            Public Key Algorithm: rsaEncryption
            RSA Public Key: (1024 bit)
                Modulus (1024 bit):
                    00:ba:57:58:6b:a2:2f:f3:02:0f:ad:85:47:a9:61:
                    ee:dd:e7:35:c8:9e:c9:ab:bd:f7:db:ed:9c:ee:af:
                    39:51:b5:65:31:96:e4:e8:5f:e6:46:57:de:87:2a:
                    40:b4:29:7b:4b:25:bc:0c:75:4d:5d:fb:43:70:e2:
                    ee:90:82:5b:dd:9e:5b:58:c1:7e:79:0c:4a:2e:98:
                    2e:22:46:90:83:d1:4b:c5:05:2b:c1:11:25:2c:05:
                    fe:0f:e8:62:4b:df:96:b9:c2:88:e4:05:ca:c9:d2:
                    68:ab:36:0e:a0:5f:dc:3f:77:9b:b1:c2:b5:01:31:
                    2a:e9:d6:39:6b:aa:d3:3a:6b
                Exponent: 65537 (0x10001)
    Signature Algorithm: md5WithRSAEncryption
        af:81:ee:41:66:f2:d5:82:80:ac:10:e1:64:ad:4e:b9:6b:eb:
        76:1b:1f:9b:2f:11:88:56:e4:d8:30:c6:e8:3e:7d:55:e1:ef:
        98:c4:2a:23:9a:cd:3b:0b:a6:88:41:77:42:2a:0e:80:f5:b3:
        71:b0:73:78:4c:3b:6f:81:3d:97:f0:cd:d0:94:99:71:81:45:
        e6:d6:cc:67:3f:7c:c7:76:36:56:d4:6b:67:6f:dd:2c:32:43:
        15:d7:98:cb:11:d2:ab:71:a0:c0:38:e7:c4:cb:d9:e5:fc:b5:
        e8:12:75:55:be:80:a9:84:6e:36:51:d6:a3:3e:c5:1c:f2:f0:
        0a:05
-----BEGIN CERTIFICATE-----
MIICvDCCAiUCCQCbJ9fo0boK1jANBgkqhkiG9w0BAQQFADCBlTELMAkGA1UEBhMC
REUxETAPBgNVBAgTCFNhYXJsYW5kMRAwDgYDVQQKEwdNUEktU1dTMSIwIAYDVQQL
ExlEaXN0cmlidXRlZCBTeXN0ZW1zIEdyb3VwMRowGAYDVQQDExFBbmRyZWFzIEhh
ZWJlcmxlbjEhMB8GCSqGSIb3DQEJARYSZGVtb2NhQG9jdGFyaW5lLmRlMB4XDTE1
MDQyMDIwNDczMVoXDTE2MDQxOTIwNDczMVowga4xCzAJBgNVBAYTAkRFMREwDwYD
VQQIEwhTYWFybGFuZDEQMA4GA1UEChMHTVBJLVNXUzEiMCAGA1UECxMZRGlzdHJp
YnV0ZWQgU3lzdGVtcyBHcm91cDExMC8GA1UEAxMoNjM5MTY0NzM4Y2JjMmJhYjQz
OWM1ZmY5NThjYTkyMWY2YTFjZTlmNzEjMCEGCSqGSIb3DQEJARYUbm9kZTA3NjZA
b2N0YXJpbmUuZGUwgZ8wDQYJKoZIhvcNAQEBBQADgY0AMIGJAoGBALpXWGuiL/MC
D62FR6lh7t3nNcieyau999vtnO6vOVG1ZTGW5Ohf5kZX3ocqQLQpe0slvAx1TV37
Q3Di7pCCW92eW1jBfnkMSi6YLiJGkIPRS8UFK8ERJSwF/g/oYkvflrnCiOQFysnS
aKs2DqBf3D93m7HCtQExKunWOWuq0zprAgMBAAEwDQYJKoZIhvcNAQEEBQADgYEA
r4HuQWby1YKArBDhZK1OuWvrdhsfmy8RiFbk2DDG6D59VeHvmMQqI5rNOwumiEF3
QioOgPWzcbBzeEw7b4E9l/DN0JSZcYFF5tbMZz98x3Y2VtRrZ2/dLDJDFdeYyxHS
q3GgwDjnxMvZ5fy16BJ1Vb6AqYRuNlHWoz7FHPLwCgU=
-----END CERTIFICATE-----
