Certificate:
    Data:
        Version: 1 (0x0)
        Serial Number:
            9b:27:d7:e8:d1:ba:0a:08
        Signature Algorithm: md5WithRSAEncryption
        Issuer: C=DE, ST=Saarland, O=MPI-SWS, OU=Distributed Systems Group, CN=Andreas Haeberlen/emailAddress=democa@octarine.de
        Validity
            Not Before: Apr 20 20:47:21 2015 GMT
            Not After : Apr 19 20:47:21 2016 GMT
        Subject: C=DE, ST=Saarland, O=MPI-SWS, OU=Distributed Systems Group, CN=0221def477e3ff82d19483bce89b00502810614e/emailAddress=node0560@octarine.de
        Subject Public Key Info:
            Public Key Algorithm: rsaEncryption
            RSA Public Key: (1024 bit)
                Modulus (1024 bit):
                    00:d8:1d:c5:82:ed:9e:28:81:02:f2:0e:e5:fa:85:
                    70:66:d1:1c:8e:37:4f:23:8c:2a:83:9b:3d:03:61:
                    b6:d7:c2:79:58:98:12:9e:b0:1e:33:c0:59:6a:23:
                    a0:de:9c:cf:2d:37:22:85:cf:0e:3d:c8:17:10:38:
                    0d:86:f9:09:e3:76:7e:d3:ab:53:a3:83:b7:4b:d6:
                    d0:ec:80:58:73:4f:7d:51:42:ea:ae:f8:8e:ba:49:
                    e9:16:46:37:d1:d5:28:1e:97:e1:3a:f0:8c:54:fe:
                    2c:12:9b:8a:6a:b7:fe:60:5b:4d:84:c7:f1:78:e0:
                    97:2e:de:d0:8f:72:d7:8b:c9
                Exponent: 65537 (0x10001)
    Signature Algorithm: md5WithRSAEncryption
        12:2f:4e:b1:53:69:5e:09:0d:7e:9b:8a:39:55:56:27:9e:6e:
        3b:17:be:44:39:57:1f:cc:f2:1c:38:f7:01:5b:6c:06:aa:e1:
        de:74:e1:da:21:e8:7e:63:4a:ed:a6:2f:55:25:1c:da:5b:2f:
        7d:eb:5f:8e:b6:71:8f:41:5f:38:1a:b5:33:57:f4:aa:c6:41:
        7c:73:43:a7:5c:fc:65:03:bb:67:77:73:8d:b7:fd:c8:e3:85:
        45:e3:f8:59:8b:d3:d4:b0:93:41:6d:a8:5b:e7:fa:a6:6d:3b:
        22:14:3c:0d:da:d3:ee:60:b2:d1:73:d4:a3:f5:fe:9a:b4:e8:
        15:68
-----BEGIN CERTIFICATE-----
MIICvDCCAiUCCQCbJ9fo0boKCDANBgkqhkiG9w0BAQQFADCBlTELMAkGA1UEBhMC
REUxETAPBgNVBAgTCFNhYXJsYW5kMRAwDgYDVQQKEwdNUEktU1dTMSIwIAYDVQQL
ExlEaXN0cmlidXRlZCBTeXN0ZW1zIEdyb3VwMRowGAYDVQQDExFBbmRyZWFzIEhh
ZWJlcmxlbjEhMB8GCSqGSIb3DQEJARYSZGVtb2NhQG9jdGFyaW5lLmRlMB4XDTE1
MDQyMDIwNDcyMVoXDTE2MDQxOTIwNDcyMVowga4xCzAJBgNVBAYTAkRFMREwDwYD
VQQIEwhTYWFybGFuZDEQMA4GA1UEChMHTVBJLVNXUzEiMCAGA1UECxMZRGlzdHJp
YnV0ZWQgU3lzdGVtcyBHcm91cDExMC8GA1UEAxMoMDIyMWRlZjQ3N2UzZmY4MmQx
OTQ4M2JjZTg5YjAwNTAyODEwNjE0ZTEjMCEGCSqGSIb3DQEJARYUbm9kZTA1NjBA
b2N0YXJpbmUuZGUwgZ8wDQYJKoZIhvcNAQEBBQADgY0AMIGJAoGBANgdxYLtniiB
AvIO5fqFcGbRHI43TyOMKoObPQNhttfCeViYEp6wHjPAWWojoN6czy03IoXPDj3I
FxA4DYb5CeN2ftOrU6ODt0vW0OyAWHNPfVFC6q74jrpJ6RZGN9HVKB6X4TrwjFT+
LBKbimq3/mBbTYTH8Xjgly7e0I9y14vJAgMBAAEwDQYJKoZIhvcNAQEEBQADgYEA
Ei9OsVNpXgkNfpuKOVVWJ55uOxe+RDlXH8zyHDj3AVtsBqrh3nTh2iHofmNK7aYv
VSUc2lsvfetfjrZxj0FfOBq1M1f0qsZBfHNDp1z8ZQO7Z3dzjbf9yOOFReP4WYvT
1LCTQW2oW+f6pm07IhQ8DdrT7mCy0XPUo/X+mrToFWg=
-----END CERTIFICATE-----
