Certificate:
    Data:
        Version: 1 (0x0)
        Serial Number:
            9b:27:d7:e8:d1:ba:09:5a
        Signature Algorithm: md5WithRSAEncryption
        Issuer: C=DE, ST=Saarland, O=MPI-SWS, OU=Distributed Systems Group, CN=Andreas Haeberlen/emailAddress=democa@octarine.de
        Validity
            Not Before: Apr 20 20:47:13 2015 GMT
            Not After : Apr 19 20:47:13 2016 GMT
        Subject: C=DE, ST=Saarland, O=MPI-SWS, OU=Distributed Systems Group, CN=0477002a07a1d978e8dd3b449e6a7807d7fd7188/emailAddress=node0386@octarine.de
        Subject Public Key Info:
            Public Key Algorithm: rsaEncryption
            RSA Public Key: (1024 bit)
                Modulus (1024 bit):
                    00:a6:92:51:de:a7:8a:a4:59:f6:b8:ed:40:db:12:
                    88:d2:51:8d:35:9d:b6:2a:d1:2d:9e:68:35:64:8c:
                    2c:b2:1a:74:7a:f5:8a:1c:64:4a:97:69:fe:72:57:
                    a6:93:ae:72:80:b8:24:ec:bb:ad:12:46:47:d1:b4:
                    d2:20:60:1b:fd:b0:19:e9:47:ff:d1:2f:d2:06:54:
                    c7:46:2b:87:fa:32:f4:04:3f:7a:0c:42:d6:a3:d1:
                    6a:56:84:11:77:6f:49:c3:6e:f2:e4:52:70:a7:13:
                    9d:03:96:a5:95:a9:d8:6a:f9:49:a2:28:d6:b2:95:
                    42:6b:1d:6c:79:bb:4d:3a:0b
                Exponent: 65537 (0x10001)
    Signature Algorithm: md5WithRSAEncryption
        c4:eb:dd:ca:36:f6:d6:2c:06:0e:24:65:ca:40:97:f6:cd:34:
        48:63:58:82:5b:b9:eb:93:83:80:43:4a:02:20:6a:e1:be:66:
        1d:44:bb:55:3e:87:cc:2f:e1:09:f1:15:9d:c8:31:1a:fb:d4:
        be:81:cf:55:de:bd:af:74:3d:c8:75:61:4c:c8:68:71:7a:0d:
        f1:8d:9e:0d:fe:f1:68:75:de:88:8e:e9:27:40:f0:ba:e9:91:
        af:b5:f5:6d:24:94:36:1a:d6:c2:54:77:bd:9e:1f:43:7a:de:
        46:4b:8e:30:b7:cd:16:40:09:61:a3:e1:2d:22:fe:77:e1:32:
        99:51
-----BEGIN CERTIFICATE-----
MIICvDCCAiUCCQCbJ9fo0boJWjANBgkqhkiG9w0BAQQFADCBlTELMAkGA1UEBhMC
REUxETAPBgNVBAgTCFNhYXJsYW5kMRAwDgYDVQQKEwdNUEktU1dTMSIwIAYDVQQL
ExlEaXN0cmlidXRlZCBTeXN0ZW1zIEdyb3VwMRowGAYDVQQDExFBbmRyZWFzIEhh
ZWJlcmxlbjEhMB8GCSqGSIb3DQEJARYSZGVtb2NhQG9jdGFyaW5lLmRlMB4XDTE1
MDQyMDIwNDcxM1oXDTE2MDQxOTIwNDcxM1owga4xCzAJBgNVBAYTAkRFMREwDwYD
VQQIEwhTYWFybGFuZDEQMA4GA1UEChMHTVBJLVNXUzEiMCAGA1UECxMZRGlzdHJp
YnV0ZWQgU3lzdGVtcyBHcm91cDExMC8GA1UEAxMoMDQ3NzAwMmEwN2ExZDk3OGU4
ZGQzYjQ0OWU2YTc4MDdkN2ZkNzE4ODEjMCEGCSqGSIb3DQEJARYUbm9kZTAzODZA
b2N0YXJpbmUuZGUwgZ8wDQYJKoZIhvcNAQEBBQADgY0AMIGJAoGBAKaSUd6niqRZ
9rjtQNsSiNJRjTWdtirRLZ5oNWSMLLIadHr1ihxkSpdp/nJXppOucoC4JOy7rRJG
R9G00iBgG/2wGelH/9Ev0gZUx0Yrh/oy9AQ/egxC1qPRalaEEXdvScNu8uRScKcT
nQOWpZWp2Gr5SaIo1rKVQmsdbHm7TToLAgMBAAEwDQYJKoZIhvcNAQEEBQADgYEA
xOvdyjb21iwGDiRlykCX9s00SGNYglu565ODgENKAiBq4b5mHUS7VT6HzC/hCfEV
ncgxGvvUvoHPVd69r3Q9yHVhTMhocXoN8Y2eDf7xaHXeiI7pJ0DwuumRr7X1bSSU
NhrWwlR3vZ4fQ3reRkuOMLfNFkAJYaPhLSL+d+EymVE=
-----END CERTIFICATE-----
