Certificate:
    Data:
        Version: 1 (0x0)
        Serial Number:
            9b:27:d7:e8:d1:ba:09:44
        Signature Algorithm: md5WithRSAEncryption
        Issuer: C=DE, ST=Saarland, O=MPI-SWS, OU=Distributed Systems Group, CN=Andreas Haeberlen/emailAddress=democa@octarine.de
        Validity
            Not Before: Apr 20 20:47:12 2015 GMT
            Not After : Apr 19 20:47:12 2016 GMT
        Subject: C=DE, ST=Saarland, O=MPI-SWS, OU=Distributed Systems Group, CN=395001986a8b3bd562940f4ba90976faf4b0559c/emailAddress=node0364@octarine.de
        Subject Public Key Info:
            Public Key Algorithm: rsaEncryption
            RSA Public Key: (1024 bit)
                Modulus (1024 bit):
                    00:b2:6a:05:6c:f0:fe:05:bf:8d:1c:62:54:aa:e8:
                    15:36:cc:1e:35:a0:21:55:fc:02:c2:1c:25:f9:cd:
                    66:f4:2b:0e:b7:2b:00:75:78:cd:44:a2:7b:2e:5f:
                    e9:11:17:58:f0:83:fe:b2:fc:d0:16:72:a6:28:10:
                    2d:66:5b:6f:38:23:47:83:93:f4:0d:3a:e7:73:db:
                    49:e1:7a:0a:20:0b:80:70:3f:bb:07:2c:a8:98:97:
                    88:f7:d9:6c:9c:00:c4:e0:60:cb:72:64:7c:bf:37:
                    8f:2e:46:b9:c1:0c:3a:b6:f9:61:e9:27:8a:49:6a:
                    30:1d:78:be:b5:4a:a0:49:7d
                Exponent: 65537 (0x10001)
    Signature Algorithm: md5WithRSAEncryption
        67:e5:25:50:2f:39:1b:eb:07:af:2e:bb:22:c4:dc:f6:4d:83:
        ac:39:09:d5:e9:44:8f:21:b3:3a:40:88:2f:b1:26:5a:00:dc:
        d5:7c:1d:b8:3d:28:1e:e6:69:92:9b:03:14:54:2e:1f:fe:f9:
        60:96:30:cb:b3:9d:6a:59:b1:10:83:92:3f:73:45:79:fe:bd:
        c9:f5:19:40:5f:09:d0:53:47:08:31:8d:55:f3:a2:54:0d:99:
        0d:9e:52:7a:98:96:e0:23:96:16:69:48:c9:84:96:f8:97:82:
        e7:3b:14:15:82:92:8c:4b:87:7c:03:2d:0a:07:f5:42:ae:19:
        a3:65
-----BEGIN CERTIFICATE-----
MIICvDCCAiUCCQCbJ9fo0boJRDANBgkqhkiG9w0BAQQFADCBlTELMAkGA1UEBhMC
REUxETAPBgNVBAgTCFNhYXJsYW5kMRAwDgYDVQQKEwdNUEktU1dTMSIwIAYDVQQL
ExlEaXN0cmlidXRlZCBTeXN0ZW1zIEdyb3VwMRowGAYDVQQDExFBbmRyZWFzIEhh
ZWJlcmxlbjEhMB8GCSqGSIb3DQEJARYSZGVtb2NhQG9jdGFyaW5lLmRlMB4XDTE1
MDQyMDIwNDcxMloXDTE2MDQxOTIwNDcxMlowga4xCzAJBgNVBAYTAkRFMREwDwYD
VQQIEwhTYWFybGFuZDEQMA4GA1UEChMHTVBJLVNXUzEiMCAGA1UECxMZRGlzdHJp
YnV0ZWQgU3lzdGVtcyBHcm91cDExMC8GA1UEAxMoMzk1MDAxOTg2YThiM2JkNTYy
OTQwZjRiYTkwOTc2ZmFmNGIwNTU5YzEjMCEGCSqGSIb3DQEJARYUbm9kZTAzNjRA
b2N0YXJpbmUuZGUwgZ8wDQYJKoZIhvcNAQEBBQADgY0AMIGJAoGBALJqBWzw/gW/
jRxiVKroFTbMHjWgIVX8AsIcJfnNZvQrDrcrAHV4zUSiey5f6REXWPCD/rL80BZy
pigQLWZbbzgjR4OT9A0653PbSeF6CiALgHA/uwcsqJiXiPfZbJwAxOBgy3JkfL83
jy5GucEMOrb5YekniklqMB14vrVKoEl9AgMBAAEwDQYJKoZIhvcNAQEEBQADgYEA
Z+UlUC85G+sHry67IsTc9k2DrDkJ1elEjyGzOkCIL7EmWgDc1XwduD0oHuZpkpsD
FFQuH/75YJYwy7OdalmxEIOSP3NFef69yfUZQF8J0FNHCDGNVfOiVA2ZDZ5SepiW
4COWFmlIyYSW+JeC5zsUFYKSjEuHfAMtCgf1Qq4Zo2U=
-----END CERTIFICATE-----
