Certificate:
    Data:
        Version: 1 (0x0)
        Serial Number:
            9b:27:d7:e8:d1:ba:09:2e
        Signature Algorithm: md5WithRSAEncryption
        Issuer: C=DE, ST=Saarland, O=MPI-SWS, OU=Distributed Systems Group, CN=Andreas Haeberlen/emailAddress=democa@octarine.de
        Validity
            Not Before: Apr 20 20:47:11 2015 GMT
            Not After : Apr 19 20:47:11 2016 GMT
        Subject: C=DE, ST=Saarland, O=MPI-SWS, OU=Distributed Systems Group, CN=5b683d4cb52e0a07128d3ab992de1bb761fae46a/emailAddress=node0342@octarine.de
        Subject Public Key Info:
            Public Key Algorithm: rsaEncryption
            RSA Public Key: (1024 bit)
                Modulus (1024 bit):
                    00:d8:1f:81:be:cb:6b:19:61:ab:ac:23:6b:bb:d2:
                    fd:6f:a9:83:a5:b2:83:d7:b4:6b:42:88:34:c3:c2:
                    8f:1c:fa:c0:83:16:e5:5c:40:3c:8f:18:0e:86:df:
                    18:5d:b6:2e:f0:9a:27:41:7a:dc:3a:08:7b:59:22:
                    a2:f2:00:2a:2e:df:97:e6:ff:62:53:5c:23:f8:ae:
                    4a:80:d1:2b:4e:53:b4:ca:d1:24:2e:bf:92:a3:a0:
                    92:2d:47:79:c0:7d:2c:c8:c3:c0:d6:12:c7:5e:83:
                    ea:5f:fc:b9:08:2a:50:9b:d8:a2:e8:99:2a:04:36:
                    a7:52:7c:47:39:2d:b1:21:67
                Exponent: 65537 (0x10001)
    Signature Algorithm: md5WithRSAEncryption
        63:e9:d5:f4:2c:40:d4:29:f0:f8:3f:34:6c:bd:b6:2a:15:f0:
        a6:45:3f:b0:52:25:8f:bf:12:4f:b9:4c:16:c0:4d:3d:e9:5c:
        b1:b0:20:8a:e5:e7:b1:71:51:3e:af:b6:8b:b7:bf:75:7c:2c:
        b2:9e:54:3f:3f:c4:3e:d7:31:2a:4a:9e:9f:e4:6a:39:39:3c:
        bd:5f:0f:25:47:5c:a6:b6:87:2c:d9:c5:94:35:8e:8e:b6:7e:
        d8:e4:c4:f9:8e:c7:9b:df:38:cb:53:34:5e:39:73:57:83:88:
        53:ab:59:c4:d0:23:61:0f:49:70:cd:ad:31:77:63:e5:ec:5f:
        cb:1b
-----BEGIN CERTIFICATE-----
MIICvDCCAiUCCQCbJ9fo0boJLjANBgkqhkiG9w0BAQQFADCBlTELMAkGA1UEBhMC
REUxETAPBgNVBAgTCFNhYXJsYW5kMRAwDgYDVQQKEwdNUEktU1dTMSIwIAYDVQQL
ExlEaXN0cmlidXRlZCBTeXN0ZW1zIEdyb3VwMRowGAYDVQQDExFBbmRyZWFzIEhh
ZWJlcmxlbjEhMB8GCSqGSIb3DQEJARYSZGVtb2NhQG9jdGFyaW5lLmRlMB4XDTE1
MDQyMDIwNDcxMVoXDTE2MDQxOTIwNDcxMVowga4xCzAJBgNVBAYTAkRFMREwDwYD
VQQIEwhTYWFybGFuZDEQMA4GA1UEChMHTVBJLVNXUzEiMCAGA1UECxMZRGlzdHJp
YnV0ZWQgU3lzdGVtcyBHcm91cDExMC8GA1UEAxMoNWI2ODNkNGNiNTJlMGEwNzEy
OGQzYWI5OTJkZTFiYjc2MWZhZTQ2YTEjMCEGCSqGSIb3DQEJARYUbm9kZTAzNDJA
b2N0YXJpbmUuZGUwgZ8wDQYJKoZIhvcNAQEBBQADgY0AMIGJAoGBANgfgb7Laxlh
q6wja7vS/W+pg6Wyg9e0a0KINMPCjxz6wIMW5VxAPI8YDobfGF22LvCaJ0F63DoI
e1kiovIAKi7fl+b/YlNcI/iuSoDRK05TtMrRJC6/kqOgki1HecB9LMjDwNYSx16D
6l/8uQgqUJvYouiZKgQ2p1J8RzktsSFnAgMBAAEwDQYJKoZIhvcNAQEEBQADgYEA
Y+nV9CxA1Cnw+D80bL22KhXwpkU/sFIlj78ST7lMFsBNPelcsbAgiuXnsXFRPq+2
i7e/dXwssp5UPz/EPtcxKkqen+RqOTk8vV8PJUdcpraHLNnFlDWOjrZ+2OTE+Y7H
m984y1M0XjlzV4OIU6tZxNAjYQ9JcM2tMXdj5exfyxs=
-----END CERTIFICATE-----
