Certificate:
    Data:
        Version: 1 (0x0)
        Serial Number:
            9b:27:d7:e8:d1:ba:09:fe
        Signature Algorithm: md5WithRSAEncryption
        Issuer: C=DE, ST=Saarland, O=MPI-SWS, OU=Distributed Systems Group, CN=Andreas Haeberlen/emailAddress=democa@octarine.de
        Validity
            Not Before: Apr 20 20:47:21 2015 GMT
            Not After : Apr 19 20:47:21 2016 GMT
        Subject: C=DE, ST=Saarland, O=MPI-SWS, OU=Distributed Systems Group, CN=7e531e8e11f40ad1fb3190aee1e237ab60f7e86f/emailAddress=node0550@octarine.de
        Subject Public Key Info:
            Public Key Algorithm: rsaEncryption
            RSA Public Key: (1024 bit)
                Modulus (1024 bit):
                    00:bf:a9:0b:3d:e0:49:2e:e0:f7:ae:60:65:c4:0b:
                    88:64:92:36:98:96:c9:d4:82:1c:5c:26:48:da:21:
                    31:36:07:7c:87:78:4a:c5:16:e2:b7:55:cf:d0:9d:
                    43:79:27:8e:2f:8b:a2:ce:1a:6b:5b:8c:2a:b0:06:
                    5f:1c:2d:1b:3d:3e:af:95:59:bb:57:27:ec:1e:90:
                    45:c4:02:44:c8:b3:be:b5:5b:97:3b:e5:9c:3e:da:
                    b4:95:7f:70:da:4e:3c:97:69:de:5b:3b:8d:12:22:
                    3b:83:6c:33:d3:a6:26:5a:6e:e8:19:39:5a:f2:8f:
                    7f:4b:a5:ad:c4:3d:61:ec:fd
                Exponent: 65537 (0x10001)
    Signature Algorithm: md5WithRSAEncryption
        37:a6:ec:22:38:b0:e3:c3:7e:c2:62:3a:51:9e:74:16:07:4c:
        16:3d:87:de:9f:43:81:6d:ad:99:84:e3:60:41:e1:bd:7f:d9:
        45:1b:24:8a:a8:2f:29:38:a4:30:54:7d:c8:0c:e9:86:12:d6:
        2e:21:4e:e8:7b:43:ed:2a:1b:05:49:6f:22:57:9c:dc:83:6c:
        d3:a2:80:9f:3f:59:77:b3:10:b8:7c:37:16:22:9f:8b:5c:9c:
        40:02:45:ac:27:a8:59:c3:e5:c2:bf:3c:79:ad:1f:f6:8a:57:
        9b:b6:ff:37:2d:10:49:41:70:b4:ee:eb:f9:1c:cc:28:80:39:
        07:e1
-----BEGIN CERTIFICATE-----
MIICvDCCAiUCCQCbJ9fo0boJ/jANBgkqhkiG9w0BAQQFADCBlTELMAkGA1UEBhMC
REUxETAPBgNVBAgTCFNhYXJsYW5kMRAwDgYDVQQKEwdNUEktU1dTMSIwIAYDVQQL
ExlEaXN0cmlidXRlZCBTeXN0ZW1zIEdyb3VwMRowGAYDVQQDExFBbmRyZWFzIEhh
ZWJlcmxlbjEhMB8GCSqGSIb3DQEJARYSZGVtb2NhQG9jdGFyaW5lLmRlMB4XDTE1
MDQyMDIwNDcyMVoXDTE2MDQxOTIwNDcyMVowga4xCzAJBgNVBAYTAkRFMREwDwYD
VQQIEwhTYWFybGFuZDEQMA4GA1UEChMHTVBJLVNXUzEiMCAGA1UECxMZRGlzdHJp
YnV0ZWQgU3lzdGVtcyBHcm91cDExMC8GA1UEAxMoN2U1MzFlOGUxMWY0MGFkMWZi
MzE5MGFlZTFlMjM3YWI2MGY3ZTg2ZjEjMCEGCSqGSIb3DQEJARYUbm9kZTA1NTBA
b2N0YXJpbmUuZGUwgZ8wDQYJKoZIhvcNAQEBBQADgY0AMIGJAoGBAL+pCz3gSS7g
965gZcQLiGSSNpiWydSCHFwmSNohMTYHfId4SsUW4rdVz9CdQ3knji+Los4aa1uM
KrAGXxwtGz0+r5VZu1cn7B6QRcQCRMizvrVblzvlnD7atJV/cNpOPJdp3ls7jRIi
O4NsM9OmJlpu6Bk5WvKPf0ulrcQ9Yez9AgMBAAEwDQYJKoZIhvcNAQEEBQADgYEA
N6bsIjiw48N+wmI6UZ50FgdMFj2H3p9DgW2tmYTjYEHhvX/ZRRskiqgvKTikMFR9
yAzphhLWLiFO6HtD7SobBUlvIlec3INs06KAnz9Zd7MQuHw3FiKfi1ycQAJFrCeo
WcPlwr88ea0f9opXm7b/Ny0QSUFwtO7r+RzMKIA5B+E=
-----END CERTIFICATE-----
