Certificate:
    Data:
        Version: 1 (0x0)
        Serial Number:
            9b:27:d7:e8:d1:ba:0a:ed
        Signature Algorithm: md5WithRSAEncryption
        Issuer: C=DE, ST=Saarland, O=MPI-SWS, OU=Distributed Systems Group, CN=Andreas Haeberlen/emailAddress=democa@octarine.de
        Validity
            Not Before: Apr 20 20:47:32 2015 GMT
            Not After : Apr 19 20:47:32 2016 GMT
        Subject: C=DE, ST=Saarland, O=MPI-SWS, OU=Distributed Systems Group, CN=f89e67dd74c41cf16865fcab82254523ec243f1b/emailAddress=node0789@octarine.de
        Subject Public Key Info:
            Public Key Algorithm: rsaEncryption
            RSA Public Key: (1024 bit)
                Modulus (1024 bit):
                    00:b8:24:09:1e:8c:85:5f:62:e4:ad:14:2c:3b:87:
                    82:74:54:bd:d8:f2:c0:af:ad:3b:82:f4:5b:55:be:
                    93:66:a8:22:11:bc:c6:21:c4:4b:68:c8:d4:14:0e:
                    ed:fd:70:a0:76:e1:11:7c:06:20:3b:9f:8f:5e:c4:
                    ba:fc:1d:9c:22:c0:aa:67:61:8a:4d:eb:d1:3f:7e:
                    9e:b4:cc:87:cd:e1:8a:aa:ff:87:bb:31:21:e7:b5:
                    2a:b8:93:76:9b:5c:21:78:ea:f9:be:80:9d:8d:eb:
                    04:4d:b4:92:81:80:79:b7:ea:92:65:36:f0:35:07:
                    c9:d0:ef:4e:ca:03:eb:e4:8f
                Exponent: 65537 (0x10001)
    Signature Algorithm: md5WithRSAEncryption
        b9:9f:d5:1a:3e:12:e6:92:a9:dc:9e:31:ac:bd:65:2f:ff:98:
        01:0d:cf:47:bd:e6:2e:04:f1:c2:ef:4d:08:10:b2:42:eb:dc:
        f4:44:c0:f4:a1:8d:8b:79:e9:02:1c:ec:95:ff:f7:5c:34:f3:
        1b:c7:8f:1e:ab:0f:39:41:15:73:c6:ce:98:20:38:f8:1c:66:
        32:77:96:70:fc:df:be:0e:10:7f:56:6b:3e:ce:33:90:43:2b:
        98:86:d6:66:ad:57:28:d9:15:96:a0:5c:06:c4:cb:40:4f:97:
        a5:31:44:1f:77:97:08:1f:bf:83:3c:ef:c4:b6:86:09:96:c9:
        26:5b
-----BEGIN CERTIFICATE-----
MIICvDCCAiUCCQCbJ9fo0boK7TANBgkqhkiG9w0BAQQFADCBlTELMAkGA1UEBhMC
REUxETAPBgNVBAgTCFNhYXJsYW5kMRAwDgYDVQQKEwdNUEktU1dTMSIwIAYDVQQL
ExlEaXN0cmlidXRlZCBTeXN0ZW1zIEdyb3VwMRowGAYDVQQDExFBbmRyZWFzIEhh
ZWJlcmxlbjEhMB8GCSqGSIb3DQEJARYSZGVtb2NhQG9jdGFyaW5lLmRlMB4XDTE1
MDQyMDIwNDczMloXDTE2MDQxOTIwNDczMlowga4xCzAJBgNVBAYTAkRFMREwDwYD
VQQIEwhTYWFybGFuZDEQMA4GA1UEChMHTVBJLVNXUzEiMCAGA1UECxMZRGlzdHJp
YnV0ZWQgU3lzdGVtcyBHcm91cDExMC8GA1UEAxMoZjg5ZTY3ZGQ3NGM0MWNmMTY4
NjVmY2FiODIyNTQ1MjNlYzI0M2YxYjEjMCEGCSqGSIb3DQEJARYUbm9kZTA3ODlA
b2N0YXJpbmUuZGUwgZ8wDQYJKoZIhvcNAQEBBQADgY0AMIGJAoGBALgkCR6MhV9i
5K0ULDuHgnRUvdjywK+tO4L0W1W+k2aoIhG8xiHES2jI1BQO7f1woHbhEXwGIDuf
j17EuvwdnCLAqmdhik3r0T9+nrTMh83hiqr/h7sxIee1KriTdptcIXjq+b6AnY3r
BE20koGAebfqkmU28DUHydDvTsoD6+SPAgMBAAEwDQYJKoZIhvcNAQEEBQADgYEA
uZ/VGj4S5pKp3J4xrL1lL/+YAQ3PR73mLgTxwu9NCBCyQuvc9ETA9KGNi3npAhzs
lf/3XDTzG8ePHqsPOUEVc8bOmCA4+BxmMneWcPzfvg4Qf1ZrPs4zkEMrmIbWZq1X
KNkVlqBcBsTLQE+XpTFEH3eXCB+/gzzvxLaGCZbJJls=
-----END CERTIFICATE-----
