Certificate:
    Data:
        Version: 1 (0x0)
        Serial Number:
            9b:27:d7:e8:d1:ba:0a:9b
        Signature Algorithm: md5WithRSAEncryption
        Issuer: C=DE, ST=Saarland, O=MPI-SWS, OU=Distributed Systems Group, CN=Andreas Haeberlen/emailAddress=democa@octarine.de
        Validity
            Not Before: Apr 20 20:47:28 2015 GMT
            Not After : Apr 19 20:47:28 2016 GMT
        Subject: C=DE, ST=Saarland, O=MPI-SWS, OU=Distributed Systems Group, CN=a9a1f3970bfefc4dcf86917587ef37ce07f0a97b/emailAddress=node0707@octarine.de
        Subject Public Key Info:
            Public Key Algorithm: rsaEncryption
            RSA Public Key: (1024 bit)
                Modulus (1024 bit):
                    00:d0:7e:cb:3f:69:5d:78:64:38:c7:96:c8:62:7f:
                    3a:c9:65:e0:1e:93:09:a8:ad:65:5f:c0:bd:41:bb:
                    93:c6:62:70:94:1b:c8:26:a0:cd:06:72:af:df:ca:
                    35:73:15:12:83:7d:00:06:ea:8f:48:10:56:91:72:
                    28:66:27:ad:13:c5:99:69:f7:82:b4:f8:68:3c:25:
                    e5:34:8f:d8:37:77:79:6c:6a:ac:dd:78:db:a5:39:
                    6b:1e:0b:06:03:2f:f7:a6:1a:c8:ac:b7:2f:4d:de:
                    9e:0f:5a:f3:59:d6:dc:27:4d:6b:5d:56:55:44:67:
                    cf:73:4f:9a:73:ca:ba:64:dd
                Exponent: 65537 (0x10001)
    Signature Algorithm: md5WithRSAEncryption
        7f:da:e6:27:ad:5f:bd:23:f8:b1:37:87:ad:7d:b1:35:50:32:
        43:32:59:94:8a:2d:27:9e:e3:58:d4:42:5f:77:4b:88:a7:a7:
        2c:8d:8b:c3:5d:da:9f:82:45:f8:22:4b:a1:75:cd:ae:31:ae:
        be:4c:fd:7e:38:8f:b8:83:cb:ba:e5:af:8a:ae:cb:34:22:e5:
        0c:4e:e5:5d:56:12:29:8b:02:20:83:21:fb:d3:c9:6c:24:dd:
        d4:d4:47:4c:69:45:95:34:fb:da:56:4c:1a:fb:69:04:1d:b6:
        2c:cb:21:06:3e:df:cd:82:f4:42:29:8d:d5:63:4b:8f:57:a2:
        00:08
-----BEGIN CERTIFICATE-----
MIICvDCCAiUCCQCbJ9fo0boKmzANBgkqhkiG9w0BAQQFADCBlTELMAkGA1UEBhMC
REUxETAPBgNVBAgTCFNhYXJsYW5kMRAwDgYDVQQKEwdNUEktU1dTMSIwIAYDVQQL
ExlEaXN0cmlidXRlZCBTeXN0ZW1zIEdyb3VwMRowGAYDVQQDExFBbmRyZWFzIEhh
ZWJlcmxlbjEhMB8GCSqGSIb3DQEJARYSZGVtb2NhQG9jdGFyaW5lLmRlMB4XDTE1
MDQyMDIwNDcyOFoXDTE2MDQxOTIwNDcyOFowga4xCzAJBgNVBAYTAkRFMREwDwYD
VQQIEwhTYWFybGFuZDEQMA4GA1UEChMHTVBJLVNXUzEiMCAGA1UECxMZRGlzdHJp
YnV0ZWQgU3lzdGVtcyBHcm91cDExMC8GA1UEAxMoYTlhMWYzOTcwYmZlZmM0ZGNm
ODY5MTc1ODdlZjM3Y2UwN2YwYTk3YjEjMCEGCSqGSIb3DQEJARYUbm9kZTA3MDdA
b2N0YXJpbmUuZGUwgZ8wDQYJKoZIhvcNAQEBBQADgY0AMIGJAoGBANB+yz9pXXhk
OMeWyGJ/Osll4B6TCaitZV/AvUG7k8ZicJQbyCagzQZyr9/KNXMVEoN9AAbqj0gQ
VpFyKGYnrRPFmWn3grT4aDwl5TSP2Dd3eWxqrN1426U5ax4LBgMv96YayKy3L03e
ng9a81nW3CdNa11WVURnz3NPmnPKumTdAgMBAAEwDQYJKoZIhvcNAQEEBQADgYEA
f9rmJ61fvSP4sTeHrX2xNVAyQzJZlIotJ57jWNRCX3dLiKenLI2Lw13an4JF+CJL
oXXNrjGuvkz9fjiPuIPLuuWviq7LNCLlDE7lXVYSKYsCIIMh+9PJbCTd1NRHTGlF
lTT72lZMGvtpBB22LMshBj7fzYL0QimN1WNLj1eiAAg=
-----END CERTIFICATE-----
