Certificate:
    Data:
        Version: 1 (0x0)
        Serial Number:
            9b:27:d7:e8:d1:ba:08:fc
        Signature Algorithm: md5WithRSAEncryption
        Issuer: C=DE, ST=Saarland, O=MPI-SWS, OU=Distributed Systems Group, CN=Andreas Haeberlen/emailAddress=democa@octarine.de
        Validity
            Not Before: Apr 20 20:47:09 2015 GMT
            Not After : Apr 19 20:47:09 2016 GMT
        Subject: C=DE, ST=Saarland, O=MPI-SWS, OU=Distributed Systems Group, CN=859a20377297661a1a8b8c69739fefd6561764ed/emailAddress=node0292@octarine.de
        Subject Public Key Info:
            Public Key Algorithm: rsaEncryption
            RSA Public Key: (1024 bit)
                Modulus (1024 bit):
                    00:9c:8b:6b:40:74:d1:5b:d4:67:62:c1:4c:e0:62:
                    d7:d4:d4:50:6d:c5:1e:65:15:42:08:04:24:90:0c:
                    57:8c:ff:e3:6a:c9:c9:d5:5d:8f:22:54:e3:d6:8b:
                    3f:af:99:bd:98:14:94:6a:e7:21:bb:9d:90:86:f9:
                    0f:fa:4f:1c:da:64:08:61:60:5e:7a:0d:78:cc:31:
                    8f:34:05:bd:d2:0d:46:e6:6e:68:ba:ed:86:30:f3:
                    97:6b:f2:bf:2a:90:06:54:c3:6f:81:bd:2e:df:1a:
                    9d:a7:46:be:24:b6:d3:08:f8:4c:4a:01:c7:d5:94:
                    39:f2:f5:7d:d9:7e:ab:12:45
                Exponent: 65537 (0x10001)
    Signature Algorithm: md5WithRSAEncryption
        72:af:77:f6:b6:bd:26:65:d7:f5:03:59:8d:88:e6:a4:23:ed:
        47:3d:fb:c2:9b:d3:cf:d4:8b:39:c6:3e:9a:87:7b:e2:48:29:
        14:0b:0c:83:85:83:fb:35:3a:59:4b:b0:50:32:38:2c:de:04:
        13:6d:4e:eb:d1:fe:c5:5e:0a:7d:13:04:d8:80:ee:f3:cd:79:
        8b:e2:17:0c:17:b9:f2:5b:38:cc:e9:d1:73:22:29:a2:c9:8d:
        dc:c5:36:c6:f6:e5:84:15:32:0d:66:c7:13:17:88:ae:16:d6:
        c8:73:d5:50:53:38:d5:f7:c4:f5:52:1b:c4:0a:10:a0:66:21:
        b4:77
-----BEGIN CERTIFICATE-----
MIICvDCCAiUCCQCbJ9fo0boI/DANBgkqhkiG9w0BAQQFADCBlTELMAkGA1UEBhMC
REUxETAPBgNVBAgTCFNhYXJsYW5kMRAwDgYDVQQKEwdNUEktU1dTMSIwIAYDVQQL
ExlEaXN0cmlidXRlZCBTeXN0ZW1zIEdyb3VwMRowGAYDVQQDExFBbmRyZWFzIEhh
ZWJlcmxlbjEhMB8GCSqGSIb3DQEJARYSZGVtb2NhQG9jdGFyaW5lLmRlMB4XDTE1
MDQyMDIwNDcwOVoXDTE2MDQxOTIwNDcwOVowga4xCzAJBgNVBAYTAkRFMREwDwYD
VQQIEwhTYWFybGFuZDEQMA4GA1UEChMHTVBJLVNXUzEiMCAGA1UECxMZRGlzdHJp
YnV0ZWQgU3lzdGVtcyBHcm91cDExMC8GA1UEAxMoODU5YTIwMzc3Mjk3NjYxYTFh
OGI4YzY5NzM5ZmVmZDY1NjE3NjRlZDEjMCEGCSqGSIb3DQEJARYUbm9kZTAyOTJA
b2N0YXJpbmUuZGUwgZ8wDQYJKoZIhvcNAQEBBQADgY0AMIGJAoGBAJyLa0B00VvU
Z2LBTOBi19TUUG3FHmUVQggEJJAMV4z/42rJydVdjyJU49aLP6+ZvZgUlGrnIbud
kIb5D/pPHNpkCGFgXnoNeMwxjzQFvdINRuZuaLrthjDzl2vyvyqQBlTDb4G9Lt8a
nadGviS20wj4TEoBx9WUOfL1fdl+qxJFAgMBAAEwDQYJKoZIhvcNAQEEBQADgYEA
cq939ra9JmXX9QNZjYjmpCPtRz37wpvTz9SLOcY+mod74kgpFAsMg4WD+zU6WUuw
UDI4LN4EE21O69H+xV4KfRME2IDu8815i+IXDBe58ls4zOnRcyIposmN3MU2xvbl
hBUyDWbHExeIrhbWyHPVUFM41ffE9VIbxAoQoGYhtHc=
-----END CERTIFICATE-----
