Certificate:
    Data:
        Version: 1 (0x0)
        Serial Number:
            9b:27:d7:e8:d1:ba:0b:97
        Signature Algorithm: md5WithRSAEncryption
        Issuer: C=DE, ST=Saarland, O=MPI-SWS, OU=Distributed Systems Group, CN=Andreas Haeberlen/emailAddress=democa@octarine.de
        Validity
            Not Before: Apr 20 20:47:39 2015 GMT
            Not After : Apr 19 20:47:39 2016 GMT
        Subject: C=DE, ST=Saarland, O=MPI-SWS, OU=Distributed Systems Group, CN=17abd68cd983ded3b52986ae6f2c7ea95443acf8/emailAddress=node0959@octarine.de
        Subject Public Key Info:
            Public Key Algorithm: rsaEncryption
            RSA Public Key: (1024 bit)
                Modulus (1024 bit):
                    00:c9:52:3d:26:d4:35:de:8b:b6:90:56:6f:7b:9b:
                    96:f6:ca:4e:0c:92:1f:02:1d:78:ca:8c:6b:11:28:
                    6c:c8:ec:cb:6b:e0:b3:93:de:6a:bc:ef:11:57:70:
                    96:e4:9f:85:84:86:59:02:c2:e4:68:0e:fd:93:2c:
                    d1:66:94:f6:50:89:3f:1e:56:77:ee:b4:74:aa:90:
                    57:f5:29:88:ab:9f:00:5e:6a:4b:e6:28:92:ae:8d:
                    b1:43:49:65:6f:dd:78:80:b8:9f:86:e8:3a:eb:7f:
                    5f:6a:90:be:41:77:bc:b2:8e:c6:37:0d:85:53:3e:
                    14:0d:f3:74:d1:56:31:d9:5f
                Exponent: 65537 (0x10001)
    Signature Algorithm: md5WithRSAEncryption
        79:95:f7:b6:44:6b:de:66:17:de:b6:c5:36:de:f4:be:39:c6:
        01:0d:9e:75:59:63:bf:fd:ec:66:76:73:85:a5:b9:64:78:b3:
        14:90:11:9d:19:d2:aa:80:fa:36:73:3c:d1:20:e4:87:a5:83:
        5e:cf:8a:23:c6:b4:23:42:76:63:c7:1b:44:cb:e2:67:e9:da:
        73:2f:6a:a4:a1:71:02:c4:80:46:05:ee:9e:91:bb:77:b6:91:
        41:7a:d9:c9:d1:81:09:ea:82:26:6b:22:06:d3:5e:fb:1e:62:
        c1:f0:46:27:0e:df:07:06:5c:51:ed:9c:f7:01:88:01:6d:f5:
        11:0d
-----BEGIN CERTIFICATE-----
MIICvDCCAiUCCQCbJ9fo0boLlzANBgkqhkiG9w0BAQQFADCBlTELMAkGA1UEBhMC
REUxETAPBgNVBAgTCFNhYXJsYW5kMRAwDgYDVQQKEwdNUEktU1dTMSIwIAYDVQQL
ExlEaXN0cmlidXRlZCBTeXN0ZW1zIEdyb3VwMRowGAYDVQQDExFBbmRyZWFzIEhh
ZWJlcmxlbjEhMB8GCSqGSIb3DQEJARYSZGVtb2NhQG9jdGFyaW5lLmRlMB4XDTE1
MDQyMDIwNDczOVoXDTE2MDQxOTIwNDczOVowga4xCzAJBgNVBAYTAkRFMREwDwYD
VQQIEwhTYWFybGFuZDEQMA4GA1UEChMHTVBJLVNXUzEiMCAGA1UECxMZRGlzdHJp
YnV0ZWQgU3lzdGVtcyBHcm91cDExMC8GA1UEAxMoMTdhYmQ2OGNkOTgzZGVkM2I1
Mjk4NmFlNmYyYzdlYTk1NDQzYWNmODEjMCEGCSqGSIb3DQEJARYUbm9kZTA5NTlA
b2N0YXJpbmUuZGUwgZ8wDQYJKoZIhvcNAQEBBQADgY0AMIGJAoGBAMlSPSbUNd6L
tpBWb3ublvbKTgySHwIdeMqMaxEobMjsy2vgs5PearzvEVdwluSfhYSGWQLC5GgO
/ZMs0WaU9lCJPx5Wd+60dKqQV/UpiKufAF5qS+Yokq6NsUNJZW/deIC4n4boOut/
X2qQvkF3vLKOxjcNhVM+FA3zdNFWMdlfAgMBAAEwDQYJKoZIhvcNAQEEBQADgYEA
eZX3tkRr3mYX3rbFNt70vjnGAQ2edVljv/3sZnZzhaW5ZHizFJARnRnSqoD6NnM8
0SDkh6WDXs+KI8a0I0J2Y8cbRMviZ+nacy9qpKFxAsSARgXunpG7d7aRQXrZydGB
CeqCJmsiBtNe+x5iwfBGJw7fBwZcUe2c9wGIAW31EQ0=
-----END CERTIFICATE-----
