Certificate:
    Data:
        Version: 1 (0x0)
        Serial Number:
            9b:27:d7:e8:d1:ba:08:91
        Signature Algorithm: md5WithRSAEncryption
        Issuer: C=DE, ST=Saarland, O=MPI-SWS, OU=Distributed Systems Group, CN=Andreas Haeberlen/emailAddress=democa@octarine.de
        Validity
            Not Before: Apr 20 20:47:05 2015 GMT
            Not After : Apr 19 20:47:05 2016 GMT
        Subject: C=DE, ST=Saarland, O=MPI-SWS, OU=Distributed Systems Group, CN=3fa1b87e6785eb608c83cca75bd5f3222d4d5bbb/emailAddress=node0185@octarine.de
        Subject Public Key Info:
            Public Key Algorithm: rsaEncryption
            RSA Public Key: (1024 bit)
                Modulus (1024 bit):
                    00:dd:5f:60:4d:43:59:28:03:13:86:d0:f3:c7:12:
                    65:ae:7e:e6:31:bd:3e:cd:e8:dd:f1:5b:ba:69:8e:
                    8c:08:aa:e2:46:cd:60:a4:29:2e:98:28:bc:9d:39:
                    ae:de:d5:a5:fb:59:83:65:ff:3a:5b:eb:e4:b4:79:
                    01:ff:8b:e5:88:5c:79:e5:e0:d3:0b:b5:10:55:c6:
                    05:29:6f:81:19:1c:d4:ae:fb:14:ef:22:66:2c:45:
                    b0:61:8b:03:1c:66:7c:39:74:24:35:a3:ce:39:5e:
                    e4:61:75:ea:bb:d8:f6:b8:de:7e:6e:e8:1e:cd:6f:
                    0f:36:48:8e:fb:9e:2e:8b:e3
                Exponent: 65537 (0x10001)
    Signature Algorithm: md5WithRSAEncryption
        51:f4:6f:b1:4a:d6:03:45:af:3c:34:8c:3d:d7:95:0b:0b:a9:
        ac:4b:59:20:56:04:85:0c:17:51:c9:1b:fe:cb:08:38:4d:bd:
        a6:3d:33:19:f9:22:03:43:67:ce:0d:c4:81:12:03:51:c1:7d:
        b4:fd:17:18:16:d5:3b:b5:33:45:22:db:39:20:ec:55:49:6f:
        20:fa:14:5c:4b:a5:29:4c:25:64:a4:bd:12:ad:b1:d4:91:67:
        a7:dc:99:a8:5e:ee:24:fa:9d:2b:49:38:df:95:71:eb:37:c4:
        b2:3b:e5:6b:92:35:01:7b:d8:46:ba:16:f1:17:59:a6:95:8a:
        43:ea
-----BEGIN CERTIFICATE-----
MIICvDCCAiUCCQCbJ9fo0boIkTANBgkqhkiG9w0BAQQFADCBlTELMAkGA1UEBhMC
REUxETAPBgNVBAgTCFNhYXJsYW5kMRAwDgYDVQQKEwdNUEktU1dTMSIwIAYDVQQL
ExlEaXN0cmlidXRlZCBTeXN0ZW1zIEdyb3VwMRowGAYDVQQDExFBbmRyZWFzIEhh
ZWJlcmxlbjEhMB8GCSqGSIb3DQEJARYSZGVtb2NhQG9jdGFyaW5lLmRlMB4XDTE1
MDQyMDIwNDcwNVoXDTE2MDQxOTIwNDcwNVowga4xCzAJBgNVBAYTAkRFMREwDwYD
VQQIEwhTYWFybGFuZDEQMA4GA1UEChMHTVBJLVNXUzEiMCAGA1UECxMZRGlzdHJp
YnV0ZWQgU3lzdGVtcyBHcm91cDExMC8GA1UEAxMoM2ZhMWI4N2U2Nzg1ZWI2MDhj
ODNjY2E3NWJkNWYzMjIyZDRkNWJiYjEjMCEGCSqGSIb3DQEJARYUbm9kZTAxODVA
b2N0YXJpbmUuZGUwgZ8wDQYJKoZIhvcNAQEBBQADgY0AMIGJAoGBAN1fYE1DWSgD
E4bQ88cSZa5+5jG9Ps3o3fFbummOjAiq4kbNYKQpLpgovJ05rt7VpftZg2X/Olvr
5LR5Af+L5YhceeXg0wu1EFXGBSlvgRkc1K77FO8iZixFsGGLAxxmfDl0JDWjzjle
5GF16rvY9rjefm7oHs1vDzZIjvueLovjAgMBAAEwDQYJKoZIhvcNAQEEBQADgYEA
UfRvsUrWA0WvPDSMPdeVCwuprEtZIFYEhQwXUckb/ssIOE29pj0zGfkiA0Nnzg3E
gRIDUcF9tP0XGBbVO7UzRSLbOSDsVUlvIPoUXEulKUwlZKS9Eq2x1JFnp9yZqF7u
JPqdK0k435Vx6zfEsjvla5I1AXvYRroW8RdZppWKQ+o=
-----END CERTIFICATE-----
