Certificate:
    Data:
        Version: 1 (0x0)
        Serial Number:
            9b:27:d7:e8:d1:ba:08:60
        Signature Algorithm: md5WithRSAEncryption
        Issuer: C=DE, ST=Saarland, O=MPI-SWS, OU=Distributed Systems Group, CN=Andreas Haeberlen/emailAddress=democa@octarine.de
        Validity
            Not Before: Apr 20 20:47:03 2015 GMT
            Not After : Apr 19 20:47:03 2016 GMT
        Subject: C=DE, ST=Saarland, O=MPI-SWS, OU=Distributed Systems Group, CN=aa77e703e15c212de5fbe1802178319ec05b76f6/emailAddress=node0136@octarine.de
        Subject Public Key Info:
            Public Key Algorithm: rsaEncryption
            RSA Public Key: (1024 bit)
                Modulus (1024 bit):
                    00:bf:f8:05:d7:ba:19:28:ba:9c:9a:fd:9d:77:3c:
                    cd:98:44:3b:26:3d:db:0f:c2:73:fc:f3:0d:74:0c:
                    8b:c8:f7:54:11:14:50:83:cd:db:e6:a5:ba:de:41:
                    31:c8:95:fa:d8:60:18:d7:24:17:3b:4a:95:b9:66:
                    5f:60:ab:49:ca:99:d0:cb:ac:08:a4:de:f4:a2:50:
                    60:75:73:ca:c4:eb:de:75:5d:96:e9:67:e1:32:83:
                    89:d2:ea:72:f3:6b:75:1e:c1:86:a1:62:93:7a:35:
                    29:bf:3a:ef:78:67:57:f2:66:f3:3b:31:96:1c:42:
                    3d:13:ea:2f:02:2a:c1:b7:5f
                Exponent: 65537 (0x10001)
    Signature Algorithm: md5WithRSAEncryption
        2f:b5:4c:77:89:a3:20:54:27:76:20:bf:f3:72:2d:c6:21:89:
        5c:da:22:29:33:1c:d9:26:bf:61:da:3d:b6:b8:85:c8:fa:ee:
        91:e7:62:78:42:f6:0f:e7:3c:67:6a:49:b8:33:03:71:28:ec:
        ff:3b:6c:59:ef:f7:b7:aa:61:d4:2a:83:f8:5d:73:ec:dc:f1:
        bd:9d:ed:bb:e8:05:0a:95:98:f4:b0:9c:d6:a4:b0:93:08:6b:
        59:00:ba:52:ca:55:c9:d6:e2:a3:c1:37:1a:b0:87:00:06:06:
        f0:33:11:64:ba:fd:d0:c4:ce:cb:a0:5f:99:3e:02:55:cf:7f:
        eb:86
-----BEGIN CERTIFICATE-----
MIICvDCCAiUCCQCbJ9fo0boIYDANBgkqhkiG9w0BAQQFADCBlTELMAkGA1UEBhMC
REUxETAPBgNVBAgTCFNhYXJsYW5kMRAwDgYDVQQKEwdNUEktU1dTMSIwIAYDVQQL
ExlEaXN0cmlidXRlZCBTeXN0ZW1zIEdyb3VwMRowGAYDVQQDExFBbmRyZWFzIEhh
ZWJlcmxlbjEhMB8GCSqGSIb3DQEJARYSZGVtb2NhQG9jdGFyaW5lLmRlMB4XDTE1
MDQyMDIwNDcwM1oXDTE2MDQxOTIwNDcwM1owga4xCzAJBgNVBAYTAkRFMREwDwYD
VQQIEwhTYWFybGFuZDEQMA4GA1UEChMHTVBJLVNXUzEiMCAGA1UECxMZRGlzdHJp
YnV0ZWQgU3lzdGVtcyBHcm91cDExMC8GA1UEAxMoYWE3N2U3MDNlMTVjMjEyZGU1
ZmJlMTgwMjE3ODMxOWVjMDViNzZmNjEjMCEGCSqGSIb3DQEJARYUbm9kZTAxMzZA
b2N0YXJpbmUuZGUwgZ8wDQYJKoZIhvcNAQEBBQADgY0AMIGJAoGBAL/4Bde6GSi6
nJr9nXc8zZhEOyY92w/Cc/zzDXQMi8j3VBEUUIPN2+alut5BMciV+thgGNckFztK
lblmX2CrScqZ0MusCKTe9KJQYHVzysTr3nVdluln4TKDidLqcvNrdR7BhqFik3o1
Kb8673hnV/Jm8zsxlhxCPRPqLwIqwbdfAgMBAAEwDQYJKoZIhvcNAQEEBQADgYEA
L7VMd4mjIFQndiC/83ItxiGJXNoiKTMc2Sa/Ydo9triFyPrukedieEL2D+c8Z2pJ
uDMDcSjs/ztsWe/3t6ph1CqD+F1z7NzxvZ3tu+gFCpWY9LCc1qSwkwhrWQC6UspV
ydbio8E3GrCHAAYG8DMRZLr90MTOy6BfmT4CVc9/64Y=
-----END CERTIFICATE-----
