Certificate:
    Data:
        Version: 1 (0x0)
        Serial Number:
            9b:27:d7:e8:d1:ba:0a:99
        Signature Algorithm: md5WithRSAEncryption
        Issuer: C=DE, ST=Saarland, O=MPI-SWS, OU=Distributed Systems Group, CN=Andreas Haeberlen/emailAddress=democa@octarine.de
        Validity
            Not Before: Apr 20 20:47:28 2015 GMT
            Not After : Apr 19 20:47:28 2016 GMT
        Subject: C=DE, ST=Saarland, O=MPI-SWS, OU=Distributed Systems Group, CN=489dc0593f3e6a3d2410785b114a00158a34b8ee/emailAddress=node0705@octarine.de
        Subject Public Key Info:
            Public Key Algorithm: rsaEncryption
            RSA Public Key: (1024 bit)
                Modulus (1024 bit):
                    00:9d:3f:16:bd:3f:e6:c4:5b:61:df:d1:72:82:c7:
                    86:30:48:5a:39:8d:fa:af:1b:d7:bc:6a:b2:22:ab:
                    66:46:f8:8e:03:25:ba:d8:d2:b5:ee:8b:be:12:5a:
                    2d:ec:43:69:9e:54:f6:c9:4f:a3:98:0e:45:68:1b:
                    02:b6:fc:09:b3:4b:2d:ee:0c:54:b3:02:95:29:7a:
                    28:55:7f:bc:b2:f8:36:66:6d:a6:b2:bc:d4:85:c6:
                    5b:6b:d5:17:ab:05:27:e6:b9:d4:d6:8d:12:c2:63:
                    00:6d:d5:04:5e:52:65:d3:c8:88:4f:d7:1a:fb:32:
                    9f:c3:b7:17:d9:0b:ce:3a:c3
                Exponent: 65537 (0x10001)
    Signature Algorithm: md5WithRSAEncryption
        cb:d9:e6:0d:e5:f5:59:31:2c:0b:66:04:13:5c:04:8c:e5:d9:
        ec:12:3c:fa:c6:ff:bb:17:0e:6c:f6:49:b2:eb:6d:58:8c:5d:
        77:65:44:b4:d9:c0:71:d6:3a:6c:9a:73:e1:02:fb:4a:7a:73:
        fa:09:d3:77:a6:b3:02:fb:a4:75:1a:e2:29:e1:a5:2b:c1:0f:
        3c:e8:40:ec:cf:07:11:9e:3d:6f:76:f0:cf:2e:a5:57:6e:d6:
        6f:38:a9:7d:9a:c8:9b:10:80:8b:a9:13:7f:ce:11:2e:f9:ed:
        42:9b:5f:52:a3:a9:f8:31:a0:86:d2:d6:61:ae:99:c2:32:33:
        52:de
-----BEGIN CERTIFICATE-----
MIICvDCCAiUCCQCbJ9fo0boKmTANBgkqhkiG9w0BAQQFADCBlTELMAkGA1UEBhMC
REUxETAPBgNVBAgTCFNhYXJsYW5kMRAwDgYDVQQKEwdNUEktU1dTMSIwIAYDVQQL
ExlEaXN0cmlidXRlZCBTeXN0ZW1zIEdyb3VwMRowGAYDVQQDExFBbmRyZWFzIEhh
ZWJlcmxlbjEhMB8GCSqGSIb3DQEJARYSZGVtb2NhQG9jdGFyaW5lLmRlMB4XDTE1
MDQyMDIwNDcyOFoXDTE2MDQxOTIwNDcyOFowga4xCzAJBgNVBAYTAkRFMREwDwYD
VQQIEwhTYWFybGFuZDEQMA4GA1UEChMHTVBJLVNXUzEiMCAGA1UECxMZRGlzdHJp
YnV0ZWQgU3lzdGVtcyBHcm91cDExMC8GA1UEAxMoNDg5ZGMwNTkzZjNlNmEzZDI0
MTA3ODViMTE0YTAwMTU4YTM0YjhlZTEjMCEGCSqGSIb3DQEJARYUbm9kZTA3MDVA
b2N0YXJpbmUuZGUwgZ8wDQYJKoZIhvcNAQEBBQADgY0AMIGJAoGBAJ0/Fr0/5sRb
Yd/RcoLHhjBIWjmN+q8b17xqsiKrZkb4jgMlutjSte6LvhJaLexDaZ5U9slPo5gO
RWgbArb8CbNLLe4MVLMClSl6KFV/vLL4NmZtprK81IXGW2vVF6sFJ+a51NaNEsJj
AG3VBF5SZdPIiE/XGvsyn8O3F9kLzjrDAgMBAAEwDQYJKoZIhvcNAQEEBQADgYEA
y9nmDeX1WTEsC2YEE1wEjOXZ7BI8+sb/uxcObPZJsuttWIxdd2VEtNnAcdY6bJpz
4QL7Snpz+gnTd6azAvukdRriKeGlK8EPPOhA7M8HEZ49b3bwzy6lV27WbzipfZrI
mxCAi6kTf84RLvntQptfUqOp+DGghtLWYa6ZwjIzUt4=
-----END CERTIFICATE-----
