Certificate:
    Data:
        Version: 1 (0x0)
        Serial Number:
            9b:27:d7:e8:d1:ba:08:c4
        Signature Algorithm: md5WithRSAEncryption
        Issuer: C=DE, ST=Saarland, O=MPI-SWS, OU=Distributed Systems Group, CN=Andreas Haeberlen/emailAddress=democa@octarine.de
        Validity
            Not Before: Apr 20 20:47:07 2015 GMT
            Not After : Apr 19 20:47:07 2016 GMT
        Subject: C=DE, ST=Saarland, O=MPI-SWS, OU=Distributed Systems Group, CN=8c4b770e615830d481379530a692715fd9a50a47/emailAddress=node0236@octarine.de
        Subject Public Key Info:
            Public Key Algorithm: rsaEncryption
            RSA Public Key: (1024 bit)
                Modulus (1024 bit):
                    00:d7:af:8e:9b:a3:31:15:b9:18:0b:e3:23:a5:e9:
                    42:43:ba:28:05:dc:47:4c:d3:41:f5:d6:11:1c:1a:
                    1e:a8:6c:5c:08:72:b6:77:ac:01:35:a8:56:c6:c2:
                    84:a3:a7:c2:86:e0:44:ea:34:44:fc:c1:68:b1:cb:
                    13:cd:2a:2f:3b:f6:cf:7e:5b:92:0c:28:ba:89:a0:
                    9f:5d:09:67:9c:95:bd:42:24:83:c4:64:73:09:61:
                    35:fe:6d:cc:dd:ce:7c:21:45:5f:8a:df:b3:a0:7f:
                    bc:38:c8:53:e6:d0:d0:72:9b:80:e0:56:93:64:e5:
                    37:5d:49:98:c5:d3:c1:98:ef
                Exponent: 65537 (0x10001)
    Signature Algorithm: md5WithRSAEncryption
        be:70:91:ce:7e:72:0c:b5:fe:c5:33:de:31:3a:41:c1:3a:1d:
        7c:e1:2b:8e:e2:a8:d0:55:57:7b:55:9c:50:27:60:62:49:93:
        d3:31:f0:59:dc:5b:40:5f:22:fd:0e:35:ef:20:72:ab:50:60:
        87:59:73:48:8f:ab:8f:3e:90:64:11:8e:13:c0:8c:da:4a:bb:
        0a:cc:a4:75:ed:96:b6:7b:61:6f:69:48:a3:19:1e:de:c8:6d:
        64:6b:3c:04:95:87:e7:43:7d:a0:ef:d4:b9:39:66:4c:30:ac:
        df:00:8f:38:e0:d5:39:23:a7:a3:60:b8:31:38:a1:4e:2e:2f:
        2f:18
-----BEGIN CERTIFICATE-----
MIICvDCCAiUCCQCbJ9fo0boIxDANBgkqhkiG9w0BAQQFADCBlTELMAkGA1UEBhMC
REUxETAPBgNVBAgTCFNhYXJsYW5kMRAwDgYDVQQKEwdNUEktU1dTMSIwIAYDVQQL
ExlEaXN0cmlidXRlZCBTeXN0ZW1zIEdyb3VwMRowGAYDVQQDExFBbmRyZWFzIEhh
ZWJlcmxlbjEhMB8GCSqGSIb3DQEJARYSZGVtb2NhQG9jdGFyaW5lLmRlMB4XDTE1
MDQyMDIwNDcwN1oXDTE2MDQxOTIwNDcwN1owga4xCzAJBgNVBAYTAkRFMREwDwYD
VQQIEwhTYWFybGFuZDEQMA4GA1UEChMHTVBJLVNXUzEiMCAGA1UECxMZRGlzdHJp
YnV0ZWQgU3lzdGVtcyBHcm91cDExMC8GA1UEAxMoOGM0Yjc3MGU2MTU4MzBkNDgx
Mzc5NTMwYTY5MjcxNWZkOWE1MGE0NzEjMCEGCSqGSIb3DQEJARYUbm9kZTAyMzZA
b2N0YXJpbmUuZGUwgZ8wDQYJKoZIhvcNAQEBBQADgY0AMIGJAoGBANevjpujMRW5
GAvjI6XpQkO6KAXcR0zTQfXWERwaHqhsXAhytnesATWoVsbChKOnwobgROo0RPzB
aLHLE80qLzv2z35bkgwouomgn10JZ5yVvUIkg8RkcwlhNf5tzN3OfCFFX4rfs6B/
vDjIU+bQ0HKbgOBWk2TlN11JmMXTwZjvAgMBAAEwDQYJKoZIhvcNAQEEBQADgYEA
vnCRzn5yDLX+xTPeMTpBwTodfOErjuKo0FVXe1WcUCdgYkmT0zHwWdxbQF8i/Q41
7yByq1Bgh1lzSI+rjz6QZBGOE8CM2kq7Csykde2Wtnthb2lIoxke3shtZGs8BJWH
50N9oO/UuTlmTDCs3wCPOODVOSOno2C4MTihTi4vLxg=
-----END CERTIFICATE-----
