Certificate:
    Data:
        Version: 1 (0x0)
        Serial Number:
            9b:27:d7:e8:d1:ba:0a:4a
        Signature Algorithm: md5WithRSAEncryption
        Issuer: C=DE, ST=Saarland, O=MPI-SWS, OU=Distributed Systems Group, CN=Andreas Haeberlen/emailAddress=democa@octarine.de
        Validity
            Not Before: Apr 20 20:47:24 2015 GMT
            Not After : Apr 19 20:47:24 2016 GMT
        Subject: C=DE, ST=Saarland, O=MPI-SWS, OU=Distributed Systems Group, CN=902ae70bf11dd407337f78e9aaa11a8abb5a3553/emailAddress=node0626@octarine.de
        Subject Public Key Info:
            Public Key Algorithm: rsaEncryption
            RSA Public Key: (1024 bit)
                Modulus (1024 bit):
                    00:be:9c:6c:c5:6a:40:b9:44:fa:b8:6e:d9:81:d1:
                    21:cb:01:b7:bb:1b:50:90:f6:94:59:f2:9f:21:83:
                    68:df:d9:d8:14:87:b6:e1:3d:82:f0:2d:bc:14:9d:
                    e4:74:d4:51:b4:1f:22:49:da:ac:69:79:99:26:8d:
                    7d:4d:96:14:38:96:8e:4e:0c:20:82:0b:b2:aa:06:
                    1b:5d:aa:35:f2:84:33:20:ea:77:57:33:af:71:28:
                    8f:78:63:f3:bf:fd:bb:75:5c:3f:d6:65:6c:ba:6d:
                    18:a0:7a:3e:d3:1f:0f:9a:4f:64:ef:70:e3:cc:1a:
                    b5:51:a4:55:70:3d:cb:19:df
                Exponent: 65537 (0x10001)
    Signature Algorithm: md5WithRSAEncryption
        68:00:00:33:51:9b:f4:7a:51:75:3a:7e:3c:2d:7c:84:92:eb:
        53:91:8e:30:aa:43:80:f6:ff:c7:0b:bd:57:c2:8c:9e:b9:d5:
        f8:13:a7:a1:da:fe:5a:7f:95:9c:8b:67:fb:ff:22:8d:49:c1:
        d0:9c:77:d0:71:f5:7f:cb:4b:f4:e6:8a:1c:a9:37:0d:0a:82:
        b6:c2:85:25:b3:05:5b:00:f3:ff:07:d0:59:17:ac:96:a8:8a:
        8e:21:3c:0f:a4:7d:4f:29:9f:eb:f3:4c:57:76:6f:0f:95:b7:
        93:6d:1a:3e:e5:14:3d:18:ec:19:47:61:d1:39:a2:75:5e:22:
        79:43
-----BEGIN CERTIFICATE-----
MIICvDCCAiUCCQCbJ9fo0boKSjANBgkqhkiG9w0BAQQFADCBlTELMAkGA1UEBhMC
REUxETAPBgNVBAgTCFNhYXJsYW5kMRAwDgYDVQQKEwdNUEktU1dTMSIwIAYDVQQL
ExlEaXN0cmlidXRlZCBTeXN0ZW1zIEdyb3VwMRowGAYDVQQDExFBbmRyZWFzIEhh
ZWJlcmxlbjEhMB8GCSqGSIb3DQEJARYSZGVtb2NhQG9jdGFyaW5lLmRlMB4XDTE1
MDQyMDIwNDcyNFoXDTE2MDQxOTIwNDcyNFowga4xCzAJBgNVBAYTAkRFMREwDwYD
VQQIEwhTYWFybGFuZDEQMA4GA1UEChMHTVBJLVNXUzEiMCAGA1UECxMZRGlzdHJp
YnV0ZWQgU3lzdGVtcyBHcm91cDExMC8GA1UEAxMoOTAyYWU3MGJmMTFkZDQwNzMz
N2Y3OGU5YWFhMTFhOGFiYjVhMzU1MzEjMCEGCSqGSIb3DQEJARYUbm9kZTA2MjZA
b2N0YXJpbmUuZGUwgZ8wDQYJKoZIhvcNAQEBBQADgY0AMIGJAoGBAL6cbMVqQLlE
+rhu2YHRIcsBt7sbUJD2lFnynyGDaN/Z2BSHtuE9gvAtvBSd5HTUUbQfIknarGl5
mSaNfU2WFDiWjk4MIIILsqoGG12qNfKEMyDqd1czr3Eoj3hj87/9u3VcP9ZlbLpt
GKB6PtMfD5pPZO9w48watVGkVXA9yxnfAgMBAAEwDQYJKoZIhvcNAQEEBQADgYEA
aAAAM1Gb9HpRdTp+PC18hJLrU5GOMKpDgPb/xwu9V8KMnrnV+BOnodr+Wn+VnItn
+/8ijUnB0Jx30HH1f8tL9OaKHKk3DQqCtsKFJbMFWwDz/wfQWReslqiKjiE8D6R9
Tymf6/NMV3ZvD5W3k20aPuUUPRjsGUdh0TmidV4ieUM=
-----END CERTIFICATE-----
