Certificate:
    Data:
        Version: 1 (0x0)
        Serial Number:
            9b:27:d7:e8:d1:ba:0a:67
        Signature Algorithm: md5WithRSAEncryption
        Issuer: C=DE, ST=Saarland, O=MPI-SWS, OU=Distributed Systems Group, CN=Andreas Haeberlen/emailAddress=democa@octarine.de
        Validity
            Not Before: Apr 20 20:47:26 2015 GMT
            Not After : Apr 19 20:47:26 2016 GMT
        Subject: C=DE, ST=Saarland, O=MPI-SWS, OU=Distributed Systems Group, CN=8ff01b712403cddb1a6d59eac243cfe4ee509c2c/emailAddress=node0655@octarine.de
        Subject Public Key Info:
            Public Key Algorithm: rsaEncryption
            RSA Public Key: (1024 bit)
                Modulus (1024 bit):
                    00:96:84:6a:4d:cf:71:df:7d:9a:be:30:8d:d7:c2:
                    43:81:70:02:dd:54:9a:fe:63:ab:2b:de:03:78:5e:
                    01:6c:41:4f:e2:9f:2c:73:73:99:9f:ec:b6:52:ad:
                    a8:69:b6:57:2e:eb:1d:d8:e9:b3:b0:14:1c:04:5f:
                    46:6c:fa:66:82:53:61:32:cb:04:7f:fd:16:21:b9:
                    b4:72:45:e1:96:0d:a2:ba:47:22:56:c7:5b:22:24:
                    fd:df:f0:b5:a0:ef:52:37:84:db:ee:9c:f6:a5:10:
                    5c:c6:e8:c1:76:5e:82:5e:7f:0f:b2:3a:4f:5b:32:
                    f4:68:34:9b:0f:9f:9a:f6:59
                Exponent: 65537 (0x10001)
    Signature Algorithm: md5WithRSAEncryption
        11:02:d1:08:37:f5:45:48:9d:dd:e9:c4:64:3d:97:5f:d4:46:
        f7:ae:56:53:b3:85:62:8b:8e:6f:1e:9e:81:ad:c1:60:59:61:
        8c:07:9e:74:71:80:23:d4:06:c2:bb:a3:c9:fd:9e:29:7d:f0:
        cd:2b:24:50:1c:8e:6f:8e:6a:e5:66:46:2d:28:ce:36:b7:16:
        69:19:1b:72:11:d9:cd:03:27:2e:7d:cb:ff:f3:6f:e8:e0:0c:
        3f:77:46:75:9e:b3:5e:3b:65:44:01:39:34:db:59:f4:02:90:
        a5:96:a4:0d:d2:1f:47:97:c6:91:f5:21:be:83:4e:3f:b9:97:
        db:09
-----BEGIN CERTIFICATE-----
MIICvDCCAiUCCQCbJ9fo0boKZzANBgkqhkiG9w0BAQQFADCBlTELMAkGA1UEBhMC
REUxETAPBgNVBAgTCFNhYXJsYW5kMRAwDgYDVQQKEwdNUEktU1dTMSIwIAYDVQQL
ExlEaXN0cmlidXRlZCBTeXN0ZW1zIEdyb3VwMRowGAYDVQQDExFBbmRyZWFzIEhh
ZWJlcmxlbjEhMB8GCSqGSIb3DQEJARYSZGVtb2NhQG9jdGFyaW5lLmRlMB4XDTE1
MDQyMDIwNDcyNloXDTE2MDQxOTIwNDcyNlowga4xCzAJBgNVBAYTAkRFMREwDwYD
VQQIEwhTYWFybGFuZDEQMA4GA1UEChMHTVBJLVNXUzEiMCAGA1UECxMZRGlzdHJp
YnV0ZWQgU3lzdGVtcyBHcm91cDExMC8GA1UEAxMoOGZmMDFiNzEyNDAzY2RkYjFh
NmQ1OWVhYzI0M2NmZTRlZTUwOWMyYzEjMCEGCSqGSIb3DQEJARYUbm9kZTA2NTVA
b2N0YXJpbmUuZGUwgZ8wDQYJKoZIhvcNAQEBBQADgY0AMIGJAoGBAJaEak3Pcd99
mr4wjdfCQ4FwAt1Umv5jqyveA3heAWxBT+KfLHNzmZ/stlKtqGm2Vy7rHdjps7AU
HARfRmz6ZoJTYTLLBH/9FiG5tHJF4ZYNorpHIlbHWyIk/d/wtaDvUjeE2+6c9qUQ
XMbowXZegl5/D7I6T1sy9Gg0mw+fmvZZAgMBAAEwDQYJKoZIhvcNAQEEBQADgYEA
EQLRCDf1RUid3enEZD2XX9RG965WU7OFYouObx6ega3BYFlhjAeedHGAI9QGwruj
yf2eKX3wzSskUByOb45q5WZGLSjONrcWaRkbchHZzQMnLn3L//Nv6OAMP3dGdZ6z
XjtlRAE5NNtZ9AKQpZakDdIfR5fGkfUhvoNOP7mX2wk=
-----END CERTIFICATE-----
