Certificate:
    Data:
        Version: 1 (0x0)
        Serial Number:
            9b:27:d7:e8:d1:ba:0a:71
        Signature Algorithm: md5WithRSAEncryption
        Issuer: C=DE, ST=Saarland, O=MPI-SWS, OU=Distributed Systems Group, CN=Andreas Haeberlen/emailAddress=democa@octarine.de
        Validity
            Not Before: Apr 20 20:47:26 2015 GMT
            Not After : Apr 19 20:47:26 2016 GMT
        Subject: C=DE, ST=Saarland, O=MPI-SWS, OU=Distributed Systems Group, CN=689dc6e9062a70f6692899fa153af096834492ea/emailAddress=node0665@octarine.de
        Subject Public Key Info:
            Public Key Algorithm: rsaEncryption
            RSA Public Key: (1024 bit)
                Modulus (1024 bit):
                    00:ba:2f:37:6d:40:a2:5c:b7:8b:cb:33:9b:aa:9a:
                    a1:e3:0d:a5:cc:51:76:c9:ef:6c:f4:e4:32:3b:6d:
                    1e:48:18:0a:a8:d9:c9:f6:6a:65:69:2e:ea:83:05:
                    63:32:9b:2e:74:8b:15:67:a3:66:1d:a8:c2:5c:3a:
                    48:0b:e3:46:0e:b4:b7:0d:3f:f1:7c:a2:39:d0:10:
                    20:9f:70:da:d0:8f:72:72:98:63:e1:22:a8:30:9f:
                    e7:2a:27:9d:3f:01:19:c1:4e:20:ee:87:3c:07:43:
                    7c:c7:37:24:8d:12:3c:1b:87:fc:18:97:28:6e:36:
                    0f:10:77:6b:9d:1e:df:d7:71
                Exponent: 65537 (0x10001)
    Signature Algorithm: md5WithRSAEncryption
        0a:ad:cd:5f:04:ee:53:33:00:23:37:4e:0d:ae:0c:c5:4c:08:
        27:11:58:ec:74:c7:60:b5:5d:a3:fb:d7:29:df:6d:5d:59:a0:
        dd:3b:b5:0a:03:51:6f:49:1e:1a:13:13:db:a6:a4:ed:d3:9f:
        ef:9f:df:a9:f7:c4:fa:cc:1e:63:2f:48:0a:be:0e:7b:78:c9:
        84:60:58:00:67:14:34:40:92:8d:ad:ff:94:8d:02:d3:50:80:
        96:7f:c4:f5:00:46:ce:3d:38:81:f1:54:86:72:98:6e:51:4e:
        f2:fe:c2:2e:bb:f9:fa:df:c7:a4:45:34:f7:7f:c9:20:30:f1:
        89:96
-----BEGIN CERTIFICATE-----
MIICvDCCAiUCCQCbJ9fo0boKcTANBgkqhkiG9w0BAQQFADCBlTELMAkGA1UEBhMC
REUxETAPBgNVBAgTCFNhYXJsYW5kMRAwDgYDVQQKEwdNUEktU1dTMSIwIAYDVQQL
ExlEaXN0cmlidXRlZCBTeXN0ZW1zIEdyb3VwMRowGAYDVQQDExFBbmRyZWFzIEhh
ZWJlcmxlbjEhMB8GCSqGSIb3DQEJARYSZGVtb2NhQG9jdGFyaW5lLmRlMB4XDTE1
MDQyMDIwNDcyNloXDTE2MDQxOTIwNDcyNlowga4xCzAJBgNVBAYTAkRFMREwDwYD
VQQIEwhTYWFybGFuZDEQMA4GA1UEChMHTVBJLVNXUzEiMCAGA1UECxMZRGlzdHJp
YnV0ZWQgU3lzdGVtcyBHcm91cDExMC8GA1UEAxMoNjg5ZGM2ZTkwNjJhNzBmNjY5
Mjg5OWZhMTUzYWYwOTY4MzQ0OTJlYTEjMCEGCSqGSIb3DQEJARYUbm9kZTA2NjVA
b2N0YXJpbmUuZGUwgZ8wDQYJKoZIhvcNAQEBBQADgY0AMIGJAoGBALovN21Aoly3
i8szm6qaoeMNpcxRdsnvbPTkMjttHkgYCqjZyfZqZWku6oMFYzKbLnSLFWejZh2o
wlw6SAvjRg60tw0/8XyiOdAQIJ9w2tCPcnKYY+EiqDCf5yonnT8BGcFOIO6HPAdD
fMc3JI0SPBuH/BiXKG42DxB3a50e39dxAgMBAAEwDQYJKoZIhvcNAQEEBQADgYEA
Cq3NXwTuUzMAIzdODa4MxUwIJxFY7HTHYLVdo/vXKd9tXVmg3Tu1CgNRb0keGhMT
26ak7dOf75/fqffE+sweYy9ICr4Oe3jJhGBYAGcUNECSja3/lI0C01CAln/E9QBG
zj04gfFUhnKYblFO8v7CLrv5+t/HpEU093/JIDDxiZY=
-----END CERTIFICATE-----
