Certificate:
    Data:
        Version: 1 (0x0)
        Serial Number:
            9b:27:d7:e8:d1:ba:09:c0
        Signature Algorithm: md5WithRSAEncryption
        Issuer: C=DE, ST=Saarland, O=MPI-SWS, OU=Distributed Systems Group, CN=Andreas Haeberlen/emailAddress=democa@octarine.de
        Validity
            Not Before: Apr 20 20:47:18 2015 GMT
            Not After : Apr 19 20:47:18 2016 GMT
        Subject: C=DE, ST=Saarland, O=MPI-SWS, OU=Distributed Systems Group, CN=fc59e6f801a159dcc42b57259dda6f85bdf94f24/emailAddress=node0488@octarine.de
        Subject Public Key Info:
            Public Key Algorithm: rsaEncryption
            RSA Public Key: (1024 bit)
                Modulus (1024 bit):
                    00:de:ad:0f:79:3d:21:b0:fa:f0:c9:64:7b:e5:85:
                    79:9c:2d:fd:24:a7:c7:40:51:2f:d3:65:02:3f:77:
                    03:b0:3e:37:b9:1f:49:92:52:c9:38:56:dd:09:75:
                    da:a9:ed:71:2e:db:6d:a5:07:39:05:a4:d0:07:cf:
                    94:9d:5b:4d:b5:cd:b3:69:74:27:5e:66:07:e4:00:
                    42:ee:d7:89:90:52:66:a7:3d:1c:2b:d0:5d:58:b3:
                    fe:93:ff:b4:2c:ed:e9:5b:f0:e6:1e:a2:81:c5:aa:
                    bc:2d:8d:6c:a9:86:0a:51:d9:25:44:06:3e:f2:5c:
                    a0:84:37:89:9e:ca:ba:01:bf
                Exponent: 65537 (0x10001)
    Signature Algorithm: md5WithRSAEncryption
        0f:5a:1e:e8:d8:54:ea:80:1d:26:0d:a1:c6:26:63:19:5b:6f:
        02:b5:de:b5:ab:3d:90:c4:10:43:b6:e5:24:ef:8f:9c:69:c6:
        0e:e0:01:7f:04:63:22:8a:23:a8:67:fc:69:4e:dd:a0:b0:10:
        05:a3:c8:0f:29:a2:a7:b4:fa:7c:cb:e2:1e:0f:70:01:93:13:
        a3:ca:20:b8:91:88:78:c2:e3:10:ad:49:f3:2a:13:5e:34:a5:
        6c:50:0e:a2:0f:d2:8c:96:17:7a:b0:1f:ae:5e:ba:45:35:c6:
        88:56:fc:24:75:41:64:54:99:4b:92:f9:20:ff:bc:78:14:ec:
        33:f4
-----BEGIN CERTIFICATE-----
MIICvDCCAiUCCQCbJ9fo0boJwDANBgkqhkiG9w0BAQQFADCBlTELMAkGA1UEBhMC
REUxETAPBgNVBAgTCFNhYXJsYW5kMRAwDgYDVQQKEwdNUEktU1dTMSIwIAYDVQQL
ExlEaXN0cmlidXRlZCBTeXN0ZW1zIEdyb3VwMRowGAYDVQQDExFBbmRyZWFzIEhh
ZWJlcmxlbjEhMB8GCSqGSIb3DQEJARYSZGVtb2NhQG9jdGFyaW5lLmRlMB4XDTE1
MDQyMDIwNDcxOFoXDTE2MDQxOTIwNDcxOFowga4xCzAJBgNVBAYTAkRFMREwDwYD
VQQIEwhTYWFybGFuZDEQMA4GA1UEChMHTVBJLVNXUzEiMCAGA1UECxMZRGlzdHJp
YnV0ZWQgU3lzdGVtcyBHcm91cDExMC8GA1UEAxMoZmM1OWU2ZjgwMWExNTlkY2M0
MmI1NzI1OWRkYTZmODViZGY5NGYyNDEjMCEGCSqGSIb3DQEJARYUbm9kZTA0ODhA
b2N0YXJpbmUuZGUwgZ8wDQYJKoZIhvcNAQEBBQADgY0AMIGJAoGBAN6tD3k9IbD6
8Mlke+WFeZwt/SSnx0BRL9NlAj93A7A+N7kfSZJSyThW3Ql12qntcS7bbaUHOQWk
0AfPlJ1bTbXNs2l0J15mB+QAQu7XiZBSZqc9HCvQXViz/pP/tCzt6Vvw5h6igcWq
vC2NbKmGClHZJUQGPvJcoIQ3iZ7KugG/AgMBAAEwDQYJKoZIhvcNAQEEBQADgYEA
D1oe6NhU6oAdJg2hxiZjGVtvArXetas9kMQQQ7blJO+PnGnGDuABfwRjIoojqGf8
aU7doLAQBaPIDymip7T6fMviHg9wAZMTo8oguJGIeMLjEK1J8yoTXjSlbFAOog/S
jJYXerAfrl66RTXGiFb8JHVBZFSZS5L5IP+8eBTsM/Q=
-----END CERTIFICATE-----
