Certificate:
    Data:
        Version: 1 (0x0)
        Serial Number:
            9b:27:d7:e8:d1:ba:0a:23
        Signature Algorithm: md5WithRSAEncryption
        Issuer: C=DE, ST=Saarland, O=MPI-SWS, OU=Distributed Systems Group, CN=Andreas Haeberlen/emailAddress=democa@octarine.de
        Validity
            Not Before: Apr 20 20:47:23 2015 GMT
            Not After : Apr 19 20:47:23 2016 GMT
        Subject: C=DE, ST=Saarland, O=MPI-SWS, OU=Distributed Systems Group, CN=e054b4a262a7ccf62df51696f08129609b55ff86/emailAddress=node0587@octarine.de
        Subject Public Key Info:
            Public Key Algorithm: rsaEncryption
            RSA Public Key: (1024 bit)
                Modulus (1024 bit):
                    00:c6:08:e5:8d:f1:5e:be:a4:75:c4:18:a8:48:44:
                    45:f0:6d:c1:39:0a:f4:85:20:a3:f8:7d:76:fa:7a:
                    f0:7a:19:22:66:4e:83:b2:06:7d:4c:b5:7e:00:2c:
                    04:68:cf:12:a5:a8:fb:f6:34:6e:5a:46:be:69:df:
                    2f:30:8c:95:30:1e:6e:0f:46:fc:f8:e5:92:c7:a2:
                    90:c4:51:be:ed:cd:78:00:46:9e:a3:30:50:72:75:
                    fb:81:dd:95:9c:e2:70:f8:94:69:ae:37:29:63:3a:
                    2f:80:93:24:bb:1f:10:12:60:56:0d:ad:ce:ae:6d:
                    8b:04:d3:a1:f6:37:9b:a5:dd
                Exponent: 65537 (0x10001)
    Signature Algorithm: md5WithRSAEncryption
        28:fb:fd:94:79:48:42:e8:ce:1a:e5:f5:f7:b6:72:07:73:95:
        24:cc:d6:21:a1:3c:ed:c7:c4:51:5e:cc:80:61:20:a2:96:cf:
        60:e4:87:25:75:1d:25:9d:5b:f5:9a:44:b6:b2:b8:d4:bf:dc:
        20:d4:29:56:42:c9:75:0d:05:68:88:b7:3c:a3:d0:7d:f7:4c:
        77:47:42:2b:5d:a9:dc:b0:cb:7d:2f:c8:ce:d5:b0:10:d4:a7:
        7f:09:6f:a2:34:46:8d:5a:75:03:cc:ff:86:fa:07:69:6f:02:
        19:04:80:b6:c0:c2:fa:b7:ed:eb:21:83:03:21:76:e7:7f:64:
        d7:72
-----BEGIN CERTIFICATE-----
MIICvDCCAiUCCQCbJ9fo0boKIzANBgkqhkiG9w0BAQQFADCBlTELMAkGA1UEBhMC
REUxETAPBgNVBAgTCFNhYXJsYW5kMRAwDgYDVQQKEwdNUEktU1dTMSIwIAYDVQQL
ExlEaXN0cmlidXRlZCBTeXN0ZW1zIEdyb3VwMRowGAYDVQQDExFBbmRyZWFzIEhh
ZWJlcmxlbjEhMB8GCSqGSIb3DQEJARYSZGVtb2NhQG9jdGFyaW5lLmRlMB4XDTE1
MDQyMDIwNDcyM1oXDTE2MDQxOTIwNDcyM1owga4xCzAJBgNVBAYTAkRFMREwDwYD
VQQIEwhTYWFybGFuZDEQMA4GA1UEChMHTVBJLVNXUzEiMCAGA1UECxMZRGlzdHJp
YnV0ZWQgU3lzdGVtcyBHcm91cDExMC8GA1UEAxMoZTA1NGI0YTI2MmE3Y2NmNjJk
ZjUxNjk2ZjA4MTI5NjA5YjU1ZmY4NjEjMCEGCSqGSIb3DQEJARYUbm9kZTA1ODdA
b2N0YXJpbmUuZGUwgZ8wDQYJKoZIhvcNAQEBBQADgY0AMIGJAoGBAMYI5Y3xXr6k
dcQYqEhERfBtwTkK9IUgo/h9dvp68HoZImZOg7IGfUy1fgAsBGjPEqWo+/Y0blpG
vmnfLzCMlTAebg9G/PjlkseikMRRvu3NeABGnqMwUHJ1+4HdlZzicPiUaa43KWM6
L4CTJLsfEBJgVg2tzq5tiwTTofY3m6XdAgMBAAEwDQYJKoZIhvcNAQEEBQADgYEA
KPv9lHlIQujOGuX197ZyB3OVJMzWIaE87cfEUV7MgGEgopbPYOSHJXUdJZ1b9ZpE
trK41L/cINQpVkLJdQ0FaIi3PKPQffdMd0dCK12p3LDLfS/IztWwENSnfwlvojRG
jVp1A8z/hvoHaW8CGQSAtsDC+rft6yGDAyF2539k13I=
-----END CERTIFICATE-----
