Certificate:
    Data:
        Version: 1 (0x0)
        Serial Number:
            9b:27:d7:e8:d1:ba:09:31
        Signature Algorithm: md5WithRSAEncryption
        Issuer: C=DE, ST=Saarland, O=MPI-SWS, OU=Distributed Systems Group, CN=Andreas Haeberlen/emailAddress=democa@octarine.de
        Validity
            Not Before: Apr 20 20:47:11 2015 GMT
            Not After : Apr 19 20:47:11 2016 GMT
        Subject: C=DE, ST=Saarland, O=MPI-SWS, OU=Distributed Systems Group, CN=03451047ec9581e09ce32f823ea23733a78b8d36/emailAddress=node0345@octarine.de
        Subject Public Key Info:
            Public Key Algorithm: rsaEncryption
            RSA Public Key: (1024 bit)
                Modulus (1024 bit):
                    00:aa:a5:e3:cc:11:4c:94:85:fa:c8:72:65:95:48:
                    e7:6b:e8:e0:b4:c8:59:c6:d0:52:e6:fe:12:32:cc:
                    3f:63:28:0a:72:9d:29:f5:d1:24:6b:d5:5b:30:f6:
                    72:26:78:f2:33:63:14:4c:5b:f3:bc:e4:03:07:c2:
                    ee:67:ee:d4:c7:75:f0:31:e6:9f:8a:8f:cf:18:a7:
                    3f:40:be:9f:2e:0f:6b:87:33:a5:9c:24:1d:50:32:
                    69:2f:8d:40:cd:25:3d:7f:99:a2:7c:f4:2c:4c:9b:
                    bd:8c:6e:0a:5b:49:87:9a:98:83:f8:5f:2d:2b:75:
                    77:2c:56:91:8e:76:ad:e0:6d
                Exponent: 65537 (0x10001)
    Signature Algorithm: md5WithRSAEncryption
        4e:54:79:7c:a9:89:ef:c6:be:38:35:b2:e7:b7:30:4a:da:a8:
        47:8a:12:24:d5:a2:60:05:e6:4c:bf:64:63:a6:8a:0d:68:89:
        b6:f3:4b:69:52:83:62:e7:45:34:5d:46:c9:43:cc:a9:cf:52:
        e1:b6:1d:f0:77:88:48:2b:31:da:98:d0:16:80:9c:a5:8f:2f:
        0d:c1:1d:e0:6d:3a:50:0d:b6:5f:62:2b:bf:f9:1b:4e:ed:24:
        ba:86:1b:6d:d3:46:28:05:cd:d2:3c:7b:e6:76:d0:5e:60:b0:
        41:90:0a:eb:fc:b9:db:be:1d:36:f6:e7:3b:b6:b2:1c:c4:df:
        31:c2
-----BEGIN CERTIFICATE-----
MIICvDCCAiUCCQCbJ9fo0boJMTANBgkqhkiG9w0BAQQFADCBlTELMAkGA1UEBhMC
REUxETAPBgNVBAgTCFNhYXJsYW5kMRAwDgYDVQQKEwdNUEktU1dTMSIwIAYDVQQL
ExlEaXN0cmlidXRlZCBTeXN0ZW1zIEdyb3VwMRowGAYDVQQDExFBbmRyZWFzIEhh
ZWJlcmxlbjEhMB8GCSqGSIb3DQEJARYSZGVtb2NhQG9jdGFyaW5lLmRlMB4XDTE1
MDQyMDIwNDcxMVoXDTE2MDQxOTIwNDcxMVowga4xCzAJBgNVBAYTAkRFMREwDwYD
VQQIEwhTYWFybGFuZDEQMA4GA1UEChMHTVBJLVNXUzEiMCAGA1UECxMZRGlzdHJp
YnV0ZWQgU3lzdGVtcyBHcm91cDExMC8GA1UEAxMoMDM0NTEwNDdlYzk1ODFlMDlj
ZTMyZjgyM2VhMjM3MzNhNzhiOGQzNjEjMCEGCSqGSIb3DQEJARYUbm9kZTAzNDVA
b2N0YXJpbmUuZGUwgZ8wDQYJKoZIhvcNAQEBBQADgY0AMIGJAoGBAKql48wRTJSF
+shyZZVI52vo4LTIWcbQUub+EjLMP2MoCnKdKfXRJGvVWzD2ciZ48jNjFExb87zk
AwfC7mfu1Md18DHmn4qPzxinP0C+ny4Pa4czpZwkHVAyaS+NQM0lPX+Zonz0LEyb
vYxuCltJh5qYg/hfLSt1dyxWkY52reBtAgMBAAEwDQYJKoZIhvcNAQEEBQADgYEA
TlR5fKmJ78a+ODWy57cwStqoR4oSJNWiYAXmTL9kY6aKDWiJtvNLaVKDYudFNF1G
yUPMqc9S4bYd8HeISCsx2pjQFoCcpY8vDcEd4G06UA22X2Irv/kbTu0kuoYbbdNG
KAXN0jx75nbQXmCwQZAK6/y5274dNvbnO7ayHMTfMcI=
-----END CERTIFICATE-----
