Certificate:
    Data:
        Version: 1 (0x0)
        Serial Number:
            9b:27:d7:e8:d1:ba:0b:a7
        Signature Algorithm: md5WithRSAEncryption
        Issuer: C=DE, ST=Saarland, O=MPI-SWS, OU=Distributed Systems Group, CN=Andreas Haeberlen/emailAddress=democa@octarine.de
        Validity
            Not Before: Apr 20 20:47:40 2015 GMT
            Not After : Apr 19 20:47:40 2016 GMT
        Subject: C=DE, ST=Saarland, O=MPI-SWS, OU=Distributed Systems Group, CN=ef94ccce1d9f3970e16f49d14ecfd5bb55021c02/emailAddress=node0975@octarine.de
        Subject Public Key Info:
            Public Key Algorithm: rsaEncryption
            RSA Public Key: (1024 bit)
                Modulus (1024 bit):
                    00:9c:fe:7b:e3:30:39:a0:d1:11:45:25:a9:4d:8a:
                    1a:fa:7c:b4:20:35:a1:d6:d2:e9:4c:2a:44:bb:0f:
                    6f:97:06:30:c3:92:dc:f8:96:c5:c9:06:00:4d:8b:
                    3f:c3:fd:4a:48:b4:c9:97:7d:68:97:3b:ee:b5:d0:
                    3f:aa:36:f2:ac:0e:c7:ae:0b:6b:6f:35:e4:2f:47:
                    5c:62:06:c0:ec:6e:8f:59:11:0b:e9:e8:6c:65:40:
                    04:b1:75:b5:b4:58:21:27:d6:13:01:b6:d8:45:32:
                    bf:55:6b:ca:8d:ab:c3:a3:1d:7c:7d:2a:ea:dc:2c:
                    44:11:58:77:eb:1a:de:ea:51
                Exponent: 65537 (0x10001)
    Signature Algorithm: md5WithRSAEncryption
        75:55:3a:b4:43:2e:70:83:85:62:c8:95:33:c7:cc:0c:73:b1:
        18:20:25:f9:51:95:c4:a8:29:94:24:92:9d:f6:e2:8b:56:da:
        ea:f9:51:43:d3:08:e9:5a:5f:0f:64:ee:e4:43:fe:db:f6:99:
        11:c7:38:54:b6:d1:9d:07:19:d0:ac:6c:98:c1:93:47:d3:50:
        bf:68:f1:da:9d:9a:d8:d6:07:cc:31:6c:87:8f:1c:cd:f6:48:
        1f:1b:8f:a0:c2:3a:48:8a:4c:be:11:27:52:d5:e4:11:0f:79:
        5e:3d:49:41:ef:77:cd:8e:cc:6b:9c:13:94:e8:9a:5b:b3:91:
        56:aa
-----BEGIN CERTIFICATE-----
MIICvDCCAiUCCQCbJ9fo0boLpzANBgkqhkiG9w0BAQQFADCBlTELMAkGA1UEBhMC
REUxETAPBgNVBAgTCFNhYXJsYW5kMRAwDgYDVQQKEwdNUEktU1dTMSIwIAYDVQQL
ExlEaXN0cmlidXRlZCBTeXN0ZW1zIEdyb3VwMRowGAYDVQQDExFBbmRyZWFzIEhh
ZWJlcmxlbjEhMB8GCSqGSIb3DQEJARYSZGVtb2NhQG9jdGFyaW5lLmRlMB4XDTE1
MDQyMDIwNDc0MFoXDTE2MDQxOTIwNDc0MFowga4xCzAJBgNVBAYTAkRFMREwDwYD
VQQIEwhTYWFybGFuZDEQMA4GA1UEChMHTVBJLVNXUzEiMCAGA1UECxMZRGlzdHJp
YnV0ZWQgU3lzdGVtcyBHcm91cDExMC8GA1UEAxMoZWY5NGNjY2UxZDlmMzk3MGUx
NmY0OWQxNGVjZmQ1YmI1NTAyMWMwMjEjMCEGCSqGSIb3DQEJARYUbm9kZTA5NzVA
b2N0YXJpbmUuZGUwgZ8wDQYJKoZIhvcNAQEBBQADgY0AMIGJAoGBAJz+e+MwOaDR
EUUlqU2KGvp8tCA1odbS6UwqRLsPb5cGMMOS3PiWxckGAE2LP8P9Ski0yZd9aJc7
7rXQP6o28qwOx64La2815C9HXGIGwOxuj1kRC+nobGVABLF1tbRYISfWEwG22EUy
v1Vryo2rw6MdfH0q6twsRBFYd+sa3upRAgMBAAEwDQYJKoZIhvcNAQEEBQADgYEA
dVU6tEMucIOFYsiVM8fMDHOxGCAl+VGVxKgplCSSnfbii1ba6vlRQ9MI6VpfD2Tu
5EP+2/aZEcc4VLbRnQcZ0KxsmMGTR9NQv2jx2p2a2NYHzDFsh48czfZIHxuPoMI6
SIpMvhEnUtXkEQ95Xj1JQe93zY7Ma5wTlOiaW7ORVqo=
-----END CERTIFICATE-----
