Certificate:
    Data:
        Version: 1 (0x0)
        Serial Number:
            9b:27:d7:e8:d1:ba:09:02
        Signature Algorithm: md5WithRSAEncryption
        Issuer: C=DE, ST=Saarland, O=MPI-SWS, OU=Distributed Systems Group, CN=Andreas Haeberlen/emailAddress=democa@octarine.de
        Validity
            Not Before: Apr 20 20:47:10 2015 GMT
            Not After : Apr 19 20:47:10 2016 GMT
        Subject: C=DE, ST=Saarland, O=MPI-SWS, OU=Distributed Systems Group, CN=d45ceb878b93550984fa3da64960f6eda4a8f307/emailAddress=node0298@octarine.de
        Subject Public Key Info:
            Public Key Algorithm: rsaEncryption
            RSA Public Key: (1024 bit)
                Modulus (1024 bit):
                    00:c2:2e:e1:1c:e6:d7:38:c8:a5:67:08:01:b2:3a:
                    4e:81:1b:32:ad:22:6e:c9:af:d0:c8:3d:60:f9:2c:
                    d8:e7:26:db:27:6d:2f:da:ef:44:9d:15:07:b6:2e:
                    d8:9d:ad:ca:f7:75:09:c2:0f:00:f1:ee:1c:5f:8d:
                    d8:bc:51:0c:51:21:d4:2f:ba:3c:a6:46:9e:74:92:
                    e0:e9:b1:08:6a:c7:5e:ca:74:b5:45:12:31:c7:09:
                    7e:8e:49:d0:dc:28:ae:27:24:6c:d4:f3:27:97:54:
                    c0:85:1a:d0:8e:d4:bf:5e:5c:f5:41:b8:85:00:6e:
                    36:99:76:91:b0:24:b3:0f:1f
                Exponent: 65537 (0x10001)
    Signature Algorithm: md5WithRSAEncryption
        97:7e:71:d8:36:8f:8d:09:22:b5:bb:a2:d2:25:b8:e1:77:f4:
        9c:fa:bf:ab:c3:d8:aa:e1:a4:bf:c9:48:80:5a:02:77:cd:25:
        b4:fa:9c:27:86:93:fa:20:11:95:93:87:f7:a7:23:d5:cc:6e:
        5c:62:70:85:94:83:02:99:f1:b0:83:9d:08:f0:71:1a:b3:01:
        bf:bd:11:7b:8d:74:50:c1:06:08:06:d3:e8:7b:26:a2:32:cb:
        28:71:39:0b:9e:69:45:b6:f8:f3:21:31:5e:b4:07:43:ee:c6:
        88:be:c9:5f:62:cf:ff:fe:69:da:d4:55:61:b9:61:65:b5:22:
        23:f0
-----BEGIN CERTIFICATE-----
MIICvDCCAiUCCQCbJ9fo0boJAjANBgkqhkiG9w0BAQQFADCBlTELMAkGA1UEBhMC
REUxETAPBgNVBAgTCFNhYXJsYW5kMRAwDgYDVQQKEwdNUEktU1dTMSIwIAYDVQQL
ExlEaXN0cmlidXRlZCBTeXN0ZW1zIEdyb3VwMRowGAYDVQQDExFBbmRyZWFzIEhh
ZWJlcmxlbjEhMB8GCSqGSIb3DQEJARYSZGVtb2NhQG9jdGFyaW5lLmRlMB4XDTE1
MDQyMDIwNDcxMFoXDTE2MDQxOTIwNDcxMFowga4xCzAJBgNVBAYTAkRFMREwDwYD
VQQIEwhTYWFybGFuZDEQMA4GA1UEChMHTVBJLVNXUzEiMCAGA1UECxMZRGlzdHJp
YnV0ZWQgU3lzdGVtcyBHcm91cDExMC8GA1UEAxMoZDQ1Y2ViODc4YjkzNTUwOTg0
ZmEzZGE2NDk2MGY2ZWRhNGE4ZjMwNzEjMCEGCSqGSIb3DQEJARYUbm9kZTAyOThA
b2N0YXJpbmUuZGUwgZ8wDQYJKoZIhvcNAQEBBQADgY0AMIGJAoGBAMIu4Rzm1zjI
pWcIAbI6ToEbMq0ibsmv0Mg9YPks2Ocm2ydtL9rvRJ0VB7Yu2J2tyvd1CcIPAPHu
HF+N2LxRDFEh1C+6PKZGnnSS4OmxCGrHXsp0tUUSMccJfo5J0NworickbNTzJ5dU
wIUa0I7Uv15c9UG4hQBuNpl2kbAksw8fAgMBAAEwDQYJKoZIhvcNAQEEBQADgYEA
l35x2DaPjQkitbui0iW44Xf0nPq/q8PYquGkv8lIgFoCd80ltPqcJ4aT+iARlZOH
96cj1cxuXGJwhZSDApnxsIOdCPBxGrMBv70Re410UMEGCAbT6HsmojLLKHE5C55p
Rbb48yExXrQHQ+7GiL7JX2LP//5p2tRVYblhZbUiI/A=
-----END CERTIFICATE-----
