Certificate:
    Data:
        Version: 1 (0x0)
        Serial Number:
            9b:27:d7:e8:d1:ba:0a:f5
        Signature Algorithm: md5WithRSAEncryption
        Issuer: C=DE, ST=Saarland, O=MPI-SWS, OU=Distributed Systems Group, CN=Andreas Haeberlen/emailAddress=democa@octarine.de
        Validity
            Not Before: Apr 20 20:47:32 2015 GMT
            Not After : Apr 19 20:47:32 2016 GMT
        Subject: C=DE, ST=Saarland, O=MPI-SWS, OU=Distributed Systems Group, CN=8f0c42563c1af3cddd80b10190d884f140d923f6/emailAddress=node0797@octarine.de
        Subject Public Key Info:
            Public Key Algorithm: rsaEncryption
            RSA Public Key: (1024 bit)
                Modulus (1024 bit):
                    00:b2:89:0a:3f:9a:ba:e7:8c:50:55:27:c5:9f:14:
                    02:d3:79:54:a6:db:3d:fd:a6:c4:e4:17:0c:01:70:
                    1f:08:6f:ff:b3:05:ad:6f:1d:bc:74:00:bb:06:29:
                    5c:c3:70:5d:b2:51:9b:fa:c0:a8:08:97:2b:69:4b:
                    ec:b1:9b:1f:a2:b3:45:fd:01:44:4f:60:3f:67:12:
                    35:34:ed:fe:a5:ab:5d:8a:1f:48:7e:61:e3:87:45:
                    be:d9:68:e4:83:79:67:e0:2f:0f:25:6e:03:73:6e:
                    26:1e:a3:75:f6:02:50:5d:f5:2b:6b:17:cd:cc:be:
                    6c:15:e3:ce:fd:48:02:b2:3d
                Exponent: 65537 (0x10001)
    Signature Algorithm: md5WithRSAEncryption
        04:3e:a0:1f:91:6a:14:9a:40:de:fd:ed:43:f8:52:85:39:cb:
        2d:6d:76:ec:50:1d:ad:a2:52:fc:1f:35:9d:58:e0:22:6e:f2:
        ac:af:35:fb:56:b9:9e:eb:31:3f:6b:72:6a:1f:d8:28:22:41:
        c8:6d:2c:62:a1:2f:72:de:f9:0d:5b:5c:40:42:da:3f:b7:1a:
        93:c2:bd:c1:2d:b0:85:33:cd:9a:53:6d:eb:09:01:8c:7e:54:
        11:17:22:16:ee:7b:a9:75:91:32:11:04:9a:37:3a:2f:27:30:
        d1:1c:3a:d1:ef:20:ff:80:95:c5:32:e7:7f:b9:91:1c:3c:a1:
        b2:17
-----BEGIN CERTIFICATE-----
MIICvDCCAiUCCQCbJ9fo0boK9TANBgkqhkiG9w0BAQQFADCBlTELMAkGA1UEBhMC
REUxETAPBgNVBAgTCFNhYXJsYW5kMRAwDgYDVQQKEwdNUEktU1dTMSIwIAYDVQQL
ExlEaXN0cmlidXRlZCBTeXN0ZW1zIEdyb3VwMRowGAYDVQQDExFBbmRyZWFzIEhh
ZWJlcmxlbjEhMB8GCSqGSIb3DQEJARYSZGVtb2NhQG9jdGFyaW5lLmRlMB4XDTE1
MDQyMDIwNDczMloXDTE2MDQxOTIwNDczMlowga4xCzAJBgNVBAYTAkRFMREwDwYD
VQQIEwhTYWFybGFuZDEQMA4GA1UEChMHTVBJLVNXUzEiMCAGA1UECxMZRGlzdHJp
YnV0ZWQgU3lzdGVtcyBHcm91cDExMC8GA1UEAxMoOGYwYzQyNTYzYzFhZjNjZGRk
ODBiMTAxOTBkODg0ZjE0MGQ5MjNmNjEjMCEGCSqGSIb3DQEJARYUbm9kZTA3OTdA
b2N0YXJpbmUuZGUwgZ8wDQYJKoZIhvcNAQEBBQADgY0AMIGJAoGBALKJCj+auueM
UFUnxZ8UAtN5VKbbPf2mxOQXDAFwHwhv/7MFrW8dvHQAuwYpXMNwXbJRm/rAqAiX
K2lL7LGbH6KzRf0BRE9gP2cSNTTt/qWrXYofSH5h44dFvtlo5IN5Z+AvDyVuA3Nu
Jh6jdfYCUF31K2sXzcy+bBXjzv1IArI9AgMBAAEwDQYJKoZIhvcNAQEEBQADgYEA
BD6gH5FqFJpA3v3tQ/hShTnLLW127FAdraJS/B81nVjgIm7yrK81+1a5nusxP2ty
ah/YKCJByG0sYqEvct75DVtcQELaP7cak8K9wS2whTPNmlNt6wkBjH5UERciFu57
qXWRMhEEmjc6Lycw0Rw60e8g/4CVxTLnf7mRHDyhshc=
-----END CERTIFICATE-----
