Certificate:
    Data:
        Version: 1 (0x0)
        Serial Number:
            9b:27:d7:e8:d1:ba:08:9f
        Signature Algorithm: md5WithRSAEncryption
        Issuer: C=DE, ST=Saarland, O=MPI-SWS, OU=Distributed Systems Group, CN=Andreas Haeberlen/emailAddress=democa@octarine.de
        Validity
            Not Before: Apr 20 20:47:05 2015 GMT
            Not After : Apr 19 20:47:05 2016 GMT
        Subject: C=DE, ST=Saarland, O=MPI-SWS, OU=Distributed Systems Group, CN=7f66fc6ed2d2c83255a64d0a8c3c7e1ed75c4ba2/emailAddress=node0199@octarine.de
        Subject Public Key Info:
            Public Key Algorithm: rsaEncryption
            RSA Public Key: (1024 bit)
                Modulus (1024 bit):
                    00:b5:14:72:12:2d:40:dc:03:a7:60:97:fd:45:73:
                    5b:b4:ae:d6:d2:95:90:84:c6:97:58:98:e9:96:ef:
                    79:69:b2:cc:86:61:74:98:ca:24:e4:15:48:22:f9:
                    35:50:b1:70:b4:2f:f1:5d:6d:9d:2e:e0:f0:bd:d3:
                    62:ba:a4:ad:ae:fd:b4:13:e3:3f:2a:d2:fc:86:13:
                    ec:db:99:3d:04:55:37:6a:5c:e6:0a:17:b5:64:b5:
                    1b:13:d2:03:f0:5d:8d:b0:71:94:d7:dd:6c:e2:28:
                    fb:db:ea:6b:c2:9d:9d:11:bc:b6:43:d2:0b:c9:9e:
                    c1:ee:82:34:b8:08:bd:da:13
                Exponent: 65537 (0x10001)
    Signature Algorithm: md5WithRSAEncryption
        ab:7d:c9:6e:c7:1d:99:0b:00:08:76:91:98:61:ba:45:e0:8c:
        05:29:d0:35:9d:99:51:1a:24:23:d7:7a:af:e3:57:65:02:97:
        e2:1c:24:97:4a:04:10:e2:18:9f:d7:a1:0d:bd:ad:64:d2:36:
        b7:76:0c:5a:2c:c8:1c:9b:6f:79:28:76:a4:1b:46:d4:d3:50:
        fa:72:5d:1d:92:64:38:a3:54:76:02:97:42:01:12:95:be:60:
        f8:30:1c:c1:c5:d0:d0:97:c5:f1:df:86:27:98:87:1c:99:68:
        7d:89:55:67:84:f1:0b:cf:1d:bc:7d:e0:da:8a:3e:1e:27:3c:
        98:17
-----BEGIN CERTIFICATE-----
MIICvDCCAiUCCQCbJ9fo0boInzANBgkqhkiG9w0BAQQFADCBlTELMAkGA1UEBhMC
REUxETAPBgNVBAgTCFNhYXJsYW5kMRAwDgYDVQQKEwdNUEktU1dTMSIwIAYDVQQL
ExlEaXN0cmlidXRlZCBTeXN0ZW1zIEdyb3VwMRowGAYDVQQDExFBbmRyZWFzIEhh
ZWJlcmxlbjEhMB8GCSqGSIb3DQEJARYSZGVtb2NhQG9jdGFyaW5lLmRlMB4XDTE1
MDQyMDIwNDcwNVoXDTE2MDQxOTIwNDcwNVowga4xCzAJBgNVBAYTAkRFMREwDwYD
VQQIEwhTYWFybGFuZDEQMA4GA1UEChMHTVBJLVNXUzEiMCAGA1UECxMZRGlzdHJp
YnV0ZWQgU3lzdGVtcyBHcm91cDExMC8GA1UEAxMoN2Y2NmZjNmVkMmQyYzgzMjU1
YTY0ZDBhOGMzYzdlMWVkNzVjNGJhMjEjMCEGCSqGSIb3DQEJARYUbm9kZTAxOTlA
b2N0YXJpbmUuZGUwgZ8wDQYJKoZIhvcNAQEBBQADgY0AMIGJAoGBALUUchItQNwD
p2CX/UVzW7Su1tKVkITGl1iY6ZbveWmyzIZhdJjKJOQVSCL5NVCxcLQv8V1tnS7g
8L3TYrqkra79tBPjPyrS/IYT7NuZPQRVN2pc5goXtWS1GxPSA/BdjbBxlNfdbOIo
+9vqa8KdnRG8tkPSC8mewe6CNLgIvdoTAgMBAAEwDQYJKoZIhvcNAQEEBQADgYEA
q33JbscdmQsACHaRmGG6ReCMBSnQNZ2ZURokI9d6r+NXZQKX4hwkl0oEEOIYn9eh
Db2tZNI2t3YMWizIHJtveSh2pBtG1NNQ+nJdHZJkOKNUdgKXQgESlb5g+DAcwcXQ
0JfF8d+GJ5iHHJlofYlVZ4TxC88dvH3g2oo+Hic8mBc=
-----END CERTIFICATE-----
