Certificate:
    Data:
        Version: 1 (0x0)
        Serial Number:
            9b:27:d7:e8:d1:ba:08:b9
        Signature Algorithm: md5WithRSAEncryption
        Issuer: C=DE, ST=Saarland, O=MPI-SWS, OU=Distributed Systems Group, CN=Andreas Haeberlen/emailAddress=democa@octarine.de
        Validity
            Not Before: Apr 20 20:47:06 2015 GMT
            Not After : Apr 19 20:47:06 2016 GMT
        Subject: C=DE, ST=Saarland, O=MPI-SWS, OU=Distributed Systems Group, CN=1c74eb08a9d937189762855baf5545b52390ea89/emailAddress=node0225@octarine.de
        Subject Public Key Info:
            Public Key Algorithm: rsaEncryption
            RSA Public Key: (1024 bit)
                Modulus (1024 bit):
                    00:b8:ef:4d:62:6f:4c:99:11:df:d6:de:c7:e1:84:
                    c7:64:e9:ec:78:ac:59:06:ac:65:db:1e:7f:6a:44:
                    87:09:70:71:80:08:81:5e:94:e1:53:35:e2:5f:42:
                    4f:66:2c:0b:3f:2c:9f:44:fd:9b:91:51:45:46:08:
                    4e:2c:79:7f:6e:c0:37:dd:c7:4d:ce:71:d5:06:47:
                    65:e8:32:9f:89:c6:ab:f1:ee:b2:24:97:a3:a4:0d:
                    d8:7a:26:8e:f8:e4:db:ae:c8:a5:89:10:74:73:74:
                    a6:35:59:a7:46:71:d0:50:99:92:25:ff:29:73:06:
                    64:c1:36:d4:91:e0:18:35:ed
                Exponent: 65537 (0x10001)
    Signature Algorithm: md5WithRSAEncryption
        55:75:f5:c7:24:4f:4b:ea:aa:8a:46:f8:30:eb:94:db:d2:85:
        75:2c:09:22:28:38:ec:f9:aa:ec:51:b4:af:88:ee:2d:dd:36:
        2d:3e:cc:f0:e2:a1:a4:00:95:e3:68:71:c0:ef:0a:36:7f:3e:
        b6:26:31:18:66:af:a1:68:bb:b9:db:3b:17:d4:75:d8:cd:e5:
        bf:0f:f9:71:cd:f1:90:b8:81:28:51:53:6c:ed:e3:ea:c7:0d:
        70:26:14:6c:cc:0f:96:a1:3a:d0:a6:85:b1:f2:0f:2f:95:9a:
        4c:cc:64:e2:c0:7a:46:ce:e8:bf:80:82:0b:e4:0b:ec:c0:e5:
        31:45
-----BEGIN CERTIFICATE-----
MIICvDCCAiUCCQCbJ9fo0boIuTANBgkqhkiG9w0BAQQFADCBlTELMAkGA1UEBhMC
REUxETAPBgNVBAgTCFNhYXJsYW5kMRAwDgYDVQQKEwdNUEktU1dTMSIwIAYDVQQL
ExlEaXN0cmlidXRlZCBTeXN0ZW1zIEdyb3VwMRowGAYDVQQDExFBbmRyZWFzIEhh
ZWJlcmxlbjEhMB8GCSqGSIb3DQEJARYSZGVtb2NhQG9jdGFyaW5lLmRlMB4XDTE1
MDQyMDIwNDcwNloXDTE2MDQxOTIwNDcwNlowga4xCzAJBgNVBAYTAkRFMREwDwYD
VQQIEwhTYWFybGFuZDEQMA4GA1UEChMHTVBJLVNXUzEiMCAGA1UECxMZRGlzdHJp
YnV0ZWQgU3lzdGVtcyBHcm91cDExMC8GA1UEAxMoMWM3NGViMDhhOWQ5MzcxODk3
NjI4NTViYWY1NTQ1YjUyMzkwZWE4OTEjMCEGCSqGSIb3DQEJARYUbm9kZTAyMjVA
b2N0YXJpbmUuZGUwgZ8wDQYJKoZIhvcNAQEBBQADgY0AMIGJAoGBALjvTWJvTJkR
39bex+GEx2Tp7HisWQasZdsef2pEhwlwcYAIgV6U4VM14l9CT2YsCz8sn0T9m5FR
RUYITix5f27AN93HTc5x1QZHZegyn4nGq/HusiSXo6QN2Homjvjk267IpYkQdHN0
pjVZp0Zx0FCZkiX/KXMGZME21JHgGDXtAgMBAAEwDQYJKoZIhvcNAQEEBQADgYEA
VXX1xyRPS+qqikb4MOuU29KFdSwJIig47Pmq7FG0r4juLd02LT7M8OKhpACV42hx
wO8KNn8+tiYxGGavoWi7uds7F9R12M3lvw/5cc3xkLiBKFFTbO3j6scNcCYUbMwP
lqE60KaFsfIPL5WaTMxk4sB6Rs7ov4CCC+QL7MDlMUU=
-----END CERTIFICATE-----
