Certificate:
    Data:
        Version: 1 (0x0)
        Serial Number:
            9b:27:d7:e8:d1:ba:07:fd
        Signature Algorithm: md5WithRSAEncryption
        Issuer: C=DE, ST=Saarland, O=MPI-SWS, OU=Distributed Systems Group, CN=Andreas Haeberlen/emailAddress=democa@octarine.de
        Validity
            Not Before: Apr 20 20:46:58 2015 GMT
            Not After : Apr 19 20:46:58 2016 GMT
        Subject: C=DE, ST=Saarland, O=MPI-SWS, OU=Distributed Systems Group, CN=275bb82438185776e3fe3ba81ec6e680dec87edb/emailAddress=node0037@octarine.de
        Subject Public Key Info:
            Public Key Algorithm: rsaEncryption
            RSA Public Key: (1024 bit)
                Modulus (1024 bit):
                    00:ae:53:0c:85:ba:c5:3b:32:29:5f:b4:58:ad:53:
                    72:cd:c9:17:3b:84:3d:d0:9a:2f:59:32:7f:d1:42:
                    1b:f9:cc:a2:12:d0:75:86:73:1a:71:0a:45:2c:45:
                    b9:67:e4:8e:42:41:d9:fa:06:01:24:eb:4b:67:47:
                    d7:8b:1f:07:8d:ea:59:4d:4e:22:ad:e1:dd:3b:0e:
                    63:5f:1a:f7:10:fc:d1:0b:43:ac:c7:e3:b3:ed:68:
                    73:d0:c0:13:68:d1:52:3b:d6:2c:34:3a:08:0d:b2:
                    f3:3e:eb:25:07:57:10:d2:76:10:ea:8e:a6:f6:27:
                    67:46:42:98:3e:a2:c8:92:c1
                Exponent: 65537 (0x10001)
    Signature Algorithm: md5WithRSAEncryption
        a3:f0:30:2f:93:a4:cd:be:08:e3:46:a9:72:f6:10:99:6e:e2:
        c4:90:36:c3:52:5f:2b:49:a2:6e:92:d8:80:39:d3:67:e4:c0:
        87:73:0d:e1:df:e9:be:7b:38:53:48:51:31:52:97:dc:47:2e:
        3a:7e:57:e5:bc:a9:e8:07:54:5d:7e:7b:53:d5:88:ba:da:b9:
        30:3e:f7:fa:0c:a4:c8:36:9b:42:0c:d7:73:2b:b2:ee:1d:95:
        be:16:bf:c4:e7:52:87:83:aa:54:ee:49:78:26:7c:a2:ab:89:
        cb:29:02:8b:15:2e:8a:65:6f:3e:22:2b:a2:51:ca:f7:47:4c:
        36:51
-----BEGIN CERTIFICATE-----
MIICvDCCAiUCCQCbJ9fo0boH/TANBgkqhkiG9w0BAQQFADCBlTELMAkGA1UEBhMC
REUxETAPBgNVBAgTCFNhYXJsYW5kMRAwDgYDVQQKEwdNUEktU1dTMSIwIAYDVQQL
ExlEaXN0cmlidXRlZCBTeXN0ZW1zIEdyb3VwMRowGAYDVQQDExFBbmRyZWFzIEhh
ZWJlcmxlbjEhMB8GCSqGSIb3DQEJARYSZGVtb2NhQG9jdGFyaW5lLmRlMB4XDTE1
MDQyMDIwNDY1OFoXDTE2MDQxOTIwNDY1OFowga4xCzAJBgNVBAYTAkRFMREwDwYD
VQQIEwhTYWFybGFuZDEQMA4GA1UEChMHTVBJLVNXUzEiMCAGA1UECxMZRGlzdHJp
YnV0ZWQgU3lzdGVtcyBHcm91cDExMC8GA1UEAxMoMjc1YmI4MjQzODE4NTc3NmUz
ZmUzYmE4MWVjNmU2ODBkZWM4N2VkYjEjMCEGCSqGSIb3DQEJARYUbm9kZTAwMzdA
b2N0YXJpbmUuZGUwgZ8wDQYJKoZIhvcNAQEBBQADgY0AMIGJAoGBAK5TDIW6xTsy
KV+0WK1Tcs3JFzuEPdCaL1kyf9FCG/nMohLQdYZzGnEKRSxFuWfkjkJB2foGASTr
S2dH14sfB43qWU1OIq3h3TsOY18a9xD80QtDrMfjs+1oc9DAE2jRUjvWLDQ6CA2y
8z7rJQdXENJ2EOqOpvYnZ0ZCmD6iyJLBAgMBAAEwDQYJKoZIhvcNAQEEBQADgYEA
o/AwL5Okzb4I40apcvYQmW7ixJA2w1JfK0mibpLYgDnTZ+TAh3MN4d/pvns4U0hR
MVKX3EcuOn5X5byp6AdUXX57U9WIutq5MD73+gykyDabQgzXcyuy7h2Vvha/xOdS
h4OqVO5JeCZ8oquJyykCixUuimVvPiIrolHK90dMNlE=
-----END CERTIFICATE-----
