Certificate:
    Data:
        Version: 1 (0x0)
        Serial Number:
            9b:27:d7:e8:d1:ba:0b:ab
        Signature Algorithm: md5WithRSAEncryption
        Issuer: C=DE, ST=Saarland, O=MPI-SWS, OU=Distributed Systems Group, CN=Andreas Haeberlen/emailAddress=democa@octarine.de
        Validity
            Not Before: Apr 20 20:47:40 2015 GMT
            Not After : Apr 19 20:47:40 2016 GMT
        Subject: C=DE, ST=Saarland, O=MPI-SWS, OU=Distributed Systems Group, CN=81e79647323fca9e7d36634c9dd7d1a628dce231/emailAddress=node0979@octarine.de
        Subject Public Key Info:
            Public Key Algorithm: rsaEncryption
            RSA Public Key: (1024 bit)
                Modulus (1024 bit):
                    00:a7:86:1c:72:75:68:b5:5a:2c:df:21:cb:ed:3c:
                    6f:5d:fd:de:65:bf:9c:a1:e0:00:fa:d1:b1:04:f0:
                    1d:90:e5:15:b0:64:27:6b:52:33:8a:cb:8e:e4:4f:
                    24:62:e5:82:94:82:cf:92:09:88:f2:14:8d:a1:bb:
                    51:7b:7e:54:06:74:b1:c6:ab:bc:3d:dd:8c:e9:f0:
                    3b:89:68:de:58:3b:27:be:b6:00:2b:df:d1:93:4c:
                    6d:e4:24:ab:b2:82:85:7e:f9:c3:1d:6c:ef:9b:96:
                    88:b4:6a:9b:7e:19:e2:21:fd:df:0b:ae:1a:2b:7e:
                    29:fe:ea:49:a7:18:be:cd:d5
                Exponent: 65537 (0x10001)
    Signature Algorithm: md5WithRSAEncryption
        9f:a2:73:86:7b:75:a7:ab:2f:dc:5f:94:47:b5:0a:e5:ae:a1:
        3b:7c:81:06:36:f6:f9:de:6b:fe:07:0f:dc:3c:87:f6:d7:fc:
        b5:67:75:3d:3c:5d:61:85:b3:c5:77:e1:27:7d:30:a0:b4:6e:
        29:7a:e9:e5:f2:ce:9b:28:88:3f:91:b7:dd:da:3e:b7:1d:ce:
        c8:db:8d:02:50:ae:d1:48:3e:8c:be:12:bc:fd:92:21:4b:55:
        61:72:29:39:e7:78:64:70:a9:c9:39:4e:4e:9a:58:bb:b8:ec:
        32:66:16:66:d0:38:13:f5:d9:51:4a:c8:bc:01:d4:e4:be:c7:
        42:80
-----BEGIN CERTIFICATE-----
MIICvDCCAiUCCQCbJ9fo0boLqzANBgkqhkiG9w0BAQQFADCBlTELMAkGA1UEBhMC
REUxETAPBgNVBAgTCFNhYXJsYW5kMRAwDgYDVQQKEwdNUEktU1dTMSIwIAYDVQQL
ExlEaXN0cmlidXRlZCBTeXN0ZW1zIEdyb3VwMRowGAYDVQQDExFBbmRyZWFzIEhh
ZWJlcmxlbjEhMB8GCSqGSIb3DQEJARYSZGVtb2NhQG9jdGFyaW5lLmRlMB4XDTE1
MDQyMDIwNDc0MFoXDTE2MDQxOTIwNDc0MFowga4xCzAJBgNVBAYTAkRFMREwDwYD
VQQIEwhTYWFybGFuZDEQMA4GA1UEChMHTVBJLVNXUzEiMCAGA1UECxMZRGlzdHJp
YnV0ZWQgU3lzdGVtcyBHcm91cDExMC8GA1UEAxMoODFlNzk2NDczMjNmY2E5ZTdk
MzY2MzRjOWRkN2QxYTYyOGRjZTIzMTEjMCEGCSqGSIb3DQEJARYUbm9kZTA5NzlA
b2N0YXJpbmUuZGUwgZ8wDQYJKoZIhvcNAQEBBQADgY0AMIGJAoGBAKeGHHJ1aLVa
LN8hy+08b1393mW/nKHgAPrRsQTwHZDlFbBkJ2tSM4rLjuRPJGLlgpSCz5IJiPIU
jaG7UXt+VAZ0scarvD3djOnwO4lo3lg7J762ACvf0ZNMbeQkq7KChX75wx1s75uW
iLRqm34Z4iH93wuuGit+Kf7qSacYvs3VAgMBAAEwDQYJKoZIhvcNAQEEBQADgYEA
n6Jzhnt1p6sv3F+UR7UK5a6hO3yBBjb2+d5r/gcP3DyH9tf8tWd1PTxdYYWzxXfh
J30woLRuKXrp5fLOmyiIP5G33do+tx3OyNuNAlCu0Ug+jL4SvP2SIUtVYXIpOed4
ZHCpyTlOTppYu7jsMmYWZtA4E/XZUUrIvAHU5L7HQoA=
-----END CERTIFICATE-----
