Certificate:
    Data:
        Version: 1 (0x0)
        Serial Number:
            9b:27:d7:e8:d1:ba:0a:39
        Signature Algorithm: md5WithRSAEncryption
        Issuer: C=DE, ST=Saarland, O=MPI-SWS, OU=Distributed Systems Group, CN=Andreas Haeberlen/emailAddress=democa@octarine.de
        Validity
            Not Before: Apr 20 20:47:24 2015 GMT
            Not After : Apr 19 20:47:24 2016 GMT
        Subject: C=DE, ST=Saarland, O=MPI-SWS, OU=Distributed Systems Group, CN=2f33095ded2557f1a3e6f2b08611f4a24e647b25/emailAddress=node0609@octarine.de
        Subject Public Key Info:
            Public Key Algorithm: rsaEncryption
            RSA Public Key: (1024 bit)
                Modulus (1024 bit):
                    00:fb:7f:3e:87:3a:1c:9a:8c:58:3c:2c:88:e0:6b:
                    29:93:09:90:ac:f8:5a:09:0f:50:1f:0b:3a:e0:b3:
                    86:40:15:76:9e:58:8e:64:3b:e6:ad:25:b2:b9:db:
                    88:9c:ab:75:5e:1c:8c:5b:5f:33:36:58:e5:ab:14:
                    ba:ec:3a:37:99:b8:0d:4e:58:30:3d:6e:67:79:8d:
                    58:c6:c9:1d:b9:ae:d7:c9:40:50:30:46:30:27:8d:
                    95:3b:59:a5:b1:7e:40:3e:1e:58:65:9f:7f:e3:0e:
                    a3:59:46:67:f3:ca:02:65:19:80:9f:72:6f:e2:46:
                    0b:41:d2:96:da:07:b2:f8:bb
                Exponent: 65537 (0x10001)
    Signature Algorithm: md5WithRSAEncryption
        63:f1:89:e5:b0:ec:92:4e:8f:5e:b5:96:29:37:24:51:4d:46:
        97:6b:7b:6a:af:e6:58:dd:e0:d0:2a:e7:fa:97:83:2f:6d:8d:
        7d:a0:10:dc:3c:18:b9:94:65:92:e6:ea:0d:88:a9:8d:de:04:
        1a:77:3c:0b:df:44:b6:22:d2:e9:8c:1b:ff:55:48:80:76:98:
        b5:be:15:e0:90:ca:0e:1f:eb:23:68:7e:95:02:23:f9:98:70:
        cb:c6:a8:37:c0:e3:3b:e4:60:0f:c8:15:74:1c:87:2b:39:8e:
        ec:cf:af:30:c6:40:79:ee:f1:04:cf:2f:c1:c8:8c:c5:ef:53:
        bf:06
-----BEGIN CERTIFICATE-----
MIICvDCCAiUCCQCbJ9fo0boKOTANBgkqhkiG9w0BAQQFADCBlTELMAkGA1UEBhMC
REUxETAPBgNVBAgTCFNhYXJsYW5kMRAwDgYDVQQKEwdNUEktU1dTMSIwIAYDVQQL
ExlEaXN0cmlidXRlZCBTeXN0ZW1zIEdyb3VwMRowGAYDVQQDExFBbmRyZWFzIEhh
ZWJlcmxlbjEhMB8GCSqGSIb3DQEJARYSZGVtb2NhQG9jdGFyaW5lLmRlMB4XDTE1
MDQyMDIwNDcyNFoXDTE2MDQxOTIwNDcyNFowga4xCzAJBgNVBAYTAkRFMREwDwYD
VQQIEwhTYWFybGFuZDEQMA4GA1UEChMHTVBJLVNXUzEiMCAGA1UECxMZRGlzdHJp
YnV0ZWQgU3lzdGVtcyBHcm91cDExMC8GA1UEAxMoMmYzMzA5NWRlZDI1NTdmMWEz
ZTZmMmIwODYxMWY0YTI0ZTY0N2IyNTEjMCEGCSqGSIb3DQEJARYUbm9kZTA2MDlA
b2N0YXJpbmUuZGUwgZ8wDQYJKoZIhvcNAQEBBQADgY0AMIGJAoGBAPt/Poc6HJqM
WDwsiOBrKZMJkKz4WgkPUB8LOuCzhkAVdp5YjmQ75q0lsrnbiJyrdV4cjFtfMzZY
5asUuuw6N5m4DU5YMD1uZ3mNWMbJHbmu18lAUDBGMCeNlTtZpbF+QD4eWGWff+MO
o1lGZ/PKAmUZgJ9yb+JGC0HSltoHsvi7AgMBAAEwDQYJKoZIhvcNAQEEBQADgYEA
Y/GJ5bDskk6PXrWWKTckUU1Gl2t7aq/mWN3g0Crn+peDL22NfaAQ3DwYuZRlkubq
DYipjd4EGnc8C99EtiLS6Ywb/1VIgHaYtb4V4JDKDh/rI2h+lQIj+Zhwy8aoN8Dj
O+RgD8gVdByHKzmO7M+vMMZAee7xBM8vwciMxe9TvwY=
-----END CERTIFICATE-----
