Certificate:
    Data:
        Version: 1 (0x0)
        Serial Number:
            9b:27:d7:e8:d1:ba:08:bb
        Signature Algorithm: md5WithRSAEncryption
        Issuer: C=DE, ST=Saarland, O=MPI-SWS, OU=Distributed Systems Group, CN=Andreas Haeberlen/emailAddress=democa@octarine.de
        Validity
            Not Before: Apr 20 20:47:06 2015 GMT
            Not After : Apr 19 20:47:06 2016 GMT
        Subject: C=DE, ST=Saarland, O=MPI-SWS, OU=Distributed Systems Group, CN=fcabba2afeda567f8585ca690e4967e5381f3392/emailAddress=node0227@octarine.de
        Subject Public Key Info:
            Public Key Algorithm: rsaEncryption
            RSA Public Key: (1024 bit)
                Modulus (1024 bit):
                    00:a4:11:2a:2d:d5:16:7b:3d:a7:70:00:24:e5:7d:
                    de:78:52:a1:05:02:d4:f4:f1:33:9b:ee:a0:0a:e2:
                    62:50:7b:08:81:e7:cf:82:7f:09:62:aa:56:ff:e8:
                    48:16:3b:97:29:7e:cb:71:a9:44:bb:b4:9e:59:e7:
                    7e:ea:81:69:4a:4b:31:71:69:d5:ca:06:bc:18:28:
                    8e:ad:3d:0f:15:5e:47:93:2c:96:12:39:0b:51:b3:
                    6d:24:dd:61:25:a3:27:c4:1e:ad:29:06:8a:8a:a4:
                    26:b9:0f:f0:34:16:f0:f9:ed:30:54:5a:b4:9a:6e:
                    7f:3a:7e:58:4e:28:9e:d6:c5
                Exponent: 65537 (0x10001)
    Signature Algorithm: md5WithRSAEncryption
        65:6d:61:36:ed:70:74:54:57:d9:d1:4e:6a:69:59:b2:98:ed:
        ed:5d:1c:b3:df:20:c9:57:44:a6:24:e0:d5:ed:28:85:41:96:
        8d:8d:a3:b7:63:83:41:77:9e:8a:72:89:df:f4:ac:51:b5:24:
        25:87:f5:2d:8b:2b:d2:fa:49:85:f2:36:a7:dd:72:eb:bd:7f:
        28:e9:e1:a5:15:34:f3:d9:2e:62:6e:eb:25:60:7a:b6:5c:f2:
        ba:18:fb:82:06:7e:4b:9d:fc:32:19:33:8e:bb:13:1e:1b:a8:
        9f:93:21:f7:b4:8e:c5:b4:c2:a2:80:95:fa:e8:ac:ff:11:bf:
        56:cc
-----BEGIN CERTIFICATE-----
MIICvDCCAiUCCQCbJ9fo0boIuzANBgkqhkiG9w0BAQQFADCBlTELMAkGA1UEBhMC
REUxETAPBgNVBAgTCFNhYXJsYW5kMRAwDgYDVQQKEwdNUEktU1dTMSIwIAYDVQQL
ExlEaXN0cmlidXRlZCBTeXN0ZW1zIEdyb3VwMRowGAYDVQQDExFBbmRyZWFzIEhh
ZWJlcmxlbjEhMB8GCSqGSIb3DQEJARYSZGVtb2NhQG9jdGFyaW5lLmRlMB4XDTE1
MDQyMDIwNDcwNloXDTE2MDQxOTIwNDcwNlowga4xCzAJBgNVBAYTAkRFMREwDwYD
VQQIEwhTYWFybGFuZDEQMA4GA1UEChMHTVBJLVNXUzEiMCAGA1UECxMZRGlzdHJp
YnV0ZWQgU3lzdGVtcyBHcm91cDExMC8GA1UEAxMoZmNhYmJhMmFmZWRhNTY3Zjg1
ODVjYTY5MGU0OTY3ZTUzODFmMzM5MjEjMCEGCSqGSIb3DQEJARYUbm9kZTAyMjdA
b2N0YXJpbmUuZGUwgZ8wDQYJKoZIhvcNAQEBBQADgY0AMIGJAoGBAKQRKi3VFns9
p3AAJOV93nhSoQUC1PTxM5vuoAriYlB7CIHnz4J/CWKqVv/oSBY7lyl+y3GpRLu0
nlnnfuqBaUpLMXFp1coGvBgojq09DxVeR5MslhI5C1GzbSTdYSWjJ8QerSkGioqk
JrkP8DQW8PntMFRatJpufzp+WE4ontbFAgMBAAEwDQYJKoZIhvcNAQEEBQADgYEA
ZW1hNu1wdFRX2dFOamlZspjt7V0cs98gyVdEpiTg1e0ohUGWjY2jt2ODQXeeinKJ
3/SsUbUkJYf1LYsr0vpJhfI2p91y671/KOnhpRU089kuYm7rJWB6tlzyuhj7ggZ+
S538MhkzjrsTHhuon5Mh97SOxbTCooCV+uis/xG/Vsw=
-----END CERTIFICATE-----
