Certificate:
    Data:
        Version: 1 (0x0)
        Serial Number:
            9b:27:d7:e8:d1:ba:09:c9
        Signature Algorithm: md5WithRSAEncryption
        Issuer: C=DE, ST=Saarland, O=MPI-SWS, OU=Distributed Systems Group, CN=Andreas Haeberlen/emailAddress=democa@octarine.de
        Validity
            Not Before: Apr 20 20:47:18 2015 GMT
            Not After : Apr 19 20:47:18 2016 GMT
        Subject: C=DE, ST=Saarland, O=MPI-SWS, OU=Distributed Systems Group, CN=7d3b3fa856306c093d81090ddd627b3f87bb653b/emailAddress=node0497@octarine.de
        Subject Public Key Info:
            Public Key Algorithm: rsaEncryption
            RSA Public Key: (1024 bit)
                Modulus (1024 bit):
                    00:b8:16:6a:6e:4c:ee:fc:ca:2d:d6:5d:b8:1f:7a:
                    ec:cf:71:d6:4f:59:9f:40:1d:1e:54:11:f1:a2:96:
                    ed:df:c4:2c:93:45:41:f7:c5:44:a4:9a:32:cb:24:
                    7f:3d:c5:12:91:0b:21:c0:76:ac:43:53:72:28:9a:
                    06:e2:3d:64:8a:d4:0c:ff:e4:2d:c2:3c:bd:45:27:
                    76:35:77:b2:99:23:18:05:f4:af:e8:fa:8e:92:e5:
                    59:b2:42:5f:3b:1d:ba:f2:ab:07:b3:67:de:eb:70:
                    83:e3:11:25:92:bd:40:b9:26:38:26:55:12:f5:3d:
                    ee:10:cf:3f:7a:b5:c2:dd:73
                Exponent: 65537 (0x10001)
    Signature Algorithm: md5WithRSAEncryption
        a0:85:3a:a7:9b:c7:fb:b1:84:30:3d:54:02:73:0d:1d:4f:ea:
        91:ef:27:6b:e8:83:8a:f9:98:12:a7:c4:39:c7:da:4c:9f:0c:
        89:0d:1a:79:c7:9e:85:6e:95:90:ec:51:c7:2b:41:77:7f:5f:
        62:0e:ee:db:5f:c6:55:e6:79:51:06:b3:5e:87:78:c6:f4:73:
        8c:ee:ba:00:a5:b2:18:0d:52:74:0c:17:34:50:c5:b9:74:d0:
        28:66:a6:2b:81:8c:79:bf:a8:76:8b:39:30:f3:7e:22:c1:ec:
        98:bd:ae:4b:5b:6a:34:18:87:1b:bd:23:a4:c4:ab:df:e6:ca:
        51:48
-----BEGIN CERTIFICATE-----
MIICvDCCAiUCCQCbJ9fo0boJyTANBgkqhkiG9w0BAQQFADCBlTELMAkGA1UEBhMC
REUxETAPBgNVBAgTCFNhYXJsYW5kMRAwDgYDVQQKEwdNUEktU1dTMSIwIAYDVQQL
ExlEaXN0cmlidXRlZCBTeXN0ZW1zIEdyb3VwMRowGAYDVQQDExFBbmRyZWFzIEhh
ZWJlcmxlbjEhMB8GCSqGSIb3DQEJARYSZGVtb2NhQG9jdGFyaW5lLmRlMB4XDTE1
MDQyMDIwNDcxOFoXDTE2MDQxOTIwNDcxOFowga4xCzAJBgNVBAYTAkRFMREwDwYD
VQQIEwhTYWFybGFuZDEQMA4GA1UEChMHTVBJLVNXUzEiMCAGA1UECxMZRGlzdHJp
YnV0ZWQgU3lzdGVtcyBHcm91cDExMC8GA1UEAxMoN2QzYjNmYTg1NjMwNmMwOTNk
ODEwOTBkZGQ2MjdiM2Y4N2JiNjUzYjEjMCEGCSqGSIb3DQEJARYUbm9kZTA0OTdA
b2N0YXJpbmUuZGUwgZ8wDQYJKoZIhvcNAQEBBQADgY0AMIGJAoGBALgWam5M7vzK
LdZduB967M9x1k9Zn0AdHlQR8aKW7d/ELJNFQffFRKSaMsskfz3FEpELIcB2rENT
ciiaBuI9ZIrUDP/kLcI8vUUndjV3spkjGAX0r+j6jpLlWbJCXzsduvKrB7Nn3utw
g+MRJZK9QLkmOCZVEvU97hDPP3q1wt1zAgMBAAEwDQYJKoZIhvcNAQEEBQADgYEA
oIU6p5vH+7GEMD1UAnMNHU/qke8na+iDivmYEqfEOcfaTJ8MiQ0aeceehW6VkOxR
xytBd39fYg7u21/GVeZ5UQazXod4xvRzjO66AKWyGA1SdAwXNFDFuXTQKGamK4GM
eb+odos5MPN+IsHsmL2uS1tqNBiHG70jpMSr3+bKUUg=
-----END CERTIFICATE-----
