Certificate:
    Data:
        Version: 1 (0x0)
        Serial Number:
            9b:27:d7:e8:d1:ba:08:0a
        Signature Algorithm: md5WithRSAEncryption
        Issuer: C=DE, ST=Saarland, O=MPI-SWS, OU=Distributed Systems Group, CN=Andreas Haeberlen/emailAddress=democa@octarine.de
        Validity
            Not Before: Apr 20 20:46:59 2015 GMT
            Not After : Apr 19 20:46:59 2016 GMT
        Subject: C=DE, ST=Saarland, O=MPI-SWS, OU=Distributed Systems Group, CN=6ec4d587aa905dd5088be8b61d01955f31407c81/emailAddress=node0050@octarine.de
        Subject Public Key Info:
            Public Key Algorithm: rsaEncryption
            RSA Public Key: (1024 bit)
                Modulus (1024 bit):
                    00:f3:c3:24:6b:14:52:9c:99:f7:68:ef:cf:04:53:
                    05:e0:4d:34:78:64:89:b1:3e:58:49:8d:1d:e7:cb:
                    e7:bc:f6:05:7d:d4:91:89:1f:d1:ff:17:a8:ad:59:
                    ad:ad:a7:2b:58:bc:e5:32:10:f4:9a:10:bb:c5:63:
                    0f:be:fc:4b:3c:15:c4:67:eb:74:65:4c:5c:26:92:
                    56:a9:64:96:f2:62:d0:03:e4:b6:59:10:ae:b6:69:
                    80:d3:cb:e1:47:f0:ab:05:87:af:6a:d4:35:a5:17:
                    7d:45:ef:3d:f7:d2:49:11:b2:29:2c:dc:06:bb:31:
                    aa:00:fc:28:be:9d:22:ad:7f
                Exponent: 65537 (0x10001)
    Signature Algorithm: md5WithRSAEncryption
        37:a5:e1:66:0f:20:6f:05:2f:9e:d6:f9:3b:e6:7e:cc:3f:cf:
        c2:98:e0:16:da:fe:b9:50:06:59:a1:6c:26:e3:65:4d:c9:dc:
        83:da:65:e5:d4:01:b0:89:c1:37:16:6c:1b:58:2e:87:ae:4a:
        6b:12:db:d3:25:c3:75:29:8c:42:48:96:61:eb:69:ba:7e:a3:
        ea:82:b5:2e:c3:35:3f:25:b3:ba:cd:f6:08:b6:43:02:ac:b6:
        61:38:71:08:70:47:a6:f9:ff:8a:d9:78:01:ce:e4:ce:36:e8:
        56:6b:36:47:94:38:06:ff:37:4b:20:a5:38:20:bc:a4:45:d2:
        73:7a
-----BEGIN CERTIFICATE-----
MIICvDCCAiUCCQCbJ9fo0boICjANBgkqhkiG9w0BAQQFADCBlTELMAkGA1UEBhMC
REUxETAPBgNVBAgTCFNhYXJsYW5kMRAwDgYDVQQKEwdNUEktU1dTMSIwIAYDVQQL
ExlEaXN0cmlidXRlZCBTeXN0ZW1zIEdyb3VwMRowGAYDVQQDExFBbmRyZWFzIEhh
ZWJlcmxlbjEhMB8GCSqGSIb3DQEJARYSZGVtb2NhQG9jdGFyaW5lLmRlMB4XDTE1
MDQyMDIwNDY1OVoXDTE2MDQxOTIwNDY1OVowga4xCzAJBgNVBAYTAkRFMREwDwYD
VQQIEwhTYWFybGFuZDEQMA4GA1UEChMHTVBJLVNXUzEiMCAGA1UECxMZRGlzdHJp
YnV0ZWQgU3lzdGVtcyBHcm91cDExMC8GA1UEAxMoNmVjNGQ1ODdhYTkwNWRkNTA4
OGJlOGI2MWQwMTk1NWYzMTQwN2M4MTEjMCEGCSqGSIb3DQEJARYUbm9kZTAwNTBA
b2N0YXJpbmUuZGUwgZ8wDQYJKoZIhvcNAQEBBQADgY0AMIGJAoGBAPPDJGsUUpyZ
92jvzwRTBeBNNHhkibE+WEmNHefL57z2BX3UkYkf0f8XqK1Zra2nK1i85TIQ9JoQ
u8VjD778SzwVxGfrdGVMXCaSVqlklvJi0APktlkQrrZpgNPL4UfwqwWHr2rUNaUX
fUXvPffSSRGyKSzcBrsxqgD8KL6dIq1/AgMBAAEwDQYJKoZIhvcNAQEEBQADgYEA
N6XhZg8gbwUvntb5O+Z+zD/PwpjgFtr+uVAGWaFsJuNlTcncg9pl5dQBsInBNxZs
G1guh65KaxLb0yXDdSmMQkiWYetpun6j6oK1LsM1PyWzus32CLZDAqy2YThxCHBH
pvn/itl4Ac7kzjboVms2R5Q4Bv83SyClOCC8pEXSc3o=
-----END CERTIFICATE-----
