Certificate:
    Data:
        Version: 1 (0x0)
        Serial Number:
            9b:27:d7:e8:d1:ba:07:db
        Signature Algorithm: md5WithRSAEncryption
        Issuer: C=DE, ST=Saarland, O=MPI-SWS, OU=Distributed Systems Group, CN=Andreas Haeberlen/emailAddress=democa@octarine.de
        Validity
            Not Before: Apr 20 20:46:57 2015 GMT
            Not After : Apr 19 20:46:57 2016 GMT
        Subject: C=DE, ST=Saarland, O=MPI-SWS, OU=Distributed Systems Group, CN=5343e132c329350ab2321f58462e1a66eaaccde8/emailAddress=node0003@octarine.de
        Subject Public Key Info:
            Public Key Algorithm: rsaEncryption
            RSA Public Key: (1024 bit)
                Modulus (1024 bit):
                    00:c4:e8:21:84:21:27:1b:74:18:4b:14:12:d8:be:
                    3e:ff:cd:1c:b2:aa:99:36:17:70:40:1f:59:dc:98:
                    00:e2:7f:eb:1a:41:25:8b:04:db:b8:3c:c5:40:97:
                    e4:7c:2a:e4:e6:ae:cb:1d:23:34:39:50:9a:ed:af:
                    f0:09:f5:17:51:d4:30:f5:08:09:58:48:20:16:de:
                    bc:b2:30:a5:f6:e4:0a:43:8d:ac:ba:1b:7f:77:19:
                    08:47:a0:23:bd:9e:7e:29:36:23:f6:cc:0f:a6:20:
                    b7:30:19:f0:57:8d:cc:64:89:5a:5d:34:df:08:2f:
                    14:ea:01:74:92:d2:ab:3c:59
                Exponent: 65537 (0x10001)
    Signature Algorithm: md5WithRSAEncryption
        06:15:85:cc:b8:43:32:83:1a:fc:16:02:e2:21:dd:31:47:7a:
        8a:ab:7d:03:2d:2a:1d:14:5d:fd:0d:7d:23:96:5a:2f:04:07:
        a6:18:66:44:d2:20:58:42:09:f6:ab:a4:3d:d2:49:c5:56:a3:
        77:28:5c:ce:3e:f4:93:3c:1a:78:38:97:fd:63:7a:24:c4:a9:
        a3:5b:76:87:b9:55:b6:e0:6a:71:9a:13:da:f0:da:12:d1:06:
        5b:11:30:3e:45:bd:8c:f1:4a:9d:b7:6a:f4:34:7c:6a:5d:15:
        a4:fe:03:3a:d0:78:75:28:9f:d8:06:b3:3c:81:e7:4e:5b:01:
        71:81
-----BEGIN CERTIFICATE-----
MIICvDCCAiUCCQCbJ9fo0boH2zANBgkqhkiG9w0BAQQFADCBlTELMAkGA1UEBhMC
REUxETAPBgNVBAgTCFNhYXJsYW5kMRAwDgYDVQQKEwdNUEktU1dTMSIwIAYDVQQL
ExlEaXN0cmlidXRlZCBTeXN0ZW1zIEdyb3VwMRowGAYDVQQDExFBbmRyZWFzIEhh
ZWJlcmxlbjEhMB8GCSqGSIb3DQEJARYSZGVtb2NhQG9jdGFyaW5lLmRlMB4XDTE1
MDQyMDIwNDY1N1oXDTE2MDQxOTIwNDY1N1owga4xCzAJBgNVBAYTAkRFMREwDwYD
VQQIEwhTYWFybGFuZDEQMA4GA1UEChMHTVBJLVNXUzEiMCAGA1UECxMZRGlzdHJp
YnV0ZWQgU3lzdGVtcyBHcm91cDExMC8GA1UEAxMoNTM0M2UxMzJjMzI5MzUwYWIy
MzIxZjU4NDYyZTFhNjZlYWFjY2RlODEjMCEGCSqGSIb3DQEJARYUbm9kZTAwMDNA
b2N0YXJpbmUuZGUwgZ8wDQYJKoZIhvcNAQEBBQADgY0AMIGJAoGBAMToIYQhJxt0
GEsUEti+Pv/NHLKqmTYXcEAfWdyYAOJ/6xpBJYsE27g8xUCX5Hwq5Oauyx0jNDlQ
mu2v8An1F1HUMPUICVhIIBbevLIwpfbkCkONrLobf3cZCEegI72efik2I/bMD6Yg
tzAZ8FeNzGSJWl003wgvFOoBdJLSqzxZAgMBAAEwDQYJKoZIhvcNAQEEBQADgYEA
BhWFzLhDMoMa/BYC4iHdMUd6iqt9Ay0qHRRd/Q19I5ZaLwQHphhmRNIgWEIJ9quk
PdJJxVajdyhczj70kzwaeDiX/WN6JMSpo1t2h7lVtuBqcZoT2vDaEtEGWxEwPkW9
jPFKnbdq9DR8al0VpP4DOtB4dSif2AazPIHnTlsBcYE=
-----END CERTIFICATE-----
