Certificate:
    Data:
        Version: 1 (0x0)
        Serial Number:
            9b:27:d7:e8:d1:ba:0a:cd
        Signature Algorithm: md5WithRSAEncryption
        Issuer: C=DE, ST=Saarland, O=MPI-SWS, OU=Distributed Systems Group, CN=Andreas Haeberlen/emailAddress=democa@octarine.de
        Validity
            Not Before: Apr 20 20:47:30 2015 GMT
            Not After : Apr 19 20:47:30 2016 GMT
        Subject: C=DE, ST=Saarland, O=MPI-SWS, OU=Distributed Systems Group, CN=bec71219445c104adbf25fb0b47c166d425646f8/emailAddress=node0757@octarine.de
        Subject Public Key Info:
            Public Key Algorithm: rsaEncryption
            RSA Public Key: (1024 bit)
                Modulus (1024 bit):
                    00:e3:72:99:9d:96:b5:94:72:af:8f:bc:89:93:f1:
                    b2:34:7e:a3:1b:4b:b6:99:47:9f:01:60:8c:10:69:
                    49:86:5a:94:00:d5:d5:a8:54:18:a5:c0:c3:b8:e9:
                    fe:9a:8e:b9:13:b9:a8:1b:80:96:9b:ca:12:83:2b:
                    6a:38:2f:c0:dd:d4:54:92:be:08:b7:bb:d2:5a:96:
                    37:e8:3c:47:df:33:b2:b4:53:41:93:aa:c5:f0:fa:
                    47:7d:65:c3:05:85:6e:6b:89:c5:0d:b8:17:2b:64:
                    09:81:dc:ed:18:b6:ee:5e:1d:ce:ef:86:fc:48:1a:
                    ac:90:37:9b:5f:d2:2f:cc:09
                Exponent: 65537 (0x10001)
    Signature Algorithm: md5WithRSAEncryption
        1f:cb:e1:ce:d6:3b:ff:14:06:39:ad:f1:64:75:d6:d2:18:81:
        17:c5:30:da:4e:eb:87:ed:6d:83:72:f8:ec:f2:0e:e7:2c:5d:
        c5:9e:0c:cc:f5:d5:33:ae:45:d7:1a:90:23:98:13:13:22:6e:
        a0:db:ab:13:a0:2c:35:58:51:0e:0d:07:c0:7a:2d:05:4b:e1:
        63:cb:3b:da:5a:91:ec:ab:ee:ad:da:89:fb:3e:7e:42:49:a1:
        7d:b4:e8:c7:4f:ef:ea:63:86:a0:ed:2c:92:9e:dc:a1:47:b6:
        99:f3:7b:21:63:ce:0e:79:01:08:74:64:dc:fb:64:4b:fa:db:
        6d:a7
-----BEGIN CERTIFICATE-----
MIICvDCCAiUCCQCbJ9fo0boKzTANBgkqhkiG9w0BAQQFADCBlTELMAkGA1UEBhMC
REUxETAPBgNVBAgTCFNhYXJsYW5kMRAwDgYDVQQKEwdNUEktU1dTMSIwIAYDVQQL
ExlEaXN0cmlidXRlZCBTeXN0ZW1zIEdyb3VwMRowGAYDVQQDExFBbmRyZWFzIEhh
ZWJlcmxlbjEhMB8GCSqGSIb3DQEJARYSZGVtb2NhQG9jdGFyaW5lLmRlMB4XDTE1
MDQyMDIwNDczMFoXDTE2MDQxOTIwNDczMFowga4xCzAJBgNVBAYTAkRFMREwDwYD
VQQIEwhTYWFybGFuZDEQMA4GA1UEChMHTVBJLVNXUzEiMCAGA1UECxMZRGlzdHJp
YnV0ZWQgU3lzdGVtcyBHcm91cDExMC8GA1UEAxMoYmVjNzEyMTk0NDVjMTA0YWRi
ZjI1ZmIwYjQ3YzE2NmQ0MjU2NDZmODEjMCEGCSqGSIb3DQEJARYUbm9kZTA3NTdA
b2N0YXJpbmUuZGUwgZ8wDQYJKoZIhvcNAQEBBQADgY0AMIGJAoGBAONymZ2WtZRy
r4+8iZPxsjR+oxtLtplHnwFgjBBpSYZalADV1ahUGKXAw7jp/pqOuRO5qBuAlpvK
EoMrajgvwN3UVJK+CLe70lqWN+g8R98zsrRTQZOqxfD6R31lwwWFbmuJxQ24Fytk
CYHc7Ri27l4dzu+G/EgarJA3m1/SL8wJAgMBAAEwDQYJKoZIhvcNAQEEBQADgYEA
H8vhztY7/xQGOa3xZHXW0hiBF8Uw2k7rh+1tg3L47PIO5yxdxZ4MzPXVM65F1xqQ
I5gTEyJuoNurE6AsNVhRDg0HwHotBUvhY8s72lqR7KvurdqJ+z5+QkmhfbTox0/v
6mOGoO0skp7coUe2mfN7IWPODnkBCHRk3PtkS/rbbac=
-----END CERTIFICATE-----
