Certificate:
    Data:
        Version: 1 (0x0)
        Serial Number:
            9b:27:d7:e8:d1:ba:0b:a0
        Signature Algorithm: md5WithRSAEncryption
        Issuer: C=DE, ST=Saarland, O=MPI-SWS, OU=Distributed Systems Group, CN=Andreas Haeberlen/emailAddress=democa@octarine.de
        Validity
            Not Before: Apr 20 20:47:40 2015 GMT
            Not After : Apr 19 20:47:40 2016 GMT
        Subject: C=DE, ST=Saarland, O=MPI-SWS, OU=Distributed Systems Group, CN=a307ea7fbaafb7d0984e0ac70414284cb54afc9b/emailAddress=node0968@octarine.de
        Subject Public Key Info:
            Public Key Algorithm: rsaEncryption
            RSA Public Key: (1024 bit)
                Modulus (1024 bit):
                    00:d9:bd:88:77:6b:0f:c8:f4:71:ea:da:88:ba:30:
                    62:21:3d:e7:b0:39:1c:1c:1f:d9:4f:ec:ca:18:bb:
                    c5:98:dd:a1:f2:98:ea:ba:6a:53:3d:35:70:6b:cb:
                    0a:42:b6:16:74:d1:15:fa:e8:51:a5:61:d7:db:da:
                    23:39:2e:25:80:31:b8:42:d7:29:b7:6d:1c:ca:35:
                    d6:1c:b4:0b:a7:88:ed:1f:b5:de:ac:2b:47:d3:7f:
                    5a:b4:15:3b:73:4f:23:a5:f1:13:90:36:78:16:71:
                    52:3f:ee:00:79:a7:4b:e6:ef:45:9c:53:bb:b9:52:
                    83:7c:42:24:f9:25:67:97:27
                Exponent: 65537 (0x10001)
    Signature Algorithm: md5WithRSAEncryption
        c9:39:ea:a4:28:b3:6d:7a:9e:58:18:f7:a2:e1:17:28:4a:47:
        ea:bd:f4:48:82:bb:7c:95:54:6f:27:21:d1:08:cf:02:4d:de:
        28:29:a7:09:d2:22:47:23:51:57:4c:39:7f:84:e8:6f:a1:32:
        df:44:09:6a:f9:0a:7b:18:99:87:61:91:62:76:dd:4d:b4:8e:
        e5:9f:cf:17:b6:3e:5a:28:51:60:81:d3:01:ab:ec:e5:e6:2a:
        6e:c7:38:d8:2e:01:42:cd:5c:da:18:db:78:7f:c2:b9:3d:c7:
        38:14:0f:9b:86:14:ae:29:4d:fd:6a:94:ad:97:e7:09:1f:36:
        a7:85
-----BEGIN CERTIFICATE-----
MIICvDCCAiUCCQCbJ9fo0boLoDANBgkqhkiG9w0BAQQFADCBlTELMAkGA1UEBhMC
REUxETAPBgNVBAgTCFNhYXJsYW5kMRAwDgYDVQQKEwdNUEktU1dTMSIwIAYDVQQL
ExlEaXN0cmlidXRlZCBTeXN0ZW1zIEdyb3VwMRowGAYDVQQDExFBbmRyZWFzIEhh
ZWJlcmxlbjEhMB8GCSqGSIb3DQEJARYSZGVtb2NhQG9jdGFyaW5lLmRlMB4XDTE1
MDQyMDIwNDc0MFoXDTE2MDQxOTIwNDc0MFowga4xCzAJBgNVBAYTAkRFMREwDwYD
VQQIEwhTYWFybGFuZDEQMA4GA1UEChMHTVBJLVNXUzEiMCAGA1UECxMZRGlzdHJp
YnV0ZWQgU3lzdGVtcyBHcm91cDExMC8GA1UEAxMoYTMwN2VhN2ZiYWFmYjdkMDk4
NGUwYWM3MDQxNDI4NGNiNTRhZmM5YjEjMCEGCSqGSIb3DQEJARYUbm9kZTA5NjhA
b2N0YXJpbmUuZGUwgZ8wDQYJKoZIhvcNAQEBBQADgY0AMIGJAoGBANm9iHdrD8j0
ceraiLowYiE957A5HBwf2U/syhi7xZjdofKY6rpqUz01cGvLCkK2FnTRFfroUaVh
19vaIzkuJYAxuELXKbdtHMo11hy0C6eI7R+13qwrR9N/WrQVO3NPI6XxE5A2eBZx
Uj/uAHmnS+bvRZxTu7lSg3xCJPklZ5cnAgMBAAEwDQYJKoZIhvcNAQEEBQADgYEA
yTnqpCizbXqeWBj3ouEXKEpH6r30SIK7fJVUbych0QjPAk3eKCmnCdIiRyNRV0w5
f4Tob6Ey30QJavkKexiZh2GRYnbdTbSO5Z/PF7Y+WihRYIHTAavs5eYqbsc42C4B
Qs1c2hjbeH/CuT3HOBQPm4YUrilN/WqUrZfnCR82p4U=
-----END CERTIFICATE-----
