Certificate:
    Data:
        Version: 1 (0x0)
        Serial Number:
            9b:27:d7:e8:d1:ba:0a:fd
        Signature Algorithm: md5WithRSAEncryption
        Issuer: C=DE, ST=Saarland, O=MPI-SWS, OU=Distributed Systems Group, CN=Andreas Haeberlen/emailAddress=democa@octarine.de
        Validity
            Not Before: Apr 20 20:47:32 2015 GMT
            Not After : Apr 19 20:47:32 2016 GMT
        Subject: C=DE, ST=Saarland, O=MPI-SWS, OU=Distributed Systems Group, CN=a92394749d161dea0622e930bc8ce218b3c583a2/emailAddress=node0805@octarine.de
        Subject Public Key Info:
            Public Key Algorithm: rsaEncryption
            RSA Public Key: (1024 bit)
                Modulus (1024 bit):
                    00:d7:51:dd:4f:18:2c:56:8f:4c:7d:54:06:c7:00:
                    b5:6d:2b:f4:b0:32:33:41:5e:92:56:1a:ce:09:ef:
                    66:cd:d8:09:96:d0:90:d3:4b:5c:d4:2c:08:4e:4e:
                    9d:e8:22:ff:ad:5d:c2:43:18:08:67:a7:66:26:13:
                    b8:9c:9e:f8:5e:4a:90:a3:7f:b5:4b:99:01:c5:cd:
                    6a:2a:9c:3d:e8:2f:4e:d4:c0:a4:8f:6f:cc:5c:9e:
                    2d:aa:0f:f5:18:c8:f3:f6:1a:c8:6c:13:83:b4:79:
                    1c:3f:fd:1e:87:68:52:1e:06:79:5b:d1:d8:bf:50:
                    c2:fb:74:80:85:4d:b1:c1:13
                Exponent: 65537 (0x10001)
    Signature Algorithm: md5WithRSAEncryption
        77:d6:bb:2c:44:d5:fb:7b:dc:40:47:33:5d:e7:b3:8d:ee:68:
        a5:8e:a1:f1:e7:82:93:d6:84:34:1f:be:42:a5:0d:58:d7:96:
        c2:79:10:52:60:55:76:79:9b:71:8e:a7:d2:58:67:70:fa:4c:
        d3:3f:46:10:ab:49:43:5f:42:51:c7:b3:0d:b2:65:89:ab:aa:
        d1:47:c5:1a:61:82:c2:5f:4e:b2:a0:28:fd:52:e8:8b:18:ca:
        b6:3c:62:32:fc:c9:b5:b1:79:2d:56:12:7a:9f:7c:1e:ae:62:
        12:4d:f2:74:eb:0c:4d:96:09:09:58:8e:48:cc:d5:4d:0d:18:
        66:5f
-----BEGIN CERTIFICATE-----
MIICvDCCAiUCCQCbJ9fo0boK/TANBgkqhkiG9w0BAQQFADCBlTELMAkGA1UEBhMC
REUxETAPBgNVBAgTCFNhYXJsYW5kMRAwDgYDVQQKEwdNUEktU1dTMSIwIAYDVQQL
ExlEaXN0cmlidXRlZCBTeXN0ZW1zIEdyb3VwMRowGAYDVQQDExFBbmRyZWFzIEhh
ZWJlcmxlbjEhMB8GCSqGSIb3DQEJARYSZGVtb2NhQG9jdGFyaW5lLmRlMB4XDTE1
MDQyMDIwNDczMloXDTE2MDQxOTIwNDczMlowga4xCzAJBgNVBAYTAkRFMREwDwYD
VQQIEwhTYWFybGFuZDEQMA4GA1UEChMHTVBJLVNXUzEiMCAGA1UECxMZRGlzdHJp
YnV0ZWQgU3lzdGVtcyBHcm91cDExMC8GA1UEAxMoYTkyMzk0NzQ5ZDE2MWRlYTA2
MjJlOTMwYmM4Y2UyMThiM2M1ODNhMjEjMCEGCSqGSIb3DQEJARYUbm9kZTA4MDVA
b2N0YXJpbmUuZGUwgZ8wDQYJKoZIhvcNAQEBBQADgY0AMIGJAoGBANdR3U8YLFaP
TH1UBscAtW0r9LAyM0FeklYazgnvZs3YCZbQkNNLXNQsCE5Onegi/61dwkMYCGen
ZiYTuJye+F5KkKN/tUuZAcXNaiqcPegvTtTApI9vzFyeLaoP9RjI8/YayGwTg7R5
HD/9HodoUh4GeVvR2L9Qwvt0gIVNscETAgMBAAEwDQYJKoZIhvcNAQEEBQADgYEA
d9a7LETV+3vcQEczXeezje5opY6h8eeCk9aENB++QqUNWNeWwnkQUmBVdnmbcY6n
0lhncPpM0z9GEKtJQ19CUcezDbJliauq0UfFGmGCwl9OsqAo/VLoixjKtjxiMvzJ
tbF5LVYSep98Hq5iEk3ydOsMTZYJCViOSMzVTQ0YZl8=
-----END CERTIFICATE-----
