Certificate:
    Data:
        Version: 1 (0x0)
        Serial Number:
            9b:27:d7:e8:d1:ba:09:fb
        Signature Algorithm: md5WithRSAEncryption
        Issuer: C=DE, ST=Saarland, O=MPI-SWS, OU=Distributed Systems Group, CN=Andreas Haeberlen/emailAddress=democa@octarine.de
        Validity
            Not Before: Apr 20 20:47:21 2015 GMT
            Not After : Apr 19 20:47:21 2016 GMT
        Subject: C=DE, ST=Saarland, O=MPI-SWS, OU=Distributed Systems Group, CN=f73ed7a4af267652e889e9fcb8b70aef22df9844/emailAddress=node0547@octarine.de
        Subject Public Key Info:
            Public Key Algorithm: rsaEncryption
            RSA Public Key: (1024 bit)
                Modulus (1024 bit):
                    00:ce:7e:19:55:00:4a:bd:2b:75:ac:76:db:44:3d:
                    30:f6:c7:8c:f5:32:a6:d1:c2:6e:f5:b5:0d:7a:14:
                    25:21:6e:a7:4b:8a:8d:ae:81:f6:ca:c4:a8:ca:a6:
                    86:c7:a6:4a:2b:c5:39:01:bf:9f:bc:4f:9a:81:3e:
                    fd:64:e8:25:ac:05:4f:41:6c:ac:a7:63:1e:f4:00:
                    25:ad:25:9e:e8:e5:b1:41:f6:cc:da:6b:9a:df:cd:
                    f1:4d:2f:9b:08:e1:ff:e6:33:b7:3e:b4:e0:1b:78:
                    9f:f1:48:be:df:b0:b0:65:76:e4:8e:2b:72:9b:42:
                    8d:b3:b2:ff:d2:41:fc:45:2b
                Exponent: 65537 (0x10001)
    Signature Algorithm: md5WithRSAEncryption
        b9:3d:51:51:1e:24:08:7a:5f:bf:c7:44:4e:9b:00:31:f2:60:
        4a:73:e7:40:9a:7e:ae:95:83:45:b6:74:a5:31:a1:21:ee:ad:
        53:95:ad:85:ff:da:5f:97:21:fb:e5:55:0c:9a:5c:00:61:f9:
        08:fe:68:e3:a3:5e:01:b7:cc:5d:67:72:4b:7a:bc:cf:31:52:
        9e:86:5b:d2:8d:0b:2b:e2:bf:82:35:25:51:b2:69:93:bd:ee:
        cf:dc:47:db:78:92:0b:1a:bf:a3:31:e7:23:b1:83:b3:5e:ba:
        94:70:43:f9:9e:5f:e4:84:7a:7e:9e:ba:34:b2:38:75:20:f7:
        6c:3d
-----BEGIN CERTIFICATE-----
MIICvDCCAiUCCQCbJ9fo0boJ+zANBgkqhkiG9w0BAQQFADCBlTELMAkGA1UEBhMC
REUxETAPBgNVBAgTCFNhYXJsYW5kMRAwDgYDVQQKEwdNUEktU1dTMSIwIAYDVQQL
ExlEaXN0cmlidXRlZCBTeXN0ZW1zIEdyb3VwMRowGAYDVQQDExFBbmRyZWFzIEhh
ZWJlcmxlbjEhMB8GCSqGSIb3DQEJARYSZGVtb2NhQG9jdGFyaW5lLmRlMB4XDTE1
MDQyMDIwNDcyMVoXDTE2MDQxOTIwNDcyMVowga4xCzAJBgNVBAYTAkRFMREwDwYD
VQQIEwhTYWFybGFuZDEQMA4GA1UEChMHTVBJLVNXUzEiMCAGA1UECxMZRGlzdHJp
YnV0ZWQgU3lzdGVtcyBHcm91cDExMC8GA1UEAxMoZjczZWQ3YTRhZjI2NzY1MmU4
ODllOWZjYjhiNzBhZWYyMmRmOTg0NDEjMCEGCSqGSIb3DQEJARYUbm9kZTA1NDdA
b2N0YXJpbmUuZGUwgZ8wDQYJKoZIhvcNAQEBBQADgY0AMIGJAoGBAM5+GVUASr0r
dax220Q9MPbHjPUyptHCbvW1DXoUJSFup0uKja6B9srEqMqmhsemSivFOQG/n7xP
moE+/WToJawFT0FsrKdjHvQAJa0lnujlsUH2zNprmt/N8U0vmwjh/+Yztz604Bt4
n/FIvt+wsGV25I4rcptCjbOy/9JB/EUrAgMBAAEwDQYJKoZIhvcNAQEEBQADgYEA
uT1RUR4kCHpfv8dETpsAMfJgSnPnQJp+rpWDRbZ0pTGhIe6tU5Wthf/aX5ch++VV
DJpcAGH5CP5o46NeAbfMXWdyS3q8zzFSnoZb0o0LK+K/gjUlUbJpk73uz9xH23iS
Cxq/ozHnI7GDs166lHBD+Z5f5IR6fp66NLI4dSD3bD0=
-----END CERTIFICATE-----
