Certificate:
    Data:
        Version: 1 (0x0)
        Serial Number:
            9b:27:d7:e8:d1:ba:08:c0
        Signature Algorithm: md5WithRSAEncryption
        Issuer: C=DE, ST=Saarland, O=MPI-SWS, OU=Distributed Systems Group, CN=Andreas Haeberlen/emailAddress=democa@octarine.de
        Validity
            Not Before: Apr 20 20:47:07 2015 GMT
            Not After : Apr 19 20:47:07 2016 GMT
        Subject: C=DE, ST=Saarland, O=MPI-SWS, OU=Distributed Systems Group, CN=cbc0d47dcda77fc0c7ce071290cf7e249e462c4e/emailAddress=node0232@octarine.de
        Subject Public Key Info:
            Public Key Algorithm: rsaEncryption
            RSA Public Key: (1024 bit)
                Modulus (1024 bit):
                    00:c0:89:d4:3f:d6:3d:60:a2:44:9b:a0:8e:e5:aa:
                    d4:23:4e:d4:ad:8c:96:96:80:13:8a:da:55:69:19:
                    fe:36:8e:7d:e6:51:c5:38:c7:ef:7b:e4:3d:0d:d1:
                    0e:ae:b9:1c:0c:97:7f:f0:a4:1d:a2:e1:c4:24:8b:
                    6f:af:f1:18:69:23:45:4a:b5:3b:0c:50:68:00:56:
                    92:d3:b5:62:2d:9e:8b:00:87:cd:38:2d:74:96:41:
                    58:9d:35:7c:2d:87:ab:83:e4:25:31:3a:ca:bd:a7:
                    85:db:95:28:c1:20:ec:f5:e0:f2:0d:04:25:86:b7:
                    a8:3f:1d:8c:1a:1e:7c:c1:43
                Exponent: 65537 (0x10001)
    Signature Algorithm: md5WithRSAEncryption
        b3:10:02:96:93:d2:bc:41:0b:fc:d1:65:73:17:51:b3:7b:dc:
        71:c4:43:5a:79:91:d4:7e:f9:f1:a3:c9:db:ee:b2:eb:3a:a8:
        64:76:aa:6b:50:cd:79:bc:2c:b5:46:24:80:80:21:67:c0:d8:
        1d:58:48:e8:02:e6:65:01:f1:0e:34:c0:3c:70:d9:2b:28:6d:
        48:d4:31:26:96:ce:ab:7b:4a:89:d7:f1:92:73:fd:fc:81:7a:
        43:02:f7:ef:4b:1d:19:f1:97:7d:a5:73:10:4b:b9:cf:ee:05:
        a1:be:10:b6:09:6e:72:dd:e0:dd:fe:47:04:c4:d7:32:25:0b:
        44:b1
-----BEGIN CERTIFICATE-----
MIICvDCCAiUCCQCbJ9fo0boIwDANBgkqhkiG9w0BAQQFADCBlTELMAkGA1UEBhMC
REUxETAPBgNVBAgTCFNhYXJsYW5kMRAwDgYDVQQKEwdNUEktU1dTMSIwIAYDVQQL
ExlEaXN0cmlidXRlZCBTeXN0ZW1zIEdyb3VwMRowGAYDVQQDExFBbmRyZWFzIEhh
ZWJlcmxlbjEhMB8GCSqGSIb3DQEJARYSZGVtb2NhQG9jdGFyaW5lLmRlMB4XDTE1
MDQyMDIwNDcwN1oXDTE2MDQxOTIwNDcwN1owga4xCzAJBgNVBAYTAkRFMREwDwYD
VQQIEwhTYWFybGFuZDEQMA4GA1UEChMHTVBJLVNXUzEiMCAGA1UECxMZRGlzdHJp
YnV0ZWQgU3lzdGVtcyBHcm91cDExMC8GA1UEAxMoY2JjMGQ0N2RjZGE3N2ZjMGM3
Y2UwNzEyOTBjZjdlMjQ5ZTQ2MmM0ZTEjMCEGCSqGSIb3DQEJARYUbm9kZTAyMzJA
b2N0YXJpbmUuZGUwgZ8wDQYJKoZIhvcNAQEBBQADgY0AMIGJAoGBAMCJ1D/WPWCi
RJugjuWq1CNO1K2MlpaAE4raVWkZ/jaOfeZRxTjH73vkPQ3RDq65HAyXf/CkHaLh
xCSLb6/xGGkjRUq1OwxQaABWktO1Yi2eiwCHzTgtdJZBWJ01fC2Hq4PkJTE6yr2n
hduVKMEg7PXg8g0EJYa3qD8djBoefMFDAgMBAAEwDQYJKoZIhvcNAQEEBQADgYEA
sxAClpPSvEEL/NFlcxdRs3vcccRDWnmR1H758aPJ2+6y6zqoZHaqa1DNebwstUYk
gIAhZ8DYHVhI6ALmZQHxDjTAPHDZKyhtSNQxJpbOq3tKidfxknP9/IF6QwL370sd
GfGXfaVzEEu5z+4Fob4Qtgluct3g3f5HBMTXMiULRLE=
-----END CERTIFICATE-----
