Certificate:
    Data:
        Version: 1 (0x0)
        Serial Number:
            9b:27:d7:e8:d1:ba:09:57
        Signature Algorithm: md5WithRSAEncryption
        Issuer: C=DE, ST=Saarland, O=MPI-SWS, OU=Distributed Systems Group, CN=Andreas Haeberlen/emailAddress=democa@octarine.de
        Validity
            Not Before: Apr 20 20:47:13 2015 GMT
            Not After : Apr 19 20:47:13 2016 GMT
        Subject: C=DE, ST=Saarland, O=MPI-SWS, OU=Distributed Systems Group, CN=ecd2421c0f9b102aaacb5aff33cb5d63936e67a7/emailAddress=node0383@octarine.de
        Subject Public Key Info:
            Public Key Algorithm: rsaEncryption
            RSA Public Key: (1024 bit)
                Modulus (1024 bit):
                    00:c9:50:43:3c:bd:fa:aa:da:db:f8:10:df:f3:7d:
                    9c:55:91:0a:e7:ba:61:bd:04:87:1b:56:b1:ab:64:
                    40:b3:4a:a1:9e:32:76:4d:42:57:47:4a:19:7b:00:
                    8d:ef:72:fb:b4:a7:9b:0e:55:29:0d:dc:fb:9b:4e:
                    30:39:21:a0:49:7f:25:40:51:ab:15:39:82:3f:0f:
                    a4:b9:67:8a:3d:ca:dd:7f:d5:57:23:0b:05:ab:05:
                    ce:b5:3b:67:05:e8:9f:e0:31:4e:ec:59:c4:3b:47:
                    f1:2d:34:d4:18:aa:8f:8e:04:35:79:3f:3f:df:41:
                    7b:24:03:e6:fd:2d:e5:2d:5f
                Exponent: 65537 (0x10001)
    Signature Algorithm: md5WithRSAEncryption
        b0:97:e2:54:d3:78:b2:c7:07:85:05:14:5b:4b:fa:e1:c4:fd:
        dc:b0:6c:fc:c0:dd:d9:6b:10:26:a7:a3:d8:1c:55:e8:a1:4f:
        03:8a:e3:57:9c:46:12:c1:43:2c:48:e2:b3:38:cd:b0:8b:a1:
        3f:4a:16:84:41:63:dc:32:04:c9:94:c2:d3:17:4f:05:ad:f6:
        33:02:33:16:9f:39:52:dd:f0:56:a7:4c:11:9a:1a:6a:15:ee:
        fe:71:d3:8c:65:6b:8a:4c:de:4e:21:f5:52:c3:f4:0d:ec:9d:
        32:2c:e9:23:bc:14:3d:08:09:9e:c8:03:66:64:a1:db:c1:5b:
        96:f6
-----BEGIN CERTIFICATE-----
MIICvDCCAiUCCQCbJ9fo0boJVzANBgkqhkiG9w0BAQQFADCBlTELMAkGA1UEBhMC
REUxETAPBgNVBAgTCFNhYXJsYW5kMRAwDgYDVQQKEwdNUEktU1dTMSIwIAYDVQQL
ExlEaXN0cmlidXRlZCBTeXN0ZW1zIEdyb3VwMRowGAYDVQQDExFBbmRyZWFzIEhh
ZWJlcmxlbjEhMB8GCSqGSIb3DQEJARYSZGVtb2NhQG9jdGFyaW5lLmRlMB4XDTE1
MDQyMDIwNDcxM1oXDTE2MDQxOTIwNDcxM1owga4xCzAJBgNVBAYTAkRFMREwDwYD
VQQIEwhTYWFybGFuZDEQMA4GA1UEChMHTVBJLVNXUzEiMCAGA1UECxMZRGlzdHJp
YnV0ZWQgU3lzdGVtcyBHcm91cDExMC8GA1UEAxMoZWNkMjQyMWMwZjliMTAyYWFh
Y2I1YWZmMzNjYjVkNjM5MzZlNjdhNzEjMCEGCSqGSIb3DQEJARYUbm9kZTAzODNA
b2N0YXJpbmUuZGUwgZ8wDQYJKoZIhvcNAQEBBQADgY0AMIGJAoGBAMlQQzy9+qra
2/gQ3/N9nFWRCue6Yb0EhxtWsatkQLNKoZ4ydk1CV0dKGXsAje9y+7Snmw5VKQ3c
+5tOMDkhoEl/JUBRqxU5gj8PpLlnij3K3X/VVyMLBasFzrU7ZwXon+AxTuxZxDtH
8S001Biqj44ENXk/P99BeyQD5v0t5S1fAgMBAAEwDQYJKoZIhvcNAQEEBQADgYEA
sJfiVNN4sscHhQUUW0v64cT93LBs/MDd2WsQJqej2BxV6KFPA4rjV5xGEsFDLEji
szjNsIuhP0oWhEFj3DIEyZTC0xdPBa32MwIzFp85Ut3wVqdMEZoaahXu/nHTjGVr
ikzeTiH1UsP0DeydMizpI7wUPQgJnsgDZmSh28FblvY=
-----END CERTIFICATE-----
