Certificate:
    Data:
        Version: 1 (0x0)
        Serial Number:
            9b:27:d7:e8:d1:ba:09:0b
        Signature Algorithm: md5WithRSAEncryption
        Issuer: C=DE, ST=Saarland, O=MPI-SWS, OU=Distributed Systems Group, CN=Andreas Haeberlen/emailAddress=democa@octarine.de
        Validity
            Not Before: Apr 20 20:47:10 2015 GMT
            Not After : Apr 19 20:47:10 2016 GMT
        Subject: C=DE, ST=Saarland, O=MPI-SWS, OU=Distributed Systems Group, CN=e574fd5ead753fac5d1f4fdae5e9128f7f47da57/emailAddress=node0307@octarine.de
        Subject Public Key Info:
            Public Key Algorithm: rsaEncryption
            RSA Public Key: (1024 bit)
                Modulus (1024 bit):
                    00:d9:4b:2e:b0:df:af:c8:b6:5a:31:93:1e:06:97:
                    f1:02:5d:78:6f:e5:cd:97:75:b2:ef:a3:19:12:c2:
                    4d:bb:88:d6:85:1b:3a:ac:a0:ca:73:b6:10:c9:a6:
                    1e:f9:f2:08:a2:ee:58:0b:d7:f7:61:63:ca:23:db:
                    77:56:e9:61:ef:f8:dd:bc:49:06:80:40:60:c5:23:
                    12:59:eb:51:6a:6f:87:9e:3e:77:40:37:26:00:d7:
                    aa:37:0d:9a:7e:30:d4:99:e0:e7:ea:f8:02:bd:81:
                    51:71:73:c1:3d:c5:62:3c:25:b7:2c:69:94:48:71:
                    a7:18:95:9f:40:c0:a6:7f:b5
                Exponent: 65537 (0x10001)
    Signature Algorithm: md5WithRSAEncryption
        96:fa:4e:5a:d6:97:fc:74:f2:5a:7e:0f:c2:ed:95:a8:04:f2:
        e6:dd:51:f5:50:b6:3e:27:1c:2b:6b:18:e5:fd:ae:39:01:79:
        bc:31:11:df:ea:4d:68:9a:36:2e:28:f6:c3:73:71:fa:b4:db:
        3d:74:80:6b:b9:e9:4e:9c:01:54:f3:51:45:a0:98:24:74:ae:
        b0:84:8a:ea:ee:17:2d:d9:cf:c4:9f:c7:2b:e7:ef:b5:5d:fe:
        89:7d:0e:85:c1:d8:4a:a4:b9:15:78:a5:87:dc:83:7a:2f:bb:
        b1:95:86:76:07:d1:e9:e5:25:2e:55:5b:ea:e7:27:c5:85:3e:
        a3:84
-----BEGIN CERTIFICATE-----
MIICvDCCAiUCCQCbJ9fo0boJCzANBgkqhkiG9w0BAQQFADCBlTELMAkGA1UEBhMC
REUxETAPBgNVBAgTCFNhYXJsYW5kMRAwDgYDVQQKEwdNUEktU1dTMSIwIAYDVQQL
ExlEaXN0cmlidXRlZCBTeXN0ZW1zIEdyb3VwMRowGAYDVQQDExFBbmRyZWFzIEhh
ZWJlcmxlbjEhMB8GCSqGSIb3DQEJARYSZGVtb2NhQG9jdGFyaW5lLmRlMB4XDTE1
MDQyMDIwNDcxMFoXDTE2MDQxOTIwNDcxMFowga4xCzAJBgNVBAYTAkRFMREwDwYD
VQQIEwhTYWFybGFuZDEQMA4GA1UEChMHTVBJLVNXUzEiMCAGA1UECxMZRGlzdHJp
YnV0ZWQgU3lzdGVtcyBHcm91cDExMC8GA1UEAxMoZTU3NGZkNWVhZDc1M2ZhYzVk
MWY0ZmRhZTVlOTEyOGY3ZjQ3ZGE1NzEjMCEGCSqGSIb3DQEJARYUbm9kZTAzMDdA
b2N0YXJpbmUuZGUwgZ8wDQYJKoZIhvcNAQEBBQADgY0AMIGJAoGBANlLLrDfr8i2
WjGTHgaX8QJdeG/lzZd1su+jGRLCTbuI1oUbOqygynO2EMmmHvnyCKLuWAvX92Fj
yiPbd1bpYe/43bxJBoBAYMUjElnrUWpvh54+d0A3JgDXqjcNmn4w1Jng5+r4Ar2B
UXFzwT3FYjwltyxplEhxpxiVn0DApn+1AgMBAAEwDQYJKoZIhvcNAQEEBQADgYEA
lvpOWtaX/HTyWn4Pwu2VqATy5t1R9VC2PiccK2sY5f2uOQF5vDER3+pNaJo2Lij2
w3Nx+rTbPXSAa7npTpwBVPNRRaCYJHSusISK6u4XLdnPxJ/HK+fvtV3+iX0OhcHY
SqS5FXilh9yDei+7sZWGdgfR6eUlLlVb6ucnxYU+o4Q=
-----END CERTIFICATE-----
