Certificate:
    Data:
        Version: 1 (0x0)
        Serial Number:
            9b:27:d7:e8:d1:ba:09:e0
        Signature Algorithm: md5WithRSAEncryption
        Issuer: C=DE, ST=Saarland, O=MPI-SWS, OU=Distributed Systems Group, CN=Andreas Haeberlen/emailAddress=democa@octarine.de
        Validity
            Not Before: Apr 20 20:47:19 2015 GMT
            Not After : Apr 19 20:47:19 2016 GMT
        Subject: C=DE, ST=Saarland, O=MPI-SWS, OU=Distributed Systems Group, CN=3aa7a802a3bb6c9f25405ca5fbb37aaa5510d127/emailAddress=node0520@octarine.de
        Subject Public Key Info:
            Public Key Algorithm: rsaEncryption
            RSA Public Key: (1024 bit)
                Modulus (1024 bit):
                    00:db:72:37:2e:9c:aa:95:78:fb:4a:4c:7c:42:3a:
                    ee:6d:71:92:8e:c2:73:ca:14:1f:ef:f5:d5:91:9d:
                    53:33:d6:3f:98:08:12:91:df:0a:df:28:4a:c6:d1:
                    8b:57:04:17:94:ef:0e:26:59:7d:cc:a3:a6:2e:b4:
                    f9:a9:0c:ee:02:82:1f:63:9b:bf:34:3f:fd:21:81:
                    50:c9:1b:f9:89:f7:c1:5e:5a:a3:b1:ca:6c:8a:b5:
                    6e:35:ce:d6:03:aa:39:78:50:49:a8:35:a6:30:b2:
                    23:3e:19:68:b6:36:97:61:9b:70:f0:af:d7:70:c3:
                    49:73:ff:51:71:b0:8c:e3:45
                Exponent: 65537 (0x10001)
    Signature Algorithm: md5WithRSAEncryption
        aa:68:b9:ec:ca:55:16:de:d5:9e:29:8d:ff:ff:25:66:05:d5:
        15:1d:1c:cb:6e:03:58:88:f2:69:f4:3f:26:17:65:20:84:e6:
        03:12:4a:3f:48:c3:98:f9:37:82:bf:ea:e6:8e:f7:7d:2a:36:
        12:80:80:de:f1:39:f4:49:64:87:f5:93:8c:47:0e:eb:f0:6c:
        0a:44:9f:90:67:34:5c:01:9a:58:fe:14:b5:c6:6e:f3:47:a8:
        6a:1d:34:94:7e:27:65:f8:c3:9f:0c:54:18:95:31:1d:64:c4:
        58:a5:b3:fd:02:b7:41:52:c4:2f:a3:6f:2f:b8:6f:6b:f6:60:
        04:88
-----BEGIN CERTIFICATE-----
MIICvDCCAiUCCQCbJ9fo0boJ4DANBgkqhkiG9w0BAQQFADCBlTELMAkGA1UEBhMC
REUxETAPBgNVBAgTCFNhYXJsYW5kMRAwDgYDVQQKEwdNUEktU1dTMSIwIAYDVQQL
ExlEaXN0cmlidXRlZCBTeXN0ZW1zIEdyb3VwMRowGAYDVQQDExFBbmRyZWFzIEhh
ZWJlcmxlbjEhMB8GCSqGSIb3DQEJARYSZGVtb2NhQG9jdGFyaW5lLmRlMB4XDTE1
MDQyMDIwNDcxOVoXDTE2MDQxOTIwNDcxOVowga4xCzAJBgNVBAYTAkRFMREwDwYD
VQQIEwhTYWFybGFuZDEQMA4GA1UEChMHTVBJLVNXUzEiMCAGA1UECxMZRGlzdHJp
YnV0ZWQgU3lzdGVtcyBHcm91cDExMC8GA1UEAxMoM2FhN2E4MDJhM2JiNmM5ZjI1
NDA1Y2E1ZmJiMzdhYWE1NTEwZDEyNzEjMCEGCSqGSIb3DQEJARYUbm9kZTA1MjBA
b2N0YXJpbmUuZGUwgZ8wDQYJKoZIhvcNAQEBBQADgY0AMIGJAoGBANtyNy6cqpV4
+0pMfEI67m1xko7Cc8oUH+/11ZGdUzPWP5gIEpHfCt8oSsbRi1cEF5TvDiZZfcyj
pi60+akM7gKCH2ObvzQ//SGBUMkb+Yn3wV5ao7HKbIq1bjXO1gOqOXhQSag1pjCy
Iz4ZaLY2l2GbcPCv13DDSXP/UXGwjONFAgMBAAEwDQYJKoZIhvcNAQEEBQADgYEA
qmi57MpVFt7VnimN//8lZgXVFR0cy24DWIjyafQ/JhdlIITmAxJKP0jDmPk3gr/q
5o73fSo2EoCA3vE59Elkh/WTjEcO6/BsCkSfkGc0XAGaWP4UtcZu80eoah00lH4n
ZfjDnwxUGJUxHWTEWKWz/QK3QVLEL6NvL7hva/ZgBIg=
-----END CERTIFICATE-----
