Certificate:
    Data:
        Version: 1 (0x0)
        Serial Number:
            9b:27:d7:e8:d1:ba:09:10
        Signature Algorithm: md5WithRSAEncryption
        Issuer: C=DE, ST=Saarland, O=MPI-SWS, OU=Distributed Systems Group, CN=Andreas Haeberlen/emailAddress=democa@octarine.de
        Validity
            Not Before: Apr 20 20:47:10 2015 GMT
            Not After : Apr 19 20:47:10 2016 GMT
        Subject: C=DE, ST=Saarland, O=MPI-SWS, OU=Distributed Systems Group, CN=25f5ed605befe7f0509fc86ce6b6f571b7794d9a/emailAddress=node0312@octarine.de
        Subject Public Key Info:
            Public Key Algorithm: rsaEncryption
            RSA Public Key: (1024 bit)
                Modulus (1024 bit):
                    00:c4:00:5e:39:40:7c:a3:65:87:11:5a:f4:fd:25:
                    50:c3:98:e8:f2:fd:32:e9:58:ad:ea:1d:de:a9:78:
                    51:80:61:96:b2:60:56:7a:b7:cf:d9:3a:35:c9:0b:
                    9e:99:c0:e5:e3:0f:5a:27:d8:26:c8:0f:15:e6:08:
                    a6:37:81:88:53:f3:98:81:9b:47:7d:5d:52:0b:8a:
                    47:fb:b0:86:29:d0:63:bf:2a:df:46:9c:dd:0d:bc:
                    06:90:d6:2c:04:0b:e1:4e:e9:b9:23:d1:09:cf:8a:
                    71:85:80:5a:2c:41:86:67:8c:be:6c:56:1c:7b:e3:
                    09:43:5f:82:f9:9e:c7:57:c5
                Exponent: 65537 (0x10001)
    Signature Algorithm: md5WithRSAEncryption
        af:49:72:53:42:a7:9d:3e:11:6c:cd:a4:0e:72:be:61:75:a0:
        bb:99:84:7f:18:19:b1:73:ec:4e:a3:a5:41:81:b7:4e:51:5c:
        eb:f9:9d:9e:87:3b:1e:84:52:a1:d8:8c:4a:c0:29:f6:cc:e4:
        27:2e:68:88:48:da:47:2d:ed:da:5e:18:53:0f:f7:be:3a:98:
        67:80:eb:24:11:8a:d9:82:cb:49:c0:25:7b:b9:a9:49:72:64:
        69:ad:c8:30:3c:b2:08:b2:1e:a1:e4:8f:b1:72:43:e8:43:7b:
        0f:3b:8a:66:93:1e:69:f9:47:45:70:b9:5e:d3:70:6c:28:98:
        52:0e
-----BEGIN CERTIFICATE-----
MIICvDCCAiUCCQCbJ9fo0boJEDANBgkqhkiG9w0BAQQFADCBlTELMAkGA1UEBhMC
REUxETAPBgNVBAgTCFNhYXJsYW5kMRAwDgYDVQQKEwdNUEktU1dTMSIwIAYDVQQL
ExlEaXN0cmlidXRlZCBTeXN0ZW1zIEdyb3VwMRowGAYDVQQDExFBbmRyZWFzIEhh
ZWJlcmxlbjEhMB8GCSqGSIb3DQEJARYSZGVtb2NhQG9jdGFyaW5lLmRlMB4XDTE1
MDQyMDIwNDcxMFoXDTE2MDQxOTIwNDcxMFowga4xCzAJBgNVBAYTAkRFMREwDwYD
VQQIEwhTYWFybGFuZDEQMA4GA1UEChMHTVBJLVNXUzEiMCAGA1UECxMZRGlzdHJp
YnV0ZWQgU3lzdGVtcyBHcm91cDExMC8GA1UEAxMoMjVmNWVkNjA1YmVmZTdmMDUw
OWZjODZjZTZiNmY1NzFiNzc5NGQ5YTEjMCEGCSqGSIb3DQEJARYUbm9kZTAzMTJA
b2N0YXJpbmUuZGUwgZ8wDQYJKoZIhvcNAQEBBQADgY0AMIGJAoGBAMQAXjlAfKNl
hxFa9P0lUMOY6PL9MulYreod3ql4UYBhlrJgVnq3z9k6NckLnpnA5eMPWifYJsgP
FeYIpjeBiFPzmIGbR31dUguKR/uwhinQY78q30ac3Q28BpDWLAQL4U7puSPRCc+K
cYWAWixBhmeMvmxWHHvjCUNfgvmex1fFAgMBAAEwDQYJKoZIhvcNAQEEBQADgYEA
r0lyU0KnnT4RbM2kDnK+YXWgu5mEfxgZsXPsTqOlQYG3TlFc6/mdnoc7HoRSodiM
SsAp9szkJy5oiEjaRy3t2l4YUw/3vjqYZ4DrJBGK2YLLScAle7mpSXJkaa3IMDyy
CLIeoeSPsXJD6EN7DzuKZpMeaflHRXC5XtNwbCiYUg4=
-----END CERTIFICATE-----
