Certificate:
    Data:
        Version: 1 (0x0)
        Serial Number:
            9b:27:d7:e8:d1:ba:0b:3e
        Signature Algorithm: md5WithRSAEncryption
        Issuer: C=DE, ST=Saarland, O=MPI-SWS, OU=Distributed Systems Group, CN=Andreas Haeberlen/emailAddress=democa@octarine.de
        Validity
            Not Before: Apr 20 20:47:35 2015 GMT
            Not After : Apr 19 20:47:35 2016 GMT
        Subject: C=DE, ST=Saarland, O=MPI-SWS, OU=Distributed Systems Group, CN=a2458d1bea1e1ae966edffeec2316d700c599648/emailAddress=node0870@octarine.de
        Subject Public Key Info:
            Public Key Algorithm: rsaEncryption
            RSA Public Key: (1024 bit)
                Modulus (1024 bit):
                    00:c0:5b:11:33:cf:46:44:c0:14:3c:94:0f:dd:0c:
                    94:de:a9:28:d5:af:2e:8c:43:30:c0:55:43:fd:ab:
                    4a:20:a8:c7:e9:3c:51:1f:ce:99:59:d6:fe:af:c8:
                    bc:8c:59:ca:6e:ae:62:b3:6b:ac:06:8b:da:9d:4d:
                    56:1d:3f:18:a0:19:54:c2:73:2b:56:09:90:05:23:
                    1d:9f:be:e6:84:08:86:69:3b:41:cd:fb:4d:5f:7b:
                    56:78:59:58:fb:59:8f:15:32:26:31:b8:87:8f:86:
                    ea:77:b4:77:e1:3b:81:a0:6c:3f:92:6c:0e:5b:db:
                    2e:c0:e9:86:b0:a9:3a:58:07
                Exponent: 65537 (0x10001)
    Signature Algorithm: md5WithRSAEncryption
        21:62:cc:f5:13:ea:88:74:ee:86:7e:ed:0b:4a:d3:d3:52:e9:
        a7:9a:e2:cb:d0:96:74:52:e2:0b:e7:ab:ab:76:0f:d9:a1:9a:
        c0:b3:b6:6d:b1:9b:a2:a2:13:d2:6e:ca:08:eb:47:9b:32:10:
        8c:cf:0b:2a:30:de:40:30:c5:94:2c:f0:4b:52:1b:7d:be:59:
        81:45:94:27:b1:5c:61:06:f4:9e:ff:75:1a:56:b8:bc:76:d6:
        0e:f2:21:80:55:59:9a:7f:df:85:b0:bd:56:5b:b4:a9:cc:6a:
        7a:f7:fa:50:fb:fd:64:9e:47:b5:73:2c:35:b8:c4:14:b0:d1:
        eb:18
-----BEGIN CERTIFICATE-----
MIICvDCCAiUCCQCbJ9fo0boLPjANBgkqhkiG9w0BAQQFADCBlTELMAkGA1UEBhMC
REUxETAPBgNVBAgTCFNhYXJsYW5kMRAwDgYDVQQKEwdNUEktU1dTMSIwIAYDVQQL
ExlEaXN0cmlidXRlZCBTeXN0ZW1zIEdyb3VwMRowGAYDVQQDExFBbmRyZWFzIEhh
ZWJlcmxlbjEhMB8GCSqGSIb3DQEJARYSZGVtb2NhQG9jdGFyaW5lLmRlMB4XDTE1
MDQyMDIwNDczNVoXDTE2MDQxOTIwNDczNVowga4xCzAJBgNVBAYTAkRFMREwDwYD
VQQIEwhTYWFybGFuZDEQMA4GA1UEChMHTVBJLVNXUzEiMCAGA1UECxMZRGlzdHJp
YnV0ZWQgU3lzdGVtcyBHcm91cDExMC8GA1UEAxMoYTI0NThkMWJlYTFlMWFlOTY2
ZWRmZmVlYzIzMTZkNzAwYzU5OTY0ODEjMCEGCSqGSIb3DQEJARYUbm9kZTA4NzBA
b2N0YXJpbmUuZGUwgZ8wDQYJKoZIhvcNAQEBBQADgY0AMIGJAoGBAMBbETPPRkTA
FDyUD90MlN6pKNWvLoxDMMBVQ/2rSiCox+k8UR/OmVnW/q/IvIxZym6uYrNrrAaL
2p1NVh0/GKAZVMJzK1YJkAUjHZ++5oQIhmk7Qc37TV97VnhZWPtZjxUyJjG4h4+G
6ne0d+E7gaBsP5JsDlvbLsDphrCpOlgHAgMBAAEwDQYJKoZIhvcNAQEEBQADgYEA
IWLM9RPqiHTuhn7tC0rT01Lpp5riy9CWdFLiC+erq3YP2aGawLO2bbGboqIT0m7K
COtHmzIQjM8LKjDeQDDFlCzwS1Ibfb5ZgUWUJ7FcYQb0nv91Gla4vHbWDvIhgFVZ
mn/fhbC9Vlu0qcxqevf6UPv9ZJ5HtXMsNbjEFLDR6xg=
-----END CERTIFICATE-----
