Certificate:
    Data:
        Version: 1 (0x0)
        Serial Number:
            9b:27:d7:e8:d1:ba:09:17
        Signature Algorithm: md5WithRSAEncryption
        Issuer: C=DE, ST=Saarland, O=MPI-SWS, OU=Distributed Systems Group, CN=Andreas Haeberlen/emailAddress=democa@octarine.de
        Validity
            Not Before: Apr 20 20:47:10 2015 GMT
            Not After : Apr 19 20:47:10 2016 GMT
        Subject: C=DE, ST=Saarland, O=MPI-SWS, OU=Distributed Systems Group, CN=53463ff1d533647ee1db44fcf030c9e2d281272f/emailAddress=node0319@octarine.de
        Subject Public Key Info:
            Public Key Algorithm: rsaEncryption
            RSA Public Key: (1024 bit)
                Modulus (1024 bit):
                    00:c7:4c:31:3c:b4:7e:52:69:ab:df:db:0d:c5:c5:
                    03:53:d4:2e:c2:06:8a:90:44:34:57:86:94:fd:1c:
                    24:c2:2d:b5:16:79:d1:6d:bc:aa:f3:d2:80:da:52:
                    4c:15:89:53:16:b6:3b:50:15:c6:c0:e7:fc:a5:22:
                    fa:2b:a3:9f:1c:6b:ae:73:03:65:53:6f:ef:8d:2f:
                    8e:63:c0:2c:cc:a7:b3:a4:b4:9c:1e:3b:2e:fd:f2:
                    ff:04:ba:d8:b1:86:b9:6f:86:a5:ee:80:a3:46:e2:
                    64:8d:89:f2:24:d9:44:fe:dd:0a:a5:5b:e3:93:b0:
                    28:83:75:51:bb:75:96:d5:fd
                Exponent: 65537 (0x10001)
    Signature Algorithm: md5WithRSAEncryption
        41:28:92:05:b7:b9:5e:c9:37:70:2a:ee:c6:7f:68:71:9c:7c:
        e2:e9:ef:07:ab:15:6c:23:18:f3:44:e3:10:2f:95:ac:d9:b0:
        d0:dd:5f:e0:34:ff:4e:9e:7f:87:97:c0:5c:f0:3d:f7:70:7e:
        58:46:b0:16:ac:3a:d3:85:e0:6c:84:76:ab:40:6c:5a:22:ec:
        5d:e6:d7:19:c8:b0:f4:7d:f5:6f:ac:cd:4b:a7:24:c0:98:7d:
        9b:a0:29:c0:14:b5:bc:78:f4:d6:16:eb:9a:13:ee:69:3b:0c:
        92:c9:ce:70:d1:5d:f9:cb:9e:76:bc:79:75:03:11:fe:e3:00:
        45:0d
-----BEGIN CERTIFICATE-----
MIICvDCCAiUCCQCbJ9fo0boJFzANBgkqhkiG9w0BAQQFADCBlTELMAkGA1UEBhMC
REUxETAPBgNVBAgTCFNhYXJsYW5kMRAwDgYDVQQKEwdNUEktU1dTMSIwIAYDVQQL
ExlEaXN0cmlidXRlZCBTeXN0ZW1zIEdyb3VwMRowGAYDVQQDExFBbmRyZWFzIEhh
ZWJlcmxlbjEhMB8GCSqGSIb3DQEJARYSZGVtb2NhQG9jdGFyaW5lLmRlMB4XDTE1
MDQyMDIwNDcxMFoXDTE2MDQxOTIwNDcxMFowga4xCzAJBgNVBAYTAkRFMREwDwYD
VQQIEwhTYWFybGFuZDEQMA4GA1UEChMHTVBJLVNXUzEiMCAGA1UECxMZRGlzdHJp
YnV0ZWQgU3lzdGVtcyBHcm91cDExMC8GA1UEAxMoNTM0NjNmZjFkNTMzNjQ3ZWUx
ZGI0NGZjZjAzMGM5ZTJkMjgxMjcyZjEjMCEGCSqGSIb3DQEJARYUbm9kZTAzMTlA
b2N0YXJpbmUuZGUwgZ8wDQYJKoZIhvcNAQEBBQADgY0AMIGJAoGBAMdMMTy0flJp
q9/bDcXFA1PULsIGipBENFeGlP0cJMIttRZ50W28qvPSgNpSTBWJUxa2O1AVxsDn
/KUi+iujnxxrrnMDZVNv740vjmPALMyns6S0nB47Lv3y/wS62LGGuW+Gpe6Ao0bi
ZI2J8iTZRP7dCqVb45OwKIN1Ubt1ltX9AgMBAAEwDQYJKoZIhvcNAQEEBQADgYEA
QSiSBbe5Xsk3cCruxn9ocZx84unvB6sVbCMY80TjEC+VrNmw0N1f4DT/Tp5/h5fA
XPA993B+WEawFqw604XgbIR2q0BsWiLsXebXGciw9H31b6zNS6ckwJh9m6ApwBS1
vHj01hbrmhPuaTsMksnOcNFd+cuedrx5dQMR/uMARQ0=
-----END CERTIFICATE-----
