Certificate:
    Data:
        Version: 1 (0x0)
        Serial Number:
            9b:27:d7:e8:d1:ba:09:b6
        Signature Algorithm: md5WithRSAEncryption
        Issuer: C=DE, ST=Saarland, O=MPI-SWS, OU=Distributed Systems Group, CN=Andreas Haeberlen/emailAddress=democa@octarine.de
        Validity
            Not Before: Apr 20 20:47:17 2015 GMT
            Not After : Apr 19 20:47:17 2016 GMT
        Subject: C=DE, ST=Saarland, O=MPI-SWS, OU=Distributed Systems Group, CN=6a90dcf8d610b7334bbaab4e983ea6a0140e007e/emailAddress=node0478@octarine.de
        Subject Public Key Info:
            Public Key Algorithm: rsaEncryption
            RSA Public Key: (1024 bit)
                Modulus (1024 bit):
                    00:d2:99:5a:8e:9a:81:4d:a8:ec:a7:3f:00:c7:40:
                    3f:f9:02:f6:f4:00:98:d3:97:c8:cc:53:41:69:e4:
                    c2:f2:23:c2:dc:51:c2:81:a5:72:b6:89:aa:98:71:
                    33:b8:0b:aa:b6:cb:71:0f:9c:63:69:18:09:0e:46:
                    d8:bc:b2:d3:0e:64:d6:fd:37:64:fb:f5:98:14:7c:
                    c4:25:58:00:11:de:b8:c4:a8:9b:6a:b3:61:b4:5b:
                    dc:70:99:c2:37:7c:4e:9b:b1:ea:35:cb:05:ed:1d:
                    8f:03:e3:2c:8e:b2:ce:1b:39:35:fc:bf:ca:bb:5d:
                    b6:00:ee:84:51:7e:08:24:af
                Exponent: 65537 (0x10001)
    Signature Algorithm: md5WithRSAEncryption
        a1:22:ad:3a:71:b7:44:a4:e0:64:91:53:34:7c:31:a0:62:8c:
        3d:39:f8:6a:6d:77:4f:03:4d:3e:59:b9:54:c3:5d:b4:0e:a4:
        4c:fc:bb:35:0f:d9:a6:78:3e:70:40:62:d5:d0:5d:dd:58:4e:
        c6:8e:ad:1d:6f:d6:e3:fe:5f:25:45:c8:b4:9c:16:be:7a:ea:
        9a:13:4c:09:3e:c6:07:fe:5b:7f:cc:ad:67:39:12:eb:90:f7:
        93:ee:4e:c6:93:c4:03:eb:01:f4:08:d4:9e:9e:b0:a4:b3:31:
        f3:7f:27:99:ed:5a:2c:7a:e2:c6:a8:25:98:2e:a8:a8:90:bf:
        00:a1
-----BEGIN CERTIFICATE-----
MIICvDCCAiUCCQCbJ9fo0boJtjANBgkqhkiG9w0BAQQFADCBlTELMAkGA1UEBhMC
REUxETAPBgNVBAgTCFNhYXJsYW5kMRAwDgYDVQQKEwdNUEktU1dTMSIwIAYDVQQL
ExlEaXN0cmlidXRlZCBTeXN0ZW1zIEdyb3VwMRowGAYDVQQDExFBbmRyZWFzIEhh
ZWJlcmxlbjEhMB8GCSqGSIb3DQEJARYSZGVtb2NhQG9jdGFyaW5lLmRlMB4XDTE1
MDQyMDIwNDcxN1oXDTE2MDQxOTIwNDcxN1owga4xCzAJBgNVBAYTAkRFMREwDwYD
VQQIEwhTYWFybGFuZDEQMA4GA1UEChMHTVBJLVNXUzEiMCAGA1UECxMZRGlzdHJp
YnV0ZWQgU3lzdGVtcyBHcm91cDExMC8GA1UEAxMoNmE5MGRjZjhkNjEwYjczMzRi
YmFhYjRlOTgzZWE2YTAxNDBlMDA3ZTEjMCEGCSqGSIb3DQEJARYUbm9kZTA0NzhA
b2N0YXJpbmUuZGUwgZ8wDQYJKoZIhvcNAQEBBQADgY0AMIGJAoGBANKZWo6agU2o
7Kc/AMdAP/kC9vQAmNOXyMxTQWnkwvIjwtxRwoGlcraJqphxM7gLqrbLcQ+cY2kY
CQ5G2Lyy0w5k1v03ZPv1mBR8xCVYABHeuMSom2qzYbRb3HCZwjd8Tpux6jXLBe0d
jwPjLI6yzhs5Nfy/yrtdtgDuhFF+CCSvAgMBAAEwDQYJKoZIhvcNAQEEBQADgYEA
oSKtOnG3RKTgZJFTNHwxoGKMPTn4am13TwNNPlm5VMNdtA6kTPy7NQ/Zpng+cEBi
1dBd3VhOxo6tHW/W4/5fJUXItJwWvnrqmhNMCT7GB/5bf8ytZzkS65D3k+5OxpPE
A+sB9AjUnp6wpLMx838nme1aLHrixqglmC6oqJC/AKE=
-----END CERTIFICATE-----
