Certificate:
    Data:
        Version: 1 (0x0)
        Serial Number:
            9b:27:d7:e8:d1:ba:0a:16
        Signature Algorithm: md5WithRSAEncryption
        Issuer: C=DE, ST=Saarland, O=MPI-SWS, OU=Distributed Systems Group, CN=Andreas Haeberlen/emailAddress=democa@octarine.de
        Validity
            Not Before: Apr 20 20:47:22 2015 GMT
            Not After : Apr 19 20:47:22 2016 GMT
        Subject: C=DE, ST=Saarland, O=MPI-SWS, OU=Distributed Systems Group, CN=d2f50f05374896edd0f075b52575c2d95de5cfb0/emailAddress=node0574@octarine.de
        Subject Public Key Info:
            Public Key Algorithm: rsaEncryption
            RSA Public Key: (1024 bit)
                Modulus (1024 bit):
                    00:bb:ec:bb:37:2a:9e:e0:05:9d:aa:d6:c0:fa:3c:
                    e7:6f:d2:0c:98:34:81:d2:8d:3a:b8:bf:e1:bf:f8:
                    82:13:61:12:53:c1:7f:e6:6c:ad:32:d8:82:61:f4:
                    46:9b:04:56:8b:29:39:e8:b4:ee:18:b6:f0:ea:af:
                    d9:0a:5c:72:89:a4:a0:22:74:2f:dd:7f:d6:fc:5c:
                    3a:2c:89:50:01:aa:54:fc:7f:02:9c:04:75:e4:92:
                    c8:f4:4c:91:fe:bc:12:73:91:46:c8:a1:2b:77:3c:
                    6b:e1:94:fe:c2:fa:92:4d:b3:d7:4b:9b:6e:31:5d:
                    e3:9b:fd:09:3a:cf:f2:04:db
                Exponent: 65537 (0x10001)
    Signature Algorithm: md5WithRSAEncryption
        2a:6b:cd:c0:3d:dc:b7:da:b9:6b:c8:ef:6f:9a:c9:5e:bd:5c:
        33:c8:90:70:6f:01:4d:30:ef:a1:84:e1:5e:d8:10:95:41:56:
        47:ba:2d:ce:49:bd:f3:14:51:17:8a:b6:0b:b5:16:46:46:70:
        a3:c8:b5:a4:35:ae:60:01:83:11:9c:4f:ca:82:0c:1b:07:92:
        35:e0:53:2e:b3:a3:69:e8:ff:32:d3:7a:e0:ef:66:c7:0c:43:
        f9:57:2c:42:be:03:c4:64:1b:c1:54:4d:05:d2:64:02:d3:45:
        81:28:7d:f2:b4:8a:19:6c:98:64:d9:5a:3f:0a:7d:90:9e:4a:
        f1:bd
-----BEGIN CERTIFICATE-----
MIICvDCCAiUCCQCbJ9fo0boKFjANBgkqhkiG9w0BAQQFADCBlTELMAkGA1UEBhMC
REUxETAPBgNVBAgTCFNhYXJsYW5kMRAwDgYDVQQKEwdNUEktU1dTMSIwIAYDVQQL
ExlEaXN0cmlidXRlZCBTeXN0ZW1zIEdyb3VwMRowGAYDVQQDExFBbmRyZWFzIEhh
ZWJlcmxlbjEhMB8GCSqGSIb3DQEJARYSZGVtb2NhQG9jdGFyaW5lLmRlMB4XDTE1
MDQyMDIwNDcyMloXDTE2MDQxOTIwNDcyMlowga4xCzAJBgNVBAYTAkRFMREwDwYD
VQQIEwhTYWFybGFuZDEQMA4GA1UEChMHTVBJLVNXUzEiMCAGA1UECxMZRGlzdHJp
YnV0ZWQgU3lzdGVtcyBHcm91cDExMC8GA1UEAxMoZDJmNTBmMDUzNzQ4OTZlZGQw
ZjA3NWI1MjU3NWMyZDk1ZGU1Y2ZiMDEjMCEGCSqGSIb3DQEJARYUbm9kZTA1NzRA
b2N0YXJpbmUuZGUwgZ8wDQYJKoZIhvcNAQEBBQADgY0AMIGJAoGBALvsuzcqnuAF
narWwPo852/SDJg0gdKNOri/4b/4ghNhElPBf+ZsrTLYgmH0RpsEVospOei07hi2
8Oqv2QpccomkoCJ0L91/1vxcOiyJUAGqVPx/ApwEdeSSyPRMkf68EnORRsihK3c8
a+GU/sL6kk2z10ubbjFd45v9CTrP8gTbAgMBAAEwDQYJKoZIhvcNAQEEBQADgYEA
KmvNwD3ct9q5a8jvb5rJXr1cM8iQcG8BTTDvoYThXtgQlUFWR7otzkm98xRRF4q2
C7UWRkZwo8i1pDWuYAGDEZxPyoIMGweSNeBTLrOjaej/MtN64O9mxwxD+VcsQr4D
xGQbwVRNBdJkAtNFgSh98rSKGWyYZNlaPwp9kJ5K8b0=
-----END CERTIFICATE-----
