Certificate:
    Data:
        Version: 1 (0x0)
        Serial Number:
            9b:27:d7:e8:d1:ba:0b:4a
        Signature Algorithm: md5WithRSAEncryption
        Issuer: C=DE, ST=Saarland, O=MPI-SWS, OU=Distributed Systems Group, CN=Andreas Haeberlen/emailAddress=democa@octarine.de
        Validity
            Not Before: Apr 20 20:47:36 2015 GMT
            Not After : Apr 19 20:47:36 2016 GMT
        Subject: C=DE, ST=Saarland, O=MPI-SWS, OU=Distributed Systems Group, CN=5435969a8a5884fdd5de857f596a8badfd283c3c/emailAddress=node0882@octarine.de
        Subject Public Key Info:
            Public Key Algorithm: rsaEncryption
            RSA Public Key: (1024 bit)
                Modulus (1024 bit):
                    00:9d:d9:c4:99:e5:25:c9:ab:8e:57:67:1b:27:21:
                    75:a0:b6:86:af:11:96:ca:40:34:1d:0e:9c:f5:36:
                    86:56:13:d8:c8:dd:b0:5d:ae:95:dc:8f:98:78:c1:
                    d1:c9:a8:4e:ea:30:be:ce:33:5f:b0:20:8b:6e:0e:
                    39:71:30:21:1a:33:8b:a1:9a:2c:b8:0d:cb:c5:ef:
                    d6:15:23:9e:0f:39:57:66:5c:ab:41:97:f1:0b:01:
                    a3:ec:8f:30:43:7b:92:86:c4:16:55:e5:36:3e:e4:
                    ce:43:00:72:06:36:e6:58:67:01:b3:4f:87:63:ae:
                    d8:7f:cb:2d:b6:3a:92:ec:23
                Exponent: 65537 (0x10001)
    Signature Algorithm: md5WithRSAEncryption
        44:e5:f8:dc:e1:b0:7d:f4:2f:ed:bb:a9:97:d6:aa:75:59:23:
        e9:5b:02:af:c9:26:41:7f:fd:86:19:b2:1c:84:c0:ae:7e:35:
        4b:37:a7:2a:fe:d6:c1:13:3d:ed:16:e6:b0:46:a8:7e:77:b0:
        37:98:b5:6b:3c:f2:26:88:53:d8:a3:cb:b3:ff:bd:67:e6:aa:
        92:ad:42:2c:45:a3:75:e6:8c:c3:37:1a:4f:a9:e3:37:94:29:
        9b:9a:fe:89:fa:a6:c1:7b:fb:6a:54:a8:24:f8:8b:b8:9e:75:
        e6:df:ef:e3:26:46:e8:5c:0e:ad:fd:37:db:04:0f:7f:08:f2:
        56:45
-----BEGIN CERTIFICATE-----
MIICvDCCAiUCCQCbJ9fo0boLSjANBgkqhkiG9w0BAQQFADCBlTELMAkGA1UEBhMC
REUxETAPBgNVBAgTCFNhYXJsYW5kMRAwDgYDVQQKEwdNUEktU1dTMSIwIAYDVQQL
ExlEaXN0cmlidXRlZCBTeXN0ZW1zIEdyb3VwMRowGAYDVQQDExFBbmRyZWFzIEhh
ZWJlcmxlbjEhMB8GCSqGSIb3DQEJARYSZGVtb2NhQG9jdGFyaW5lLmRlMB4XDTE1
MDQyMDIwNDczNloXDTE2MDQxOTIwNDczNlowga4xCzAJBgNVBAYTAkRFMREwDwYD
VQQIEwhTYWFybGFuZDEQMA4GA1UEChMHTVBJLVNXUzEiMCAGA1UECxMZRGlzdHJp
YnV0ZWQgU3lzdGVtcyBHcm91cDExMC8GA1UEAxMoNTQzNTk2OWE4YTU4ODRmZGQ1
ZGU4NTdmNTk2YThiYWRmZDI4M2MzYzEjMCEGCSqGSIb3DQEJARYUbm9kZTA4ODJA
b2N0YXJpbmUuZGUwgZ8wDQYJKoZIhvcNAQEBBQADgY0AMIGJAoGBAJ3ZxJnlJcmr
jldnGychdaC2hq8RlspANB0OnPU2hlYT2MjdsF2uldyPmHjB0cmoTuowvs4zX7Ag
i24OOXEwIRozi6GaLLgNy8Xv1hUjng85V2Zcq0GX8QsBo+yPMEN7kobEFlXlNj7k
zkMAcgY25lhnAbNPh2Ou2H/LLbY6kuwjAgMBAAEwDQYJKoZIhvcNAQEEBQADgYEA
ROX43OGwffQv7bupl9aqdVkj6VsCr8kmQX/9hhmyHITArn41SzenKv7WwRM97Rbm
sEaofnewN5i1azzyJohT2KPLs/+9Z+aqkq1CLEWjdeaMwzcaT6njN5Qpm5r+ifqm
wXv7alSoJPiLuJ515t/v4yZG6FwOrf032wQPfwjyVkU=
-----END CERTIFICATE-----
