Certificate:
    Data:
        Version: 1 (0x0)
        Serial Number:
            9b:27:d7:e8:d1:ba:0b:08
        Signature Algorithm: md5WithRSAEncryption
        Issuer: C=DE, ST=Saarland, O=MPI-SWS, OU=Distributed Systems Group, CN=Andreas Haeberlen/emailAddress=democa@octarine.de
        Validity
            Not Before: Apr 20 20:47:33 2015 GMT
            Not After : Apr 19 20:47:33 2016 GMT
        Subject: C=DE, ST=Saarland, O=MPI-SWS, OU=Distributed Systems Group, CN=6e8c396b0cb56e652706ed09c356785e6db97157/emailAddress=node0816@octarine.de
        Subject Public Key Info:
            Public Key Algorithm: rsaEncryption
            RSA Public Key: (1024 bit)
                Modulus (1024 bit):
                    00:b1:f8:d6:02:23:54:a6:35:5c:db:ca:4a:74:b4:
                    3c:86:ae:cb:9e:e2:f6:cc:6a:40:eb:1d:d1:32:7e:
                    4c:8e:99:1f:7e:dd:a0:46:98:f4:ea:0d:36:20:5f:
                    22:2a:21:0a:f0:4d:f1:0a:82:bb:59:d2:93:9f:6a:
                    71:ce:09:10:46:47:07:dc:a2:56:73:e4:39:03:73:
                    7b:d5:93:16:ae:7b:75:00:22:8d:7b:ea:83:a2:9f:
                    d6:e6:c6:77:8c:ff:ed:eb:bb:4a:7b:05:11:4d:40:
                    34:d7:be:d9:03:11:f5:bf:83:52:b2:9a:74:af:4a:
                    ee:3d:72:9b:5b:4d:6d:cf:b1
                Exponent: 65537 (0x10001)
    Signature Algorithm: md5WithRSAEncryption
        ae:74:33:63:dd:db:af:4f:e8:38:10:f2:63:c7:de:22:32:1c:
        97:65:cb:b6:20:bc:e5:78:1a:07:54:78:0b:33:3f:3c:dd:23:
        fa:92:4f:d2:43:c5:1f:65:d9:ca:b2:58:aa:a2:c7:0a:19:a6:
        cb:18:a6:06:d2:23:c7:d9:aa:87:29:f8:74:ec:05:67:fa:37:
        bf:63:9c:e0:82:79:05:a2:60:61:06:7e:d0:13:0c:37:a3:6d:
        8f:bb:95:ce:5e:66:49:18:d8:ea:10:3a:8b:aa:ec:46:de:fd:
        17:35:53:a5:b8:11:25:00:33:93:76:35:0d:bf:7b:87:9b:48:
        b9:58
-----BEGIN CERTIFICATE-----
MIICvDCCAiUCCQCbJ9fo0boLCDANBgkqhkiG9w0BAQQFADCBlTELMAkGA1UEBhMC
REUxETAPBgNVBAgTCFNhYXJsYW5kMRAwDgYDVQQKEwdNUEktU1dTMSIwIAYDVQQL
ExlEaXN0cmlidXRlZCBTeXN0ZW1zIEdyb3VwMRowGAYDVQQDExFBbmRyZWFzIEhh
ZWJlcmxlbjEhMB8GCSqGSIb3DQEJARYSZGVtb2NhQG9jdGFyaW5lLmRlMB4XDTE1
MDQyMDIwNDczM1oXDTE2MDQxOTIwNDczM1owga4xCzAJBgNVBAYTAkRFMREwDwYD
VQQIEwhTYWFybGFuZDEQMA4GA1UEChMHTVBJLVNXUzEiMCAGA1UECxMZRGlzdHJp
YnV0ZWQgU3lzdGVtcyBHcm91cDExMC8GA1UEAxMoNmU4YzM5NmIwY2I1NmU2NTI3
MDZlZDA5YzM1Njc4NWU2ZGI5NzE1NzEjMCEGCSqGSIb3DQEJARYUbm9kZTA4MTZA
b2N0YXJpbmUuZGUwgZ8wDQYJKoZIhvcNAQEBBQADgY0AMIGJAoGBALH41gIjVKY1
XNvKSnS0PIauy57i9sxqQOsd0TJ+TI6ZH37doEaY9OoNNiBfIiohCvBN8QqCu1nS
k59qcc4JEEZHB9yiVnPkOQNze9WTFq57dQAijXvqg6Kf1ubGd4z/7eu7SnsFEU1A
NNe+2QMR9b+DUrKadK9K7j1ym1tNbc+xAgMBAAEwDQYJKoZIhvcNAQEEBQADgYEA
rnQzY93br0/oOBDyY8feIjIcl2XLtiC85XgaB1R4CzM/PN0j+pJP0kPFH2XZyrJY
qqLHChmmyximBtIjx9mqhyn4dOwFZ/o3v2Oc4IJ5BaJgYQZ+0BMMN6Ntj7uVzl5m
SRjY6hA6i6rsRt79FzVTpbgRJQAzk3Y1Db97h5tIuVg=
-----END CERTIFICATE-----
