Certificate:
    Data:
        Version: 1 (0x0)
        Serial Number:
            9b:27:d7:e8:d1:ba:0b:5a
        Signature Algorithm: md5WithRSAEncryption
        Issuer: C=DE, ST=Saarland, O=MPI-SWS, OU=Distributed Systems Group, CN=Andreas Haeberlen/emailAddress=democa@octarine.de
        Validity
            Not Before: Apr 20 20:47:37 2015 GMT
            Not After : Apr 19 20:47:37 2016 GMT
        Subject: C=DE, ST=Saarland, O=MPI-SWS, OU=Distributed Systems Group, CN=c7be8715de842c24beaa6720270461d38811036d/emailAddress=node0898@octarine.de
        Subject Public Key Info:
            Public Key Algorithm: rsaEncryption
            RSA Public Key: (1024 bit)
                Modulus (1024 bit):
                    00:a8:71:9c:d7:18:dc:09:da:e9:95:11:b1:61:3f:
                    fb:b5:7a:08:63:d9:05:fd:69:5d:4e:2b:13:10:8d:
                    aa:a8:9e:aa:6b:bb:94:5e:02:97:83:27:ef:3d:32:
                    cd:d6:61:e4:11:6b:0b:bb:a5:47:a7:48:ad:b7:db:
                    21:b6:7e:a5:ac:fc:fe:00:98:57:8a:0e:bc:e5:0b:
                    53:3c:3e:d7:92:a8:80:4c:f7:ea:eb:1f:83:d0:0b:
                    09:44:14:3e:1e:72:af:f7:16:42:c5:fc:24:e7:93:
                    45:b9:82:b1:d7:d3:5d:2f:79:66:0d:0d:5d:94:03:
                    2b:de:06:2e:2d:f1:89:70:ff
                Exponent: 65537 (0x10001)
    Signature Algorithm: md5WithRSAEncryption
        38:5d:bd:03:a9:fb:04:a3:93:b5:fe:b1:80:dc:ae:4f:2c:8f:
        ba:dc:e3:dc:3e:17:ef:c0:09:a9:ab:6b:4c:ee:56:45:d3:7a:
        d1:5e:22:30:b3:ee:bb:bc:cf:41:92:7c:1b:46:e1:71:98:26:
        c4:69:ef:69:01:97:09:43:f6:fe:9a:43:cc:b5:67:d1:86:6b:
        f8:f1:cf:00:5a:21:c4:6f:08:d0:06:6c:7f:48:75:96:7a:de:
        6b:19:6c:68:69:a0:cc:a9:55:c2:99:da:7e:7d:4e:0b:1c:bc:
        ac:b6:8a:08:36:a6:19:45:0e:b2:8a:6e:1f:93:57:63:79:12:
        49:e5
-----BEGIN CERTIFICATE-----
MIICvDCCAiUCCQCbJ9fo0boLWjANBgkqhkiG9w0BAQQFADCBlTELMAkGA1UEBhMC
REUxETAPBgNVBAgTCFNhYXJsYW5kMRAwDgYDVQQKEwdNUEktU1dTMSIwIAYDVQQL
ExlEaXN0cmlidXRlZCBTeXN0ZW1zIEdyb3VwMRowGAYDVQQDExFBbmRyZWFzIEhh
ZWJlcmxlbjEhMB8GCSqGSIb3DQEJARYSZGVtb2NhQG9jdGFyaW5lLmRlMB4XDTE1
MDQyMDIwNDczN1oXDTE2MDQxOTIwNDczN1owga4xCzAJBgNVBAYTAkRFMREwDwYD
VQQIEwhTYWFybGFuZDEQMA4GA1UEChMHTVBJLVNXUzEiMCAGA1UECxMZRGlzdHJp
YnV0ZWQgU3lzdGVtcyBHcm91cDExMC8GA1UEAxMoYzdiZTg3MTVkZTg0MmMyNGJl
YWE2NzIwMjcwNDYxZDM4ODExMDM2ZDEjMCEGCSqGSIb3DQEJARYUbm9kZTA4OThA
b2N0YXJpbmUuZGUwgZ8wDQYJKoZIhvcNAQEBBQADgY0AMIGJAoGBAKhxnNcY3Ana
6ZURsWE/+7V6CGPZBf1pXU4rExCNqqieqmu7lF4Cl4Mn7z0yzdZh5BFrC7ulR6dI
rbfbIbZ+paz8/gCYV4oOvOULUzw+15KogEz36usfg9ALCUQUPh5yr/cWQsX8JOeT
RbmCsdfTXS95Zg0NXZQDK94GLi3xiXD/AgMBAAEwDQYJKoZIhvcNAQEEBQADgYEA
OF29A6n7BKOTtf6xgNyuTyyPutzj3D4X78AJqatrTO5WRdN60V4iMLPuu7zPQZJ8
G0bhcZgmxGnvaQGXCUP2/ppDzLVn0YZr+PHPAFohxG8I0AZsf0h1lnreaxlsaGmg
zKlVwpnafn1OCxy8rLaKCDamGUUOsopuH5NXY3kSSeU=
-----END CERTIFICATE-----
