Certificate:
    Data:
        Version: 1 (0x0)
        Serial Number:
            9b:27:d7:e8:d1:ba:0b:5d
        Signature Algorithm: md5WithRSAEncryption
        Issuer: C=DE, ST=Saarland, O=MPI-SWS, OU=Distributed Systems Group, CN=Andreas Haeberlen/emailAddress=democa@octarine.de
        Validity
            Not Before: Apr 20 20:47:37 2015 GMT
            Not After : Apr 19 20:47:37 2016 GMT
        Subject: C=DE, ST=Saarland, O=MPI-SWS, OU=Distributed Systems Group, CN=496de3f959f4a1e35e92c0d8e160c0e1a5f89e1e/emailAddress=node0901@octarine.de
        Subject Public Key Info:
            Public Key Algorithm: rsaEncryption
            RSA Public Key: (1024 bit)
                Modulus (1024 bit):
                    00:bd:e0:c7:fa:cf:bf:ed:74:22:ed:71:5e:86:f7:
                    e2:07:e6:7e:ff:1d:8c:44:43:42:96:18:49:bf:5e:
                    59:c1:fa:1c:aa:8c:79:92:64:59:3f:72:3b:a5:fc:
                    83:19:27:06:7e:23:67:68:99:71:37:90:61:4c:c6:
                    1f:b2:2c:04:f9:90:dd:d6:dc:c8:65:bf:1a:03:a3:
                    57:a2:fe:c7:ca:bb:ea:22:a0:bc:3b:c6:af:a0:25:
                    43:c7:6d:fe:06:2b:4c:08:4b:cc:2b:69:9d:15:b3:
                    a1:fb:68:af:6a:1a:67:9e:09:d5:83:47:b5:00:be:
                    cb:b7:28:1c:20:59:c2:05:3f
                Exponent: 65537 (0x10001)
    Signature Algorithm: md5WithRSAEncryption
        22:6e:78:05:95:d9:a8:e2:75:12:42:85:8c:4d:ac:91:ce:ec:
        f7:92:24:15:fe:e8:0e:5d:78:16:5d:8f:f4:23:fa:9c:9a:06:
        aa:8f:c2:5e:26:14:01:26:c7:d1:fc:f8:dd:96:d7:7b:f7:a1:
        00:2b:e0:e5:f1:10:e5:8e:76:b5:2b:1c:82:52:2c:4c:2b:c9:
        e1:42:a0:d7:3e:e4:90:8b:30:3b:39:81:c7:4e:e7:c1:59:a3:
        69:63:e6:d3:42:25:56:36:4d:e3:fd:57:5c:98:99:fe:a0:84:
        6e:70:30:f2:9a:db:ce:91:f4:6b:39:95:b3:69:77:c5:da:b3:
        8b:a2
-----BEGIN CERTIFICATE-----
MIICvDCCAiUCCQCbJ9fo0boLXTANBgkqhkiG9w0BAQQFADCBlTELMAkGA1UEBhMC
REUxETAPBgNVBAgTCFNhYXJsYW5kMRAwDgYDVQQKEwdNUEktU1dTMSIwIAYDVQQL
ExlEaXN0cmlidXRlZCBTeXN0ZW1zIEdyb3VwMRowGAYDVQQDExFBbmRyZWFzIEhh
ZWJlcmxlbjEhMB8GCSqGSIb3DQEJARYSZGVtb2NhQG9jdGFyaW5lLmRlMB4XDTE1
MDQyMDIwNDczN1oXDTE2MDQxOTIwNDczN1owga4xCzAJBgNVBAYTAkRFMREwDwYD
VQQIEwhTYWFybGFuZDEQMA4GA1UEChMHTVBJLVNXUzEiMCAGA1UECxMZRGlzdHJp
YnV0ZWQgU3lzdGVtcyBHcm91cDExMC8GA1UEAxMoNDk2ZGUzZjk1OWY0YTFlMzVl
OTJjMGQ4ZTE2MGMwZTFhNWY4OWUxZTEjMCEGCSqGSIb3DQEJARYUbm9kZTA5MDFA
b2N0YXJpbmUuZGUwgZ8wDQYJKoZIhvcNAQEBBQADgY0AMIGJAoGBAL3gx/rPv+10
Iu1xXob34gfmfv8djERDQpYYSb9eWcH6HKqMeZJkWT9yO6X8gxknBn4jZ2iZcTeQ
YUzGH7IsBPmQ3dbcyGW/GgOjV6L+x8q76iKgvDvGr6AlQ8dt/gYrTAhLzCtpnRWz
oftor2oaZ54J1YNHtQC+y7coHCBZwgU/AgMBAAEwDQYJKoZIhvcNAQEEBQADgYEA
Im54BZXZqOJ1EkKFjE2skc7s95IkFf7oDl14Fl2P9CP6nJoGqo/CXiYUASbH0fz4
3ZbXe/ehACvg5fEQ5Y52tSscglIsTCvJ4UKg1z7kkIswOzmBx07nwVmjaWPm00Il
VjZN4/1XXJiZ/qCEbnAw8prbzpH0azmVs2l3xdqzi6I=
-----END CERTIFICATE-----
