Certificate:
    Data:
        Version: 1 (0x0)
        Serial Number:
            9b:27:d7:e8:d1:ba:09:cb
        Signature Algorithm: md5WithRSAEncryption
        Issuer: C=DE, ST=Saarland, O=MPI-SWS, OU=Distributed Systems Group, CN=Andreas Haeberlen/emailAddress=democa@octarine.de
        Validity
            Not Before: Apr 20 20:47:18 2015 GMT
            Not After : Apr 19 20:47:18 2016 GMT
        Subject: C=DE, ST=Saarland, O=MPI-SWS, OU=Distributed Systems Group, CN=eb8c508bf6a978b01900abb339f73242ede3d6fc/emailAddress=node0499@octarine.de
        Subject Public Key Info:
            Public Key Algorithm: rsaEncryption
            RSA Public Key: (1024 bit)
                Modulus (1024 bit):
                    00:c2:fa:8a:8f:8a:7d:06:a9:49:a2:e2:74:58:39:
                    80:e8:45:0b:7a:43:7d:34:8c:da:3c:ce:15:58:94:
                    18:50:d4:1b:7e:a9:60:f0:0f:f1:7e:0f:72:90:c7:
                    91:a7:11:f0:59:f7:ce:91:69:88:4b:69:89:d3:f9:
                    1a:55:1a:48:0c:f7:6c:d7:68:4e:f8:13:b6:94:19:
                    13:7d:37:26:d5:40:ca:77:ae:16:f1:d4:1e:a2:98:
                    cf:71:64:46:f6:fd:9d:f3:59:44:f1:d3:b5:4a:14:
                    d4:ec:6a:e5:91:37:a5:64:29:ca:7d:d9:83:93:5c:
                    2a:b4:22:59:7f:23:71:59:33
                Exponent: 65537 (0x10001)
    Signature Algorithm: md5WithRSAEncryption
        a2:a2:70:ca:59:44:2e:79:c4:80:86:ef:a6:ff:8d:ad:60:9c:
        2c:3a:d3:f1:2b:a1:00:48:62:b8:1b:23:19:15:c8:d7:a1:3b:
        4a:21:bb:61:5f:cc:3b:de:7e:a7:c2:53:23:62:7e:60:5e:f6:
        b8:b9:d0:57:d6:71:1f:53:f3:3d:a9:a6:f0:7c:cc:6b:2a:c9:
        87:6d:fd:1f:66:6e:3e:0a:e9:17:ce:ea:55:a8:b9:83:98:8d:
        ee:7b:9e:75:7d:dc:2b:9d:7b:a9:36:7d:f2:0c:08:24:3f:d0:
        be:2b:7d:ea:37:11:d3:71:c1:9d:37:49:ec:c4:a0:2d:12:0a:
        9f:e8
-----BEGIN CERTIFICATE-----
MIICvDCCAiUCCQCbJ9fo0boJyzANBgkqhkiG9w0BAQQFADCBlTELMAkGA1UEBhMC
REUxETAPBgNVBAgTCFNhYXJsYW5kMRAwDgYDVQQKEwdNUEktU1dTMSIwIAYDVQQL
ExlEaXN0cmlidXRlZCBTeXN0ZW1zIEdyb3VwMRowGAYDVQQDExFBbmRyZWFzIEhh
ZWJlcmxlbjEhMB8GCSqGSIb3DQEJARYSZGVtb2NhQG9jdGFyaW5lLmRlMB4XDTE1
MDQyMDIwNDcxOFoXDTE2MDQxOTIwNDcxOFowga4xCzAJBgNVBAYTAkRFMREwDwYD
VQQIEwhTYWFybGFuZDEQMA4GA1UEChMHTVBJLVNXUzEiMCAGA1UECxMZRGlzdHJp
YnV0ZWQgU3lzdGVtcyBHcm91cDExMC8GA1UEAxMoZWI4YzUwOGJmNmE5NzhiMDE5
MDBhYmIzMzlmNzMyNDJlZGUzZDZmYzEjMCEGCSqGSIb3DQEJARYUbm9kZTA0OTlA
b2N0YXJpbmUuZGUwgZ8wDQYJKoZIhvcNAQEBBQADgY0AMIGJAoGBAML6io+KfQap
SaLidFg5gOhFC3pDfTSM2jzOFViUGFDUG36pYPAP8X4PcpDHkacR8Fn3zpFpiEtp
idP5GlUaSAz3bNdoTvgTtpQZE303JtVAyneuFvHUHqKYz3FkRvb9nfNZRPHTtUoU
1Oxq5ZE3pWQpyn3Zg5NcKrQiWX8jcVkzAgMBAAEwDQYJKoZIhvcNAQEEBQADgYEA
oqJwyllELnnEgIbvpv+NrWCcLDrT8SuhAEhiuBsjGRXI16E7SiG7YV/MO95+p8JT
I2J+YF72uLnQV9ZxH1PzPamm8HzMayrJh239H2ZuPgrpF87qVai5g5iN7nuedX3c
K517qTZ98gwIJD/Qvit96jcR03HBnTdJ7MSgLRIKn+g=
-----END CERTIFICATE-----
