Certificate:
    Data:
        Version: 1 (0x0)
        Serial Number:
            9b:27:d7:e8:d1:ba:09:04
        Signature Algorithm: md5WithRSAEncryption
        Issuer: C=DE, ST=Saarland, O=MPI-SWS, OU=Distributed Systems Group, CN=Andreas Haeberlen/emailAddress=democa@octarine.de
        Validity
            Not Before: Apr 20 20:47:10 2015 GMT
            Not After : Apr 19 20:47:10 2016 GMT
        Subject: C=DE, ST=Saarland, O=MPI-SWS, OU=Distributed Systems Group, CN=d067e06516b75f88c2adc5d1b06d030d36517b68/emailAddress=node0300@octarine.de
        Subject Public Key Info:
            Public Key Algorithm: rsaEncryption
            RSA Public Key: (1024 bit)
                Modulus (1024 bit):
                    00:c8:33:44:bd:1c:d9:fa:ee:66:94:b2:6a:a8:83:
                    e3:41:df:e0:d7:b5:37:16:f6:75:92:9a:f7:5f:d7:
                    23:27:94:95:03:17:b4:5f:d9:8e:d8:3d:91:7c:19:
                    a0:5c:dc:18:d5:21:b0:de:a1:49:3e:8b:9f:12:4d:
                    67:59:55:88:57:9c:d9:78:75:5d:cb:63:37:8e:54:
                    5e:c0:08:1c:e0:7d:8f:42:78:c2:a3:16:10:7d:b6:
                    6f:c8:e6:0b:59:10:9e:df:af:c4:ac:fc:f1:65:db:
                    68:c7:7f:f7:64:53:83:6c:71:c9:b0:d0:78:db:63:
                    5d:23:2e:79:a0:f1:88:05:39
                Exponent: 65537 (0x10001)
    Signature Algorithm: md5WithRSAEncryption
        c9:9c:0c:75:94:5a:2f:cb:32:df:75:bc:97:58:a8:01:15:35:
        5a:bc:1f:6b:2e:c2:11:43:2b:b9:d1:60:c2:5e:17:4c:a0:09:
        40:6f:30:09:3d:62:64:1c:4e:ef:16:c2:ef:df:99:3d:06:c2:
        74:b6:c1:a9:e9:23:62:a7:6f:86:3f:bb:d1:52:9f:7d:83:c6:
        5c:fd:d6:5d:8c:e6:8a:2f:c7:89:b7:f4:0e:c8:e6:25:09:66:
        9f:25:9e:5b:7d:97:0c:4b:c1:a0:36:f5:c1:cc:2c:dd:eb:9e:
        69:9b:31:10:cf:53:37:10:9a:8c:21:c6:56:15:46:a9:0d:b8:
        31:a4
-----BEGIN CERTIFICATE-----
MIICvDCCAiUCCQCbJ9fo0boJBDANBgkqhkiG9w0BAQQFADCBlTELMAkGA1UEBhMC
REUxETAPBgNVBAgTCFNhYXJsYW5kMRAwDgYDVQQKEwdNUEktU1dTMSIwIAYDVQQL
ExlEaXN0cmlidXRlZCBTeXN0ZW1zIEdyb3VwMRowGAYDVQQDExFBbmRyZWFzIEhh
ZWJlcmxlbjEhMB8GCSqGSIb3DQEJARYSZGVtb2NhQG9jdGFyaW5lLmRlMB4XDTE1
MDQyMDIwNDcxMFoXDTE2MDQxOTIwNDcxMFowga4xCzAJBgNVBAYTAkRFMREwDwYD
VQQIEwhTYWFybGFuZDEQMA4GA1UEChMHTVBJLVNXUzEiMCAGA1UECxMZRGlzdHJp
YnV0ZWQgU3lzdGVtcyBHcm91cDExMC8GA1UEAxMoZDA2N2UwNjUxNmI3NWY4OGMy
YWRjNWQxYjA2ZDAzMGQzNjUxN2I2ODEjMCEGCSqGSIb3DQEJARYUbm9kZTAzMDBA
b2N0YXJpbmUuZGUwgZ8wDQYJKoZIhvcNAQEBBQADgY0AMIGJAoGBAMgzRL0c2fru
ZpSyaqiD40Hf4Ne1Nxb2dZKa91/XIyeUlQMXtF/Zjtg9kXwZoFzcGNUhsN6hST6L
nxJNZ1lViFec2Xh1XctjN45UXsAIHOB9j0J4wqMWEH22b8jmC1kQnt+vxKz88WXb
aMd/92RTg2xxybDQeNtjXSMueaDxiAU5AgMBAAEwDQYJKoZIhvcNAQEEBQADgYEA
yZwMdZRaL8sy33W8l1ioARU1Wrwfay7CEUMrudFgwl4XTKAJQG8wCT1iZBxO7xbC
79+ZPQbCdLbBqekjYqdvhj+70VKffYPGXP3WXYzmii/Hibf0DsjmJQlmnyWeW32X
DEvBoDb1wcws3eueaZsxEM9TNxCajCHGVhVGqQ24MaQ=
-----END CERTIFICATE-----
