Certificate:
    Data:
        Version: 1 (0x0)
        Serial Number:
            9b:27:d7:e8:d1:ba:09:95
        Signature Algorithm: md5WithRSAEncryption
        Issuer: C=DE, ST=Saarland, O=MPI-SWS, OU=Distributed Systems Group, CN=Andreas Haeberlen/emailAddress=democa@octarine.de
        Validity
            Not Before: Apr 20 20:47:16 2015 GMT
            Not After : Apr 19 20:47:16 2016 GMT
        Subject: C=DE, ST=Saarland, O=MPI-SWS, OU=Distributed Systems Group, CN=55fc21f9a443b72edcb1de80abe37b8c089399d4/emailAddress=node0445@octarine.de
        Subject Public Key Info:
            Public Key Algorithm: rsaEncryption
            RSA Public Key: (1024 bit)
                Modulus (1024 bit):
                    00:aa:d8:24:1b:4f:db:ac:6c:81:f7:4e:6f:82:03:
                    92:e7:d2:03:8b:01:18:8a:59:6b:0b:1d:00:7f:f4:
                    38:95:e1:a8:e5:5c:4f:d7:8f:65:30:a9:ef:03:dd:
                    99:5a:d0:c4:c6:1f:09:be:ac:3d:17:5e:1d:90:0d:
                    18:93:5b:43:33:55:39:4d:04:f9:19:f1:42:7a:e1:
                    19:9f:3f:fd:25:e4:62:7b:2b:75:c1:9c:7e:05:5e:
                    4c:aa:ab:e5:3b:7a:3e:0a:cc:fe:0b:fc:30:e6:a9:
                    b4:a0:02:a0:2a:b2:10:d4:7b:c3:00:44:c7:3e:85:
                    3d:e0:f1:47:26:bc:e2:73:27
                Exponent: 65537 (0x10001)
    Signature Algorithm: md5WithRSAEncryption
        5e:90:38:2c:ec:04:58:e3:5f:f9:ad:f6:6a:6b:da:78:a3:9f:
        12:ca:b7:20:b7:69:e6:59:36:68:88:d4:15:59:18:d3:ad:a9:
        d1:2d:6e:5a:9a:78:d1:c9:b8:90:09:49:a4:e4:28:07:fb:a9:
        8b:30:19:51:56:da:6d:3a:89:75:95:e5:61:f5:1c:f1:22:aa:
        69:f6:21:ec:14:c8:6e:6b:3f:28:67:83:66:76:16:87:96:ae:
        19:a0:41:44:59:3b:bf:a3:92:e7:8e:9c:05:58:12:4c:09:48:
        59:5c:75:d0:cb:de:d8:0e:43:53:cc:5a:cf:08:a0:1c:0a:95:
        1b:4a
-----BEGIN CERTIFICATE-----
MIICvDCCAiUCCQCbJ9fo0boJlTANBgkqhkiG9w0BAQQFADCBlTELMAkGA1UEBhMC
REUxETAPBgNVBAgTCFNhYXJsYW5kMRAwDgYDVQQKEwdNUEktU1dTMSIwIAYDVQQL
ExlEaXN0cmlidXRlZCBTeXN0ZW1zIEdyb3VwMRowGAYDVQQDExFBbmRyZWFzIEhh
ZWJlcmxlbjEhMB8GCSqGSIb3DQEJARYSZGVtb2NhQG9jdGFyaW5lLmRlMB4XDTE1
MDQyMDIwNDcxNloXDTE2MDQxOTIwNDcxNlowga4xCzAJBgNVBAYTAkRFMREwDwYD
VQQIEwhTYWFybGFuZDEQMA4GA1UEChMHTVBJLVNXUzEiMCAGA1UECxMZRGlzdHJp
YnV0ZWQgU3lzdGVtcyBHcm91cDExMC8GA1UEAxMoNTVmYzIxZjlhNDQzYjcyZWRj
YjFkZTgwYWJlMzdiOGMwODkzOTlkNDEjMCEGCSqGSIb3DQEJARYUbm9kZTA0NDVA
b2N0YXJpbmUuZGUwgZ8wDQYJKoZIhvcNAQEBBQADgY0AMIGJAoGBAKrYJBtP26xs
gfdOb4IDkufSA4sBGIpZawsdAH/0OJXhqOVcT9ePZTCp7wPdmVrQxMYfCb6sPRde
HZANGJNbQzNVOU0E+RnxQnrhGZ8//SXkYnsrdcGcfgVeTKqr5Tt6PgrM/gv8MOap
tKACoCqyENR7wwBExz6FPeDxRya84nMnAgMBAAEwDQYJKoZIhvcNAQEEBQADgYEA
XpA4LOwEWONf+a32amvaeKOfEsq3ILdp5lk2aIjUFVkY062p0S1uWpp40cm4kAlJ
pOQoB/upizAZUVbabTqJdZXlYfUc8SKqafYh7BTIbms/KGeDZnYWh5auGaBBRFk7
v6OS546cBVgSTAlIWVx10Mve2A5DU8xazwigHAqVG0o=
-----END CERTIFICATE-----
