Certificate:
    Data:
        Version: 1 (0x0)
        Serial Number:
            9b:27:d7:e8:d1:ba:0a:b1
        Signature Algorithm: md5WithRSAEncryption
        Issuer: C=DE, ST=Saarland, O=MPI-SWS, OU=Distributed Systems Group, CN=Andreas Haeberlen/emailAddress=democa@octarine.de
        Validity
            Not Before: Apr 20 20:47:29 2015 GMT
            Not After : Apr 19 20:47:29 2016 GMT
        Subject: C=DE, ST=Saarland, O=MPI-SWS, OU=Distributed Systems Group, CN=25894ff0f913b6ec943f0029162c109351d91ca0/emailAddress=node0729@octarine.de
        Subject Public Key Info:
            Public Key Algorithm: rsaEncryption
            RSA Public Key: (1024 bit)
                Modulus (1024 bit):
                    00:cd:ec:39:bd:07:74:2c:59:a9:2e:ba:4a:02:34:
                    51:0f:a3:32:d4:eb:c7:ea:7f:d7:4b:41:ae:09:9b:
                    fd:d3:8c:f5:cc:5c:7e:d0:82:a9:3f:90:a4:1d:06:
                    72:e3:54:1a:a3:35:6d:fb:02:82:c9:c0:62:31:2a:
                    f7:1f:7b:00:52:31:29:2e:55:61:2c:56:16:02:6d:
                    93:36:6b:c4:a3:c3:ce:e1:ba:09:31:fd:79:c7:92:
                    9e:e9:04:ab:41:ac:9c:70:5f:a0:f6:dc:0c:aa:3d:
                    92:be:ac:00:1e:86:56:e5:60:16:3f:4c:49:64:67:
                    bb:2e:45:4d:30:bb:15:d1:1d
                Exponent: 65537 (0x10001)
    Signature Algorithm: md5WithRSAEncryption
        65:29:de:6f:ed:24:1f:5c:01:54:55:62:de:47:24:97:0e:14:
        7b:27:5e:11:85:00:a1:c6:6f:12:0b:68:b0:df:6b:f4:66:58:
        83:e4:2b:f6:6a:56:22:8e:9d:52:f6:f7:43:40:4c:60:8a:bd:
        90:55:69:2a:bb:ee:1f:cd:05:ec:39:50:16:2d:86:84:63:16:
        f5:86:64:be:f2:8f:c5:c7:87:89:6e:0c:bc:dc:4e:1e:da:d2:
        72:7b:25:ba:b3:cb:07:f5:c6:b5:23:17:b6:84:02:26:e4:df:
        5b:9f:82:e7:7d:2a:0f:7e:22:f4:fd:b2:eb:33:9c:6a:e1:71:
        2a:ae
-----BEGIN CERTIFICATE-----
MIICvDCCAiUCCQCbJ9fo0boKsTANBgkqhkiG9w0BAQQFADCBlTELMAkGA1UEBhMC
REUxETAPBgNVBAgTCFNhYXJsYW5kMRAwDgYDVQQKEwdNUEktU1dTMSIwIAYDVQQL
ExlEaXN0cmlidXRlZCBTeXN0ZW1zIEdyb3VwMRowGAYDVQQDExFBbmRyZWFzIEhh
ZWJlcmxlbjEhMB8GCSqGSIb3DQEJARYSZGVtb2NhQG9jdGFyaW5lLmRlMB4XDTE1
MDQyMDIwNDcyOVoXDTE2MDQxOTIwNDcyOVowga4xCzAJBgNVBAYTAkRFMREwDwYD
VQQIEwhTYWFybGFuZDEQMA4GA1UEChMHTVBJLVNXUzEiMCAGA1UECxMZRGlzdHJp
YnV0ZWQgU3lzdGVtcyBHcm91cDExMC8GA1UEAxMoMjU4OTRmZjBmOTEzYjZlYzk0
M2YwMDI5MTYyYzEwOTM1MWQ5MWNhMDEjMCEGCSqGSIb3DQEJARYUbm9kZTA3MjlA
b2N0YXJpbmUuZGUwgZ8wDQYJKoZIhvcNAQEBBQADgY0AMIGJAoGBAM3sOb0HdCxZ
qS66SgI0UQ+jMtTrx+p/10tBrgmb/dOM9cxcftCCqT+QpB0GcuNUGqM1bfsCgsnA
YjEq9x97AFIxKS5VYSxWFgJtkzZrxKPDzuG6CTH9eceSnukEq0GsnHBfoPbcDKo9
kr6sAB6GVuVgFj9MSWRnuy5FTTC7FdEdAgMBAAEwDQYJKoZIhvcNAQEEBQADgYEA
ZSneb+0kH1wBVFVi3kcklw4UeydeEYUAocZvEgtosN9r9GZYg+Qr9mpWIo6dUvb3
Q0BMYIq9kFVpKrvuH80F7DlQFi2GhGMW9YZkvvKPxceHiW4MvNxOHtrScnslurPL
B/XGtSMXtoQCJuTfW5+C530qD34i9P2y6zOcauFxKq4=
-----END CERTIFICATE-----
