Certificate:
    Data:
        Version: 1 (0x0)
        Serial Number:
            9b:27:d7:e8:d1:ba:0b:b2
        Signature Algorithm: md5WithRSAEncryption
        Issuer: C=DE, ST=Saarland, O=MPI-SWS, OU=Distributed Systems Group, CN=Andreas Haeberlen/emailAddress=democa@octarine.de
        Validity
            Not Before: Apr 20 20:47:41 2015 GMT
            Not After : Apr 19 20:47:41 2016 GMT
        Subject: C=DE, ST=Saarland, O=MPI-SWS, OU=Distributed Systems Group, CN=81ea2768e587f9e8a11fae5050ea587da57dce5b/emailAddress=node0986@octarine.de
        Subject Public Key Info:
            Public Key Algorithm: rsaEncryption
            RSA Public Key: (1024 bit)
                Modulus (1024 bit):
                    00:e2:77:3f:aa:eb:e9:5b:af:a1:0a:aa:ab:f2:60:
                    24:15:c0:00:fc:13:e0:0c:c4:73:41:62:d9:2d:ec:
                    94:9c:d1:6b:ee:70:94:9d:9c:df:56:8d:ea:97:83:
                    47:89:77:50:98:6a:7f:cf:18:10:5d:7c:cc:33:42:
                    9b:6a:3b:66:d1:e2:1b:78:d8:81:28:2c:de:60:19:
                    a0:c7:dd:1b:47:26:bd:47:a1:e5:5b:0c:c0:bc:e6:
                    eb:88:2a:ea:44:23:e9:b4:e0:56:c0:61:df:ec:11:
                    e7:46:79:06:e1:13:5a:ef:11:f6:07:e5:43:d8:5f:
                    e3:f9:f3:74:dc:21:53:31:97
                Exponent: 65537 (0x10001)
    Signature Algorithm: md5WithRSAEncryption
        87:48:47:d9:42:db:56:2b:a0:3a:dd:ca:92:68:da:e0:2d:9b:
        0f:19:69:e8:c3:60:28:32:e3:c4:f9:7f:74:ee:b9:2d:14:71:
        a6:3f:e1:aa:ad:b3:89:d8:64:56:5d:55:c6:93:ae:0d:30:4b:
        0a:56:42:49:b1:e0:61:b3:51:6a:a3:cc:85:f8:08:76:02:e1:
        4f:6b:f6:78:9c:50:30:05:71:90:a2:0c:3b:e6:fd:18:cc:c6:
        37:77:04:a5:de:5f:5f:9d:6e:13:b2:30:98:41:f8:f6:d7:59:
        32:b1:4c:55:79:14:14:31:54:9d:2f:87:a7:51:ce:7c:41:48:
        21:de
-----BEGIN CERTIFICATE-----
MIICvDCCAiUCCQCbJ9fo0boLsjANBgkqhkiG9w0BAQQFADCBlTELMAkGA1UEBhMC
REUxETAPBgNVBAgTCFNhYXJsYW5kMRAwDgYDVQQKEwdNUEktU1dTMSIwIAYDVQQL
ExlEaXN0cmlidXRlZCBTeXN0ZW1zIEdyb3VwMRowGAYDVQQDExFBbmRyZWFzIEhh
ZWJlcmxlbjEhMB8GCSqGSIb3DQEJARYSZGVtb2NhQG9jdGFyaW5lLmRlMB4XDTE1
MDQyMDIwNDc0MVoXDTE2MDQxOTIwNDc0MVowga4xCzAJBgNVBAYTAkRFMREwDwYD
VQQIEwhTYWFybGFuZDEQMA4GA1UEChMHTVBJLVNXUzEiMCAGA1UECxMZRGlzdHJp
YnV0ZWQgU3lzdGVtcyBHcm91cDExMC8GA1UEAxMoODFlYTI3NjhlNTg3ZjllOGEx
MWZhZTUwNTBlYTU4N2RhNTdkY2U1YjEjMCEGCSqGSIb3DQEJARYUbm9kZTA5ODZA
b2N0YXJpbmUuZGUwgZ8wDQYJKoZIhvcNAQEBBQADgY0AMIGJAoGBAOJ3P6rr6Vuv
oQqqq/JgJBXAAPwT4AzEc0Fi2S3slJzRa+5wlJ2c31aN6peDR4l3UJhqf88YEF18
zDNCm2o7ZtHiG3jYgSgs3mAZoMfdG0cmvUeh5VsMwLzm64gq6kQj6bTgVsBh3+wR
50Z5BuETWu8R9gflQ9hf4/nzdNwhUzGXAgMBAAEwDQYJKoZIhvcNAQEEBQADgYEA
h0hH2ULbViugOt3Kkmja4C2bDxlp6MNgKDLjxPl/dO65LRRxpj/hqq2zidhkVl1V
xpOuDTBLClZCSbHgYbNRaqPMhfgIdgLhT2v2eJxQMAVxkKIMO+b9GMzGN3cEpd5f
X51uE7IwmEH49tdZMrFMVXkUFDFUnS+Hp1HOfEFIId4=
-----END CERTIFICATE-----
