Certificate:
    Data:
        Version: 1 (0x0)
        Serial Number:
            9b:27:d7:e8:d1:ba:0a:4f
        Signature Algorithm: md5WithRSAEncryption
        Issuer: C=DE, ST=Saarland, O=MPI-SWS, OU=Distributed Systems Group, CN=Andreas Haeberlen/emailAddress=democa@octarine.de
        Validity
            Not Before: Apr 20 20:47:25 2015 GMT
            Not After : Apr 19 20:47:25 2016 GMT
        Subject: C=DE, ST=Saarland, O=MPI-SWS, OU=Distributed Systems Group, CN=4cdfe9b3d01e25bbb9c531055967c291e60c0c0d/emailAddress=node0631@octarine.de
        Subject Public Key Info:
            Public Key Algorithm: rsaEncryption
            RSA Public Key: (1024 bit)
                Modulus (1024 bit):
                    00:cd:b4:bb:5c:2a:70:75:9b:77:31:5a:ab:c7:3a:
                    af:cc:e8:3a:78:9f:64:af:fa:9a:80:1c:12:cb:af:
                    25:3b:f8:d2:4d:88:1a:ff:5b:1a:c0:7b:c0:b1:8d:
                    f2:7c:f4:d6:8d:2b:af:2d:07:ea:2c:4a:fd:44:b9:
                    f6:b2:75:be:2f:f3:b7:24:6d:e8:f0:43:33:2b:6e:
                    3e:ee:0d:92:6e:0e:40:67:31:83:17:a1:02:49:f3:
                    35:62:0b:4a:0e:61:11:f4:08:0f:7d:9d:99:2d:7f:
                    0e:98:a1:e6:2a:ca:39:61:aa:26:9b:53:c2:8c:50:
                    ea:b3:5f:7e:a1:02:49:d6:a9
                Exponent: 65537 (0x10001)
    Signature Algorithm: md5WithRSAEncryption
        99:bd:fa:62:63:87:d2:0a:98:91:6c:6a:a2:07:af:fa:04:b8:
        c5:04:39:a1:78:2a:3e:e9:28:77:b3:5b:42:7e:b4:23:ba:45:
        0f:2c:22:25:33:f3:24:37:ff:21:5a:5a:a0:45:8a:90:71:7d:
        4e:66:df:7c:12:36:80:c7:a9:19:f4:bf:a0:e4:3d:95:cd:d9:
        51:11:5c:1f:88:82:22:b3:11:c7:05:ea:bf:aa:5a:40:38:a6:
        bc:74:8e:f1:dc:ac:40:90:39:56:0c:62:78:f1:9c:ef:de:77:
        ae:6b:66:c5:9a:87:2b:fd:d8:9f:bb:93:22:13:2b:27:53:98:
        13:2d
-----BEGIN CERTIFICATE-----
MIICvDCCAiUCCQCbJ9fo0boKTzANBgkqhkiG9w0BAQQFADCBlTELMAkGA1UEBhMC
REUxETAPBgNVBAgTCFNhYXJsYW5kMRAwDgYDVQQKEwdNUEktU1dTMSIwIAYDVQQL
ExlEaXN0cmlidXRlZCBTeXN0ZW1zIEdyb3VwMRowGAYDVQQDExFBbmRyZWFzIEhh
ZWJlcmxlbjEhMB8GCSqGSIb3DQEJARYSZGVtb2NhQG9jdGFyaW5lLmRlMB4XDTE1
MDQyMDIwNDcyNVoXDTE2MDQxOTIwNDcyNVowga4xCzAJBgNVBAYTAkRFMREwDwYD
VQQIEwhTYWFybGFuZDEQMA4GA1UEChMHTVBJLVNXUzEiMCAGA1UECxMZRGlzdHJp
YnV0ZWQgU3lzdGVtcyBHcm91cDExMC8GA1UEAxMoNGNkZmU5YjNkMDFlMjViYmI5
YzUzMTA1NTk2N2MyOTFlNjBjMGMwZDEjMCEGCSqGSIb3DQEJARYUbm9kZTA2MzFA
b2N0YXJpbmUuZGUwgZ8wDQYJKoZIhvcNAQEBBQADgY0AMIGJAoGBAM20u1wqcHWb
dzFaq8c6r8zoOnifZK/6moAcEsuvJTv40k2IGv9bGsB7wLGN8nz01o0rry0H6ixK
/US59rJ1vi/ztyRt6PBDMytuPu4Nkm4OQGcxgxehAknzNWILSg5hEfQID32dmS1/
Dpih5irKOWGqJptTwoxQ6rNffqECSdapAgMBAAEwDQYJKoZIhvcNAQEEBQADgYEA
mb36YmOH0gqYkWxqogev+gS4xQQ5oXgqPukod7NbQn60I7pFDywiJTPzJDf/IVpa
oEWKkHF9TmbffBI2gMepGfS/oOQ9lc3ZURFcH4iCIrMRxwXqv6paQDimvHSO8dys
QJA5VgxiePGc7953rmtmxZqHK/3Yn7uTIhMrJ1OYEy0=
-----END CERTIFICATE-----
