Certificate:
    Data:
        Version: 1 (0x0)
        Serial Number:
            9b:27:d7:e8:d1:ba:09:ce
        Signature Algorithm: md5WithRSAEncryption
        Issuer: C=DE, ST=Saarland, O=MPI-SWS, OU=Distributed Systems Group, CN=Andreas Haeberlen/emailAddress=democa@octarine.de
        Validity
            Not Before: Apr 20 20:47:19 2015 GMT
            Not After : Apr 19 20:47:19 2016 GMT
        Subject: C=DE, ST=Saarland, O=MPI-SWS, OU=Distributed Systems Group, CN=79da13b77719bd2de6eb888c2622c344c1ee4a5b/emailAddress=node0502@octarine.de
        Subject Public Key Info:
            Public Key Algorithm: rsaEncryption
            RSA Public Key: (1024 bit)
                Modulus (1024 bit):
                    00:de:f7:52:fc:61:c8:61:fb:cd:c9:fc:ba:90:0f:
                    16:b2:a1:8a:70:58:2a:18:6c:19:1e:13:e0:f1:ff:
                    ac:96:b9:90:8c:4d:4b:5e:56:81:f9:37:20:c9:f1:
                    28:36:26:4e:d2:0b:15:cc:3f:27:a2:fc:39:9e:a0:
                    31:c6:a8:10:eb:0b:86:52:b6:c2:7c:4b:76:c2:93:
                    a7:90:90:12:42:18:fb:a8:6a:e7:e9:f4:04:8f:f5:
                    47:5e:6c:74:79:3e:6b:1e:e5:a1:13:ed:9e:d3:d5:
                    25:38:67:dc:d6:13:95:45:88:78:e8:55:db:56:c8:
                    b5:a2:62:10:1b:f7:3a:70:55
                Exponent: 65537 (0x10001)
    Signature Algorithm: md5WithRSAEncryption
        4e:06:86:e7:5e:5a:99:8c:60:2b:1f:74:52:c2:a1:3c:30:a6:
        14:07:64:14:b5:a4:0e:55:6b:0f:9e:5a:7e:96:25:24:59:a1:
        44:e6:e7:12:32:85:01:d2:e7:51:1d:79:8c:c9:1e:9e:91:cf:
        03:98:d9:45:4a:a4:82:89:b7:b5:01:58:78:56:2b:c4:12:71:
        f0:00:69:59:19:ff:b2:74:b2:fb:fe:c9:bd:e2:36:d7:81:53:
        1b:ac:40:83:35:87:4a:ae:c6:a4:b0:be:4b:62:43:9b:bb:fc:
        b0:16:ef:4c:d1:df:6c:c9:ba:a5:ee:67:8e:5a:ff:2d:70:90:
        3c:3f
-----BEGIN CERTIFICATE-----
MIICvDCCAiUCCQCbJ9fo0boJzjANBgkqhkiG9w0BAQQFADCBlTELMAkGA1UEBhMC
REUxETAPBgNVBAgTCFNhYXJsYW5kMRAwDgYDVQQKEwdNUEktU1dTMSIwIAYDVQQL
ExlEaXN0cmlidXRlZCBTeXN0ZW1zIEdyb3VwMRowGAYDVQQDExFBbmRyZWFzIEhh
ZWJlcmxlbjEhMB8GCSqGSIb3DQEJARYSZGVtb2NhQG9jdGFyaW5lLmRlMB4XDTE1
MDQyMDIwNDcxOVoXDTE2MDQxOTIwNDcxOVowga4xCzAJBgNVBAYTAkRFMREwDwYD
VQQIEwhTYWFybGFuZDEQMA4GA1UEChMHTVBJLVNXUzEiMCAGA1UECxMZRGlzdHJp
YnV0ZWQgU3lzdGVtcyBHcm91cDExMC8GA1UEAxMoNzlkYTEzYjc3NzE5YmQyZGU2
ZWI4ODhjMjYyMmMzNDRjMWVlNGE1YjEjMCEGCSqGSIb3DQEJARYUbm9kZTA1MDJA
b2N0YXJpbmUuZGUwgZ8wDQYJKoZIhvcNAQEBBQADgY0AMIGJAoGBAN73UvxhyGH7
zcn8upAPFrKhinBYKhhsGR4T4PH/rJa5kIxNS15Wgfk3IMnxKDYmTtILFcw/J6L8
OZ6gMcaoEOsLhlK2wnxLdsKTp5CQEkIY+6hq5+n0BI/1R15sdHk+ax7loRPtntPV
JThn3NYTlUWIeOhV21bItaJiEBv3OnBVAgMBAAEwDQYJKoZIhvcNAQEEBQADgYEA
TgaG515amYxgKx90UsKhPDCmFAdkFLWkDlVrD55afpYlJFmhRObnEjKFAdLnUR15
jMkenpHPA5jZRUqkgom3tQFYeFYrxBJx8ABpWRn/snSy+/7JveI214FTG6xAgzWH
Sq7GpLC+S2JDm7v8sBbvTNHfbMm6pe5njlr/LXCQPD8=
-----END CERTIFICATE-----
