Certificate:
    Data:
        Version: 1 (0x0)
        Serial Number:
            9b:27:d7:e8:d1:ba:0b:b7
        Signature Algorithm: md5WithRSAEncryption
        Issuer: C=DE, ST=Saarland, O=MPI-SWS, OU=Distributed Systems Group, CN=Andreas Haeberlen/emailAddress=democa@octarine.de
        Validity
            Not Before: Apr 20 20:47:41 2015 GMT
            Not After : Apr 19 20:47:41 2016 GMT
        Subject: C=DE, ST=Saarland, O=MPI-SWS, OU=Distributed Systems Group, CN=d74a6410010d1bad05a69d98503e077dec850950/emailAddress=node0991@octarine.de
        Subject Public Key Info:
            Public Key Algorithm: rsaEncryption
            RSA Public Key: (1024 bit)
                Modulus (1024 bit):
                    00:db:c4:d6:1b:f5:7d:4f:93:fa:ad:ea:58:3e:19:
                    c4:cf:03:99:4e:2c:49:6a:1b:ce:e4:43:81:db:2b:
                    49:75:aa:55:d9:eb:a3:56:4e:1a:33:2a:92:4a:94:
                    20:a8:21:d6:90:12:5d:6f:ce:cd:98:df:08:35:08:
                    c1:d9:61:93:a1:cf:31:d4:d1:5a:1c:39:8c:f8:9c:
                    6a:87:d8:21:d9:21:32:5a:e4:c0:37:b1:fa:07:4f:
                    b3:6d:8b:f6:1a:66:ab:a2:e6:e8:31:89:04:69:9a:
                    ab:bb:46:da:e8:e8:7f:41:1f:0d:5c:d9:eb:2d:00:
                    30:43:74:52:97:b3:57:2b:07
                Exponent: 65537 (0x10001)
    Signature Algorithm: md5WithRSAEncryption
        8f:f6:41:be:e7:89:1f:a6:34:5c:d3:50:83:71:0e:e3:26:5a:
        48:f6:93:0b:03:3f:22:6d:a9:81:e9:e0:ab:0f:f2:ad:e5:69:
        58:12:e5:18:11:53:97:ef:6b:1f:e0:a0:82:7c:cd:e9:c0:ce:
        12:e3:2b:92:2c:6c:d5:05:7b:f7:75:84:22:02:56:6a:47:20:
        33:69:9b:1c:a0:76:d1:0c:d2:94:cf:4d:88:45:f2:3b:1e:c6:
        94:f0:ce:9b:04:e0:1e:e1:d9:86:59:14:db:1e:d5:22:fa:2e:
        3d:f8:cb:60:ef:0f:8a:3e:fb:73:3c:1b:0c:73:22:8f:9f:cf:
        da:56
-----BEGIN CERTIFICATE-----
MIICvDCCAiUCCQCbJ9fo0boLtzANBgkqhkiG9w0BAQQFADCBlTELMAkGA1UEBhMC
REUxETAPBgNVBAgTCFNhYXJsYW5kMRAwDgYDVQQKEwdNUEktU1dTMSIwIAYDVQQL
ExlEaXN0cmlidXRlZCBTeXN0ZW1zIEdyb3VwMRowGAYDVQQDExFBbmRyZWFzIEhh
ZWJlcmxlbjEhMB8GCSqGSIb3DQEJARYSZGVtb2NhQG9jdGFyaW5lLmRlMB4XDTE1
MDQyMDIwNDc0MVoXDTE2MDQxOTIwNDc0MVowga4xCzAJBgNVBAYTAkRFMREwDwYD
VQQIEwhTYWFybGFuZDEQMA4GA1UEChMHTVBJLVNXUzEiMCAGA1UECxMZRGlzdHJp
YnV0ZWQgU3lzdGVtcyBHcm91cDExMC8GA1UEAxMoZDc0YTY0MTAwMTBkMWJhZDA1
YTY5ZDk4NTAzZTA3N2RlYzg1MDk1MDEjMCEGCSqGSIb3DQEJARYUbm9kZTA5OTFA
b2N0YXJpbmUuZGUwgZ8wDQYJKoZIhvcNAQEBBQADgY0AMIGJAoGBANvE1hv1fU+T
+q3qWD4ZxM8DmU4sSWobzuRDgdsrSXWqVdnro1ZOGjMqkkqUIKgh1pASXW/OzZjf
CDUIwdlhk6HPMdTRWhw5jPicaofYIdkhMlrkwDex+gdPs22L9hpmq6Lm6DGJBGma
q7tG2ujof0EfDVzZ6y0AMEN0UpezVysHAgMBAAEwDQYJKoZIhvcNAQEEBQADgYEA
j/ZBvueJH6Y0XNNQg3EO4yZaSPaTCwM/Im2pgengqw/yreVpWBLlGBFTl+9rH+Cg
gnzN6cDOEuMrkixs1QV793WEIgJWakcgM2mbHKB20QzSlM9NiEXyOx7GlPDOmwTg
HuHZhlkU2x7VIvouPfjLYO8Pij77czwbDHMij5/P2lY=
-----END CERTIFICATE-----
