Certificate:
    Data:
        Version: 1 (0x0)
        Serial Number:
            9b:27:d7:e8:d1:ba:09:c4
        Signature Algorithm: md5WithRSAEncryption
        Issuer: C=DE, ST=Saarland, O=MPI-SWS, OU=Distributed Systems Group, CN=Andreas Haeberlen/emailAddress=democa@octarine.de
        Validity
            Not Before: Apr 20 20:47:18 2015 GMT
            Not After : Apr 19 20:47:18 2016 GMT
        Subject: C=DE, ST=Saarland, O=MPI-SWS, OU=Distributed Systems Group, CN=dac75166750d6ee9783b59b422d251f2cc92e085/emailAddress=node0492@octarine.de
        Subject Public Key Info:
            Public Key Algorithm: rsaEncryption
            RSA Public Key: (1024 bit)
                Modulus (1024 bit):
                    00:af:b6:e5:e2:ce:c3:3b:56:90:84:35:ea:fe:e0:
                    2c:9a:72:f2:7e:4b:b3:d2:f6:a3:20:89:87:30:b0:
                    06:27:a5:84:86:39:9e:5f:43:2c:c9:c8:da:b9:d3:
                    6d:b7:eb:83:c6:29:fc:b5:9c:75:75:7b:c6:42:b9:
                    e9:21:cf:41:a1:53:0e:c6:72:1b:3c:08:88:c9:0b:
                    3c:9a:74:b2:a5:4a:21:c2:90:ca:ba:18:ee:48:7f:
                    0f:bd:4d:7c:bc:76:cc:a9:2f:78:63:3b:d9:f4:b0:
                    b0:50:4b:80:53:d8:d1:0a:92:ae:6e:a9:70:f7:6d:
                    0a:57:a9:54:a4:ad:dc:ea:a9
                Exponent: 65537 (0x10001)
    Signature Algorithm: md5WithRSAEncryption
        2c:22:2f:86:07:dd:d3:e9:52:9e:ae:2a:ec:5e:89:15:14:7f:
        6c:27:87:69:32:ca:8f:66:97:54:03:6d:ab:da:79:b4:73:88:
        4d:5f:84:af:46:e1:b6:19:ab:79:5e:f2:9c:90:a4:02:0c:fe:
        ce:fc:48:85:7e:08:47:cb:8f:7b:e6:5f:eb:e2:a4:d3:21:2f:
        10:70:80:22:2e:ce:f8:f2:62:e4:ae:67:39:52:dd:14:ac:1f:
        75:ed:37:9d:7e:2b:99:cb:03:0b:02:64:39:d0:24:09:bb:b5:
        e7:e5:8d:3b:d6:5c:3a:f9:b7:7a:57:ae:02:58:bc:e4:d9:03:
        66:b2
-----BEGIN CERTIFICATE-----
MIICvDCCAiUCCQCbJ9fo0boJxDANBgkqhkiG9w0BAQQFADCBlTELMAkGA1UEBhMC
REUxETAPBgNVBAgTCFNhYXJsYW5kMRAwDgYDVQQKEwdNUEktU1dTMSIwIAYDVQQL
ExlEaXN0cmlidXRlZCBTeXN0ZW1zIEdyb3VwMRowGAYDVQQDExFBbmRyZWFzIEhh
ZWJlcmxlbjEhMB8GCSqGSIb3DQEJARYSZGVtb2NhQG9jdGFyaW5lLmRlMB4XDTE1
MDQyMDIwNDcxOFoXDTE2MDQxOTIwNDcxOFowga4xCzAJBgNVBAYTAkRFMREwDwYD
VQQIEwhTYWFybGFuZDEQMA4GA1UEChMHTVBJLVNXUzEiMCAGA1UECxMZRGlzdHJp
YnV0ZWQgU3lzdGVtcyBHcm91cDExMC8GA1UEAxMoZGFjNzUxNjY3NTBkNmVlOTc4
M2I1OWI0MjJkMjUxZjJjYzkyZTA4NTEjMCEGCSqGSIb3DQEJARYUbm9kZTA0OTJA
b2N0YXJpbmUuZGUwgZ8wDQYJKoZIhvcNAQEBBQADgY0AMIGJAoGBAK+25eLOwztW
kIQ16v7gLJpy8n5Ls9L2oyCJhzCwBielhIY5nl9DLMnI2rnTbbfrg8Yp/LWcdXV7
xkK56SHPQaFTDsZyGzwIiMkLPJp0sqVKIcKQyroY7kh/D71NfLx2zKkveGM72fSw
sFBLgFPY0QqSrm6pcPdtClepVKSt3OqpAgMBAAEwDQYJKoZIhvcNAQEEBQADgYEA
LCIvhgfd0+lSnq4q7F6JFRR/bCeHaTLKj2aXVANtq9p5tHOITV+Er0bhthmreV7y
nJCkAgz+zvxIhX4IR8uPe+Zf6+Kk0yEvEHCAIi7O+PJi5K5nOVLdFKwfde03nX4r
mcsDCwJkOdAkCbu15+WNO9ZcOvm3eleuAli85NkDZrI=
-----END CERTIFICATE-----
