Certificate:
    Data:
        Version: 1 (0x0)
        Serial Number:
            9b:27:d7:e8:d1:ba:0b:3b
        Signature Algorithm: md5WithRSAEncryption
        Issuer: C=DE, ST=Saarland, O=MPI-SWS, OU=Distributed Systems Group, CN=Andreas Haeberlen/emailAddress=democa@octarine.de
        Validity
            Not Before: Apr 20 20:47:35 2015 GMT
            Not After : Apr 19 20:47:35 2016 GMT
        Subject: C=DE, ST=Saarland, O=MPI-SWS, OU=Distributed Systems Group, CN=5c142f8319e6f549f65eea9b1d0d50badde0c64e/emailAddress=node0867@octarine.de
        Subject Public Key Info:
            Public Key Algorithm: rsaEncryption
            RSA Public Key: (1024 bit)
                Modulus (1024 bit):
                    00:a9:23:49:e5:dd:48:82:ce:b8:24:0b:90:f3:e4:
                    84:94:65:23:54:7d:d3:15:0d:7c:26:e5:d0:9c:ca:
                    4e:f1:9f:b3:ff:20:ff:65:8d:67:35:28:e3:a8:d5:
                    fa:12:d6:84:cd:7b:a9:37:31:aa:c9:e8:1f:97:f7:
                    04:78:69:6b:19:01:a8:57:25:43:bf:1f:04:52:c9:
                    15:b1:92:b9:aa:a1:3b:78:89:12:87:6d:49:a3:0f:
                    13:98:ee:99:a6:bc:2d:0f:c3:59:f3:f4:47:c0:24:
                    96:03:9f:2d:a7:cd:b5:8d:70:99:5f:17:ec:dc:29:
                    0c:b3:2e:2d:16:2b:0b:e4:b3
                Exponent: 65537 (0x10001)
    Signature Algorithm: md5WithRSAEncryption
        28:d5:51:49:f6:53:bb:90:94:eb:34:3d:5e:ab:39:9e:7b:39:
        28:ae:09:73:9e:80:06:86:7d:f6:20:13:db:39:5b:8e:0a:0d:
        5f:ed:9b:6b:75:bb:24:53:c1:22:d5:52:d4:6f:5b:d9:9b:db:
        09:6e:d2:9d:81:61:ef:2f:29:0f:17:c0:60:26:4f:6d:92:33:
        a5:60:13:9b:27:dd:ee:55:51:73:70:45:b8:fb:de:37:70:ac:
        41:22:69:51:03:4c:37:6f:54:04:75:93:1d:84:62:5f:8c:65:
        d4:ca:85:f4:e4:cb:3d:16:58:24:4f:89:3a:fa:49:60:c8:e7:
        2e:88
-----BEGIN CERTIFICATE-----
MIICvDCCAiUCCQCbJ9fo0boLOzANBgkqhkiG9w0BAQQFADCBlTELMAkGA1UEBhMC
REUxETAPBgNVBAgTCFNhYXJsYW5kMRAwDgYDVQQKEwdNUEktU1dTMSIwIAYDVQQL
ExlEaXN0cmlidXRlZCBTeXN0ZW1zIEdyb3VwMRowGAYDVQQDExFBbmRyZWFzIEhh
ZWJlcmxlbjEhMB8GCSqGSIb3DQEJARYSZGVtb2NhQG9jdGFyaW5lLmRlMB4XDTE1
MDQyMDIwNDczNVoXDTE2MDQxOTIwNDczNVowga4xCzAJBgNVBAYTAkRFMREwDwYD
VQQIEwhTYWFybGFuZDEQMA4GA1UEChMHTVBJLVNXUzEiMCAGA1UECxMZRGlzdHJp
YnV0ZWQgU3lzdGVtcyBHcm91cDExMC8GA1UEAxMoNWMxNDJmODMxOWU2ZjU0OWY2
NWVlYTliMWQwZDUwYmFkZGUwYzY0ZTEjMCEGCSqGSIb3DQEJARYUbm9kZTA4NjdA
b2N0YXJpbmUuZGUwgZ8wDQYJKoZIhvcNAQEBBQADgY0AMIGJAoGBAKkjSeXdSILO
uCQLkPPkhJRlI1R90xUNfCbl0JzKTvGfs/8g/2WNZzUo46jV+hLWhM17qTcxqsno
H5f3BHhpaxkBqFclQ78fBFLJFbGSuaqhO3iJEodtSaMPE5jumaa8LQ/DWfP0R8Ak
lgOfLafNtY1wmV8X7NwpDLMuLRYrC+SzAgMBAAEwDQYJKoZIhvcNAQEEBQADgYEA
KNVRSfZTu5CU6zQ9Xqs5nns5KK4Jc56ABoZ99iAT2zlbjgoNX+2ba3W7JFPBItVS
1G9b2ZvbCW7SnYFh7y8pDxfAYCZPbZIzpWATmyfd7lVRc3BFuPveN3CsQSJpUQNM
N29UBHWTHYRiX4xl1MqF9OTLPRZYJE+JOvpJYMjnLog=
-----END CERTIFICATE-----
