Certificate:
    Data:
        Version: 1 (0x0)
        Serial Number:
            9b:27:d7:e8:d1:ba:09:9b
        Signature Algorithm: md5WithRSAEncryption
        Issuer: C=DE, ST=Saarland, O=MPI-SWS, OU=Distributed Systems Group, CN=Andreas Haeberlen/emailAddress=democa@octarine.de
        Validity
            Not Before: Apr 20 20:47:16 2015 GMT
            Not After : Apr 19 20:47:16 2016 GMT
        Subject: C=DE, ST=Saarland, O=MPI-SWS, OU=Distributed Systems Group, CN=a5fe5ada5ef2c0c44011e3a615270a1a0185c602/emailAddress=node0451@octarine.de
        Subject Public Key Info:
            Public Key Algorithm: rsaEncryption
            RSA Public Key: (1024 bit)
                Modulus (1024 bit):
                    00:b4:4f:d0:18:ef:7c:59:d3:d1:30:ff:00:40:5c:
                    68:34:35:7b:68:99:4d:0e:d5:bd:fe:b1:9c:f0:f9:
                    98:98:3d:25:12:bb:3b:b9:fd:74:67:61:db:98:46:
                    a8:3d:f3:f2:70:01:ce:c4:d4:d3:95:0d:1b:1a:f9:
                    37:3a:3d:14:7f:f8:fa:d5:62:82:ee:6d:3e:c8:7a:
                    ea:56:d0:9f:10:63:fb:92:27:3f:06:e0:5f:89:11:
                    6c:23:73:90:e1:1b:99:1f:ea:e5:86:45:1c:88:e5:
                    f9:c7:62:05:a2:1c:fe:36:a7:06:6f:57:3a:d0:92:
                    51:0b:a9:53:f1:52:b7:2f:3f
                Exponent: 65537 (0x10001)
    Signature Algorithm: md5WithRSAEncryption
        86:b5:1e:92:49:0a:ea:57:47:36:77:cd:9b:82:cf:93:e0:b1:
        df:af:e3:9e:74:90:36:9a:77:bb:77:1a:ae:b7:2c:97:d8:a7:
        97:b0:c6:57:99:50:b0:f5:d6:86:a0:81:22:fb:c7:50:de:18:
        6f:4a:bd:85:f1:45:f7:2a:dd:2f:f3:64:92:8a:cc:3c:0d:e1:
        e1:03:be:67:29:d4:8c:8e:a7:6a:33:fc:1e:b4:c6:b2:86:a3:
        18:4c:ad:a4:72:b1:28:e2:15:12:bf:9b:81:bd:28:3e:07:22:
        de:69:23:4c:9b:a2:d9:15:fe:b3:98:0f:79:fd:6d:80:a4:64:
        50:76
-----BEGIN CERTIFICATE-----
MIICvDCCAiUCCQCbJ9fo0boJmzANBgkqhkiG9w0BAQQFADCBlTELMAkGA1UEBhMC
REUxETAPBgNVBAgTCFNhYXJsYW5kMRAwDgYDVQQKEwdNUEktU1dTMSIwIAYDVQQL
ExlEaXN0cmlidXRlZCBTeXN0ZW1zIEdyb3VwMRowGAYDVQQDExFBbmRyZWFzIEhh
ZWJlcmxlbjEhMB8GCSqGSIb3DQEJARYSZGVtb2NhQG9jdGFyaW5lLmRlMB4XDTE1
MDQyMDIwNDcxNloXDTE2MDQxOTIwNDcxNlowga4xCzAJBgNVBAYTAkRFMREwDwYD
VQQIEwhTYWFybGFuZDEQMA4GA1UEChMHTVBJLVNXUzEiMCAGA1UECxMZRGlzdHJp
YnV0ZWQgU3lzdGVtcyBHcm91cDExMC8GA1UEAxMoYTVmZTVhZGE1ZWYyYzBjNDQw
MTFlM2E2MTUyNzBhMWEwMTg1YzYwMjEjMCEGCSqGSIb3DQEJARYUbm9kZTA0NTFA
b2N0YXJpbmUuZGUwgZ8wDQYJKoZIhvcNAQEBBQADgY0AMIGJAoGBALRP0BjvfFnT
0TD/AEBcaDQ1e2iZTQ7Vvf6xnPD5mJg9JRK7O7n9dGdh25hGqD3z8nABzsTU05UN
Gxr5Nzo9FH/4+tVigu5tPsh66lbQnxBj+5InPwbgX4kRbCNzkOEbmR/q5YZFHIjl
+cdiBaIc/janBm9XOtCSUQupU/FSty8/AgMBAAEwDQYJKoZIhvcNAQEEBQADgYEA
hrUekkkK6ldHNnfNm4LPk+Cx36/jnnSQNpp3u3carrcsl9inl7DGV5lQsPXWhqCB
IvvHUN4Yb0q9hfFF9yrdL/NkkorMPA3h4QO+ZynUjI6najP8HrTGsoajGEytpHKx
KOIVEr+bgb0oPgci3mkjTJui2RX+s5gPef1tgKRkUHY=
-----END CERTIFICATE-----
