Certificate:
    Data:
        Version: 1 (0x0)
        Serial Number:
            9b:27:d7:e8:d1:ba:0a:ab
        Signature Algorithm: md5WithRSAEncryption
        Issuer: C=DE, ST=Saarland, O=MPI-SWS, OU=Distributed Systems Group, CN=Andreas Haeberlen/emailAddress=democa@octarine.de
        Validity
            Not Before: Apr 20 20:47:29 2015 GMT
            Not After : Apr 19 20:47:29 2016 GMT
        Subject: C=DE, ST=Saarland, O=MPI-SWS, OU=Distributed Systems Group, CN=91e268b4dd11c13be514f6b8cb4695f37d5d6014/emailAddress=node0723@octarine.de
        Subject Public Key Info:
            Public Key Algorithm: rsaEncryption
            RSA Public Key: (1024 bit)
                Modulus (1024 bit):
                    00:a4:df:63:53:6f:46:e8:f3:27:43:16:55:96:74:
                    8b:53:1d:da:4a:89:1b:54:bb:e4:d7:94:3d:74:f9:
                    98:51:91:cb:f0:dd:37:b5:50:d3:78:0c:5a:7d:91:
                    8a:74:1f:59:10:ef:b1:34:a9:e0:d1:18:20:bb:c6:
                    36:b1:b4:9d:db:fe:fc:ae:83:fd:9e:89:5a:af:7e:
                    f9:dd:37:95:53:9f:9b:8f:3f:d2:ee:23:08:f9:c9:
                    ac:32:b2:db:03:69:2b:84:8d:93:bd:10:f2:14:9d:
                    c1:86:7e:2f:73:c9:3b:18:25:b9:da:a7:df:5c:f5:
                    01:07:78:f7:ec:d5:3d:02:f5
                Exponent: 65537 (0x10001)
    Signature Algorithm: md5WithRSAEncryption
        10:7e:3d:17:94:cb:01:92:9d:2b:65:48:85:7f:6e:17:76:bc:
        d8:23:b6:a9:c6:6f:d9:55:ae:d8:93:83:4f:43:02:8f:d6:b5:
        20:90:7c:40:88:88:6a:63:97:e3:a7:bb:4f:d6:b1:e1:a2:f2:
        00:6e:c2:10:4e:86:c3:76:13:b9:a2:d5:d4:d5:7f:53:8f:e5:
        35:fe:43:94:9d:88:7f:f6:5a:6a:99:f3:70:3a:e7:2d:b4:6e:
        f5:c0:ba:3f:6b:1e:07:5e:40:37:99:04:e6:d6:d1:72:a7:02:
        30:43:a4:64:a4:71:47:89:e1:3f:cb:e7:ed:ab:a3:74:04:b7:
        57:d8
-----BEGIN CERTIFICATE-----
MIICvDCCAiUCCQCbJ9fo0boKqzANBgkqhkiG9w0BAQQFADCBlTELMAkGA1UEBhMC
REUxETAPBgNVBAgTCFNhYXJsYW5kMRAwDgYDVQQKEwdNUEktU1dTMSIwIAYDVQQL
ExlEaXN0cmlidXRlZCBTeXN0ZW1zIEdyb3VwMRowGAYDVQQDExFBbmRyZWFzIEhh
ZWJlcmxlbjEhMB8GCSqGSIb3DQEJARYSZGVtb2NhQG9jdGFyaW5lLmRlMB4XDTE1
MDQyMDIwNDcyOVoXDTE2MDQxOTIwNDcyOVowga4xCzAJBgNVBAYTAkRFMREwDwYD
VQQIEwhTYWFybGFuZDEQMA4GA1UEChMHTVBJLVNXUzEiMCAGA1UECxMZRGlzdHJp
YnV0ZWQgU3lzdGVtcyBHcm91cDExMC8GA1UEAxMoOTFlMjY4YjRkZDExYzEzYmU1
MTRmNmI4Y2I0Njk1ZjM3ZDVkNjAxNDEjMCEGCSqGSIb3DQEJARYUbm9kZTA3MjNA
b2N0YXJpbmUuZGUwgZ8wDQYJKoZIhvcNAQEBBQADgY0AMIGJAoGBAKTfY1NvRujz
J0MWVZZ0i1Md2kqJG1S75NeUPXT5mFGRy/DdN7VQ03gMWn2RinQfWRDvsTSp4NEY
ILvGNrG0ndv+/K6D/Z6JWq9++d03lVOfm48/0u4jCPnJrDKy2wNpK4SNk70Q8hSd
wYZ+L3PJOxgludqn31z1AQd49+zVPQL1AgMBAAEwDQYJKoZIhvcNAQEEBQADgYEA
EH49F5TLAZKdK2VIhX9uF3a82CO2qcZv2VWu2JODT0MCj9a1IJB8QIiIamOX46e7
T9ax4aLyAG7CEE6Gw3YTuaLV1NV/U4/lNf5DlJ2If/ZaapnzcDrnLbRu9cC6P2se
B15AN5kE5tbRcqcCMEOkZKRxR4nhP8vn7aujdAS3V9g=
-----END CERTIFICATE-----
