Certificate:
    Data:
        Version: 1 (0x0)
        Serial Number:
            9b:27:d7:e8:d1:ba:0a:80
        Signature Algorithm: md5WithRSAEncryption
        Issuer: C=DE, ST=Saarland, O=MPI-SWS, OU=Distributed Systems Group, CN=Andreas Haeberlen/emailAddress=democa@octarine.de
        Validity
            Not Before: Apr 20 20:47:27 2015 GMT
            Not After : Apr 19 20:47:27 2016 GMT
        Subject: C=DE, ST=Saarland, O=MPI-SWS, OU=Distributed Systems Group, CN=94cc77555cddaaff2ed7d88fc66cb295751ec642/emailAddress=node0680@octarine.de
        Subject Public Key Info:
            Public Key Algorithm: rsaEncryption
            RSA Public Key: (1024 bit)
                Modulus (1024 bit):
                    00:d7:30:2b:7e:b7:0a:0c:ab:d9:de:5c:3e:01:dd:
                    87:2d:e0:06:a0:3c:8e:bb:3a:55:fa:6f:c7:df:7f:
                    a7:63:f2:a7:e8:19:0e:df:5d:d1:08:11:69:cf:f6:
                    57:d6:e0:70:7f:e5:e8:cd:c9:46:ef:e1:fd:fb:d1:
                    4f:aa:36:0d:67:50:d5:04:38:45:2a:74:7f:c1:66:
                    b0:ff:a1:b6:b4:1f:54:db:60:73:9e:b6:fe:01:9f:
                    f2:c8:1b:50:36:bb:0b:fd:b6:5e:23:b8:56:c2:22:
                    bf:da:98:d1:2a:54:7f:3e:c6:ea:31:a7:7d:a1:94:
                    59:23:1e:19:6a:09:f8:7a:25
                Exponent: 65537 (0x10001)
    Signature Algorithm: md5WithRSAEncryption
        c0:29:b1:9c:43:71:a9:15:66:2f:da:a3:e7:80:9e:68:1b:da:
        6f:62:b9:e1:61:da:83:75:b6:04:73:82:26:29:08:3b:7f:05:
        38:d9:28:85:a6:b3:45:3c:de:09:6e:c4:de:c2:8e:02:73:23:
        0c:6c:3e:57:20:57:e4:ed:a9:37:27:05:cc:23:db:c5:05:f9:
        ec:2b:45:4c:48:f2:02:af:3f:63:50:37:56:31:c6:81:a7:5d:
        b4:9f:dd:a5:67:21:d0:54:f5:21:d7:81:c8:12:df:a1:8d:79:
        6c:9f:e2:fa:92:1b:57:64:d2:55:fd:27:05:f1:d7:ed:a7:08:
        12:3a
-----BEGIN CERTIFICATE-----
MIICvDCCAiUCCQCbJ9fo0boKgDANBgkqhkiG9w0BAQQFADCBlTELMAkGA1UEBhMC
REUxETAPBgNVBAgTCFNhYXJsYW5kMRAwDgYDVQQKEwdNUEktU1dTMSIwIAYDVQQL
ExlEaXN0cmlidXRlZCBTeXN0ZW1zIEdyb3VwMRowGAYDVQQDExFBbmRyZWFzIEhh
ZWJlcmxlbjEhMB8GCSqGSIb3DQEJARYSZGVtb2NhQG9jdGFyaW5lLmRlMB4XDTE1
MDQyMDIwNDcyN1oXDTE2MDQxOTIwNDcyN1owga4xCzAJBgNVBAYTAkRFMREwDwYD
VQQIEwhTYWFybGFuZDEQMA4GA1UEChMHTVBJLVNXUzEiMCAGA1UECxMZRGlzdHJp
YnV0ZWQgU3lzdGVtcyBHcm91cDExMC8GA1UEAxMoOTRjYzc3NTU1Y2RkYWFmZjJl
ZDdkODhmYzY2Y2IyOTU3NTFlYzY0MjEjMCEGCSqGSIb3DQEJARYUbm9kZTA2ODBA
b2N0YXJpbmUuZGUwgZ8wDQYJKoZIhvcNAQEBBQADgY0AMIGJAoGBANcwK363Cgyr
2d5cPgHdhy3gBqA8jrs6Vfpvx99/p2Pyp+gZDt9d0QgRac/2V9bgcH/l6M3JRu/h
/fvRT6o2DWdQ1QQ4RSp0f8FmsP+htrQfVNtgc562/gGf8sgbUDa7C/22XiO4VsIi
v9qY0SpUfz7G6jGnfaGUWSMeGWoJ+HolAgMBAAEwDQYJKoZIhvcNAQEEBQADgYEA
wCmxnENxqRVmL9qj54CeaBvab2K54WHag3W2BHOCJikIO38FONkohaazRTzeCW7E
3sKOAnMjDGw+VyBX5O2pNycFzCPbxQX57CtFTEjyAq8/Y1A3VjHGgaddtJ/dpWch
0FT1IdeByBLfoY15bJ/i+pIbV2TSVf0nBfHX7acIEjo=
-----END CERTIFICATE-----
