Certificate:
    Data:
        Version: 1 (0x0)
        Serial Number:
            9b:27:d7:e8:d1:ba:09:de
        Signature Algorithm: md5WithRSAEncryption
        Issuer: C=DE, ST=Saarland, O=MPI-SWS, OU=Distributed Systems Group, CN=Andreas Haeberlen/emailAddress=democa@octarine.de
        Validity
            Not Before: Apr 20 20:47:19 2015 GMT
            Not After : Apr 19 20:47:19 2016 GMT
        Subject: C=DE, ST=Saarland, O=MPI-SWS, OU=Distributed Systems Group, CN=8d6be64861a7d66322b20d5a573a00f8d54cc953/emailAddress=node0518@octarine.de
        Subject Public Key Info:
            Public Key Algorithm: rsaEncryption
            RSA Public Key: (1024 bit)
                Modulus (1024 bit):
                    00:e7:e6:34:ee:58:a9:7f:34:65:ea:94:28:87:c2:
                    ea:70:3a:c5:a6:46:fa:ea:26:55:6d:1e:ae:13:3d:
                    50:f8:22:15:e1:96:e6:ca:c0:22:45:cb:54:a0:14:
                    d5:a0:e3:44:d8:0c:a9:09:6a:61:2b:59:d1:97:e7:
                    e2:16:ea:ab:3e:b6:56:af:ef:03:28:3f:d5:7d:bd:
                    9f:c7:d2:1d:be:57:63:85:56:b1:47:7a:0b:51:8b:
                    b8:96:2a:38:17:73:57:bb:7d:5f:4b:4a:ad:0b:05:
                    a6:5e:42:43:b7:2f:59:c6:2d:ad:cd:23:0f:3d:7b:
                    2a:54:8e:39:00:af:29:28:55
                Exponent: 65537 (0x10001)
    Signature Algorithm: md5WithRSAEncryption
        8c:53:72:e6:27:49:2d:11:e5:bc:29:9a:7d:ed:26:7d:e4:7e:
        2c:90:14:52:0b:f7:1e:61:0d:34:ba:35:f1:3c:71:76:8c:1c:
        fc:53:0f:da:bd:58:b6:df:b0:48:10:a9:55:bb:49:dc:80:aa:
        39:7e:c3:89:14:7c:5f:09:54:11:c6:c1:63:de:8c:75:c2:b0:
        ed:be:be:32:e3:28:40:37:e1:0a:94:63:54:d8:85:71:b6:1f:
        87:64:16:fd:54:10:db:01:05:a1:56:15:a9:fd:91:a2:11:9f:
        ed:21:9d:b2:af:85:98:5b:36:7f:70:ad:51:30:6c:de:c7:ac:
        cb:14
-----BEGIN CERTIFICATE-----
MIICvDCCAiUCCQCbJ9fo0boJ3jANBgkqhkiG9w0BAQQFADCBlTELMAkGA1UEBhMC
REUxETAPBgNVBAgTCFNhYXJsYW5kMRAwDgYDVQQKEwdNUEktU1dTMSIwIAYDVQQL
ExlEaXN0cmlidXRlZCBTeXN0ZW1zIEdyb3VwMRowGAYDVQQDExFBbmRyZWFzIEhh
ZWJlcmxlbjEhMB8GCSqGSIb3DQEJARYSZGVtb2NhQG9jdGFyaW5lLmRlMB4XDTE1
MDQyMDIwNDcxOVoXDTE2MDQxOTIwNDcxOVowga4xCzAJBgNVBAYTAkRFMREwDwYD
VQQIEwhTYWFybGFuZDEQMA4GA1UEChMHTVBJLVNXUzEiMCAGA1UECxMZRGlzdHJp
YnV0ZWQgU3lzdGVtcyBHcm91cDExMC8GA1UEAxMoOGQ2YmU2NDg2MWE3ZDY2MzIy
YjIwZDVhNTczYTAwZjhkNTRjYzk1MzEjMCEGCSqGSIb3DQEJARYUbm9kZTA1MThA
b2N0YXJpbmUuZGUwgZ8wDQYJKoZIhvcNAQEBBQADgY0AMIGJAoGBAOfmNO5YqX80
ZeqUKIfC6nA6xaZG+uomVW0erhM9UPgiFeGW5srAIkXLVKAU1aDjRNgMqQlqYStZ
0Zfn4hbqqz62Vq/vAyg/1X29n8fSHb5XY4VWsUd6C1GLuJYqOBdzV7t9X0tKrQsF
pl5CQ7cvWcYtrc0jDz17KlSOOQCvKShVAgMBAAEwDQYJKoZIhvcNAQEEBQADgYEA
jFNy5idJLRHlvCmafe0mfeR+LJAUUgv3HmENNLo18Txxdowc/FMP2r1Ytt+wSBCp
VbtJ3ICqOX7DiRR8XwlUEcbBY96MdcKw7b6+MuMoQDfhCpRjVNiFcbYfh2QW/VQQ
2wEFoVYVqf2RohGf7SGdsq+FmFs2f3CtUTBs3sesyxQ=
-----END CERTIFICATE-----
