Certificate:
    Data:
        Version: 1 (0x0)
        Serial Number:
            9b:27:d7:e8:d1:ba:09:2b
        Signature Algorithm: md5WithRSAEncryption
        Issuer: C=DE, ST=Saarland, O=MPI-SWS, OU=Distributed Systems Group, CN=Andreas Haeberlen/emailAddress=democa@octarine.de
        Validity
            Not Before: Apr 20 20:47:11 2015 GMT
            Not After : Apr 19 20:47:11 2016 GMT
        Subject: C=DE, ST=Saarland, O=MPI-SWS, OU=Distributed Systems Group, CN=dcfceb93b7bb68dac767684bbfab9fe7be49add5/emailAddress=node0339@octarine.de
        Subject Public Key Info:
            Public Key Algorithm: rsaEncryption
            RSA Public Key: (1024 bit)
                Modulus (1024 bit):
                    00:a7:ec:e0:1f:ae:d5:4b:85:99:da:c5:7e:1e:86:
                    07:29:2b:dd:0b:e5:44:97:49:f1:cd:0d:96:de:1d:
                    ea:d7:17:bf:a2:89:e0:08:28:af:fa:c2:d4:4f:47:
                    a1:d6:74:8e:44:c0:99:e3:9c:3f:59:81:74:d9:22:
                    0f:6c:39:2a:d3:4d:d0:d1:ce:2a:5c:28:13:93:39:
                    e7:a0:a5:1b:fa:b0:0f:eb:68:7d:df:1e:1a:a4:dd:
                    5d:21:45:81:a9:75:ea:7b:43:bd:25:e8:c8:df:7c:
                    29:e0:08:7a:c7:fc:f1:a6:b0:cd:d6:aa:ae:ec:7c:
                    d5:7f:67:99:05:27:78:4e:21
                Exponent: 65537 (0x10001)
    Signature Algorithm: md5WithRSAEncryption
        6d:d5:a6:88:50:f9:53:e1:08:24:31:13:a2:57:21:ef:76:b3:
        2e:82:12:bc:a1:59:b6:e0:03:bf:f9:9f:18:4c:2d:12:7a:e8:
        83:c3:b6:e1:86:71:9a:54:b2:29:60:93:b1:7e:a2:d5:a4:e6:
        59:e9:11:bd:00:31:e6:c5:67:4f:fa:a0:49:6f:cd:d0:a9:47:
        33:be:84:f7:e2:17:d0:be:b5:13:3a:1a:ad:2e:38:b2:2a:37:
        3a:a0:01:0f:aa:1c:60:96:05:22:77:aa:56:17:d5:88:6f:1e:
        01:df:05:c3:aa:1e:2e:30:0b:72:4c:d2:8d:94:90:a6:8c:47:
        c8:17
-----BEGIN CERTIFICATE-----
MIICvDCCAiUCCQCbJ9fo0boJKzANBgkqhkiG9w0BAQQFADCBlTELMAkGA1UEBhMC
REUxETAPBgNVBAgTCFNhYXJsYW5kMRAwDgYDVQQKEwdNUEktU1dTMSIwIAYDVQQL
ExlEaXN0cmlidXRlZCBTeXN0ZW1zIEdyb3VwMRowGAYDVQQDExFBbmRyZWFzIEhh
ZWJlcmxlbjEhMB8GCSqGSIb3DQEJARYSZGVtb2NhQG9jdGFyaW5lLmRlMB4XDTE1
MDQyMDIwNDcxMVoXDTE2MDQxOTIwNDcxMVowga4xCzAJBgNVBAYTAkRFMREwDwYD
VQQIEwhTYWFybGFuZDEQMA4GA1UEChMHTVBJLVNXUzEiMCAGA1UECxMZRGlzdHJp
YnV0ZWQgU3lzdGVtcyBHcm91cDExMC8GA1UEAxMoZGNmY2ViOTNiN2JiNjhkYWM3
Njc2ODRiYmZhYjlmZTdiZTQ5YWRkNTEjMCEGCSqGSIb3DQEJARYUbm9kZTAzMzlA
b2N0YXJpbmUuZGUwgZ8wDQYJKoZIhvcNAQEBBQADgY0AMIGJAoGBAKfs4B+u1UuF
mdrFfh6GBykr3QvlRJdJ8c0Nlt4d6tcXv6KJ4Agor/rC1E9HodZ0jkTAmeOcP1mB
dNkiD2w5KtNN0NHOKlwoE5M556ClG/qwD+tofd8eGqTdXSFFgal16ntDvSXoyN98
KeAIesf88aawzdaqrux81X9nmQUneE4hAgMBAAEwDQYJKoZIhvcNAQEEBQADgYEA
bdWmiFD5U+EIJDETolch73azLoISvKFZtuADv/mfGEwtEnrog8O24YZxmlSyKWCT
sX6i1aTmWekRvQAx5sVnT/qgSW/N0KlHM76E9+IX0L61EzoarS44sio3OqABD6oc
YJYFIneqVhfViG8eAd8Fw6oeLjALckzSjZSQpoxHyBc=
-----END CERTIFICATE-----
