Certificate:
    Data:
        Version: 1 (0x0)
        Serial Number:
            9b:27:d7:e8:d1:ba:0b:ad
        Signature Algorithm: md5WithRSAEncryption
        Issuer: C=DE, ST=Saarland, O=MPI-SWS, OU=Distributed Systems Group, CN=Andreas Haeberlen/emailAddress=democa@octarine.de
        Validity
            Not Before: Apr 20 20:47:40 2015 GMT
            Not After : Apr 19 20:47:40 2016 GMT
        Subject: C=DE, ST=Saarland, O=MPI-SWS, OU=Distributed Systems Group, CN=325b72e9d899d07b427b167765f241883e4a024e/emailAddress=node0981@octarine.de
        Subject Public Key Info:
            Public Key Algorithm: rsaEncryption
            RSA Public Key: (1024 bit)
                Modulus (1024 bit):
                    00:b7:a6:77:70:a7:66:b8:f0:34:eb:e3:b5:61:5c:
                    fc:8b:07:48:ca:06:05:53:a2:f8:1e:44:99:8e:f6:
                    c6:78:25:30:4e:52:a3:77:02:85:3f:9f:17:26:d4:
                    7e:cc:e8:b5:16:7f:ee:65:c8:ce:9c:63:c0:60:60:
                    ad:cf:80:59:54:b9:69:1b:9b:0d:3f:13:fc:4e:d3:
                    e0:a2:dd:70:97:81:2c:02:9a:71:94:9a:dd:0c:ef:
                    5c:94:17:98:a4:dd:2a:bc:f6:ff:77:c4:77:04:4f:
                    35:d8:a7:7f:ef:58:65:54:31:25:a8:43:72:0a:27:
                    5e:23:2d:c1:d2:0f:43:10:03
                Exponent: 65537 (0x10001)
    Signature Algorithm: md5WithRSAEncryption
        1d:20:af:52:d1:d0:2e:dc:85:2a:3b:dc:a9:f3:07:f7:58:9f:
        50:0e:d0:4b:8a:4e:ba:e9:32:b7:b5:89:e8:40:89:85:6f:c3:
        d9:5e:2e:d5:fe:53:e4:8e:c0:46:21:24:2f:72:82:60:36:6a:
        7b:32:20:cd:bf:8f:94:23:4e:04:9b:8b:29:2c:52:a1:7a:cf:
        87:0d:51:c6:10:a7:c5:42:96:62:b3:4b:78:0f:35:7e:28:d9:
        b1:ed:71:8b:c9:e9:ca:6e:e1:62:23:32:36:44:9f:9f:b9:2d:
        0a:20:4a:cf:a5:03:96:d2:db:14:9f:aa:40:ac:3f:a8:e0:43:
        c1:7f
-----BEGIN CERTIFICATE-----
MIICvDCCAiUCCQCbJ9fo0boLrTANBgkqhkiG9w0BAQQFADCBlTELMAkGA1UEBhMC
REUxETAPBgNVBAgTCFNhYXJsYW5kMRAwDgYDVQQKEwdNUEktU1dTMSIwIAYDVQQL
ExlEaXN0cmlidXRlZCBTeXN0ZW1zIEdyb3VwMRowGAYDVQQDExFBbmRyZWFzIEhh
ZWJlcmxlbjEhMB8GCSqGSIb3DQEJARYSZGVtb2NhQG9jdGFyaW5lLmRlMB4XDTE1
MDQyMDIwNDc0MFoXDTE2MDQxOTIwNDc0MFowga4xCzAJBgNVBAYTAkRFMREwDwYD
VQQIEwhTYWFybGFuZDEQMA4GA1UEChMHTVBJLVNXUzEiMCAGA1UECxMZRGlzdHJp
YnV0ZWQgU3lzdGVtcyBHcm91cDExMC8GA1UEAxMoMzI1YjcyZTlkODk5ZDA3YjQy
N2IxNjc3NjVmMjQxODgzZTRhMDI0ZTEjMCEGCSqGSIb3DQEJARYUbm9kZTA5ODFA
b2N0YXJpbmUuZGUwgZ8wDQYJKoZIhvcNAQEBBQADgY0AMIGJAoGBALemd3CnZrjw
NOvjtWFc/IsHSMoGBVOi+B5EmY72xnglME5So3cChT+fFybUfszotRZ/7mXIzpxj
wGBgrc+AWVS5aRubDT8T/E7T4KLdcJeBLAKacZSa3QzvXJQXmKTdKrz2/3fEdwRP
Ndinf+9YZVQxJahDcgonXiMtwdIPQxADAgMBAAEwDQYJKoZIhvcNAQEEBQADgYEA
HSCvUtHQLtyFKjvcqfMH91ifUA7QS4pOuukyt7WJ6ECJhW/D2V4u1f5T5I7ARiEk
L3KCYDZqezIgzb+PlCNOBJuLKSxSoXrPhw1RxhCnxUKWYrNLeA81fijZse1xi8np
ym7hYiMyNkSfn7ktCiBKz6UDltLbFJ+qQKw/qOBDwX8=
-----END CERTIFICATE-----
