Certificate:
    Data:
        Version: 1 (0x0)
        Serial Number:
            9b:27:d7:e8:d1:ba:09:16
        Signature Algorithm: md5WithRSAEncryption
        Issuer: C=DE, ST=Saarland, O=MPI-SWS, OU=Distributed Systems Group, CN=Andreas Haeberlen/emailAddress=democa@octarine.de
        Validity
            Not Before: Apr 20 20:47:10 2015 GMT
            Not After : Apr 19 20:47:10 2016 GMT
        Subject: C=DE, ST=Saarland, O=MPI-SWS, OU=Distributed Systems Group, CN=743de6bfc8d71fa8de6250048a9ec3747a161c6d/emailAddress=node0318@octarine.de
        Subject Public Key Info:
            Public Key Algorithm: rsaEncryption
            RSA Public Key: (1024 bit)
                Modulus (1024 bit):
                    00:b0:89:29:cc:6f:28:de:6b:43:65:e5:34:be:93:
                    d7:45:a4:b8:ea:40:c9:81:6e:cc:c0:54:25:67:5c:
                    c4:24:e6:c8:64:9b:9d:13:fc:8c:67:0f:b0:19:3f:
                    83:de:a3:1f:2b:a0:19:dd:aa:98:de:a3:3b:b3:34:
                    1f:d2:e4:1f:80:cb:75:a7:28:e1:a3:96:58:94:67:
                    43:e7:81:03:7d:2a:23:e6:57:dd:51:4e:6c:45:b3:
                    42:74:88:06:08:e7:5a:55:1e:fb:67:46:c5:63:f3:
                    ec:60:d9:da:a1:e1:c1:3e:f4:3d:94:eb:24:eb:03:
                    25:2b:64:60:47:c7:a7:5e:53
                Exponent: 65537 (0x10001)
    Signature Algorithm: md5WithRSAEncryption
        44:b2:04:ba:d7:dc:2d:2f:fc:62:d2:a4:ca:c3:e9:77:81:51:
        5a:5b:5d:45:10:d8:de:21:08:e7:0b:3f:bc:87:c8:80:ee:95:
        62:70:2b:44:ec:de:b7:79:55:dd:42:6b:6f:2a:e7:60:d9:72:
        52:11:50:fa:a1:86:60:62:71:47:11:a0:74:25:a3:08:d2:8e:
        5c:2c:25:d0:bf:58:be:1c:11:bb:c3:aa:c4:69:da:a4:b2:41:
        4e:b0:bc:11:f2:63:8f:e9:f5:56:87:1e:a4:50:fc:ca:54:69:
        7e:82:97:7f:73:6f:21:9e:dc:86:98:17:0a:90:3c:ed:e4:05:
        e0:60
-----BEGIN CERTIFICATE-----
MIICvDCCAiUCCQCbJ9fo0boJFjANBgkqhkiG9w0BAQQFADCBlTELMAkGA1UEBhMC
REUxETAPBgNVBAgTCFNhYXJsYW5kMRAwDgYDVQQKEwdNUEktU1dTMSIwIAYDVQQL
ExlEaXN0cmlidXRlZCBTeXN0ZW1zIEdyb3VwMRowGAYDVQQDExFBbmRyZWFzIEhh
ZWJlcmxlbjEhMB8GCSqGSIb3DQEJARYSZGVtb2NhQG9jdGFyaW5lLmRlMB4XDTE1
MDQyMDIwNDcxMFoXDTE2MDQxOTIwNDcxMFowga4xCzAJBgNVBAYTAkRFMREwDwYD
VQQIEwhTYWFybGFuZDEQMA4GA1UEChMHTVBJLVNXUzEiMCAGA1UECxMZRGlzdHJp
YnV0ZWQgU3lzdGVtcyBHcm91cDExMC8GA1UEAxMoNzQzZGU2YmZjOGQ3MWZhOGRl
NjI1MDA0OGE5ZWMzNzQ3YTE2MWM2ZDEjMCEGCSqGSIb3DQEJARYUbm9kZTAzMThA
b2N0YXJpbmUuZGUwgZ8wDQYJKoZIhvcNAQEBBQADgY0AMIGJAoGBALCJKcxvKN5r
Q2XlNL6T10WkuOpAyYFuzMBUJWdcxCTmyGSbnRP8jGcPsBk/g96jHyugGd2qmN6j
O7M0H9LkH4DLdaco4aOWWJRnQ+eBA30qI+ZX3VFObEWzQnSIBgjnWlUe+2dGxWPz
7GDZ2qHhwT70PZTrJOsDJStkYEfHp15TAgMBAAEwDQYJKoZIhvcNAQEEBQADgYEA
RLIEutfcLS/8YtKkysPpd4FRWltdRRDY3iEI5ws/vIfIgO6VYnArROzet3lV3UJr
byrnYNlyUhFQ+qGGYGJxRxGgdCWjCNKOXCwl0L9YvhwRu8OqxGnapLJBTrC8EfJj
j+n1VocepFD8ylRpfoKXf3NvIZ7chpgXCpA87eQF4GA=
-----END CERTIFICATE-----
