Certificate:
    Data:
        Version: 1 (0x0)
        Serial Number:
            9b:27:d7:e8:d1:ba:0a:da
        Signature Algorithm: md5WithRSAEncryption
        Issuer: C=DE, ST=Saarland, O=MPI-SWS, OU=Distributed Systems Group, CN=Andreas Haeberlen/emailAddress=democa@octarine.de
        Validity
            Not Before: Apr 20 20:47:31 2015 GMT
            Not After : Apr 19 20:47:31 2016 GMT
        Subject: C=DE, ST=Saarland, O=MPI-SWS, OU=Distributed Systems Group, CN=f4c08578d5741414efb6cf9a566933a37730db9a/emailAddress=node0770@octarine.de
        Subject Public Key Info:
            Public Key Algorithm: rsaEncryption
            RSA Public Key: (1024 bit)
                Modulus (1024 bit):
                    00:a3:db:20:65:60:35:42:c1:4a:e2:3c:e2:1b:25:
                    76:6c:72:e3:cd:5a:36:28:58:6b:d3:3d:65:57:b6:
                    d1:b4:78:19:cb:2f:8d:2b:10:10:97:31:48:6c:92:
                    16:fe:bd:88:0b:ca:d4:b0:14:46:92:96:e6:f4:6b:
                    61:ba:c4:03:fc:22:0c:d7:4f:05:15:ea:2d:ff:be:
                    98:f0:90:eb:b9:49:8e:50:59:86:ef:d3:db:d5:b3:
                    0b:4a:ac:a8:ca:f6:b4:e8:ed:01:9f:c9:ae:4d:c5:
                    8c:8c:8f:30:49:85:3f:8e:a0:92:2c:e2:e9:87:69:
                    b4:92:2d:28:53:d1:d6:28:db
                Exponent: 65537 (0x10001)
    Signature Algorithm: md5WithRSAEncryption
        a3:57:39:2b:75:d2:2b:e5:53:f0:d6:a7:28:be:6d:06:a5:8d:
        0d:b2:27:3d:9b:46:a4:2a:c8:8d:73:dd:a6:d8:99:20:22:b4:
        ac:c3:23:3e:c7:2a:90:7a:44:76:4b:0b:88:2e:1f:e4:9e:d9:
        20:0b:1f:1c:21:05:62:ef:15:b5:d2:5e:73:ed:62:ed:6e:19:
        90:76:c4:bf:2d:83:e1:80:d1:86:4c:30:d0:1a:af:95:02:22:
        9b:43:b0:f4:a6:b8:bb:08:c5:cf:cd:71:28:a8:23:49:5e:ec:
        12:11:f0:67:9d:18:c0:31:fd:c8:16:54:5e:4b:7b:39:4a:07:
        51:8d
-----BEGIN CERTIFICATE-----
MIICvDCCAiUCCQCbJ9fo0boK2jANBgkqhkiG9w0BAQQFADCBlTELMAkGA1UEBhMC
REUxETAPBgNVBAgTCFNhYXJsYW5kMRAwDgYDVQQKEwdNUEktU1dTMSIwIAYDVQQL
ExlEaXN0cmlidXRlZCBTeXN0ZW1zIEdyb3VwMRowGAYDVQQDExFBbmRyZWFzIEhh
ZWJlcmxlbjEhMB8GCSqGSIb3DQEJARYSZGVtb2NhQG9jdGFyaW5lLmRlMB4XDTE1
MDQyMDIwNDczMVoXDTE2MDQxOTIwNDczMVowga4xCzAJBgNVBAYTAkRFMREwDwYD
VQQIEwhTYWFybGFuZDEQMA4GA1UEChMHTVBJLVNXUzEiMCAGA1UECxMZRGlzdHJp
YnV0ZWQgU3lzdGVtcyBHcm91cDExMC8GA1UEAxMoZjRjMDg1NzhkNTc0MTQxNGVm
YjZjZjlhNTY2OTMzYTM3NzMwZGI5YTEjMCEGCSqGSIb3DQEJARYUbm9kZTA3NzBA
b2N0YXJpbmUuZGUwgZ8wDQYJKoZIhvcNAQEBBQADgY0AMIGJAoGBAKPbIGVgNULB
SuI84hsldmxy481aNihYa9M9ZVe20bR4GcsvjSsQEJcxSGySFv69iAvK1LAURpKW
5vRrYbrEA/wiDNdPBRXqLf++mPCQ67lJjlBZhu/T29WzC0qsqMr2tOjtAZ/Jrk3F
jIyPMEmFP46gkizi6YdptJItKFPR1ijbAgMBAAEwDQYJKoZIhvcNAQEEBQADgYEA
o1c5K3XSK+VT8NanKL5tBqWNDbInPZtGpCrIjXPdptiZICK0rMMjPscqkHpEdksL
iC4f5J7ZIAsfHCEFYu8VtdJec+1i7W4ZkHbEvy2D4YDRhkww0BqvlQIim0Ow9Ka4
uwjFz81xKKgjSV7sEhHwZ50YwDH9yBZUXkt7OUoHUY0=
-----END CERTIFICATE-----
