Certificate:
    Data:
        Version: 1 (0x0)
        Serial Number:
            9b:27:d7:e8:d1:ba:08:2a
        Signature Algorithm: md5WithRSAEncryption
        Issuer: C=DE, ST=Saarland, O=MPI-SWS, OU=Distributed Systems Group, CN=Andreas Haeberlen/emailAddress=democa@octarine.de
        Validity
            Not Before: Apr 20 20:47:00 2015 GMT
            Not After : Apr 19 20:47:00 2016 GMT
        Subject: C=DE, ST=Saarland, O=MPI-SWS, OU=Distributed Systems Group, CN=34c1af8726995808c51dbcb344cb3877d3883105/emailAddress=node0082@octarine.de
        Subject Public Key Info:
            Public Key Algorithm: rsaEncryption
            RSA Public Key: (1024 bit)
                Modulus (1024 bit):
                    00:bb:69:fd:98:ba:d1:1b:56:4e:d5:5d:6e:ef:b7:
                    7e:59:cc:33:c3:81:eb:6d:4b:12:dc:0d:f2:74:f0:
                    69:ce:cf:c9:47:25:cd:07:48:bd:af:14:ea:0c:12:
                    31:93:7c:42:f1:3d:b6:e8:6c:f7:8f:55:1d:c7:f7:
                    a5:6b:af:f0:fa:33:98:54:3a:4f:80:c8:ed:d5:ab:
                    19:e0:32:6c:55:ef:26:5d:7c:79:7f:9b:7f:e7:88:
                    14:aa:8f:5c:a8:96:a8:ac:e5:24:a3:c3:6c:0d:aa:
                    69:ce:db:46:ba:71:06:84:b0:c1:f1:3e:33:fc:32:
                    48:1d:6a:f4:0b:ac:54:00:3b
                Exponent: 65537 (0x10001)
    Signature Algorithm: md5WithRSAEncryption
        78:a9:79:2a:25:9e:aa:a4:54:36:08:ba:f4:51:fd:f6:ee:1e:
        ad:84:e2:86:d8:b6:22:e8:64:c7:00:55:3f:f9:cf:f7:89:e7:
        88:ec:45:74:17:ba:84:8a:25:1b:9e:d9:9c:5c:0c:72:b3:05:
        6a:1e:17:c5:0e:58:67:51:61:0a:ae:81:be:e9:f8:36:66:8c:
        2e:18:0b:49:0d:54:1e:ec:1d:c0:4a:05:7d:e6:23:ee:cd:23:
        b4:33:dd:ac:8d:42:91:e6:31:f9:a6:86:d8:6c:a5:7e:19:35:
        89:4b:80:4f:54:64:5e:ea:39:08:ce:2d:48:46:3f:8f:3e:20:
        43:7b
-----BEGIN CERTIFICATE-----
MIICvDCCAiUCCQCbJ9fo0boIKjANBgkqhkiG9w0BAQQFADCBlTELMAkGA1UEBhMC
REUxETAPBgNVBAgTCFNhYXJsYW5kMRAwDgYDVQQKEwdNUEktU1dTMSIwIAYDVQQL
ExlEaXN0cmlidXRlZCBTeXN0ZW1zIEdyb3VwMRowGAYDVQQDExFBbmRyZWFzIEhh
ZWJlcmxlbjEhMB8GCSqGSIb3DQEJARYSZGVtb2NhQG9jdGFyaW5lLmRlMB4XDTE1
MDQyMDIwNDcwMFoXDTE2MDQxOTIwNDcwMFowga4xCzAJBgNVBAYTAkRFMREwDwYD
VQQIEwhTYWFybGFuZDEQMA4GA1UEChMHTVBJLVNXUzEiMCAGA1UECxMZRGlzdHJp
YnV0ZWQgU3lzdGVtcyBHcm91cDExMC8GA1UEAxMoMzRjMWFmODcyNjk5NTgwOGM1
MWRiY2IzNDRjYjM4NzdkMzg4MzEwNTEjMCEGCSqGSIb3DQEJARYUbm9kZTAwODJA
b2N0YXJpbmUuZGUwgZ8wDQYJKoZIhvcNAQEBBQADgY0AMIGJAoGBALtp/Zi60RtW
TtVdbu+3flnMM8OB621LEtwN8nTwac7PyUclzQdIva8U6gwSMZN8QvE9tuhs949V
Hcf3pWuv8PozmFQ6T4DI7dWrGeAybFXvJl18eX+bf+eIFKqPXKiWqKzlJKPDbA2q
ac7bRrpxBoSwwfE+M/wySB1q9AusVAA7AgMBAAEwDQYJKoZIhvcNAQEEBQADgYEA
eKl5KiWeqqRUNgi69FH99u4erYTihti2IuhkxwBVP/nP94nniOxFdBe6hIolG57Z
nFwMcrMFah4XxQ5YZ1FhCq6Bvun4NmaMLhgLSQ1UHuwdwEoFfeYj7s0jtDPdrI1C
keYx+aaG2Gylfhk1iUuAT1RkXuo5CM4tSEY/jz4gQ3s=
-----END CERTIFICATE-----
