Certificate:
    Data:
        Version: 1 (0x0)
        Serial Number:
            9b:27:d7:e8:d1:ba:0b:2f
        Signature Algorithm: md5WithRSAEncryption
        Issuer: C=DE, ST=Saarland, O=MPI-SWS, OU=Distributed Systems Group, CN=Andreas Haeberlen/emailAddress=democa@octarine.de
        Validity
            Not Before: Apr 20 20:47:35 2015 GMT
            Not After : Apr 19 20:47:35 2016 GMT
        Subject: C=DE, ST=Saarland, O=MPI-SWS, OU=Distributed Systems Group, CN=d04464986941bf33799f9b54d02342e2336a8f2e/emailAddress=node0855@octarine.de
        Subject Public Key Info:
            Public Key Algorithm: rsaEncryption
            RSA Public Key: (1024 bit)
                Modulus (1024 bit):
                    00:d1:3d:b5:db:60:4c:27:f0:89:51:31:4c:9f:91:
                    30:e8:fb:81:3b:78:1f:ca:bb:86:66:09:63:57:e1:
                    57:9f:30:70:bc:3c:e8:83:ba:5f:33:f2:8b:ef:7f:
                    40:59:a9:12:60:3d:3d:89:20:42:c1:60:80:4d:c2:
                    19:b4:3d:10:10:b0:77:2a:de:04:78:7f:22:98:2a:
                    55:c1:12:c2:76:cc:a8:92:00:9d:cb:f0:7c:34:c1:
                    d1:f6:52:a4:4f:1f:ce:2f:6d:cb:d3:5e:60:35:6c:
                    6e:8c:bc:85:ea:d2:4d:70:39:f3:6e:16:4e:b8:45:
                    5d:89:61:31:1d:cd:14:38:f1
                Exponent: 65537 (0x10001)
    Signature Algorithm: md5WithRSAEncryption
        b5:81:56:5e:ea:ed:7e:c8:59:8a:cf:18:0e:35:9c:9e:41:8a:
        0c:d7:ea:d9:0c:8e:55:8f:98:c3:cc:b6:14:ca:b8:bb:85:53:
        26:97:43:41:bb:26:91:d9:b7:89:e2:e4:1d:1b:9f:6e:d8:8b:
        d9:c0:fa:95:ce:36:8d:83:1d:32:e4:bf:a9:52:79:f6:04:d3:
        b6:fc:7d:04:e1:94:61:9e:64:62:ec:3d:40:80:e2:17:01:c6:
        1f:c7:34:c2:60:ab:57:af:2a:5e:65:94:d2:ef:73:e0:7a:03:
        24:86:af:ef:c4:04:be:5a:7e:d9:ec:6a:4b:28:7f:78:23:23:
        a5:bc
-----BEGIN CERTIFICATE-----
MIICvDCCAiUCCQCbJ9fo0boLLzANBgkqhkiG9w0BAQQFADCBlTELMAkGA1UEBhMC
REUxETAPBgNVBAgTCFNhYXJsYW5kMRAwDgYDVQQKEwdNUEktU1dTMSIwIAYDVQQL
ExlEaXN0cmlidXRlZCBTeXN0ZW1zIEdyb3VwMRowGAYDVQQDExFBbmRyZWFzIEhh
ZWJlcmxlbjEhMB8GCSqGSIb3DQEJARYSZGVtb2NhQG9jdGFyaW5lLmRlMB4XDTE1
MDQyMDIwNDczNVoXDTE2MDQxOTIwNDczNVowga4xCzAJBgNVBAYTAkRFMREwDwYD
VQQIEwhTYWFybGFuZDEQMA4GA1UEChMHTVBJLVNXUzEiMCAGA1UECxMZRGlzdHJp
YnV0ZWQgU3lzdGVtcyBHcm91cDExMC8GA1UEAxMoZDA0NDY0OTg2OTQxYmYzMzc5
OWY5YjU0ZDAyMzQyZTIzMzZhOGYyZTEjMCEGCSqGSIb3DQEJARYUbm9kZTA4NTVA
b2N0YXJpbmUuZGUwgZ8wDQYJKoZIhvcNAQEBBQADgY0AMIGJAoGBANE9tdtgTCfw
iVExTJ+RMOj7gTt4H8q7hmYJY1fhV58wcLw86IO6XzPyi+9/QFmpEmA9PYkgQsFg
gE3CGbQ9EBCwdyreBHh/IpgqVcESwnbMqJIAncvwfDTB0fZSpE8fzi9ty9NeYDVs
boy8herSTXA5824WTrhFXYlhMR3NFDjxAgMBAAEwDQYJKoZIhvcNAQEEBQADgYEA
tYFWXurtfshZis8YDjWcnkGKDNfq2QyOVY+Yw8y2FMq4u4VTJpdDQbsmkdm3ieLk
HRufbtiL2cD6lc42jYMdMuS/qVJ59gTTtvx9BOGUYZ5kYuw9QIDiFwHGH8c0wmCr
V68qXmWU0u9z4HoDJIav78QEvlp+2exqSyh/eCMjpbw=
-----END CERTIFICATE-----
