Certificate:
    Data:
        Version: 1 (0x0)
        Serial Number:
            9b:27:d7:e8:d1:ba:08:01
        Signature Algorithm: md5WithRSAEncryption
        Issuer: C=DE, ST=Saarland, O=MPI-SWS, OU=Distributed Systems Group, CN=Andreas Haeberlen/emailAddress=democa@octarine.de
        Validity
            Not Before: Apr 20 20:46:58 2015 GMT
            Not After : Apr 19 20:46:58 2016 GMT
        Subject: C=DE, ST=Saarland, O=MPI-SWS, OU=Distributed Systems Group, CN=a843956023b98ec88ce98d4a7ea85a20264cbacd/emailAddress=node0041@octarine.de
        Subject Public Key Info:
            Public Key Algorithm: rsaEncryption
            RSA Public Key: (1024 bit)
                Modulus (1024 bit):
                    00:db:54:e8:3e:c7:fd:b9:3a:7f:90:92:80:da:0e:
                    7d:db:93:2f:cc:37:d3:0d:46:18:b7:6e:b4:da:ae:
                    6f:15:12:6d:d1:ec:78:33:b7:c1:d0:77:a3:2e:be:
                    0f:94:8f:04:d7:2b:f4:b5:39:3b:32:1a:4b:34:d2:
                    a5:43:bc:aa:12:98:18:59:e6:a8:66:74:59:80:4f:
                    86:91:e9:b2:2c:c2:34:81:0f:3c:5c:be:86:dc:50:
                    d1:e5:60:3c:02:37:a2:67:5c:d2:c5:30:dd:a1:05:
                    56:8a:79:9d:b7:5a:f2:85:7a:9f:22:75:41:6c:96:
                    95:1d:db:a0:ee:47:dc:31:5d
                Exponent: 65537 (0x10001)
    Signature Algorithm: md5WithRSAEncryption
        00:0a:af:5e:c6:36:96:bd:6d:73:6b:37:cc:ae:c0:f4:10:7c:
        d4:cd:3e:0c:b8:7f:4e:df:7d:a7:3c:b7:5f:8f:67:4e:66:0d:
        b2:78:bc:f8:b8:6b:cf:6b:7c:3a:5d:02:e8:dc:05:66:b3:71:
        ae:18:f3:fc:a3:bc:ef:a8:08:10:0f:2a:7d:7f:6c:ce:ed:66:
        fd:fa:59:8d:d3:02:b4:13:1a:42:b3:a2:a6:dc:94:85:e2:a2:
        a9:c1:35:20:33:41:82:b2:ff:f3:c6:98:41:c4:8d:27:36:ee:
        af:c7:9c:e4:3a:32:06:52:f0:a5:81:a9:ce:11:d7:c3:85:43:
        60:fc
-----BEGIN CERTIFICATE-----
MIICvDCCAiUCCQCbJ9fo0boIATANBgkqhkiG9w0BAQQFADCBlTELMAkGA1UEBhMC
REUxETAPBgNVBAgTCFNhYXJsYW5kMRAwDgYDVQQKEwdNUEktU1dTMSIwIAYDVQQL
ExlEaXN0cmlidXRlZCBTeXN0ZW1zIEdyb3VwMRowGAYDVQQDExFBbmRyZWFzIEhh
ZWJlcmxlbjEhMB8GCSqGSIb3DQEJARYSZGVtb2NhQG9jdGFyaW5lLmRlMB4XDTE1
MDQyMDIwNDY1OFoXDTE2MDQxOTIwNDY1OFowga4xCzAJBgNVBAYTAkRFMREwDwYD
VQQIEwhTYWFybGFuZDEQMA4GA1UEChMHTVBJLVNXUzEiMCAGA1UECxMZRGlzdHJp
YnV0ZWQgU3lzdGVtcyBHcm91cDExMC8GA1UEAxMoYTg0Mzk1NjAyM2I5OGVjODhj
ZTk4ZDRhN2VhODVhMjAyNjRjYmFjZDEjMCEGCSqGSIb3DQEJARYUbm9kZTAwNDFA
b2N0YXJpbmUuZGUwgZ8wDQYJKoZIhvcNAQEBBQADgY0AMIGJAoGBANtU6D7H/bk6
f5CSgNoOfduTL8w30w1GGLdutNqubxUSbdHseDO3wdB3oy6+D5SPBNcr9LU5OzIa
SzTSpUO8qhKYGFnmqGZ0WYBPhpHpsizCNIEPPFy+htxQ0eVgPAI3omdc0sUw3aEF
Vop5nbda8oV6nyJ1QWyWlR3boO5H3DFdAgMBAAEwDQYJKoZIhvcNAQEEBQADgYEA
AAqvXsY2lr1tc2s3zK7A9BB81M0+DLh/Tt99pzy3X49nTmYNsni8+Lhrz2t8Ol0C
6NwFZrNxrhjz/KO876gIEA8qfX9szu1m/fpZjdMCtBMaQrOiptyUheKiqcE1IDNB
grL/88aYQcSNJzbur8ec5DoyBlLwpYGpzhHXw4VDYPw=
-----END CERTIFICATE-----
