Certificate:
    Data:
        Version: 1 (0x0)
        Serial Number:
            9b:27:d7:e8:d1:ba:0a:97
        Signature Algorithm: md5WithRSAEncryption
        Issuer: C=DE, ST=Saarland, O=MPI-SWS, OU=Distributed Systems Group, CN=Andreas Haeberlen/emailAddress=democa@octarine.de
        Validity
            Not Before: Apr 20 20:47:28 2015 GMT
            Not After : Apr 19 20:47:28 2016 GMT
        Subject: C=DE, ST=Saarland, O=MPI-SWS, OU=Distributed Systems Group, CN=01132c44620fd4cecf1a3374e9b1c8ed9f0cc513/emailAddress=node0703@octarine.de
        Subject Public Key Info:
            Public Key Algorithm: rsaEncryption
            RSA Public Key: (1024 bit)
                Modulus (1024 bit):
                    00:cf:be:87:4b:88:ba:00:97:4b:fc:3c:e3:a7:e7:
                    44:33:13:09:46:1c:85:bb:80:29:f2:a6:45:a4:fb:
                    16:5b:67:b5:75:b9:a9:a2:0d:4c:fe:89:ac:f0:eb:
                    08:95:58:9b:6b:dc:4e:45:ce:23:11:8f:4f:61:2a:
                    a7:69:c2:42:8c:da:c6:4d:9f:4a:ec:23:ea:40:ca:
                    76:80:06:7b:da:50:6f:a9:a0:8c:87:2d:0d:de:d6:
                    ea:8e:a9:5b:23:56:64:9c:62:71:4c:08:4a:71:da:
                    5e:a1:10:29:e0:f8:36:f4:cb:28:a6:79:84:3c:bc:
                    1c:ea:fb:59:ef:96:66:b0:0f
                Exponent: 65537 (0x10001)
    Signature Algorithm: md5WithRSAEncryption
        15:bc:9e:6c:09:7f:ae:8a:32:30:e9:e8:ac:fc:bc:4c:a6:72:
        56:65:69:10:22:3c:b6:61:4c:c3:55:0f:4f:48:89:65:a7:77:
        5a:86:72:ec:45:13:d3:ad:85:58:5f:d9:c7:e9:33:e0:06:cd:
        3a:ed:37:59:97:8b:c0:96:f0:eb:7f:44:b6:a5:f0:8b:7f:f5:
        07:0c:da:74:aa:e6:60:9c:62:c0:84:c4:da:07:24:36:d5:52:
        8f:85:c4:03:99:b6:30:57:6a:ad:e8:96:93:b9:ff:ba:09:d8:
        2e:cd:44:38:af:a3:4a:68:73:f9:cb:80:c6:df:87:76:64:4c:
        d9:0b
-----BEGIN CERTIFICATE-----
MIICvDCCAiUCCQCbJ9fo0boKlzANBgkqhkiG9w0BAQQFADCBlTELMAkGA1UEBhMC
REUxETAPBgNVBAgTCFNhYXJsYW5kMRAwDgYDVQQKEwdNUEktU1dTMSIwIAYDVQQL
ExlEaXN0cmlidXRlZCBTeXN0ZW1zIEdyb3VwMRowGAYDVQQDExFBbmRyZWFzIEhh
ZWJlcmxlbjEhMB8GCSqGSIb3DQEJARYSZGVtb2NhQG9jdGFyaW5lLmRlMB4XDTE1
MDQyMDIwNDcyOFoXDTE2MDQxOTIwNDcyOFowga4xCzAJBgNVBAYTAkRFMREwDwYD
VQQIEwhTYWFybGFuZDEQMA4GA1UEChMHTVBJLVNXUzEiMCAGA1UECxMZRGlzdHJp
YnV0ZWQgU3lzdGVtcyBHcm91cDExMC8GA1UEAxMoMDExMzJjNDQ2MjBmZDRjZWNm
MWEzMzc0ZTliMWM4ZWQ5ZjBjYzUxMzEjMCEGCSqGSIb3DQEJARYUbm9kZTA3MDNA
b2N0YXJpbmUuZGUwgZ8wDQYJKoZIhvcNAQEBBQADgY0AMIGJAoGBAM++h0uIugCX
S/w846fnRDMTCUYchbuAKfKmRaT7FltntXW5qaINTP6JrPDrCJVYm2vcTkXOIxGP
T2Eqp2nCQozaxk2fSuwj6kDKdoAGe9pQb6mgjIctDd7W6o6pWyNWZJxicUwISnHa
XqEQKeD4NvTLKKZ5hDy8HOr7We+WZrAPAgMBAAEwDQYJKoZIhvcNAQEEBQADgYEA
FbyebAl/rooyMOnorPy8TKZyVmVpECI8tmFMw1UPT0iJZad3WoZy7EUT062FWF/Z
x+kz4AbNOu03WZeLwJbw639EtqXwi3/1BwzadKrmYJxiwITE2gckNtVSj4XEA5m2
MFdqreiWk7n/ugnYLs1EOK+jSmhz+cuAxt+HdmRM2Qs=
-----END CERTIFICATE-----
