Certificate:
    Data:
        Version: 1 (0x0)
        Serial Number:
            9b:27:d7:e8:d1:ba:09:00
        Signature Algorithm: md5WithRSAEncryption
        Issuer: C=DE, ST=Saarland, O=MPI-SWS, OU=Distributed Systems Group, CN=Andreas Haeberlen/emailAddress=democa@octarine.de
        Validity
            Not Before: Apr 20 20:47:09 2015 GMT
            Not After : Apr 19 20:47:09 2016 GMT
        Subject: C=DE, ST=Saarland, O=MPI-SWS, OU=Distributed Systems Group, CN=131c58834da226b74cf3585ece768e7a19672fa7/emailAddress=node0296@octarine.de
        Subject Public Key Info:
            Public Key Algorithm: rsaEncryption
            RSA Public Key: (1024 bit)
                Modulus (1024 bit):
                    00:c4:c9:a2:e1:9f:15:4b:d3:b6:08:f6:1c:77:78:
                    3b:d9:33:a3:d1:b2:a5:75:3d:27:01:98:0f:b6:83:
                    b9:0d:4e:95:9b:28:a6:8a:9a:23:06:3c:20:03:29:
                    23:a5:1a:c3:36:48:d1:6a:52:7f:06:98:2e:65:33:
                    98:6c:37:14:3c:5b:54:dd:21:5f:4b:9f:aa:7b:05:
                    45:74:80:77:7f:04:83:aa:75:fc:2d:21:25:15:8d:
                    05:7b:e3:5b:f3:b5:8e:ec:cb:02:3b:db:e4:77:c4:
                    75:a6:79:b0:e9:fc:d6:a0:14:f4:e0:3a:7f:89:ff:
                    3b:da:e0:86:a7:cf:ba:3e:c5
                Exponent: 65537 (0x10001)
    Signature Algorithm: md5WithRSAEncryption
        64:1c:b7:3a:61:52:b7:50:b8:03:a9:38:d7:49:af:8f:5b:34:
        6c:65:7b:0c:e3:58:9d:b1:da:b9:69:a4:63:f7:81:8f:9d:45:
        18:fe:72:1f:b5:87:ab:71:85:09:aa:5d:1d:b4:58:73:20:09:
        90:33:27:7e:f6:0d:63:2e:68:e0:a8:5e:b5:64:06:be:e2:fb:
        17:67:12:b3:bf:3c:1e:47:9b:08:31:6c:79:95:eb:66:5f:27:
        52:e9:51:d6:97:05:d2:e3:5e:0a:9d:a5:b1:41:54:12:70:cc:
        21:f8:d2:cc:80:ba:f9:3d:4c:a0:ac:35:ff:80:88:16:89:fa:
        0a:16
-----BEGIN CERTIFICATE-----
MIICvDCCAiUCCQCbJ9fo0boJADANBgkqhkiG9w0BAQQFADCBlTELMAkGA1UEBhMC
REUxETAPBgNVBAgTCFNhYXJsYW5kMRAwDgYDVQQKEwdNUEktU1dTMSIwIAYDVQQL
ExlEaXN0cmlidXRlZCBTeXN0ZW1zIEdyb3VwMRowGAYDVQQDExFBbmRyZWFzIEhh
ZWJlcmxlbjEhMB8GCSqGSIb3DQEJARYSZGVtb2NhQG9jdGFyaW5lLmRlMB4XDTE1
MDQyMDIwNDcwOVoXDTE2MDQxOTIwNDcwOVowga4xCzAJBgNVBAYTAkRFMREwDwYD
VQQIEwhTYWFybGFuZDEQMA4GA1UEChMHTVBJLVNXUzEiMCAGA1UECxMZRGlzdHJp
YnV0ZWQgU3lzdGVtcyBHcm91cDExMC8GA1UEAxMoMTMxYzU4ODM0ZGEyMjZiNzRj
ZjM1ODVlY2U3NjhlN2ExOTY3MmZhNzEjMCEGCSqGSIb3DQEJARYUbm9kZTAyOTZA
b2N0YXJpbmUuZGUwgZ8wDQYJKoZIhvcNAQEBBQADgY0AMIGJAoGBAMTJouGfFUvT
tgj2HHd4O9kzo9GypXU9JwGYD7aDuQ1OlZsopoqaIwY8IAMpI6UawzZI0WpSfwaY
LmUzmGw3FDxbVN0hX0ufqnsFRXSAd38Eg6p1/C0hJRWNBXvjW/O1juzLAjvb5HfE
daZ5sOn81qAU9OA6f4n/O9rghqfPuj7FAgMBAAEwDQYJKoZIhvcNAQEEBQADgYEA
ZBy3OmFSt1C4A6k410mvj1s0bGV7DONYnbHauWmkY/eBj51FGP5yH7WHq3GFCapd
HbRYcyAJkDMnfvYNYy5o4KhetWQGvuL7F2cSs788HkebCDFseZXrZl8nUulR1pcF
0uNeCp2lsUFUEnDMIfjSzIC6+T1MoKw1/4CIFon6ChY=
-----END CERTIFICATE-----
