Certificate:
    Data:
        Version: 1 (0x0)
        Serial Number:
            9b:27:d7:e8:d1:ba:0a:70
        Signature Algorithm: md5WithRSAEncryption
        Issuer: C=DE, ST=Saarland, O=MPI-SWS, OU=Distributed Systems Group, CN=Andreas Haeberlen/emailAddress=democa@octarine.de
        Validity
            Not Before: Apr 20 20:47:26 2015 GMT
            Not After : Apr 19 20:47:26 2016 GMT
        Subject: C=DE, ST=Saarland, O=MPI-SWS, OU=Distributed Systems Group, CN=501f80336dba63d0d988a1e4e69c1067086989cf/emailAddress=node0664@octarine.de
        Subject Public Key Info:
            Public Key Algorithm: rsaEncryption
            RSA Public Key: (1024 bit)
                Modulus (1024 bit):
                    00:d8:a8:3f:e4:55:ae:96:68:ce:4d:0a:fa:0d:c3:
                    15:a6:bf:3a:c6:cf:2d:f5:d4:04:f2:49:4f:c3:d2:
                    05:a8:bf:7a:c6:b9:ae:f7:a3:3c:18:c0:1c:51:b5:
                    0b:72:b5:10:bb:4f:3f:12:80:13:ae:b1:d8:34:04:
                    15:a4:cb:09:b9:b4:6a:b9:9b:ae:8f:8c:70:ab:b0:
                    e4:2f:35:27:5a:a2:1c:07:c8:b7:02:ac:bb:fd:2b:
                    08:1a:fd:b6:61:ba:5e:84:20:50:a0:30:6a:fe:d0:
                    4b:d8:f8:ff:2d:d5:0f:1c:54:91:aa:0f:65:7c:77:
                    eb:30:ac:9d:3d:9e:47:ff:51
                Exponent: 65537 (0x10001)
    Signature Algorithm: md5WithRSAEncryption
        cc:aa:cb:6f:a8:ef:08:ac:62:87:c8:38:28:62:8c:1b:65:90:
        e5:53:67:28:77:7e:e3:23:5d:71:bb:97:de:9c:f9:cf:d1:42:
        a8:9f:2f:17:00:73:b0:47:3d:83:29:1d:9a:11:d4:e3:ae:6f:
        fb:95:e4:af:ae:42:70:93:7e:f2:71:30:86:03:a1:0b:36:1c:
        a2:e9:6c:ae:0a:27:2c:cb:21:17:ee:80:a2:7c:a9:09:35:48:
        40:fc:d7:dc:14:7e:86:fc:c9:04:86:f0:3e:d4:66:a6:a4:a5:
        a6:75:2c:86:26:f8:66:02:fb:ad:f0:84:9f:98:e9:f9:01:86:
        29:e9
-----BEGIN CERTIFICATE-----
MIICvDCCAiUCCQCbJ9fo0boKcDANBgkqhkiG9w0BAQQFADCBlTELMAkGA1UEBhMC
REUxETAPBgNVBAgTCFNhYXJsYW5kMRAwDgYDVQQKEwdNUEktU1dTMSIwIAYDVQQL
ExlEaXN0cmlidXRlZCBTeXN0ZW1zIEdyb3VwMRowGAYDVQQDExFBbmRyZWFzIEhh
ZWJlcmxlbjEhMB8GCSqGSIb3DQEJARYSZGVtb2NhQG9jdGFyaW5lLmRlMB4XDTE1
MDQyMDIwNDcyNloXDTE2MDQxOTIwNDcyNlowga4xCzAJBgNVBAYTAkRFMREwDwYD
VQQIEwhTYWFybGFuZDEQMA4GA1UEChMHTVBJLVNXUzEiMCAGA1UECxMZRGlzdHJp
YnV0ZWQgU3lzdGVtcyBHcm91cDExMC8GA1UEAxMoNTAxZjgwMzM2ZGJhNjNkMGQ5
ODhhMWU0ZTY5YzEwNjcwODY5ODljZjEjMCEGCSqGSIb3DQEJARYUbm9kZTA2NjRA
b2N0YXJpbmUuZGUwgZ8wDQYJKoZIhvcNAQEBBQADgY0AMIGJAoGBANioP+RVrpZo
zk0K+g3DFaa/OsbPLfXUBPJJT8PSBai/esa5rvejPBjAHFG1C3K1ELtPPxKAE66x
2DQEFaTLCbm0armbro+McKuw5C81J1qiHAfItwKsu/0rCBr9tmG6XoQgUKAwav7Q
S9j4/y3VDxxUkaoPZXx36zCsnT2eR/9RAgMBAAEwDQYJKoZIhvcNAQEEBQADgYEA
zKrLb6jvCKxih8g4KGKMG2WQ5VNnKHd+4yNdcbuX3pz5z9FCqJ8vFwBzsEc9gykd
mhHU465v+5Xkr65CcJN+8nEwhgOhCzYcoulsrgonLMshF+6AonypCTVIQPzX3BR+
hvzJBIbwPtRmpqSlpnUshib4ZgL7rfCEn5jp+QGGKek=
-----END CERTIFICATE-----
