Certificate:
    Data:
        Version: 1 (0x0)
        Serial Number:
            9b:27:d7:e8:d1:ba:09:ea
        Signature Algorithm: md5WithRSAEncryption
        Issuer: C=DE, ST=Saarland, O=MPI-SWS, OU=Distributed Systems Group, CN=Andreas Haeberlen/emailAddress=democa@octarine.de
        Validity
            Not Before: Apr 20 20:47:20 2015 GMT
            Not After : Apr 19 20:47:20 2016 GMT
        Subject: C=DE, ST=Saarland, O=MPI-SWS, OU=Distributed Systems Group, CN=44619b35901ef0ccfbd8ee2e9c20666abdc58fb2/emailAddress=node0530@octarine.de
        Subject Public Key Info:
            Public Key Algorithm: rsaEncryption
            RSA Public Key: (1024 bit)
                Modulus (1024 bit):
                    00:c1:73:1c:71:68:3e:d4:ca:89:c1:1f:1b:35:0f:
                    30:d4:c4:e5:d4:41:d4:35:36:c7:6f:c8:c8:b7:3c:
                    7e:b0:2f:2e:1a:ab:3a:e4:3a:60:f1:2e:d5:b4:69:
                    b0:0f:87:af:fc:10:03:94:e9:6a:32:18:77:12:26:
                    9b:e4:fe:b9:05:33:33:5d:56:0f:91:37:98:ce:4e:
                    88:f1:4a:bd:fe:07:6b:8b:2a:e5:8b:5b:2e:d4:25:
                    7a:5c:1f:3b:7c:1c:9d:c0:49:cc:37:02:53:b0:7b:
                    b9:87:1c:d2:21:23:8e:4a:63:90:60:4c:01:03:e8:
                    08:32:85:27:c1:34:fb:87:2f
                Exponent: 65537 (0x10001)
    Signature Algorithm: md5WithRSAEncryption
        0c:b0:1d:ee:20:bf:fd:7a:9e:be:a9:3b:4c:da:50:a5:f3:c0:
        da:bd:1c:f1:ed:d5:fe:c1:a6:48:fb:5d:50:41:84:f1:8d:06:
        da:98:59:60:4a:ba:0c:d3:bb:b1:5f:e5:a4:f2:e3:45:c1:b9:
        2f:27:f9:40:56:8f:55:49:1d:4d:24:95:95:a6:b4:06:dc:52:
        e2:ea:1a:46:dc:e9:f5:fa:4b:db:d9:61:7d:59:f5:49:c3:87:
        c1:a7:17:1a:8d:44:67:4a:80:94:8f:fe:45:4b:dc:a3:6b:2f:
        78:2f:ec:87:04:21:a7:96:78:be:53:93:8b:c7:29:7a:74:88:
        5a:f3
-----BEGIN CERTIFICATE-----
MIICvDCCAiUCCQCbJ9fo0boJ6jANBgkqhkiG9w0BAQQFADCBlTELMAkGA1UEBhMC
REUxETAPBgNVBAgTCFNhYXJsYW5kMRAwDgYDVQQKEwdNUEktU1dTMSIwIAYDVQQL
ExlEaXN0cmlidXRlZCBTeXN0ZW1zIEdyb3VwMRowGAYDVQQDExFBbmRyZWFzIEhh
ZWJlcmxlbjEhMB8GCSqGSIb3DQEJARYSZGVtb2NhQG9jdGFyaW5lLmRlMB4XDTE1
MDQyMDIwNDcyMFoXDTE2MDQxOTIwNDcyMFowga4xCzAJBgNVBAYTAkRFMREwDwYD
VQQIEwhTYWFybGFuZDEQMA4GA1UEChMHTVBJLVNXUzEiMCAGA1UECxMZRGlzdHJp
YnV0ZWQgU3lzdGVtcyBHcm91cDExMC8GA1UEAxMoNDQ2MTliMzU5MDFlZjBjY2Zi
ZDhlZTJlOWMyMDY2NmFiZGM1OGZiMjEjMCEGCSqGSIb3DQEJARYUbm9kZTA1MzBA
b2N0YXJpbmUuZGUwgZ8wDQYJKoZIhvcNAQEBBQADgY0AMIGJAoGBAMFzHHFoPtTK
icEfGzUPMNTE5dRB1DU2x2/IyLc8frAvLhqrOuQ6YPEu1bRpsA+Hr/wQA5TpajIY
dxImm+T+uQUzM11WD5E3mM5OiPFKvf4Ha4sq5YtbLtQlelwfO3wcncBJzDcCU7B7
uYcc0iEjjkpjkGBMAQPoCDKFJ8E0+4cvAgMBAAEwDQYJKoZIhvcNAQEEBQADgYEA
DLAd7iC//Xqevqk7TNpQpfPA2r0c8e3V/sGmSPtdUEGE8Y0G2phZYEq6DNO7sV/l
pPLjRcG5Lyf5QFaPVUkdTSSVlaa0BtxS4uoaRtzp9fpL29lhfVn1ScOHwacXGo1E
Z0qAlI/+RUvco2sveC/shwQhp5Z4vlOTi8cpenSIWvM=
-----END CERTIFICATE-----
