Certificate:
    Data:
        Version: 1 (0x0)
        Serial Number:
            9b:27:d7:e8:d1:ba:09:12
        Signature Algorithm: md5WithRSAEncryption
        Issuer: C=DE, ST=Saarland, O=MPI-SWS, OU=Distributed Systems Group, CN=Andreas Haeberlen/emailAddress=democa@octarine.de
        Validity
            Not Before: Apr 20 20:47:10 2015 GMT
            Not After : Apr 19 20:47:10 2016 GMT
        Subject: C=DE, ST=Saarland, O=MPI-SWS, OU=Distributed Systems Group, CN=d0d7afebcdaf3cc0431a4e9d4e52b2a9370e7f93/emailAddress=node0314@octarine.de
        Subject Public Key Info:
            Public Key Algorithm: rsaEncryption
            RSA Public Key: (1024 bit)
                Modulus (1024 bit):
                    00:9a:ec:2a:9d:6e:aa:a7:39:e3:7b:d1:1f:dc:ef:
                    6e:1d:86:a9:79:f9:bf:42:e6:c9:78:39:74:6d:18:
                    2e:ad:41:f5:14:0b:20:76:11:61:72:8d:32:3d:f4:
                    be:40:53:eb:a8:4f:4c:82:1a:f1:45:80:0f:e5:fd:
                    8a:47:d0:0a:c7:53:69:1f:e6:a2:2f:96:c5:c1:fa:
                    ba:f7:fb:63:7b:2b:b6:40:4e:a4:59:cc:29:10:a3:
                    39:cd:0f:6b:29:e4:77:bf:0b:74:f1:2c:71:f9:08:
                    8e:bb:41:2f:7a:ab:b5:c8:09:b7:cf:af:06:7b:31:
                    11:71:c5:64:57:76:f4:6a:41
                Exponent: 65537 (0x10001)
    Signature Algorithm: md5WithRSAEncryption
        9f:7c:81:0c:99:27:62:af:dd:5b:29:29:87:3e:b5:82:99:34:
        31:bf:42:fc:2b:05:b5:90:64:ee:4b:99:ef:ab:47:63:f1:57:
        e9:0a:de:d2:00:37:7a:af:18:fc:a1:3a:b3:a2:98:01:50:ab:
        fb:37:e3:d6:41:ac:9f:ba:e4:a6:c2:85:2b:bb:c6:f9:74:66:
        4e:7b:8b:ee:b0:28:3d:77:f1:10:4a:52:b6:b5:f2:22:4a:ae:
        97:d5:27:92:32:5f:2d:8a:ad:f3:2a:6e:1d:62:6e:c6:52:25:
        29:3d:12:d0:4d:31:b8:b7:ff:19:a4:a5:63:e6:e7:5c:d5:92:
        74:64
-----BEGIN CERTIFICATE-----
MIICvDCCAiUCCQCbJ9fo0boJEjANBgkqhkiG9w0BAQQFADCBlTELMAkGA1UEBhMC
REUxETAPBgNVBAgTCFNhYXJsYW5kMRAwDgYDVQQKEwdNUEktU1dTMSIwIAYDVQQL
ExlEaXN0cmlidXRlZCBTeXN0ZW1zIEdyb3VwMRowGAYDVQQDExFBbmRyZWFzIEhh
ZWJlcmxlbjEhMB8GCSqGSIb3DQEJARYSZGVtb2NhQG9jdGFyaW5lLmRlMB4XDTE1
MDQyMDIwNDcxMFoXDTE2MDQxOTIwNDcxMFowga4xCzAJBgNVBAYTAkRFMREwDwYD
VQQIEwhTYWFybGFuZDEQMA4GA1UEChMHTVBJLVNXUzEiMCAGA1UECxMZRGlzdHJp
YnV0ZWQgU3lzdGVtcyBHcm91cDExMC8GA1UEAxMoZDBkN2FmZWJjZGFmM2NjMDQz
MWE0ZTlkNGU1MmIyYTkzNzBlN2Y5MzEjMCEGCSqGSIb3DQEJARYUbm9kZTAzMTRA
b2N0YXJpbmUuZGUwgZ8wDQYJKoZIhvcNAQEBBQADgY0AMIGJAoGBAJrsKp1uqqc5
43vRH9zvbh2GqXn5v0LmyXg5dG0YLq1B9RQLIHYRYXKNMj30vkBT66hPTIIa8UWA
D+X9ikfQCsdTaR/moi+WxcH6uvf7Y3srtkBOpFnMKRCjOc0Paynkd78LdPEscfkI
jrtBL3qrtcgJt8+vBnsxEXHFZFd29GpBAgMBAAEwDQYJKoZIhvcNAQEEBQADgYEA
n3yBDJknYq/dWykphz61gpk0Mb9C/CsFtZBk7kuZ76tHY/FX6Qre0gA3eq8Y/KE6
s6KYAVCr+zfj1kGsn7rkpsKFK7vG+XRmTnuL7rAoPXfxEEpStrXyIkqul9UnkjJf
LYqt8ypuHWJuxlIlKT0S0E0xuLf/GaSlY+bnXNWSdGQ=
-----END CERTIFICATE-----
