Certificate:
    Data:
        Version: 1 (0x0)
        Serial Number:
            9b:27:d7:e8:d1:ba:08:ae
        Signature Algorithm: md5WithRSAEncryption
        Issuer: C=DE, ST=Saarland, O=MPI-SWS, OU=Distributed Systems Group, CN=Andreas Haeberlen/emailAddress=democa@octarine.de
        Validity
            Not Before: Apr 20 20:47:06 2015 GMT
            Not After : Apr 19 20:47:06 2016 GMT
        Subject: C=DE, ST=Saarland, O=MPI-SWS, OU=Distributed Systems Group, CN=10aaea6a080c1e594429d4122e62f2e129c142c4/emailAddress=node0214@octarine.de
        Subject Public Key Info:
            Public Key Algorithm: rsaEncryption
            RSA Public Key: (1024 bit)
                Modulus (1024 bit):
                    00:d9:ff:c8:f9:4b:f7:e4:a0:24:dd:76:bd:84:aa:
                    bd:cb:97:78:c9:bf:3b:05:89:96:64:7f:67:07:e0:
                    df:6d:cf:41:fc:57:07:59:f7:3d:2a:c4:80:41:b9:
                    a6:fa:d1:56:f8:22:af:9f:d9:46:28:af:81:dc:82:
                    78:dd:a8:3f:e4:1e:09:b7:7c:31:f7:75:b4:a8:7a:
                    51:97:c6:e8:8e:66:91:50:3e:3a:76:21:f7:d9:4f:
                    22:bc:b6:1d:e5:07:84:c4:ae:d9:f4:67:23:c7:e7:
                    5d:e0:9d:3e:8e:ac:06:67:2f:09:89:cc:55:4a:ce:
                    1d:ec:1b:e7:45:78:ce:ca:29
                Exponent: 65537 (0x10001)
    Signature Algorithm: md5WithRSAEncryption
        68:bf:68:d2:28:c6:49:7b:8c:18:97:17:8a:d4:68:7f:76:48:
        e5:42:8f:7a:08:a6:83:2b:e2:c8:dc:ee:a2:4f:f7:2e:d3:0a:
        89:dd:96:24:39:64:be:9a:34:cc:48:09:d7:cb:f7:9d:74:75:
        8c:00:52:79:f9:6e:d6:4d:37:f9:87:5e:a6:45:81:1f:66:20:
        69:60:e1:39:fd:b4:13:37:4f:02:77:e2:75:2e:b5:f0:3c:33:
        8b:ca:30:a7:81:8a:1b:b9:ce:8f:d5:d3:30:ab:75:80:9c:d5:
        91:b9:ab:3f:9f:d6:00:d4:bd:9f:a9:a6:51:4a:22:cc:8b:38:
        0c:66
-----BEGIN CERTIFICATE-----
MIICvDCCAiUCCQCbJ9fo0boIrjANBgkqhkiG9w0BAQQFADCBlTELMAkGA1UEBhMC
REUxETAPBgNVBAgTCFNhYXJsYW5kMRAwDgYDVQQKEwdNUEktU1dTMSIwIAYDVQQL
ExlEaXN0cmlidXRlZCBTeXN0ZW1zIEdyb3VwMRowGAYDVQQDExFBbmRyZWFzIEhh
ZWJlcmxlbjEhMB8GCSqGSIb3DQEJARYSZGVtb2NhQG9jdGFyaW5lLmRlMB4XDTE1
MDQyMDIwNDcwNloXDTE2MDQxOTIwNDcwNlowga4xCzAJBgNVBAYTAkRFMREwDwYD
VQQIEwhTYWFybGFuZDEQMA4GA1UEChMHTVBJLVNXUzEiMCAGA1UECxMZRGlzdHJp
YnV0ZWQgU3lzdGVtcyBHcm91cDExMC8GA1UEAxMoMTBhYWVhNmEwODBjMWU1OTQ0
MjlkNDEyMmU2MmYyZTEyOWMxNDJjNDEjMCEGCSqGSIb3DQEJARYUbm9kZTAyMTRA
b2N0YXJpbmUuZGUwgZ8wDQYJKoZIhvcNAQEBBQADgY0AMIGJAoGBANn/yPlL9+Sg
JN12vYSqvcuXeMm/OwWJlmR/Zwfg323PQfxXB1n3PSrEgEG5pvrRVvgir5/ZRiiv
gdyCeN2oP+QeCbd8Mfd1tKh6UZfG6I5mkVA+OnYh99lPIry2HeUHhMSu2fRnI8fn
XeCdPo6sBmcvCYnMVUrOHewb50V4zsopAgMBAAEwDQYJKoZIhvcNAQEEBQADgYEA
aL9o0ijGSXuMGJcXitRof3ZI5UKPegimgyviyNzuok/3LtMKid2WJDlkvpo0zEgJ
18v3nXR1jABSeflu1k03+YdepkWBH2YgaWDhOf20EzdPAnfidS618Dwzi8owp4GK
G7nOj9XTMKt1gJzVkbmrP5/WANS9n6mmUUoizIs4DGY=
-----END CERTIFICATE-----
