Certificate:
    Data:
        Version: 1 (0x0)
        Serial Number:
            9b:27:d7:e8:d1:ba:07:e6
        Signature Algorithm: md5WithRSAEncryption
        Issuer: C=DE, ST=Saarland, O=MPI-SWS, OU=Distributed Systems Group, CN=Andreas Haeberlen/emailAddress=democa@octarine.de
        Validity
            Not Before: Apr 20 20:46:57 2015 GMT
            Not After : Apr 19 20:46:57 2016 GMT
        Subject: C=DE, ST=Saarland, O=MPI-SWS, OU=Distributed Systems Group, CN=3a1d88b25ac5cc3f93fa902433a8983d35abd5e3/emailAddress=node0014@octarine.de
        Subject Public Key Info:
            Public Key Algorithm: rsaEncryption
            RSA Public Key: (1024 bit)
                Modulus (1024 bit):
                    00:e0:1a:46:d2:e6:a1:30:62:0b:b0:38:cb:53:dc:
                    e4:d0:cc:7e:ba:1b:5d:c3:bf:53:d2:8b:ef:4a:72:
                    40:34:2e:19:59:fb:4f:d1:df:ea:e1:c4:ac:50:c1:
                    07:59:36:8f:ca:5b:84:6b:89:67:f0:00:96:92:76:
                    2e:06:1f:4e:95:6c:16:f2:ae:57:d9:8b:bc:a4:7d:
                    be:59:fe:9a:95:77:97:9c:5c:c2:f5:81:1d:34:a9:
                    2e:c9:1a:76:7f:4b:56:78:ab:cc:cc:0d:6b:c7:55:
                    92:5a:db:46:5d:6c:f4:44:41:51:dc:31:53:c8:b6:
                    10:2f:55:bd:27:a1:4c:93:13
                Exponent: 65537 (0x10001)
    Signature Algorithm: md5WithRSAEncryption
        8d:f0:3d:b9:aa:9b:7b:10:c4:fa:c4:2a:b8:b7:0a:7b:86:09:
        1a:c1:ee:7a:ff:50:cc:56:fb:1a:0d:96:0b:bd:38:ad:6c:3f:
        e1:b0:ad:ce:59:fa:cd:10:af:b6:8d:d3:a3:38:bb:13:c6:48:
        51:c3:86:9a:d2:7b:eb:66:ac:6c:9f:1b:46:6a:88:80:88:72:
        c0:06:4f:ae:28:d6:8a:b8:2e:c3:a7:93:8a:39:37:a0:6b:86:
        50:c1:6c:33:2f:26:9a:d6:66:5b:e3:a4:b5:54:3d:53:90:1c:
        29:ac:c0:b8:7f:24:db:67:ec:1d:a7:6b:6e:df:eb:fd:40:97:
        e3:ce
-----BEGIN CERTIFICATE-----
MIICvDCCAiUCCQCbJ9fo0boH5jANBgkqhkiG9w0BAQQFADCBlTELMAkGA1UEBhMC
REUxETAPBgNVBAgTCFNhYXJsYW5kMRAwDgYDVQQKEwdNUEktU1dTMSIwIAYDVQQL
ExlEaXN0cmlidXRlZCBTeXN0ZW1zIEdyb3VwMRowGAYDVQQDExFBbmRyZWFzIEhh
ZWJlcmxlbjEhMB8GCSqGSIb3DQEJARYSZGVtb2NhQG9jdGFyaW5lLmRlMB4XDTE1
MDQyMDIwNDY1N1oXDTE2MDQxOTIwNDY1N1owga4xCzAJBgNVBAYTAkRFMREwDwYD
VQQIEwhTYWFybGFuZDEQMA4GA1UEChMHTVBJLVNXUzEiMCAGA1UECxMZRGlzdHJp
YnV0ZWQgU3lzdGVtcyBHcm91cDExMC8GA1UEAxMoM2ExZDg4YjI1YWM1Y2MzZjkz
ZmE5MDI0MzNhODk4M2QzNWFiZDVlMzEjMCEGCSqGSIb3DQEJARYUbm9kZTAwMTRA
b2N0YXJpbmUuZGUwgZ8wDQYJKoZIhvcNAQEBBQADgY0AMIGJAoGBAOAaRtLmoTBi
C7A4y1Pc5NDMfrobXcO/U9KL70pyQDQuGVn7T9Hf6uHErFDBB1k2j8pbhGuJZ/AA
lpJ2LgYfTpVsFvKuV9mLvKR9vln+mpV3l5xcwvWBHTSpLskadn9LVnirzMwNa8dV
klrbRl1s9ERBUdwxU8i2EC9VvSehTJMTAgMBAAEwDQYJKoZIhvcNAQEEBQADgYEA
jfA9uaqbexDE+sQquLcKe4YJGsHuev9QzFb7Gg2WC704rWw/4bCtzln6zRCvto3T
ozi7E8ZIUcOGmtJ762asbJ8bRmqIgIhywAZPrijWirguw6eTijk3oGuGUMFsMy8m
mtZmW+OktVQ9U5AcKazAuH8k22fsHadrbt/r/UCX484=
-----END CERTIFICATE-----
