Certificate:
    Data:
        Version: 1 (0x0)
        Serial Number:
            9b:27:d7:e8:d1:ba:07:e1
        Signature Algorithm: md5WithRSAEncryption
        Issuer: C=DE, ST=Saarland, O=MPI-SWS, OU=Distributed Systems Group, CN=Andreas Haeberlen/emailAddress=democa@octarine.de
        Validity
            Not Before: Apr 20 20:46:57 2015 GMT
            Not After : Apr 19 20:46:57 2016 GMT
        Subject: C=DE, ST=Saarland, O=MPI-SWS, OU=Distributed Systems Group, CN=2f2ff6c09bdb89cb04efd8b23ffab49d4cd4294c/emailAddress=node0009@octarine.de
        Subject Public Key Info:
            Public Key Algorithm: rsaEncryption
            RSA Public Key: (1024 bit)
                Modulus (1024 bit):
                    00:b9:96:04:0b:79:1d:18:35:cd:69:07:2a:5f:97:
                    9e:01:72:85:d3:ab:8d:89:e3:90:dd:40:43:00:77:
                    77:74:9c:d6:ea:97:c5:1d:3a:ae:19:b4:11:cc:96:
                    1c:dc:92:00:17:0d:e9:0a:6a:44:be:63:56:1b:a4:
                    31:94:b5:69:b8:b1:a0:78:b0:05:1f:ec:c9:68:6d:
                    80:31:88:39:07:3f:a9:4e:22:ce:b6:02:57:f5:08:
                    0b:0e:0f:48:fb:fe:82:a6:ee:1e:b7:37:8e:4a:84:
                    94:28:3e:6a:46:5b:de:3d:d2:b3:42:65:1f:19:6a:
                    51:0e:b9:00:07:03:af:69:c3
                Exponent: 65537 (0x10001)
    Signature Algorithm: md5WithRSAEncryption
        0f:d8:e4:c9:87:f2:52:6d:8e:7b:40:0a:a3:5a:5e:d8:ed:37:
        f6:6f:45:36:f8:98:e3:34:7c:5a:4b:18:06:ed:4f:db:7b:b4:
        b8:bc:7d:73:48:2b:42:7c:1a:d6:70:57:da:d4:1b:23:93:21:
        e8:6e:53:19:5b:6d:f4:2d:74:c8:c2:e3:d0:65:9e:38:ad:3e:
        f2:d6:50:d1:72:ee:8d:63:b8:25:4e:ea:d3:6d:d8:5d:88:69:
        37:24:b0:3c:90:e0:4d:8d:d4:d9:dd:1f:b1:76:98:7d:fa:69:
        38:ac:2e:e6:44:09:4a:59:2f:7f:ab:0f:32:37:21:a7:ea:d8:
        23:ed
-----BEGIN CERTIFICATE-----
MIICvDCCAiUCCQCbJ9fo0boH4TANBgkqhkiG9w0BAQQFADCBlTELMAkGA1UEBhMC
REUxETAPBgNVBAgTCFNhYXJsYW5kMRAwDgYDVQQKEwdNUEktU1dTMSIwIAYDVQQL
ExlEaXN0cmlidXRlZCBTeXN0ZW1zIEdyb3VwMRowGAYDVQQDExFBbmRyZWFzIEhh
ZWJlcmxlbjEhMB8GCSqGSIb3DQEJARYSZGVtb2NhQG9jdGFyaW5lLmRlMB4XDTE1
MDQyMDIwNDY1N1oXDTE2MDQxOTIwNDY1N1owga4xCzAJBgNVBAYTAkRFMREwDwYD
VQQIEwhTYWFybGFuZDEQMA4GA1UEChMHTVBJLVNXUzEiMCAGA1UECxMZRGlzdHJp
YnV0ZWQgU3lzdGVtcyBHcm91cDExMC8GA1UEAxMoMmYyZmY2YzA5YmRiODljYjA0
ZWZkOGIyM2ZmYWI0OWQ0Y2Q0Mjk0YzEjMCEGCSqGSIb3DQEJARYUbm9kZTAwMDlA
b2N0YXJpbmUuZGUwgZ8wDQYJKoZIhvcNAQEBBQADgY0AMIGJAoGBALmWBAt5HRg1
zWkHKl+XngFyhdOrjYnjkN1AQwB3d3Sc1uqXxR06rhm0EcyWHNySABcN6QpqRL5j
VhukMZS1abixoHiwBR/syWhtgDGIOQc/qU4izrYCV/UICw4PSPv+gqbuHrc3jkqE
lCg+akZb3j3Ss0JlHxlqUQ65AAcDr2nDAgMBAAEwDQYJKoZIhvcNAQEEBQADgYEA
D9jkyYfyUm2Oe0AKo1pe2O039m9FNviY4zR8WksYBu1P23u0uLx9c0grQnwa1nBX
2tQbI5Mh6G5TGVtt9C10yMLj0GWeOK0+8tZQ0XLujWO4JU7q023YXYhpNySwPJDg
TY3U2d0fsXaYffppOKwu5kQJSlkvf6sPMjchp+rYI+0=
-----END CERTIFICATE-----
