Certificate:
    Data:
        Version: 1 (0x0)
        Serial Number:
            9b:27:d7:e8:d1:ba:0b:ae
        Signature Algorithm: md5WithRSAEncryption
        Issuer: C=DE, ST=Saarland, O=MPI-SWS, OU=Distributed Systems Group, CN=Andreas Haeberlen/emailAddress=democa@octarine.de
        Validity
            Not Before: Apr 20 20:47:40 2015 GMT
            Not After : Apr 19 20:47:40 2016 GMT
        Subject: C=DE, ST=Saarland, O=MPI-SWS, OU=Distributed Systems Group, CN=ad78df322ad315a7b9afa27e0c91edf9b71974b9/emailAddress=node0982@octarine.de
        Subject Public Key Info:
            Public Key Algorithm: rsaEncryption
            RSA Public Key: (1024 bit)
                Modulus (1024 bit):
                    00:c1:45:d0:86:2b:d5:25:dc:78:6e:cc:a8:8b:ff:
                    3f:13:a3:58:30:4f:5f:93:16:61:eb:ff:5e:9d:25:
                    a4:47:35:77:ba:4b:88:25:3f:a5:a6:b1:fa:e4:d5:
                    3c:1d:91:fb:e1:4e:d7:77:a3:8f:11:95:ee:95:57:
                    14:7d:5d:43:e0:f0:a9:b6:13:d0:c1:9c:64:85:a0:
                    2d:b6:af:cb:97:5e:74:51:02:20:03:b9:60:95:ba:
                    8d:a1:8a:12:19:62:58:4b:6f:91:5d:17:83:26:4e:
                    5c:81:9a:52:92:26:58:92:0e:b8:16:3e:8d:76:58:
                    fd:50:7d:51:a2:83:53:6f:7b
                Exponent: 65537 (0x10001)
    Signature Algorithm: md5WithRSAEncryption
        23:8c:09:17:59:98:4b:18:cf:27:12:0f:b4:7f:51:b6:36:4f:
        ac:52:4f:b3:2f:04:b3:30:4c:20:71:5f:91:0f:33:40:b6:53:
        a8:23:fc:22:52:bd:51:70:cb:48:d5:46:52:2d:92:77:42:d4:
        0f:0b:f7:92:c2:24:82:e3:a3:1a:d6:ab:a1:f1:7a:e7:86:47:
        95:f6:92:1b:7c:26:44:87:7a:9a:ad:6f:7e:9e:5e:69:7c:53:
        1f:30:cb:3f:46:f1:60:45:d5:cc:12:b5:1e:59:10:fa:83:90:
        ad:71:ae:c3:e9:b6:50:8b:b4:8c:d8:b8:e1:d8:cc:5a:01:77:
        ac:40
-----BEGIN CERTIFICATE-----
MIICvDCCAiUCCQCbJ9fo0boLrjANBgkqhkiG9w0BAQQFADCBlTELMAkGA1UEBhMC
REUxETAPBgNVBAgTCFNhYXJsYW5kMRAwDgYDVQQKEwdNUEktU1dTMSIwIAYDVQQL
ExlEaXN0cmlidXRlZCBTeXN0ZW1zIEdyb3VwMRowGAYDVQQDExFBbmRyZWFzIEhh
ZWJlcmxlbjEhMB8GCSqGSIb3DQEJARYSZGVtb2NhQG9jdGFyaW5lLmRlMB4XDTE1
MDQyMDIwNDc0MFoXDTE2MDQxOTIwNDc0MFowga4xCzAJBgNVBAYTAkRFMREwDwYD
VQQIEwhTYWFybGFuZDEQMA4GA1UEChMHTVBJLVNXUzEiMCAGA1UECxMZRGlzdHJp
YnV0ZWQgU3lzdGVtcyBHcm91cDExMC8GA1UEAxMoYWQ3OGRmMzIyYWQzMTVhN2I5
YWZhMjdlMGM5MWVkZjliNzE5NzRiOTEjMCEGCSqGSIb3DQEJARYUbm9kZTA5ODJA
b2N0YXJpbmUuZGUwgZ8wDQYJKoZIhvcNAQEBBQADgY0AMIGJAoGBAMFF0IYr1SXc
eG7MqIv/PxOjWDBPX5MWYev/Xp0lpEc1d7pLiCU/paax+uTVPB2R++FO13ejjxGV
7pVXFH1dQ+DwqbYT0MGcZIWgLbavy5dedFECIAO5YJW6jaGKEhliWEtvkV0XgyZO
XIGaUpImWJIOuBY+jXZY/VB9UaKDU297AgMBAAEwDQYJKoZIhvcNAQEEBQADgYEA
I4wJF1mYSxjPJxIPtH9RtjZPrFJPsy8EszBMIHFfkQ8zQLZTqCP8IlK9UXDLSNVG
Ui2Sd0LUDwv3ksIkguOjGtarofF654ZHlfaSG3wmRId6mq1vfp5eaXxTHzDLP0bx
YEXVzBK1HlkQ+oOQrXGuw+m2UIu0jNi44djMWgF3rEA=
-----END CERTIFICATE-----
