Certificate:
    Data:
        Version: 1 (0x0)
        Serial Number:
            9b:27:d7:e8:d1:ba:0a:e7
        Signature Algorithm: md5WithRSAEncryption
        Issuer: C=DE, ST=Saarland, O=MPI-SWS, OU=Distributed Systems Group, CN=Andreas Haeberlen/emailAddress=democa@octarine.de
        Validity
            Not Before: Apr 20 20:47:31 2015 GMT
            Not After : Apr 19 20:47:31 2016 GMT
        Subject: C=DE, ST=Saarland, O=MPI-SWS, OU=Distributed Systems Group, CN=45da0a29b823191e8f3b25378663035582f8c218/emailAddress=node0783@octarine.de
        Subject Public Key Info:
            Public Key Algorithm: rsaEncryption
            RSA Public Key: (1024 bit)
                Modulus (1024 bit):
                    00:c1:ff:4f:5c:c7:2b:6b:e7:24:85:b1:70:06:ca:
                    40:c5:de:17:b3:62:8c:e0:d2:b3:27:30:3f:0c:60:
                    8b:4e:92:d8:36:ab:f4:eb:72:48:8b:fd:05:68:09:
                    84:b6:b9:9f:bf:4b:a2:3b:47:12:5f:48:64:5c:f0:
                    f8:d8:8e:9e:23:a3:bb:0b:29:85:a1:b2:15:19:fc:
                    0e:30:7c:6c:ba:6b:c1:b7:12:e1:48:b1:01:44:49:
                    56:59:92:0c:ba:6d:a3:b8:49:e9:f7:e5:05:39:8d:
                    b5:b2:cb:13:5b:2c:61:c4:62:22:40:ed:87:17:58:
                    b3:68:c1:4d:8a:20:c8:bb:d1
                Exponent: 65537 (0x10001)
    Signature Algorithm: md5WithRSAEncryption
        4c:6f:6a:4b:44:d1:95:8b:d3:46:11:32:dd:fa:59:3d:d9:8a:
        01:3f:4d:d6:50:0e:e5:89:8c:90:af:26:ee:98:94:24:bd:87:
        57:9d:db:47:96:a3:3b:9e:c4:db:40:e7:28:75:2e:cd:ae:68:
        8c:03:ff:cf:19:c0:24:49:b3:4c:49:9f:47:56:77:fc:0c:20:
        31:da:81:09:97:83:61:e3:1f:ac:b0:b9:91:71:fe:7d:ab:f8:
        a2:2f:7c:e1:bb:0a:0c:d7:e1:c0:32:b8:48:e9:81:5a:0f:ee:
        d6:0d:94:75:2c:dc:14:c4:8d:5b:32:05:64:89:a9:ad:42:d4:
        1e:f3
-----BEGIN CERTIFICATE-----
MIICvDCCAiUCCQCbJ9fo0boK5zANBgkqhkiG9w0BAQQFADCBlTELMAkGA1UEBhMC
REUxETAPBgNVBAgTCFNhYXJsYW5kMRAwDgYDVQQKEwdNUEktU1dTMSIwIAYDVQQL
ExlEaXN0cmlidXRlZCBTeXN0ZW1zIEdyb3VwMRowGAYDVQQDExFBbmRyZWFzIEhh
ZWJlcmxlbjEhMB8GCSqGSIb3DQEJARYSZGVtb2NhQG9jdGFyaW5lLmRlMB4XDTE1
MDQyMDIwNDczMVoXDTE2MDQxOTIwNDczMVowga4xCzAJBgNVBAYTAkRFMREwDwYD
VQQIEwhTYWFybGFuZDEQMA4GA1UEChMHTVBJLVNXUzEiMCAGA1UECxMZRGlzdHJp
YnV0ZWQgU3lzdGVtcyBHcm91cDExMC8GA1UEAxMoNDVkYTBhMjliODIzMTkxZThm
M2IyNTM3ODY2MzAzNTU4MmY4YzIxODEjMCEGCSqGSIb3DQEJARYUbm9kZTA3ODNA
b2N0YXJpbmUuZGUwgZ8wDQYJKoZIhvcNAQEBBQADgY0AMIGJAoGBAMH/T1zHK2vn
JIWxcAbKQMXeF7NijODSsycwPwxgi06S2Dar9OtySIv9BWgJhLa5n79LojtHEl9I
ZFzw+NiOniOjuwsphaGyFRn8DjB8bLprwbcS4UixAURJVlmSDLpto7hJ6fflBTmN
tbLLE1ssYcRiIkDthxdYs2jBTYogyLvRAgMBAAEwDQYJKoZIhvcNAQEEBQADgYEA
TG9qS0TRlYvTRhEy3fpZPdmKAT9N1lAO5YmMkK8m7piUJL2HV53bR5ajO57E20Dn
KHUuza5ojAP/zxnAJEmzTEmfR1Z3/AwgMdqBCZeDYeMfrLC5kXH+fav4oi984bsK
DNfhwDK4SOmBWg/u1g2UdSzcFMSNWzIFZImprULUHvM=
-----END CERTIFICATE-----
