Certificate:
    Data:
        Version: 1 (0x0)
        Serial Number:
            9b:27:d7:e8:d1:ba:08:7a
        Signature Algorithm: md5WithRSAEncryption
        Issuer: C=DE, ST=Saarland, O=MPI-SWS, OU=Distributed Systems Group, CN=Andreas Haeberlen/emailAddress=democa@octarine.de
        Validity
            Not Before: Apr 20 20:47:04 2015 GMT
            Not After : Apr 19 20:47:04 2016 GMT
        Subject: C=DE, ST=Saarland, O=MPI-SWS, OU=Distributed Systems Group, CN=f29853c3cace55cc1e0ffd5d717716409d8e152d/emailAddress=node0162@octarine.de
        Subject Public Key Info:
            Public Key Algorithm: rsaEncryption
            RSA Public Key: (1024 bit)
                Modulus (1024 bit):
                    00:bc:14:d7:b4:01:f8:7b:82:20:69:14:e8:6b:4e:
                    22:a5:56:00:b6:3f:1a:5a:83:14:dc:ef:42:f7:70:
                    d7:a0:cd:a3:18:c1:e3:5a:80:ae:24:ca:3f:60:58:
                    d4:e8:12:6b:34:7b:e2:ad:bd:fc:10:9a:79:d5:fc:
                    8b:5d:d7:3d:28:65:c5:5a:c2:15:db:9d:89:d6:d8:
                    3a:7b:79:8a:60:76:8e:a6:db:8d:05:d5:61:02:0d:
                    5c:13:64:f7:7b:e0:a2:c7:e0:36:86:56:78:cf:9d:
                    3d:0a:32:8c:8d:67:7a:67:c5:5e:55:ca:61:cd:30:
                    03:af:48:6b:1e:ce:c1:a0:c5
                Exponent: 65537 (0x10001)
    Signature Algorithm: md5WithRSAEncryption
        ca:85:e5:b5:c4:10:d5:44:da:c4:a8:74:3d:ca:6c:75:7a:a2:
        a1:cd:0e:61:8e:35:66:20:e7:0e:7f:66:d3:d4:cc:be:d7:ca:
        f8:64:98:4b:8f:ff:a9:5c:6c:14:72:71:c2:4e:eb:6e:f2:73:
        35:90:9b:f6:cf:17:94:57:f0:29:48:04:05:25:06:12:64:06:
        b9:ac:de:e0:82:08:31:d9:b2:f9:db:17:29:bc:a9:d2:54:d3:
        98:fa:e7:98:63:e7:6c:47:49:f1:0c:e7:59:75:92:19:26:7d:
        20:1a:54:97:9b:23:79:9f:70:b7:ad:33:2d:cf:23:bd:60:b8:
        17:f8
-----BEGIN CERTIFICATE-----
MIICvDCCAiUCCQCbJ9fo0boIejANBgkqhkiG9w0BAQQFADCBlTELMAkGA1UEBhMC
REUxETAPBgNVBAgTCFNhYXJsYW5kMRAwDgYDVQQKEwdNUEktU1dTMSIwIAYDVQQL
ExlEaXN0cmlidXRlZCBTeXN0ZW1zIEdyb3VwMRowGAYDVQQDExFBbmRyZWFzIEhh
ZWJlcmxlbjEhMB8GCSqGSIb3DQEJARYSZGVtb2NhQG9jdGFyaW5lLmRlMB4XDTE1
MDQyMDIwNDcwNFoXDTE2MDQxOTIwNDcwNFowga4xCzAJBgNVBAYTAkRFMREwDwYD
VQQIEwhTYWFybGFuZDEQMA4GA1UEChMHTVBJLVNXUzEiMCAGA1UECxMZRGlzdHJp
YnV0ZWQgU3lzdGVtcyBHcm91cDExMC8GA1UEAxMoZjI5ODUzYzNjYWNlNTVjYzFl
MGZmZDVkNzE3NzE2NDA5ZDhlMTUyZDEjMCEGCSqGSIb3DQEJARYUbm9kZTAxNjJA
b2N0YXJpbmUuZGUwgZ8wDQYJKoZIhvcNAQEBBQADgY0AMIGJAoGBALwU17QB+HuC
IGkU6GtOIqVWALY/GlqDFNzvQvdw16DNoxjB41qAriTKP2BY1OgSazR74q29/BCa
edX8i13XPShlxVrCFdudidbYOnt5imB2jqbbjQXVYQINXBNk93vgosfgNoZWeM+d
PQoyjI1nemfFXlXKYc0wA69Iax7OwaDFAgMBAAEwDQYJKoZIhvcNAQEEBQADgYEA
yoXltcQQ1UTaxKh0PcpsdXqioc0OYY41ZiDnDn9m09TMvtfK+GSYS4//qVxsFHJx
wk7rbvJzNZCb9s8XlFfwKUgEBSUGEmQGuaze4IIIMdmy+dsXKbyp0lTTmPrnmGPn
bEdJ8QznWXWSGSZ9IBpUl5sjeZ9wt60zLc8jvWC4F/g=
-----END CERTIFICATE-----
