Certificate:
    Data:
        Version: 1 (0x0)
        Serial Number:
            9b:27:d7:e8:d1:ba:08:c2
        Signature Algorithm: md5WithRSAEncryption
        Issuer: C=DE, ST=Saarland, O=MPI-SWS, OU=Distributed Systems Group, CN=Andreas Haeberlen/emailAddress=democa@octarine.de
        Validity
            Not Before: Apr 20 20:47:07 2015 GMT
            Not After : Apr 19 20:47:07 2016 GMT
        Subject: C=DE, ST=Saarland, O=MPI-SWS, OU=Distributed Systems Group, CN=30f9bc8767af8107d8955a712acc020320dec653/emailAddress=node0234@octarine.de
        Subject Public Key Info:
            Public Key Algorithm: rsaEncryption
            RSA Public Key: (1024 bit)
                Modulus (1024 bit):
                    00:9f:8a:da:a7:ee:e6:e9:eb:76:d8:04:b1:8b:0f:
                    1e:b6:d9:b8:d0:c9:04:26:7a:91:af:7f:ab:f4:3e:
                    b0:00:4f:3c:ad:ee:18:d8:d5:e7:39:3e:a1:9a:15:
                    6e:27:10:b7:7c:fc:9d:c6:55:cb:5c:0e:47:02:fb:
                    45:ee:ed:0f:77:5f:a8:41:ac:6f:a3:7c:d8:13:5f:
                    0d:94:bf:87:7e:19:2d:f6:a3:12:7d:0b:2e:cb:f4:
                    e0:c1:01:e7:b5:7d:27:fc:9f:fb:46:fc:49:4f:30:
                    f6:76:8c:e8:26:fd:b7:11:e3:36:8a:91:4e:71:62:
                    9c:2a:be:b6:cd:fa:bd:76:23
                Exponent: 65537 (0x10001)
    Signature Algorithm: md5WithRSAEncryption
        09:c7:b8:df:00:30:a4:84:34:0e:52:1e:61:f6:67:69:d7:39:
        bc:6a:5b:53:9b:33:6f:50:9a:72:86:28:a7:ec:7f:89:72:1f:
        cf:51:17:68:eb:da:c3:ef:cb:f5:cb:75:df:93:e2:43:d5:b7:
        7d:3c:36:29:e1:f7:b6:46:4e:15:9a:51:ec:03:41:59:59:2e:
        d5:cc:29:0c:31:3e:66:7e:f9:c5:0e:8f:28:79:fe:ae:36:bf:
        94:5d:0e:53:38:42:04:43:15:ec:87:95:45:14:c2:f6:cf:02:
        f3:4f:9f:16:9d:99:53:b5:b3:1b:65:ec:58:8c:f5:7c:eb:43:
        fd:18
-----BEGIN CERTIFICATE-----
MIICvDCCAiUCCQCbJ9fo0boIwjANBgkqhkiG9w0BAQQFADCBlTELMAkGA1UEBhMC
REUxETAPBgNVBAgTCFNhYXJsYW5kMRAwDgYDVQQKEwdNUEktU1dTMSIwIAYDVQQL
ExlEaXN0cmlidXRlZCBTeXN0ZW1zIEdyb3VwMRowGAYDVQQDExFBbmRyZWFzIEhh
ZWJlcmxlbjEhMB8GCSqGSIb3DQEJARYSZGVtb2NhQG9jdGFyaW5lLmRlMB4XDTE1
MDQyMDIwNDcwN1oXDTE2MDQxOTIwNDcwN1owga4xCzAJBgNVBAYTAkRFMREwDwYD
VQQIEwhTYWFybGFuZDEQMA4GA1UEChMHTVBJLVNXUzEiMCAGA1UECxMZRGlzdHJp
YnV0ZWQgU3lzdGVtcyBHcm91cDExMC8GA1UEAxMoMzBmOWJjODc2N2FmODEwN2Q4
OTU1YTcxMmFjYzAyMDMyMGRlYzY1MzEjMCEGCSqGSIb3DQEJARYUbm9kZTAyMzRA
b2N0YXJpbmUuZGUwgZ8wDQYJKoZIhvcNAQEBBQADgY0AMIGJAoGBAJ+K2qfu5unr
dtgEsYsPHrbZuNDJBCZ6ka9/q/Q+sABPPK3uGNjV5zk+oZoVbicQt3z8ncZVy1wO
RwL7Re7tD3dfqEGsb6N82BNfDZS/h34ZLfajEn0LLsv04MEB57V9J/yf+0b8SU8w
9naM6Cb9txHjNoqRTnFinCq+ts36vXYjAgMBAAEwDQYJKoZIhvcNAQEEBQADgYEA
Cce43wAwpIQ0DlIeYfZnadc5vGpbU5szb1CacoYop+x/iXIfz1EXaOvaw+/L9ct1
35PiQ9W3fTw2KeH3tkZOFZpR7ANBWVku1cwpDDE+Zn75xQ6PKHn+rja/lF0OUzhC
BEMV7IeVRRTC9s8C80+fFp2ZU7WzG2XsWIz1fOtD/Rg=
-----END CERTIFICATE-----
