Certificate:
    Data:
        Version: 1 (0x0)
        Serial Number:
            9b:27:d7:e8:d1:ba:08:a2
        Signature Algorithm: md5WithRSAEncryption
        Issuer: C=DE, ST=Saarland, O=MPI-SWS, OU=Distributed Systems Group, CN=Andreas Haeberlen/emailAddress=democa@octarine.de
        Validity
            Not Before: Apr 20 20:47:05 2015 GMT
            Not After : Apr 19 20:47:05 2016 GMT
        Subject: C=DE, ST=Saarland, O=MPI-SWS, OU=Distributed Systems Group, CN=3bf3e0569ef4f6ae5b39cd98e9e366e91ec0e277/emailAddress=node0202@octarine.de
        Subject Public Key Info:
            Public Key Algorithm: rsaEncryption
            RSA Public Key: (1024 bit)
                Modulus (1024 bit):
                    00:c0:5a:ba:bc:a8:4d:04:d6:f1:df:39:fd:96:e2:
                    20:95:76:c2:24:2c:ad:f4:d0:4e:7c:12:40:da:e7:
                    d1:e3:d1:2b:3c:48:28:7e:54:60:cb:5c:24:ef:8b:
                    ed:4f:5c:f0:de:5d:44:f2:28:d7:80:f5:22:32:a9:
                    41:18:62:0e:34:60:a2:50:31:9f:ac:d1:d2:72:cf:
                    e0:30:cf:4e:99:2f:f5:9f:b0:35:37:d2:28:66:08:
                    de:7b:f8:09:f3:cf:73:b6:a5:65:a3:3e:e7:08:ce:
                    3d:2e:97:e6:38:51:ec:34:26:cb:c2:05:13:3b:64:
                    88:11:b9:ac:45:87:16:7f:6b
                Exponent: 65537 (0x10001)
    Signature Algorithm: md5WithRSAEncryption
        1c:f2:82:4c:9f:71:eb:13:19:aa:f6:90:1f:0f:cc:01:7d:93:
        80:fb:89:de:15:31:f0:e7:07:ea:11:61:95:63:e7:db:15:28:
        dc:12:a2:fa:65:67:d3:80:c9:ea:c9:4c:c3:e5:71:fa:9c:21:
        2b:c7:37:1e:20:f6:07:63:bd:78:34:b4:fa:73:cd:e4:b6:21:
        68:fa:67:ce:9d:a1:00:b4:ed:ac:b7:4e:ec:45:b4:c6:f3:7d:
        5e:a4:6c:4a:87:26:a2:c9:3b:f9:a8:7d:91:70:8e:ea:66:2c:
        18:84:15:ec:0f:f7:92:f7:3d:3e:a6:ac:d5:71:23:f0:a9:b3:
        e1:87
-----BEGIN CERTIFICATE-----
MIICvDCCAiUCCQCbJ9fo0boIojANBgkqhkiG9w0BAQQFADCBlTELMAkGA1UEBhMC
REUxETAPBgNVBAgTCFNhYXJsYW5kMRAwDgYDVQQKEwdNUEktU1dTMSIwIAYDVQQL
ExlEaXN0cmlidXRlZCBTeXN0ZW1zIEdyb3VwMRowGAYDVQQDExFBbmRyZWFzIEhh
ZWJlcmxlbjEhMB8GCSqGSIb3DQEJARYSZGVtb2NhQG9jdGFyaW5lLmRlMB4XDTE1
MDQyMDIwNDcwNVoXDTE2MDQxOTIwNDcwNVowga4xCzAJBgNVBAYTAkRFMREwDwYD
VQQIEwhTYWFybGFuZDEQMA4GA1UEChMHTVBJLVNXUzEiMCAGA1UECxMZRGlzdHJp
YnV0ZWQgU3lzdGVtcyBHcm91cDExMC8GA1UEAxMoM2JmM2UwNTY5ZWY0ZjZhZTVi
MzljZDk4ZTllMzY2ZTkxZWMwZTI3NzEjMCEGCSqGSIb3DQEJARYUbm9kZTAyMDJA
b2N0YXJpbmUuZGUwgZ8wDQYJKoZIhvcNAQEBBQADgY0AMIGJAoGBAMBauryoTQTW
8d85/ZbiIJV2wiQsrfTQTnwSQNrn0ePRKzxIKH5UYMtcJO+L7U9c8N5dRPIo14D1
IjKpQRhiDjRgolAxn6zR0nLP4DDPTpkv9Z+wNTfSKGYI3nv4CfPPc7alZaM+5wjO
PS6X5jhR7DQmy8IFEztkiBG5rEWHFn9rAgMBAAEwDQYJKoZIhvcNAQEEBQADgYEA
HPKCTJ9x6xMZqvaQHw/MAX2TgPuJ3hUx8OcH6hFhlWPn2xUo3BKi+mVn04DJ6slM
w+Vx+pwhK8c3HiD2B2O9eDS0+nPN5LYhaPpnzp2hALTtrLdO7EW0xvN9XqRsSocm
osk7+ah9kXCO6mYsGIQV7A/3kvc9Pqas1XEj8Kmz4Yc=
-----END CERTIFICATE-----
