Certificate:
    Data:
        Version: 1 (0x0)
        Serial Number:
            9b:27:d7:e8:d1:ba:0b:14
        Signature Algorithm: md5WithRSAEncryption
        Issuer: C=DE, ST=Saarland, O=MPI-SWS, OU=Distributed Systems Group, CN=Andreas Haeberlen/emailAddress=democa@octarine.de
        Validity
            Not Before: Apr 20 20:47:33 2015 GMT
            Not After : Apr 19 20:47:33 2016 GMT
        Subject: C=DE, ST=Saarland, O=MPI-SWS, OU=Distributed Systems Group, CN=0752fd12f7f576a9119a4aaede811f617c469698/emailAddress=node0828@octarine.de
        Subject Public Key Info:
            Public Key Algorithm: rsaEncryption
            RSA Public Key: (1024 bit)
                Modulus (1024 bit):
                    00:a6:1a:50:92:9c:3c:ff:77:35:16:96:e6:d1:88:
                    f8:65:31:bc:b7:67:dc:81:a4:64:18:c0:f1:d2:2c:
                    82:00:0a:65:8d:73:2d:dc:c7:1a:52:78:49:9d:8d:
                    e9:40:80:66:f7:90:84:ea:73:c8:46:42:5e:d2:3c:
                    e6:e0:91:50:7b:72:cd:62:48:4d:c4:c4:39:89:f4:
                    30:5b:6d:92:62:1e:9f:2a:9f:2f:5e:b2:09:39:1d:
                    41:c9:f1:6c:ba:a2:90:28:53:12:98:b3:3b:d6:af:
                    00:11:48:89:a7:53:7c:4b:88:1b:f4:81:ec:9f:1d:
                    24:a1:c3:fd:87:6e:5b:f6:41
                Exponent: 65537 (0x10001)
    Signature Algorithm: md5WithRSAEncryption
        53:b2:9d:a7:5d:85:47:5b:05:a1:4c:e8:fa:59:da:a0:42:a8:
        a9:d0:04:17:25:c9:c2:f2:88:67:8b:2c:36:a9:59:29:76:ae:
        11:47:b9:24:2c:75:9f:d5:3e:ea:de:15:d8:61:c8:df:87:e6:
        f7:18:33:d4:22:84:ef:43:cc:2e:cd:47:e4:ce:4b:0d:e6:bc:
        1f:2a:3f:2c:24:f2:78:73:02:59:c2:c7:25:2f:57:e6:cc:68:
        ed:43:b7:63:38:f0:18:5c:37:f1:6c:61:df:55:d8:a0:b4:4c:
        11:a0:cd:fd:97:b6:aa:d7:e4:c5:a7:61:35:b1:2b:29:90:da:
        e0:ce
-----BEGIN CERTIFICATE-----
MIICvDCCAiUCCQCbJ9fo0boLFDANBgkqhkiG9w0BAQQFADCBlTELMAkGA1UEBhMC
REUxETAPBgNVBAgTCFNhYXJsYW5kMRAwDgYDVQQKEwdNUEktU1dTMSIwIAYDVQQL
ExlEaXN0cmlidXRlZCBTeXN0ZW1zIEdyb3VwMRowGAYDVQQDExFBbmRyZWFzIEhh
ZWJlcmxlbjEhMB8GCSqGSIb3DQEJARYSZGVtb2NhQG9jdGFyaW5lLmRlMB4XDTE1
MDQyMDIwNDczM1oXDTE2MDQxOTIwNDczM1owga4xCzAJBgNVBAYTAkRFMREwDwYD
VQQIEwhTYWFybGFuZDEQMA4GA1UEChMHTVBJLVNXUzEiMCAGA1UECxMZRGlzdHJp
YnV0ZWQgU3lzdGVtcyBHcm91cDExMC8GA1UEAxMoMDc1MmZkMTJmN2Y1NzZhOTEx
OWE0YWFlZGU4MTFmNjE3YzQ2OTY5ODEjMCEGCSqGSIb3DQEJARYUbm9kZTA4MjhA
b2N0YXJpbmUuZGUwgZ8wDQYJKoZIhvcNAQEBBQADgY0AMIGJAoGBAKYaUJKcPP93
NRaW5tGI+GUxvLdn3IGkZBjA8dIsggAKZY1zLdzHGlJ4SZ2N6UCAZveQhOpzyEZC
XtI85uCRUHtyzWJITcTEOYn0MFttkmIenyqfL16yCTkdQcnxbLqikChTEpizO9av
ABFIiadTfEuIG/SB7J8dJKHD/YduW/ZBAgMBAAEwDQYJKoZIhvcNAQEEBQADgYEA
U7Kdp12FR1sFoUzo+lnaoEKoqdAEFyXJwvKIZ4ssNqlZKXauEUe5JCx1n9U+6t4V
2GHI34fm9xgz1CKE70PMLs1H5M5LDea8Hyo/LCTyeHMCWcLHJS9X5sxo7UO3Yzjw
GFw38Wxh31XYoLRMEaDN/Ze2qtfkxadhNbErKZDa4M4=
-----END CERTIFICATE-----
