Certificate:
    Data:
        Version: 1 (0x0)
        Serial Number:
            9b:27:d7:e8:d1:ba:0a:f3
        Signature Algorithm: md5WithRSAEncryption
        Issuer: C=DE, ST=Saarland, O=MPI-SWS, OU=Distributed Systems Group, CN=Andreas Haeberlen/emailAddress=democa@octarine.de
        Validity
            Not Before: Apr 20 20:47:32 2015 GMT
            Not After : Apr 19 20:47:32 2016 GMT
        Subject: C=DE, ST=Saarland, O=MPI-SWS, OU=Distributed Systems Group, CN=d5f240fc23df2b996f6d14c84cfe85b6bb9fc9ce/emailAddress=node0795@octarine.de
        Subject Public Key Info:
            Public Key Algorithm: rsaEncryption
            RSA Public Key: (1024 bit)
                Modulus (1024 bit):
                    00:a2:4d:bc:a2:d7:bf:e1:7b:61:41:4b:a9:d7:13:
                    e3:90:61:a6:de:bf:bc:da:76:b6:0d:c5:f1:4c:f2:
                    b4:99:af:f4:6d:ae:d6:1e:72:87:e1:c2:2a:86:71:
                    06:d3:d4:8e:b7:b1:3b:be:e6:73:c7:a6:15:a8:ed:
                    aa:66:65:59:83:0b:d6:6d:92:3e:75:32:0f:d9:b8:
                    e7:80:75:aa:4c:82:a0:4f:eb:7e:2a:68:90:be:ef:
                    36:d3:c6:12:09:c3:a5:d1:cc:06:5a:01:57:1e:c7:
                    96:7f:ac:98:31:9e:04:04:2b:82:96:c6:64:c1:09:
                    08:52:60:eb:c6:95:d3:b4:77
                Exponent: 65537 (0x10001)
    Signature Algorithm: md5WithRSAEncryption
        02:15:19:ae:7b:0b:ff:87:57:0e:be:e3:b8:aa:9d:6a:4a:c0:
        2a:f0:18:a5:dc:35:b6:8e:dc:89:42:34:3e:b9:ba:a2:5f:b5:
        86:8e:16:f5:08:73:30:b9:84:a2:86:15:4e:2e:66:1e:56:d0:
        2f:b6:4d:b4:3c:36:c1:48:45:92:75:e5:8d:fb:cc:18:d6:3c:
        ac:16:df:54:3e:e4:11:5f:6d:74:5c:2f:57:8b:ce:3e:ca:2b:
        14:d0:46:2e:1f:bc:73:82:3f:ad:bc:2d:d3:06:61:4b:51:c9:
        d7:c6:9b:bc:7f:0c:2d:cd:cc:9b:2d:27:17:05:60:b2:ce:e6:
        52:d5
-----BEGIN CERTIFICATE-----
MIICvDCCAiUCCQCbJ9fo0boK8zANBgkqhkiG9w0BAQQFADCBlTELMAkGA1UEBhMC
REUxETAPBgNVBAgTCFNhYXJsYW5kMRAwDgYDVQQKEwdNUEktU1dTMSIwIAYDVQQL
ExlEaXN0cmlidXRlZCBTeXN0ZW1zIEdyb3VwMRowGAYDVQQDExFBbmRyZWFzIEhh
ZWJlcmxlbjEhMB8GCSqGSIb3DQEJARYSZGVtb2NhQG9jdGFyaW5lLmRlMB4XDTE1
MDQyMDIwNDczMloXDTE2MDQxOTIwNDczMlowga4xCzAJBgNVBAYTAkRFMREwDwYD
VQQIEwhTYWFybGFuZDEQMA4GA1UEChMHTVBJLVNXUzEiMCAGA1UECxMZRGlzdHJp
YnV0ZWQgU3lzdGVtcyBHcm91cDExMC8GA1UEAxMoZDVmMjQwZmMyM2RmMmI5OTZm
NmQxNGM4NGNmZTg1YjZiYjlmYzljZTEjMCEGCSqGSIb3DQEJARYUbm9kZTA3OTVA
b2N0YXJpbmUuZGUwgZ8wDQYJKoZIhvcNAQEBBQADgY0AMIGJAoGBAKJNvKLXv+F7
YUFLqdcT45Bhpt6/vNp2tg3F8UzytJmv9G2u1h5yh+HCKoZxBtPUjrexO77mc8em
FajtqmZlWYML1m2SPnUyD9m454B1qkyCoE/rfipokL7vNtPGEgnDpdHMBloBVx7H
ln+smDGeBAQrgpbGZMEJCFJg68aV07R3AgMBAAEwDQYJKoZIhvcNAQEEBQADgYEA
AhUZrnsL/4dXDr7juKqdakrAKvAYpdw1to7ciUI0Prm6ol+1ho4W9QhzMLmEooYV
Ti5mHlbQL7ZNtDw2wUhFknXljfvMGNY8rBbfVD7kEV9tdFwvV4vOPsorFNBGLh+8
c4I/rbwt0wZhS1HJ18abvH8MLc3Mmy0nFwVgss7mUtU=
-----END CERTIFICATE-----
