Certificate:
    Data:
        Version: 1 (0x0)
        Serial Number:
            9b:27:d7:e8:d1:ba:0b:72
        Signature Algorithm: md5WithRSAEncryption
        Issuer: C=DE, ST=Saarland, O=MPI-SWS, OU=Distributed Systems Group, CN=Andreas Haeberlen/emailAddress=democa@octarine.de
        Validity
            Not Before: Apr 20 20:47:38 2015 GMT
            Not After : Apr 19 20:47:38 2016 GMT
        Subject: C=DE, ST=Saarland, O=MPI-SWS, OU=Distributed Systems Group, CN=dab4e9a30c37a1efbfb3be7a5fe8eaac5513fb60/emailAddress=node0922@octarine.de
        Subject Public Key Info:
            Public Key Algorithm: rsaEncryption
            RSA Public Key: (1024 bit)
                Modulus (1024 bit):
                    00:d9:0e:4a:0e:ff:f9:d3:3d:0e:01:02:46:a7:cb:
                    4f:f7:02:a3:9b:64:ee:d2:ae:5f:8e:5d:37:be:f8:
                    5d:34:e9:d5:c8:37:75:17:40:53:17:1e:05:da:25:
                    56:28:e9:5d:e9:88:24:b7:b7:b5:fa:3c:04:91:75:
                    dc:8d:72:cc:4f:f9:6a:80:ce:f9:ff:d8:50:c0:5b:
                    64:1f:c1:e1:c1:fd:31:40:97:61:48:f0:61:3f:c3:
                    6a:d1:fb:39:c7:be:26:5c:6a:16:b3:5e:6f:41:96:
                    5d:ef:a9:40:92:3f:a6:95:41:0f:d1:c7:08:18:f8:
                    c0:a6:be:39:67:83:99:53:59
                Exponent: 65537 (0x10001)
    Signature Algorithm: md5WithRSAEncryption
        65:6b:0d:56:76:ac:d4:f1:23:50:f0:ad:3d:86:0f:e6:20:3c:
        36:11:a2:79:2f:ba:41:ee:34:c7:f9:5b:44:65:c7:94:e6:a0:
        aa:bc:77:b5:cb:80:2b:b1:86:3f:e7:f7:55:6b:33:0b:0e:c2:
        66:aa:9b:7e:92:71:d1:33:c6:bd:04:5b:a1:b5:66:f9:44:58:
        62:e9:f2:1a:32:a7:74:36:b0:93:76:40:aa:fa:c4:a3:90:c7:
        70:d8:82:2a:4d:56:36:32:3b:3a:cf:5b:b6:d3:48:6b:4f:e1:
        02:98:62:9d:b6:a9:2c:45:46:86:a4:07:59:cc:97:90:cc:87:
        bf:89
-----BEGIN CERTIFICATE-----
MIICvDCCAiUCCQCbJ9fo0boLcjANBgkqhkiG9w0BAQQFADCBlTELMAkGA1UEBhMC
REUxETAPBgNVBAgTCFNhYXJsYW5kMRAwDgYDVQQKEwdNUEktU1dTMSIwIAYDVQQL
ExlEaXN0cmlidXRlZCBTeXN0ZW1zIEdyb3VwMRowGAYDVQQDExFBbmRyZWFzIEhh
ZWJlcmxlbjEhMB8GCSqGSIb3DQEJARYSZGVtb2NhQG9jdGFyaW5lLmRlMB4XDTE1
MDQyMDIwNDczOFoXDTE2MDQxOTIwNDczOFowga4xCzAJBgNVBAYTAkRFMREwDwYD
VQQIEwhTYWFybGFuZDEQMA4GA1UEChMHTVBJLVNXUzEiMCAGA1UECxMZRGlzdHJp
YnV0ZWQgU3lzdGVtcyBHcm91cDExMC8GA1UEAxMoZGFiNGU5YTMwYzM3YTFlZmJm
YjNiZTdhNWZlOGVhYWM1NTEzZmI2MDEjMCEGCSqGSIb3DQEJARYUbm9kZTA5MjJA
b2N0YXJpbmUuZGUwgZ8wDQYJKoZIhvcNAQEBBQADgY0AMIGJAoGBANkOSg7/+dM9
DgECRqfLT/cCo5tk7tKuX45dN774XTTp1cg3dRdAUxceBdolVijpXemIJLe3tfo8
BJF13I1yzE/5aoDO+f/YUMBbZB/B4cH9MUCXYUjwYT/DatH7Oce+JlxqFrNeb0GW
Xe+pQJI/ppVBD9HHCBj4wKa+OWeDmVNZAgMBAAEwDQYJKoZIhvcNAQEEBQADgYEA
ZWsNVnas1PEjUPCtPYYP5iA8NhGieS+6Qe40x/lbRGXHlOagqrx3tcuAK7GGP+f3
VWszCw7CZqqbfpJx0TPGvQRbobVm+URYYunyGjKndDawk3ZAqvrEo5DHcNiCKk1W
NjI7Os9bttNIa0/hAphinbapLEVGhqQHWcyXkMyHv4k=
-----END CERTIFICATE-----
