Certificate:
    Data:
        Version: 1 (0x0)
        Serial Number:
            9b:27:d7:e8:d1:ba:0a:f6
        Signature Algorithm: md5WithRSAEncryption
        Issuer: C=DE, ST=Saarland, O=MPI-SWS, OU=Distributed Systems Group, CN=Andreas Haeberlen/emailAddress=democa@octarine.de
        Validity
            Not Before: Apr 20 20:47:32 2015 GMT
            Not After : Apr 19 20:47:32 2016 GMT
        Subject: C=DE, ST=Saarland, O=MPI-SWS, OU=Distributed Systems Group, CN=011f4dd2a5357470458da8ee8c7bf71082fdfcfa/emailAddress=node0798@octarine.de
        Subject Public Key Info:
            Public Key Algorithm: rsaEncryption
            RSA Public Key: (1024 bit)
                Modulus (1024 bit):
                    00:9b:3f:d7:70:39:2a:e4:f2:cf:0b:2b:0a:ba:b4:
                    25:e8:f5:3b:13:e3:e2:02:9a:4d:d1:b4:0a:1c:df:
                    03:6c:3a:b0:57:01:54:f9:6b:7a:23:53:ad:92:c6:
                    99:25:22:0e:ca:06:ea:69:77:49:0a:94:36:4a:c8:
                    8a:53:5d:df:c3:54:c3:e4:04:b6:97:00:08:35:e3:
                    92:32:52:47:6d:65:67:54:60:45:ad:ae:af:d3:26:
                    3b:de:1f:ed:dd:ba:60:55:19:98:a2:67:e1:5c:54:
                    38:6e:89:52:54:e2:2b:09:5f:77:18:33:54:56:e9:
                    cd:c9:8b:e2:2a:b9:50:d5:7b
                Exponent: 65537 (0x10001)
    Signature Algorithm: md5WithRSAEncryption
        06:77:0d:09:9a:99:50:07:f4:72:1d:bc:2c:a8:ac:98:97:3d:
        39:2e:e5:10:ce:e5:77:0e:d9:7f:38:a1:07:c9:91:91:09:f6:
        1a:e9:05:b0:ca:b0:3d:ea:8c:f5:49:29:19:1e:ab:c4:1c:55:
        3d:ee:71:26:b2:05:98:ba:d6:bc:db:32:05:40:51:95:5c:f7:
        b8:3a:0f:4f:02:0b:34:24:a0:18:1c:23:fb:75:39:8b:8a:cc:
        0d:05:4a:ec:92:eb:00:5d:f1:21:d9:3e:0e:87:d8:c3:27:ef:
        16:d4:d9:0f:fc:62:f3:69:bd:52:3e:0d:3c:5a:cc:c6:d0:ae:
        90:c7
-----BEGIN CERTIFICATE-----
MIICvDCCAiUCCQCbJ9fo0boK9jANBgkqhkiG9w0BAQQFADCBlTELMAkGA1UEBhMC
REUxETAPBgNVBAgTCFNhYXJsYW5kMRAwDgYDVQQKEwdNUEktU1dTMSIwIAYDVQQL
ExlEaXN0cmlidXRlZCBTeXN0ZW1zIEdyb3VwMRowGAYDVQQDExFBbmRyZWFzIEhh
ZWJlcmxlbjEhMB8GCSqGSIb3DQEJARYSZGVtb2NhQG9jdGFyaW5lLmRlMB4XDTE1
MDQyMDIwNDczMloXDTE2MDQxOTIwNDczMlowga4xCzAJBgNVBAYTAkRFMREwDwYD
VQQIEwhTYWFybGFuZDEQMA4GA1UEChMHTVBJLVNXUzEiMCAGA1UECxMZRGlzdHJp
YnV0ZWQgU3lzdGVtcyBHcm91cDExMC8GA1UEAxMoMDExZjRkZDJhNTM1NzQ3MDQ1
OGRhOGVlOGM3YmY3MTA4MmZkZmNmYTEjMCEGCSqGSIb3DQEJARYUbm9kZTA3OThA
b2N0YXJpbmUuZGUwgZ8wDQYJKoZIhvcNAQEBBQADgY0AMIGJAoGBAJs/13A5KuTy
zwsrCrq0Jej1OxPj4gKaTdG0ChzfA2w6sFcBVPlreiNTrZLGmSUiDsoG6ml3SQqU
NkrIilNd38NUw+QEtpcACDXjkjJSR21lZ1RgRa2ur9MmO94f7d26YFUZmKJn4VxU
OG6JUlTiKwlfdxgzVFbpzcmL4iq5UNV7AgMBAAEwDQYJKoZIhvcNAQEEBQADgYEA
BncNCZqZUAf0ch28LKismJc9OS7lEM7ldw7ZfzihB8mRkQn2GukFsMqwPeqM9Ukp
GR6rxBxVPe5xJrIFmLrWvNsyBUBRlVz3uDoPTwILNCSgGBwj+3U5i4rMDQVK7JLr
AF3xIdk+DofYwyfvFtTZD/xi82m9Uj4NPFrMxtCukMc=
-----END CERTIFICATE-----
