Certificate:
    Data:
        Version: 1 (0x0)
        Serial Number:
            9b:27:d7:e8:d1:ba:08:42
        Signature Algorithm: md5WithRSAEncryption
        Issuer: C=DE, ST=Saarland, O=MPI-SWS, OU=Distributed Systems Group, CN=Andreas Haeberlen/emailAddress=democa@octarine.de
        Validity
            Not Before: Apr 20 20:47:01 2015 GMT
            Not After : Apr 19 20:47:01 2016 GMT
        Subject: C=DE, ST=Saarland, O=MPI-SWS, OU=Distributed Systems Group, CN=26dc42736f64d568eac82be2d4405188854c8cfe/emailAddress=node0106@octarine.de
        Subject Public Key Info:
            Public Key Algorithm: rsaEncryption
            RSA Public Key: (1024 bit)
                Modulus (1024 bit):
                    00:b3:54:04:b4:f5:6a:e2:a4:c6:4d:a1:c4:96:ad:
                    af:3f:14:5c:52:67:19:8b:8b:e4:f6:ec:20:1d:d0:
                    ba:aa:71:65:4f:59:92:93:15:eb:41:3e:4f:4e:c2:
                    ee:7a:3a:88:fb:bd:02:c8:27:68:3f:e9:6c:b7:0e:
                    70:ea:50:36:76:5a:c8:8c:73:d6:5b:30:1c:f0:a2:
                    94:a8:56:f0:f3:43:c9:c1:5f:02:8b:a2:b0:9a:0c:
                    eb:ef:73:92:af:06:3e:ee:8d:d6:0a:20:4e:49:3f:
                    b7:1a:d3:8e:9c:80:e6:e9:09:88:33:2d:da:5d:cb:
                    e8:b0:c0:74:40:cb:81:9f:d9
                Exponent: 65537 (0x10001)
    Signature Algorithm: md5WithRSAEncryption
        7c:9a:db:bb:9d:29:48:9a:0b:31:7d:99:2c:d3:7b:c3:e3:91:
        0f:fc:50:26:46:96:53:9b:c8:f4:fc:21:d0:35:5d:c5:49:22:
        9e:0c:1b:62:50:ec:79:78:85:aa:9d:dd:3a:01:a8:49:17:42:
        57:41:50:0b:b2:f0:dc:43:65:38:2f:e9:45:12:18:9d:15:17:
        cd:c9:5b:8a:50:e8:3f:e9:dd:5e:1f:81:52:cf:0a:2b:52:bf:
        a8:b8:20:bc:bc:ac:83:10:44:15:08:a0:53:22:ff:a0:2f:29:
        20:99:73:68:15:96:2e:16:8e:5e:7e:32:71:41:90:95:f8:bc:
        f9:7f
-----BEGIN CERTIFICATE-----
MIICvDCCAiUCCQCbJ9fo0boIQjANBgkqhkiG9w0BAQQFADCBlTELMAkGA1UEBhMC
REUxETAPBgNVBAgTCFNhYXJsYW5kMRAwDgYDVQQKEwdNUEktU1dTMSIwIAYDVQQL
ExlEaXN0cmlidXRlZCBTeXN0ZW1zIEdyb3VwMRowGAYDVQQDExFBbmRyZWFzIEhh
ZWJlcmxlbjEhMB8GCSqGSIb3DQEJARYSZGVtb2NhQG9jdGFyaW5lLmRlMB4XDTE1
MDQyMDIwNDcwMVoXDTE2MDQxOTIwNDcwMVowga4xCzAJBgNVBAYTAkRFMREwDwYD
VQQIEwhTYWFybGFuZDEQMA4GA1UEChMHTVBJLVNXUzEiMCAGA1UECxMZRGlzdHJp
YnV0ZWQgU3lzdGVtcyBHcm91cDExMC8GA1UEAxMoMjZkYzQyNzM2ZjY0ZDU2OGVh
YzgyYmUyZDQ0MDUxODg4NTRjOGNmZTEjMCEGCSqGSIb3DQEJARYUbm9kZTAxMDZA
b2N0YXJpbmUuZGUwgZ8wDQYJKoZIhvcNAQEBBQADgY0AMIGJAoGBALNUBLT1auKk
xk2hxJatrz8UXFJnGYuL5PbsIB3QuqpxZU9ZkpMV60E+T07C7no6iPu9AsgnaD/p
bLcOcOpQNnZayIxz1lswHPCilKhW8PNDycFfAouisJoM6+9zkq8GPu6N1gogTkk/
txrTjpyA5ukJiDMt2l3L6LDAdEDLgZ/ZAgMBAAEwDQYJKoZIhvcNAQEEBQADgYEA
fJrbu50pSJoLMX2ZLNN7w+ORD/xQJkaWU5vI9Pwh0DVdxUkingwbYlDseXiFqp3d
OgGoSRdCV0FQC7Lw3ENlOC/pRRIYnRUXzclbilDoP+ndXh+BUs8KK1K/qLggvLys
gxBEFQigUyL/oC8pIJlzaBWWLhaOXn4ycUGQlfi8+X8=
-----END CERTIFICATE-----
