Certificate:
    Data:
        Version: 1 (0x0)
        Serial Number:
            9b:27:d7:e8:d1:ba:0a:e5
        Signature Algorithm: md5WithRSAEncryption
        Issuer: C=DE, ST=Saarland, O=MPI-SWS, OU=Distributed Systems Group, CN=Andreas Haeberlen/emailAddress=democa@octarine.de
        Validity
            Not Before: Apr 20 20:47:31 2015 GMT
            Not After : Apr 19 20:47:31 2016 GMT
        Subject: C=DE, ST=Saarland, O=MPI-SWS, OU=Distributed Systems Group, CN=fe18a3c440e4766a3e3a4c212e4df72e547f744c/emailAddress=node0781@octarine.de
        Subject Public Key Info:
            Public Key Algorithm: rsaEncryption
            RSA Public Key: (1024 bit)
                Modulus (1024 bit):
                    00:db:bb:8e:8d:e6:08:47:06:d3:50:3b:b0:7c:ac:
                    8a:3f:ee:10:1e:53:c7:2e:cc:27:6f:41:f0:ca:99:
                    39:70:89:46:17:63:4f:41:58:72:93:cd:f9:f2:a4:
                    da:f4:a0:27:17:03:58:30:3f:92:f3:36:f5:18:fb:
                    25:7e:5c:d0:88:e5:ec:2a:d4:c2:fc:32:cd:af:40:
                    28:fb:8e:5b:15:22:0f:3a:4b:d0:ea:0b:70:41:8b:
                    5b:9f:4b:59:5f:65:a5:c5:63:e5:89:e9:c9:90:7a:
                    ae:c1:f3:41:f1:59:4d:d5:3f:19:df:a3:5b:6e:e4:
                    87:d1:64:5a:94:4b:e5:ab:e5
                Exponent: 65537 (0x10001)
    Signature Algorithm: md5WithRSAEncryption
        1f:a2:58:b6:81:8b:d8:c2:f6:0e:4e:70:a7:6f:7e:2d:a0:26:
        3f:ab:e7:67:70:c8:43:b9:ab:a6:f5:74:cb:18:59:6b:18:55:
        53:c6:f9:9f:17:d5:48:db:2c:91:ac:4d:37:ee:43:8d:70:4f:
        23:ae:99:63:d4:0a:cb:71:e4:9c:38:28:cc:0d:01:ec:7f:d0:
        cb:52:72:01:14:f6:0d:ad:95:a7:4b:67:0e:4b:37:db:a9:3a:
        ce:a7:ec:e4:c9:1c:0f:f1:2a:90:0f:a3:45:4b:a8:f0:65:e4:
        48:f7:e7:2d:0e:27:62:4f:d8:8d:c7:5d:c5:74:54:38:f5:57:
        01:1f
-----BEGIN CERTIFICATE-----
MIICvDCCAiUCCQCbJ9fo0boK5TANBgkqhkiG9w0BAQQFADCBlTELMAkGA1UEBhMC
REUxETAPBgNVBAgTCFNhYXJsYW5kMRAwDgYDVQQKEwdNUEktU1dTMSIwIAYDVQQL
ExlEaXN0cmlidXRlZCBTeXN0ZW1zIEdyb3VwMRowGAYDVQQDExFBbmRyZWFzIEhh
ZWJlcmxlbjEhMB8GCSqGSIb3DQEJARYSZGVtb2NhQG9jdGFyaW5lLmRlMB4XDTE1
MDQyMDIwNDczMVoXDTE2MDQxOTIwNDczMVowga4xCzAJBgNVBAYTAkRFMREwDwYD
VQQIEwhTYWFybGFuZDEQMA4GA1UEChMHTVBJLVNXUzEiMCAGA1UECxMZRGlzdHJp
YnV0ZWQgU3lzdGVtcyBHcm91cDExMC8GA1UEAxMoZmUxOGEzYzQ0MGU0NzY2YTNl
M2E0YzIxMmU0ZGY3MmU1NDdmNzQ0YzEjMCEGCSqGSIb3DQEJARYUbm9kZTA3ODFA
b2N0YXJpbmUuZGUwgZ8wDQYJKoZIhvcNAQEBBQADgY0AMIGJAoGBANu7jo3mCEcG
01A7sHysij/uEB5Txy7MJ29B8MqZOXCJRhdjT0FYcpPN+fKk2vSgJxcDWDA/kvM2
9Rj7JX5c0Ijl7CrUwvwyza9AKPuOWxUiDzpL0OoLcEGLW59LWV9lpcVj5YnpyZB6
rsHzQfFZTdU/Gd+jW27kh9FkWpRL5avlAgMBAAEwDQYJKoZIhvcNAQEEBQADgYEA
H6JYtoGL2ML2Dk5wp29+LaAmP6vnZ3DIQ7mrpvV0yxhZaxhVU8b5nxfVSNsskaxN
N+5DjXBPI66ZY9QKy3HknDgozA0B7H/Qy1JyART2Da2Vp0tnDks326k6zqfs5Mkc
D/EqkA+jRUuo8GXkSPfnLQ4nYk/YjcddxXRUOPVXAR8=
-----END CERTIFICATE-----
