Certificate:
    Data:
        Version: 1 (0x0)
        Serial Number:
            9b:27:d7:e8:d1:ba:08:6e
        Signature Algorithm: md5WithRSAEncryption
        Issuer: C=DE, ST=Saarland, O=MPI-SWS, OU=Distributed Systems Group, CN=Andreas Haeberlen/emailAddress=democa@octarine.de
        Validity
            Not Before: Apr 20 20:47:03 2015 GMT
            Not After : Apr 19 20:47:03 2016 GMT
        Subject: C=DE, ST=Saarland, O=MPI-SWS, OU=Distributed Systems Group, CN=53e428c6f700eb3c4c03121f4f6bbfe03c5551b4/emailAddress=node0150@octarine.de
        Subject Public Key Info:
            Public Key Algorithm: rsaEncryption
            RSA Public Key: (1024 bit)
                Modulus (1024 bit):
                    00:9f:ad:c4:98:78:15:e2:ec:88:e1:08:b8:f8:21:
                    e1:48:e5:1b:e8:8c:55:75:47:dc:d8:83:86:d1:78:
                    43:eb:e4:43:0e:24:e2:3d:38:34:cf:0a:35:54:e6:
                    ec:56:29:fe:13:d7:e1:61:84:4b:88:3c:f3:f7:6c:
                    7e:b0:6c:7a:0b:40:4a:64:96:a4:90:2d:1c:00:14:
                    24:0f:ef:85:ea:2d:bc:f1:c9:30:1c:37:7e:54:86:
                    e2:b0:a9:a8:09:e8:c0:bd:cf:5e:2f:6c:32:a2:33:
                    dc:64:20:76:91:b8:d2:a3:dc:36:c5:ff:b2:ab:06:
                    7d:92:b6:41:e1:a1:4e:85:bd
                Exponent: 65537 (0x10001)
    Signature Algorithm: md5WithRSAEncryption
        0a:64:bb:24:40:4f:cf:cd:40:a6:7f:15:01:86:cf:3a:d3:03:
        80:fb:49:28:96:15:d5:54:5d:71:e6:d1:96:df:ee:bf:2e:c2:
        1a:cf:8b:08:d4:5a:10:ef:38:98:eb:4a:56:38:4d:f0:9b:08:
        ad:be:c2:c9:5e:ff:1d:e3:da:6a:db:eb:4f:e3:9e:03:5f:90:
        ff:16:07:76:d5:54:70:e7:96:ef:a5:10:10:0b:70:5a:93:18:
        e7:91:fa:09:1d:4e:e4:a1:78:68:c1:dd:84:c8:80:dc:1b:cf:
        56:c7:54:f8:b2:72:52:f1:43:11:38:c1:79:14:2f:e7:66:f9:
        eb:08
-----BEGIN CERTIFICATE-----
MIICvDCCAiUCCQCbJ9fo0boIbjANBgkqhkiG9w0BAQQFADCBlTELMAkGA1UEBhMC
REUxETAPBgNVBAgTCFNhYXJsYW5kMRAwDgYDVQQKEwdNUEktU1dTMSIwIAYDVQQL
ExlEaXN0cmlidXRlZCBTeXN0ZW1zIEdyb3VwMRowGAYDVQQDExFBbmRyZWFzIEhh
ZWJlcmxlbjEhMB8GCSqGSIb3DQEJARYSZGVtb2NhQG9jdGFyaW5lLmRlMB4XDTE1
MDQyMDIwNDcwM1oXDTE2MDQxOTIwNDcwM1owga4xCzAJBgNVBAYTAkRFMREwDwYD
VQQIEwhTYWFybGFuZDEQMA4GA1UEChMHTVBJLVNXUzEiMCAGA1UECxMZRGlzdHJp
YnV0ZWQgU3lzdGVtcyBHcm91cDExMC8GA1UEAxMoNTNlNDI4YzZmNzAwZWIzYzRj
MDMxMjFmNGY2YmJmZTAzYzU1NTFiNDEjMCEGCSqGSIb3DQEJARYUbm9kZTAxNTBA
b2N0YXJpbmUuZGUwgZ8wDQYJKoZIhvcNAQEBBQADgY0AMIGJAoGBAJ+txJh4FeLs
iOEIuPgh4UjlG+iMVXVH3NiDhtF4Q+vkQw4k4j04NM8KNVTm7FYp/hPX4WGES4g8
8/dsfrBsegtASmSWpJAtHAAUJA/vheotvPHJMBw3flSG4rCpqAnowL3PXi9sMqIz
3GQgdpG40qPcNsX/sqsGfZK2QeGhToW9AgMBAAEwDQYJKoZIhvcNAQEEBQADgYEA
CmS7JEBPz81Apn8VAYbPOtMDgPtJKJYV1VRdcebRlt/uvy7CGs+LCNRaEO84mOtK
VjhN8JsIrb7CyV7/HePaatvrT+OeA1+Q/xYHdtVUcOeW76UQEAtwWpMY55H6CR1O
5KF4aMHdhMiA3BvPVsdU+LJyUvFDETjBeRQv52b56wg=
-----END CERTIFICATE-----
