Certificate:
    Data:
        Version: 1 (0x0)
        Serial Number:
            9b:27:d7:e8:d1:ba:08:0e
        Signature Algorithm: md5WithRSAEncryption
        Issuer: C=DE, ST=Saarland, O=MPI-SWS, OU=Distributed Systems Group, CN=Andreas Haeberlen/emailAddress=democa@octarine.de
        Validity
            Not Before: Apr 20 20:46:59 2015 GMT
            Not After : Apr 19 20:46:59 2016 GMT
        Subject: C=DE, ST=Saarland, O=MPI-SWS, OU=Distributed Systems Group, CN=13a1d8367d06e819d813022adf59ce6e210f9351/emailAddress=node0054@octarine.de
        Subject Public Key Info:
            Public Key Algorithm: rsaEncryption
            RSA Public Key: (1024 bit)
                Modulus (1024 bit):
                    00:e9:54:d3:f6:7d:8a:f8:86:07:7c:bb:85:16:f7:
                    1c:d5:8b:58:44:60:7d:e8:f2:a1:9c:61:81:c6:ec:
                    13:e5:42:51:a6:ab:71:62:ea:f0:6d:cb:12:8d:74:
                    6d:6f:4d:d9:4f:0f:6a:c6:0a:c3:6d:a8:79:60:e7:
                    f5:d4:aa:ec:78:5d:98:27:52:4c:5c:1a:74:c4:dd:
                    57:71:02:3a:e9:56:8c:87:e9:05:f9:51:6c:7d:a5:
                    8c:35:02:bc:63:8e:84:9c:58:99:97:f9:16:f9:b0:
                    b3:bf:76:9b:a5:9a:85:b0:2d:f2:55:f8:61:88:03:
                    04:82:ae:29:e8:05:7c:31:1b
                Exponent: 65537 (0x10001)
    Signature Algorithm: md5WithRSAEncryption
        3d:cc:e9:98:dc:e9:2e:88:3f:17:6b:04:f0:06:42:4f:c7:7a:
        41:61:aa:52:ad:83:53:e5:ea:d8:d8:db:d5:f1:05:0b:c8:99:
        8c:0e:91:24:a2:da:5b:ff:c4:c4:da:74:e6:af:d7:a1:c9:d4:
        4f:38:62:2a:59:77:bc:05:d9:5e:21:c8:2a:5c:c3:57:f7:df:
        cf:7d:97:3e:46:18:3a:d0:80:5c:ef:09:25:ec:5c:91:db:a0:
        8e:35:37:28:94:01:ed:eb:9f:ea:69:c8:33:c5:50:80:68:fe:
        65:c3:ad:cf:b7:a7:05:05:5b:24:4b:f8:3d:82:d9:e9:c7:7a:
        37:22
-----BEGIN CERTIFICATE-----
MIICvDCCAiUCCQCbJ9fo0boIDjANBgkqhkiG9w0BAQQFADCBlTELMAkGA1UEBhMC
REUxETAPBgNVBAgTCFNhYXJsYW5kMRAwDgYDVQQKEwdNUEktU1dTMSIwIAYDVQQL
ExlEaXN0cmlidXRlZCBTeXN0ZW1zIEdyb3VwMRowGAYDVQQDExFBbmRyZWFzIEhh
ZWJlcmxlbjEhMB8GCSqGSIb3DQEJARYSZGVtb2NhQG9jdGFyaW5lLmRlMB4XDTE1
MDQyMDIwNDY1OVoXDTE2MDQxOTIwNDY1OVowga4xCzAJBgNVBAYTAkRFMREwDwYD
VQQIEwhTYWFybGFuZDEQMA4GA1UEChMHTVBJLVNXUzEiMCAGA1UECxMZRGlzdHJp
YnV0ZWQgU3lzdGVtcyBHcm91cDExMC8GA1UEAxMoMTNhMWQ4MzY3ZDA2ZTgxOWQ4
MTMwMjJhZGY1OWNlNmUyMTBmOTM1MTEjMCEGCSqGSIb3DQEJARYUbm9kZTAwNTRA
b2N0YXJpbmUuZGUwgZ8wDQYJKoZIhvcNAQEBBQADgY0AMIGJAoGBAOlU0/Z9iviG
B3y7hRb3HNWLWERgfejyoZxhgcbsE+VCUaarcWLq8G3LEo10bW9N2U8PasYKw22o
eWDn9dSq7HhdmCdSTFwadMTdV3ECOulWjIfpBflRbH2ljDUCvGOOhJxYmZf5Fvmw
s792m6WahbAt8lX4YYgDBIKuKegFfDEbAgMBAAEwDQYJKoZIhvcNAQEEBQADgYEA
PczpmNzpLog/F2sE8AZCT8d6QWGqUq2DU+Xq2Njb1fEFC8iZjA6RJKLaW//ExNp0
5q/XocnUTzhiKll3vAXZXiHIKlzDV/ffz32XPkYYOtCAXO8JJexckdugjjU3KJQB
7euf6mnIM8VQgGj+ZcOtz7enBQVbJEv4PYLZ6cd6NyI=
-----END CERTIFICATE-----
