Certificate:
    Data:
        Version: 1 (0x0)
        Serial Number:
            9b:27:d7:e8:d1:ba:09:1b
        Signature Algorithm: md5WithRSAEncryption
        Issuer: C=DE, ST=Saarland, O=MPI-SWS, OU=Distributed Systems Group, CN=Andreas Haeberlen/emailAddress=democa@octarine.de
        Validity
            Not Before: Apr 20 20:47:11 2015 GMT
            Not After : Apr 19 20:47:11 2016 GMT
        Subject: C=DE, ST=Saarland, O=MPI-SWS, OU=Distributed Systems Group, CN=cbbbe2899c77b27ec88f1199cfd3d5c9075f9d92/emailAddress=node0323@octarine.de
        Subject Public Key Info:
            Public Key Algorithm: rsaEncryption
            RSA Public Key: (1024 bit)
                Modulus (1024 bit):
                    00:f2:52:3e:ea:2a:a9:bf:e7:56:fb:6f:da:20:86:
                    0c:59:b1:c4:1a:b0:14:ff:f8:20:58:87:1b:af:4a:
                    b6:a1:46:5a:ba:81:fe:c6:46:fd:2a:1e:30:00:7a:
                    b2:aa:09:01:92:ab:9b:8c:a7:b7:5a:97:bf:29:13:
                    df:d6:70:6a:0a:4b:85:97:ad:a1:1f:e2:87:1f:88:
                    61:e2:8c:fe:70:0b:f6:33:b2:5f:76:dd:7a:4a:ef:
                    88:b8:69:21:5f:72:f2:e6:1e:74:f5:30:a2:c3:d8:
                    01:7f:f8:69:a0:93:dc:5d:ed:5a:74:6d:5c:ec:98:
                    5a:2a:e2:0d:92:70:7b:23:89
                Exponent: 65537 (0x10001)
    Signature Algorithm: md5WithRSAEncryption
        4e:04:40:06:25:df:14:6e:91:76:48:94:19:11:33:9d:a5:b8:
        f7:b4:37:b4:03:60:20:ce:05:26:e2:3d:2a:7e:b8:74:bd:9e:
        40:45:5b:cc:ec:dd:80:1a:df:e6:81:50:dc:cb:8f:c7:c8:a7:
        56:cc:5b:b3:b9:49:21:2f:08:22:11:5e:d8:f0:ed:e4:fe:fc:
        55:53:5d:d3:0c:fe:94:f8:63:f2:c0:87:ed:37:17:dd:50:6b:
        10:de:c4:dd:00:6b:af:5c:e4:57:50:30:0a:b5:63:67:07:7d:
        18:56:da:cd:c1:33:46:de:70:ef:94:fb:d3:82:8e:0b:6c:8a:
        15:9e
-----BEGIN CERTIFICATE-----
MIICvDCCAiUCCQCbJ9fo0boJGzANBgkqhkiG9w0BAQQFADCBlTELMAkGA1UEBhMC
REUxETAPBgNVBAgTCFNhYXJsYW5kMRAwDgYDVQQKEwdNUEktU1dTMSIwIAYDVQQL
ExlEaXN0cmlidXRlZCBTeXN0ZW1zIEdyb3VwMRowGAYDVQQDExFBbmRyZWFzIEhh
ZWJlcmxlbjEhMB8GCSqGSIb3DQEJARYSZGVtb2NhQG9jdGFyaW5lLmRlMB4XDTE1
MDQyMDIwNDcxMVoXDTE2MDQxOTIwNDcxMVowga4xCzAJBgNVBAYTAkRFMREwDwYD
VQQIEwhTYWFybGFuZDEQMA4GA1UEChMHTVBJLVNXUzEiMCAGA1UECxMZRGlzdHJp
YnV0ZWQgU3lzdGVtcyBHcm91cDExMC8GA1UEAxMoY2JiYmUyODk5Yzc3YjI3ZWM4
OGYxMTk5Y2ZkM2Q1YzkwNzVmOWQ5MjEjMCEGCSqGSIb3DQEJARYUbm9kZTAzMjNA
b2N0YXJpbmUuZGUwgZ8wDQYJKoZIhvcNAQEBBQADgY0AMIGJAoGBAPJSPuoqqb/n
Vvtv2iCGDFmxxBqwFP/4IFiHG69KtqFGWrqB/sZG/SoeMAB6sqoJAZKrm4ynt1qX
vykT39ZwagpLhZetoR/ihx+IYeKM/nAL9jOyX3bdekrviLhpIV9y8uYedPUwosPY
AX/4aaCT3F3tWnRtXOyYWiriDZJweyOJAgMBAAEwDQYJKoZIhvcNAQEEBQADgYEA
TgRABiXfFG6RdkiUGREznaW497Q3tANgIM4FJuI9Kn64dL2eQEVbzOzdgBrf5oFQ
3MuPx8inVsxbs7lJIS8IIhFe2PDt5P78VVNd0wz+lPhj8sCH7TcX3VBrEN7E3QBr
r1zkV1AwCrVjZwd9GFbazcEzRt5w75T704KOC2yKFZ4=
-----END CERTIFICATE-----
