Certificate:
    Data:
        Version: 1 (0x0)
        Serial Number:
            9b:27:d7:e8:d1:ba:0a:a1
        Signature Algorithm: md5WithRSAEncryption
        Issuer: C=DE, ST=Saarland, O=MPI-SWS, OU=Distributed Systems Group, CN=Andreas Haeberlen/emailAddress=democa@octarine.de
        Validity
            Not Before: Apr 20 20:47:28 2015 GMT
            Not After : Apr 19 20:47:28 2016 GMT
        Subject: C=DE, ST=Saarland, O=MPI-SWS, OU=Distributed Systems Group, CN=0cded424c76c6ddf38a175e036f079d86a63e98b/emailAddress=node0713@octarine.de
        Subject Public Key Info:
            Public Key Algorithm: rsaEncryption
            RSA Public Key: (1024 bit)
                Modulus (1024 bit):
                    00:de:b5:a9:e6:f0:e0:00:00:26:94:96:fe:4b:0f:
                    ff:4a:be:e0:f1:ee:08:0c:e1:3f:6f:0a:71:6f:ae:
                    c4:16:e4:fb:97:0f:b8:b0:c7:2c:8d:7f:ae:29:33:
                    e2:cc:80:a1:d9:fa:d4:0a:ef:b4:2c:b4:a3:4b:ab:
                    b4:bc:bd:2a:66:02:20:82:68:14:b6:c9:b2:35:64:
                    eb:ab:52:59:7e:29:08:57:e1:fd:57:a5:9e:c5:ce:
                    6b:fa:f3:95:90:e3:9a:e6:d6:b8:10:66:21:c5:a3:
                    61:e8:42:a8:c9:c2:6e:92:36:61:48:b4:a6:46:03:
                    a5:a2:2d:51:b0:dc:b1:b1:2b
                Exponent: 65537 (0x10001)
    Signature Algorithm: md5WithRSAEncryption
        a6:90:b1:43:01:9c:0b:e8:69:c5:e6:4d:a0:a1:4e:4a:d4:aa:
        a2:4b:f7:66:42:9f:30:5f:85:f4:dc:61:d0:e0:18:1a:87:b2:
        e1:f6:ea:e6:c0:f7:bd:98:ae:22:cf:1a:4c:a5:c1:a7:50:44:
        71:41:c5:03:2f:72:69:01:a7:7d:71:9d:e6:19:20:e9:77:db:
        c7:9d:dd:8d:34:4d:69:79:4d:31:e8:d3:9f:18:70:eb:05:fd:
        0b:74:c7:68:1c:6b:02:ad:a8:27:90:e5:c3:17:58:43:b8:c9:
        76:ae:ac:32:9b:30:51:80:2b:42:82:3a:a6:6f:91:8c:12:6f:
        b9:29
-----BEGIN CERTIFICATE-----
MIICvDCCAiUCCQCbJ9fo0boKoTANBgkqhkiG9w0BAQQFADCBlTELMAkGA1UEBhMC
REUxETAPBgNVBAgTCFNhYXJsYW5kMRAwDgYDVQQKEwdNUEktU1dTMSIwIAYDVQQL
ExlEaXN0cmlidXRlZCBTeXN0ZW1zIEdyb3VwMRowGAYDVQQDExFBbmRyZWFzIEhh
ZWJlcmxlbjEhMB8GCSqGSIb3DQEJARYSZGVtb2NhQG9jdGFyaW5lLmRlMB4XDTE1
MDQyMDIwNDcyOFoXDTE2MDQxOTIwNDcyOFowga4xCzAJBgNVBAYTAkRFMREwDwYD
VQQIEwhTYWFybGFuZDEQMA4GA1UEChMHTVBJLVNXUzEiMCAGA1UECxMZRGlzdHJp
YnV0ZWQgU3lzdGVtcyBHcm91cDExMC8GA1UEAxMoMGNkZWQ0MjRjNzZjNmRkZjM4
YTE3NWUwMzZmMDc5ZDg2YTYzZTk4YjEjMCEGCSqGSIb3DQEJARYUbm9kZTA3MTNA
b2N0YXJpbmUuZGUwgZ8wDQYJKoZIhvcNAQEBBQADgY0AMIGJAoGBAN61qebw4AAA
JpSW/ksP/0q+4PHuCAzhP28KcW+uxBbk+5cPuLDHLI1/rikz4syAodn61ArvtCy0
o0urtLy9KmYCIIJoFLbJsjVk66tSWX4pCFfh/VelnsXOa/rzlZDjmubWuBBmIcWj
YehCqMnCbpI2YUi0pkYDpaItUbDcsbErAgMBAAEwDQYJKoZIhvcNAQEEBQADgYEA
ppCxQwGcC+hpxeZNoKFOStSqokv3ZkKfMF+F9Nxh0OAYGoey4fbq5sD3vZiuIs8a
TKXBp1BEcUHFAy9yaQGnfXGd5hkg6Xfbx53djTRNaXlNMejTnxhw6wX9C3THaBxr
Aq2oJ5DlwxdYQ7jJdq6sMpswUYArQoI6pm+RjBJvuSk=
-----END CERTIFICATE-----
