Certificate:
    Data:
        Version: 1 (0x0)
        Serial Number:
            9b:27:d7:e8:d1:ba:08:20
        Signature Algorithm: md5WithRSAEncryption
        Issuer: C=DE, ST=Saarland, O=MPI-SWS, OU=Distributed Systems Group, CN=Andreas Haeberlen/emailAddress=democa@octarine.de
        Validity
            Not Before: Apr 20 20:47:00 2015 GMT
            Not After : Apr 19 20:47:00 2016 GMT
        Subject: C=DE, ST=Saarland, O=MPI-SWS, OU=Distributed Systems Group, CN=a0a90c562c52c9a533b71b97ea46b2d6380346a7/emailAddress=node0072@octarine.de
        Subject Public Key Info:
            Public Key Algorithm: rsaEncryption
            RSA Public Key: (1024 bit)
                Modulus (1024 bit):
                    00:e9:9d:b1:a6:b6:f3:bb:44:0f:5c:5d:35:ff:b0:
                    46:65:e7:34:12:d2:cc:dc:c3:5d:f8:5c:c0:11:e6:
                    e9:c2:91:37:7e:b1:c8:ef:e3:35:f4:40:de:eb:37:
                    dc:80:75:05:0c:d4:99:97:57:84:4e:45:97:d5:9e:
                    fc:0f:3d:f7:63:a1:ad:74:15:2d:2b:6a:07:60:f1:
                    ad:09:22:b1:65:4e:34:08:b4:02:e8:e4:ea:2b:ec:
                    34:4e:29:40:2c:ee:e7:b3:98:3a:6c:60:3e:f7:15:
                    52:18:91:99:97:56:8a:17:71:4f:25:95:78:09:71:
                    7c:d3:54:51:2f:69:06:da:9b
                Exponent: 65537 (0x10001)
    Signature Algorithm: md5WithRSAEncryption
        5e:ef:af:0c:d4:f3:1e:73:dd:36:50:89:cd:69:7b:87:07:68:
        2e:18:c2:8c:be:83:21:3d:0e:08:46:9d:bb:b6:fe:ca:61:ad:
        d0:3e:0b:3c:4f:d2:c0:af:ca:15:8d:00:a4:3b:cf:1a:96:51:
        e4:ff:43:fc:67:08:c1:33:a5:d5:c8:90:51:78:fb:ca:39:d3:
        3c:44:48:91:29:6f:9c:d5:86:6c:63:4a:d1:0c:37:10:25:c0:
        6f:08:ae:36:8d:21:86:94:44:0b:26:95:15:75:9c:4a:08:99:
        4e:d1:68:5b:96:da:ea:82:fb:df:b1:a0:91:5a:3a:97:f8:b7:
        9e:17
-----BEGIN CERTIFICATE-----
MIICvDCCAiUCCQCbJ9fo0boIIDANBgkqhkiG9w0BAQQFADCBlTELMAkGA1UEBhMC
REUxETAPBgNVBAgTCFNhYXJsYW5kMRAwDgYDVQQKEwdNUEktU1dTMSIwIAYDVQQL
ExlEaXN0cmlidXRlZCBTeXN0ZW1zIEdyb3VwMRowGAYDVQQDExFBbmRyZWFzIEhh
ZWJlcmxlbjEhMB8GCSqGSIb3DQEJARYSZGVtb2NhQG9jdGFyaW5lLmRlMB4XDTE1
MDQyMDIwNDcwMFoXDTE2MDQxOTIwNDcwMFowga4xCzAJBgNVBAYTAkRFMREwDwYD
VQQIEwhTYWFybGFuZDEQMA4GA1UEChMHTVBJLVNXUzEiMCAGA1UECxMZRGlzdHJp
YnV0ZWQgU3lzdGVtcyBHcm91cDExMC8GA1UEAxMoYTBhOTBjNTYyYzUyYzlhNTMz
YjcxYjk3ZWE0NmIyZDYzODAzNDZhNzEjMCEGCSqGSIb3DQEJARYUbm9kZTAwNzJA
b2N0YXJpbmUuZGUwgZ8wDQYJKoZIhvcNAQEBBQADgY0AMIGJAoGBAOmdsaa287tE
D1xdNf+wRmXnNBLSzNzDXfhcwBHm6cKRN36xyO/jNfRA3us33IB1BQzUmZdXhE5F
l9We/A8992OhrXQVLStqB2DxrQkisWVONAi0Aujk6ivsNE4pQCzu57OYOmxgPvcV
UhiRmZdWihdxTyWVeAlxfNNUUS9pBtqbAgMBAAEwDQYJKoZIhvcNAQEEBQADgYEA
Xu+vDNTzHnPdNlCJzWl7hwdoLhjCjL6DIT0OCEadu7b+ymGt0D4LPE/SwK/KFY0A
pDvPGpZR5P9D/GcIwTOl1ciQUXj7yjnTPERIkSlvnNWGbGNK0Qw3ECXAbwiuNo0h
hpRECyaVFXWcSgiZTtFoW5ba6oL737GgkVo6l/i3nhc=
-----END CERTIFICATE-----
