Certificate:
    Data:
        Version: 1 (0x0)
        Serial Number:
            9b:27:d7:e8:d1:ba:09:89
        Signature Algorithm: md5WithRSAEncryption
        Issuer: C=DE, ST=Saarland, O=MPI-SWS, OU=Distributed Systems Group, CN=Andreas Haeberlen/emailAddress=democa@octarine.de
        Validity
            Not Before: Apr 20 20:47:15 2015 GMT
            Not After : Apr 19 20:47:15 2016 GMT
        Subject: C=DE, ST=Saarland, O=MPI-SWS, OU=Distributed Systems Group, CN=6aa92b69086dcd119e1b034c45e4edc486ea2443/emailAddress=node0433@octarine.de
        Subject Public Key Info:
            Public Key Algorithm: rsaEncryption
            RSA Public Key: (1024 bit)
                Modulus (1024 bit):
                    00:e6:ba:8a:7d:92:66:2e:da:cb:ef:41:af:66:c3:
                    f7:5c:e4:21:5a:73:ea:77:c2:96:9e:15:f5:ef:54:
                    1b:ef:1b:98:d4:df:b8:4d:3d:f0:e5:05:3c:e6:06:
                    8e:21:73:75:51:9a:e4:43:43:83:05:f9:d1:4a:d3:
                    a3:1c:e1:04:46:fc:6d:f1:83:c6:1c:3f:92:08:90:
                    22:d6:ef:0d:f7:00:fe:3a:2e:24:6d:8a:4f:05:26:
                    39:2d:79:a8:cf:43:f9:f3:4c:6e:30:cd:58:0e:ae:
                    cb:9e:13:9b:eb:43:53:aa:75:c9:4a:03:48:77:35:
                    31:15:69:ff:51:75:2c:db:df
                Exponent: 65537 (0x10001)
    Signature Algorithm: md5WithRSAEncryption
        8d:15:05:c3:8b:cc:39:66:98:db:bd:60:e7:2d:3f:48:5e:ad:
        00:6f:e7:b4:e7:1e:24:ad:77:95:ff:69:55:bf:e2:43:cb:03:
        36:6d:18:05:ee:00:50:bf:52:ee:ab:30:49:f9:fc:c8:a2:7b:
        42:92:af:00:17:07:3a:01:41:c6:78:56:b7:4f:b2:ec:51:6b:
        bf:93:cf:e8:b5:ed:e5:7d:dc:68:fe:f5:d9:94:3d:cc:04:43:
        27:9b:b5:38:16:88:5a:0b:e6:e6:62:a8:f0:00:fd:39:23:94:
        87:d9:02:62:e4:2b:d8:ef:f5:37:22:28:8a:0b:2e:eb:fc:e5:
        e8:66
-----BEGIN CERTIFICATE-----
MIICvDCCAiUCCQCbJ9fo0boJiTANBgkqhkiG9w0BAQQFADCBlTELMAkGA1UEBhMC
REUxETAPBgNVBAgTCFNhYXJsYW5kMRAwDgYDVQQKEwdNUEktU1dTMSIwIAYDVQQL
ExlEaXN0cmlidXRlZCBTeXN0ZW1zIEdyb3VwMRowGAYDVQQDExFBbmRyZWFzIEhh
ZWJlcmxlbjEhMB8GCSqGSIb3DQEJARYSZGVtb2NhQG9jdGFyaW5lLmRlMB4XDTE1
MDQyMDIwNDcxNVoXDTE2MDQxOTIwNDcxNVowga4xCzAJBgNVBAYTAkRFMREwDwYD
VQQIEwhTYWFybGFuZDEQMA4GA1UEChMHTVBJLVNXUzEiMCAGA1UECxMZRGlzdHJp
YnV0ZWQgU3lzdGVtcyBHcm91cDExMC8GA1UEAxMoNmFhOTJiNjkwODZkY2QxMTll
MWIwMzRjNDVlNGVkYzQ4NmVhMjQ0MzEjMCEGCSqGSIb3DQEJARYUbm9kZTA0MzNA
b2N0YXJpbmUuZGUwgZ8wDQYJKoZIhvcNAQEBBQADgY0AMIGJAoGBAOa6in2SZi7a
y+9Br2bD91zkIVpz6nfClp4V9e9UG+8bmNTfuE098OUFPOYGjiFzdVGa5ENDgwX5
0UrToxzhBEb8bfGDxhw/kgiQItbvDfcA/jouJG2KTwUmOS15qM9D+fNMbjDNWA6u
y54Tm+tDU6p1yUoDSHc1MRVp/1F1LNvfAgMBAAEwDQYJKoZIhvcNAQEEBQADgYEA
jRUFw4vMOWaY271g5y0/SF6tAG/ntOceJK13lf9pVb/iQ8sDNm0YBe4AUL9S7qsw
Sfn8yKJ7QpKvABcHOgFBxnhWt0+y7FFrv5PP6LXt5X3caP712ZQ9zARDJ5u1OBaI
Wgvm5mKo8AD9OSOUh9kCYuQr2O/1NyIoigsu6/zl6GY=
-----END CERTIFICATE-----
