Certificate:
    Data:
        Version: 1 (0x0)
        Serial Number:
            9b:27:d7:e8:d1:ba:0a:6f
        Signature Algorithm: md5WithRSAEncryption
        Issuer: C=DE, ST=Saarland, O=MPI-SWS, OU=Distributed Systems Group, CN=Andreas Haeberlen/emailAddress=democa@octarine.de
        Validity
            Not Before: Apr 20 20:47:26 2015 GMT
            Not After : Apr 19 20:47:26 2016 GMT
        Subject: C=DE, ST=Saarland, O=MPI-SWS, OU=Distributed Systems Group, CN=9943b020caa797e4b697498299c7b085ad85db6a/emailAddress=node0663@octarine.de
        Subject Public Key Info:
            Public Key Algorithm: rsaEncryption
            RSA Public Key: (1024 bit)
                Modulus (1024 bit):
                    00:c1:13:06:0f:0b:49:db:d0:63:41:e5:f3:24:10:
                    d4:76:a6:37:c5:75:e2:fe:f9:b5:1d:1b:62:e0:65:
                    0d:c4:01:fe:fe:99:66:28:ea:a9:4f:b0:51:8d:43:
                    25:8d:7c:9c:d1:2c:93:3e:ee:7e:e9:67:83:c6:29:
                    98:65:2b:4c:ac:9f:a3:2b:26:01:8e:48:bd:1a:c8:
                    b6:7c:5e:ee:0c:dd:40:66:01:6b:79:2c:58:ce:01:
                    75:9f:a4:19:9d:1a:1b:be:fd:45:0c:f6:41:e8:b6:
                    d7:e5:59:05:68:47:46:e0:5b:3a:bc:6c:db:b1:25:
                    45:f9:62:47:d0:dd:36:2a:e5
                Exponent: 65537 (0x10001)
    Signature Algorithm: md5WithRSAEncryption
        ca:70:92:00:43:cf:86:51:27:02:7c:67:53:61:6f:fa:ae:76:
        6d:10:39:7d:9f:42:05:2b:80:b0:4d:b8:c8:93:52:7c:ae:73:
        db:3c:fe:6a:5c:e9:dc:5a:6a:d0:c4:b3:40:db:9e:8f:85:97:
        1b:08:a9:dc:39:c7:01:30:09:89:87:df:47:1a:a9:da:da:bc:
        76:0c:3d:b7:1c:bd:d4:db:91:fd:50:49:28:31:61:42:48:77:
        fd:f4:8e:d1:25:00:66:c7:af:4b:68:c4:af:10:b7:ac:23:6f:
        dc:de:a8:a9:44:13:8b:8d:b9:30:d8:05:18:1e:c4:02:33:e4:
        f5:d3
-----BEGIN CERTIFICATE-----
MIICvDCCAiUCCQCbJ9fo0boKbzANBgkqhkiG9w0BAQQFADCBlTELMAkGA1UEBhMC
REUxETAPBgNVBAgTCFNhYXJsYW5kMRAwDgYDVQQKEwdNUEktU1dTMSIwIAYDVQQL
ExlEaXN0cmlidXRlZCBTeXN0ZW1zIEdyb3VwMRowGAYDVQQDExFBbmRyZWFzIEhh
ZWJlcmxlbjEhMB8GCSqGSIb3DQEJARYSZGVtb2NhQG9jdGFyaW5lLmRlMB4XDTE1
MDQyMDIwNDcyNloXDTE2MDQxOTIwNDcyNlowga4xCzAJBgNVBAYTAkRFMREwDwYD
VQQIEwhTYWFybGFuZDEQMA4GA1UEChMHTVBJLVNXUzEiMCAGA1UECxMZRGlzdHJp
YnV0ZWQgU3lzdGVtcyBHcm91cDExMC8GA1UEAxMoOTk0M2IwMjBjYWE3OTdlNGI2
OTc0OTgyOTljN2IwODVhZDg1ZGI2YTEjMCEGCSqGSIb3DQEJARYUbm9kZTA2NjNA
b2N0YXJpbmUuZGUwgZ8wDQYJKoZIhvcNAQEBBQADgY0AMIGJAoGBAMETBg8LSdvQ
Y0Hl8yQQ1HamN8V14v75tR0bYuBlDcQB/v6ZZijqqU+wUY1DJY18nNEskz7ufuln
g8YpmGUrTKyfoysmAY5IvRrItnxe7gzdQGYBa3ksWM4BdZ+kGZ0aG779RQz2Qei2
1+VZBWhHRuBbOrxs27ElRfliR9DdNirlAgMBAAEwDQYJKoZIhvcNAQEEBQADgYEA
ynCSAEPPhlEnAnxnU2Fv+q52bRA5fZ9CBSuAsE24yJNSfK5z2zz+alzp3Fpq0MSz
QNuej4WXGwip3DnHATAJiYffRxqp2tq8dgw9txy91NuR/VBJKDFhQkh3/fSO0SUA
ZsevS2jErxC3rCNv3N6oqUQTi425MNgFGB7EAjPk9dM=
-----END CERTIFICATE-----
