Certificate:
    Data:
        Version: 1 (0x0)
        Serial Number:
            9b:27:d7:e8:d1:ba:07:f2
        Signature Algorithm: md5WithRSAEncryption
        Issuer: C=DE, ST=Saarland, O=MPI-SWS, OU=Distributed Systems Group, CN=Andreas Haeberlen/emailAddress=democa@octarine.de
        Validity
            Not Before: Apr 20 20:46:58 2015 GMT
            Not After : Apr 19 20:46:58 2016 GMT
        Subject: C=DE, ST=Saarland, O=MPI-SWS, OU=Distributed Systems Group, CN=cacc3bec08d5c394dfe5ab64b1b098163d37913a/emailAddress=node0026@octarine.de
        Subject Public Key Info:
            Public Key Algorithm: rsaEncryption
            RSA Public Key: (1024 bit)
                Modulus (1024 bit):
                    00:9f:56:07:5b:02:1d:f7:9a:8f:ad:23:60:26:be:
                    36:85:a1:47:62:c0:4a:f2:81:9a:34:e4:96:97:69:
                    de:81:8b:44:3e:bd:53:6d:5c:ed:72:89:c3:89:30:
                    02:f4:1a:02:db:f4:c1:f1:db:5c:55:3e:d0:68:57:
                    b3:7d:c3:fe:30:28:fc:a9:10:bc:fc:ac:a9:67:07:
                    88:f6:92:3a:1b:48:72:8e:99:86:50:f0:d5:c7:df:
                    6e:b6:f5:ab:27:ff:ad:ab:e7:ed:4a:c5:ec:73:7c:
                    7b:da:cf:8a:5d:c7:55:fb:3f:b9:2d:e9:a1:9e:64:
                    9f:f2:dd:5d:39:98:48:65:ab
                Exponent: 65537 (0x10001)
    Signature Algorithm: md5WithRSAEncryption
        33:45:d8:3e:da:1c:7b:1f:34:77:ad:71:95:44:a6:63:41:96:
        29:e3:a2:0f:8d:c0:ed:d4:56:02:49:62:d5:9a:70:a8:a6:87:
        44:43:ed:00:53:83:73:44:dd:60:82:ba:48:52:aa:e5:d5:f4:
        ea:5c:e5:26:5a:99:f9:a6:c4:45:d0:d3:98:94:a2:9c:16:54:
        20:6d:ac:70:87:94:ed:a8:95:85:b5:72:5d:a7:a3:2a:54:cb:
        2a:43:55:89:c7:ae:3e:b2:7b:c3:2f:12:4b:da:47:cd:7a:30:
        00:0a:72:d5:79:db:b7:c8:cf:36:19:96:5f:10:90:9d:58:30:
        32:9f
-----BEGIN CERTIFICATE-----
MIICvDCCAiUCCQCbJ9fo0boH8jANBgkqhkiG9w0BAQQFADCBlTELMAkGA1UEBhMC
REUxETAPBgNVBAgTCFNhYXJsYW5kMRAwDgYDVQQKEwdNUEktU1dTMSIwIAYDVQQL
ExlEaXN0cmlidXRlZCBTeXN0ZW1zIEdyb3VwMRowGAYDVQQDExFBbmRyZWFzIEhh
ZWJlcmxlbjEhMB8GCSqGSIb3DQEJARYSZGVtb2NhQG9jdGFyaW5lLmRlMB4XDTE1
MDQyMDIwNDY1OFoXDTE2MDQxOTIwNDY1OFowga4xCzAJBgNVBAYTAkRFMREwDwYD
VQQIEwhTYWFybGFuZDEQMA4GA1UEChMHTVBJLVNXUzEiMCAGA1UECxMZRGlzdHJp
YnV0ZWQgU3lzdGVtcyBHcm91cDExMC8GA1UEAxMoY2FjYzNiZWMwOGQ1YzM5NGRm
ZTVhYjY0YjFiMDk4MTYzZDM3OTEzYTEjMCEGCSqGSIb3DQEJARYUbm9kZTAwMjZA
b2N0YXJpbmUuZGUwgZ8wDQYJKoZIhvcNAQEBBQADgY0AMIGJAoGBAJ9WB1sCHfea
j60jYCa+NoWhR2LASvKBmjTklpdp3oGLRD69U21c7XKJw4kwAvQaAtv0wfHbXFU+
0GhXs33D/jAo/KkQvPysqWcHiPaSOhtIco6ZhlDw1cffbrb1qyf/ravn7UrF7HN8
e9rPil3HVfs/uS3poZ5kn/LdXTmYSGWrAgMBAAEwDQYJKoZIhvcNAQEEBQADgYEA
M0XYPtocex80d61xlUSmY0GWKeOiD43A7dRWAkli1ZpwqKaHREPtAFODc0TdYIK6
SFKq5dX06lzlJlqZ+abERdDTmJSinBZUIG2scIeU7aiVhbVyXaejKlTLKkNViceu
PrJ7wy8SS9pHzXowAApy1Xnbt8jPNhmWXxCQnVgwMp8=
-----END CERTIFICATE-----
