Certificate:
    Data:
        Version: 1 (0x0)
        Serial Number:
            9b:27:d7:e8:d1:ba:0b:5c
        Signature Algorithm: md5WithRSAEncryption
        Issuer: C=DE, ST=Saarland, O=MPI-SWS, OU=Distributed Systems Group, CN=Andreas Haeberlen/emailAddress=democa@octarine.de
        Validity
            Not Before: Apr 20 20:47:37 2015 GMT
            Not After : Apr 19 20:47:37 2016 GMT
        Subject: C=DE, ST=Saarland, O=MPI-SWS, OU=Distributed Systems Group, CN=de89127cc9f894c1b2a6e0299306dd6bbe4d1bae/emailAddress=node0900@octarine.de
        Subject Public Key Info:
            Public Key Algorithm: rsaEncryption
            RSA Public Key: (1024 bit)
                Modulus (1024 bit):
                    00:bc:f4:16:4e:ef:20:89:96:fe:e3:6a:be:d9:77:
                    17:8a:71:ec:12:81:46:c6:90:87:73:9f:b5:24:d6:
                    80:ac:4b:db:33:45:cc:7a:68:cc:18:3f:ec:71:d4:
                    bd:cc:3a:a8:61:5c:78:cc:1e:c9:da:e0:f4:10:8b:
                    d1:f1:13:42:9c:4e:60:89:d2:de:e0:75:b1:ca:53:
                    7b:b3:a8:01:19:9f:49:20:08:c9:ce:2c:1b:15:1d:
                    f2:82:7b:fe:ea:04:e9:78:45:c7:a6:e5:5e:aa:1d:
                    4f:94:73:93:ef:75:9c:58:d9:ad:84:62:2e:5b:65:
                    05:a5:2b:ac:b7:1f:bd:d0:4d
                Exponent: 65537 (0x10001)
    Signature Algorithm: md5WithRSAEncryption
        37:5a:3f:b8:4a:ba:cc:74:97:9a:af:83:d6:c8:7f:c5:36:c0:
        07:d5:a6:31:34:d4:24:4f:01:84:55:f1:fa:df:79:09:88:0f:
        6f:76:8a:f1:3d:db:a0:9d:04:84:d3:f4:71:c7:38:04:6a:88:
        48:e3:fa:66:68:77:f2:a0:8e:1e:b3:a9:21:4b:6e:44:bf:b1:
        8a:e7:e4:3e:d3:69:f4:7a:57:ac:2c:4e:8a:64:a8:b0:de:7a:
        97:b3:bb:d8:d6:2e:e3:1f:e8:a2:c0:9f:0d:4d:9b:91:93:15:
        72:9e:4a:6f:fa:92:8f:3d:0b:ea:f8:1a:0c:ee:f7:a1:f7:05:
        27:d7
-----BEGIN CERTIFICATE-----
MIICvDCCAiUCCQCbJ9fo0boLXDANBgkqhkiG9w0BAQQFADCBlTELMAkGA1UEBhMC
REUxETAPBgNVBAgTCFNhYXJsYW5kMRAwDgYDVQQKEwdNUEktU1dTMSIwIAYDVQQL
ExlEaXN0cmlidXRlZCBTeXN0ZW1zIEdyb3VwMRowGAYDVQQDExFBbmRyZWFzIEhh
ZWJlcmxlbjEhMB8GCSqGSIb3DQEJARYSZGVtb2NhQG9jdGFyaW5lLmRlMB4XDTE1
MDQyMDIwNDczN1oXDTE2MDQxOTIwNDczN1owga4xCzAJBgNVBAYTAkRFMREwDwYD
VQQIEwhTYWFybGFuZDEQMA4GA1UEChMHTVBJLVNXUzEiMCAGA1UECxMZRGlzdHJp
YnV0ZWQgU3lzdGVtcyBHcm91cDExMC8GA1UEAxMoZGU4OTEyN2NjOWY4OTRjMWIy
YTZlMDI5OTMwNmRkNmJiZTRkMWJhZTEjMCEGCSqGSIb3DQEJARYUbm9kZTA5MDBA
b2N0YXJpbmUuZGUwgZ8wDQYJKoZIhvcNAQEBBQADgY0AMIGJAoGBALz0Fk7vIImW
/uNqvtl3F4px7BKBRsaQh3OftSTWgKxL2zNFzHpozBg/7HHUvcw6qGFceMweydrg
9BCL0fETQpxOYInS3uB1scpTe7OoARmfSSAIyc4sGxUd8oJ7/uoE6XhFx6blXqod
T5Rzk+91nFjZrYRiLltlBaUrrLcfvdBNAgMBAAEwDQYJKoZIhvcNAQEEBQADgYEA
N1o/uEq6zHSXmq+D1sh/xTbAB9WmMTTUJE8BhFXx+t95CYgPb3aK8T3boJ0EhNP0
ccc4BGqISOP6Zmh38qCOHrOpIUtuRL+xiufkPtNp9HpXrCxOimSosN56l7O72NYu
4x/oosCfDU2bkZMVcp5Kb/qSjz0L6vgaDO73ofcFJ9c=
-----END CERTIFICATE-----
