Certificate:
    Data:
        Version: 1 (0x0)
        Serial Number:
            9b:27:d7:e8:d1:ba:08:8a
        Signature Algorithm: md5WithRSAEncryption
        Issuer: C=DE, ST=Saarland, O=MPI-SWS, OU=Distributed Systems Group, CN=Andreas Haeberlen/emailAddress=democa@octarine.de
        Validity
            Not Before: Apr 20 20:47:04 2015 GMT
            Not After : Apr 19 20:47:04 2016 GMT
        Subject: C=DE, ST=Saarland, O=MPI-SWS, OU=Distributed Systems Group, CN=50e21f08b647202bf584635580a6d9c3ab5ba645/emailAddress=node0178@octarine.de
        Subject Public Key Info:
            Public Key Algorithm: rsaEncryption
            RSA Public Key: (1024 bit)
                Modulus (1024 bit):
                    00:c2:95:5a:ec:31:20:b1:70:b3:05:5e:18:b3:84:
                    ca:e7:4a:62:eb:b6:2e:67:53:14:d7:cc:9d:d6:6a:
                    03:76:81:81:97:fa:f8:e4:8a:5f:a2:cb:1c:09:ae:
                    4c:53:81:85:b7:60:6a:e7:73:f4:83:f9:50:59:2d:
                    3a:04:a6:de:d4:59:7a:6b:79:dd:dd:cd:74:73:f6:
                    07:1b:4b:88:57:8c:0d:11:f8:92:10:af:b5:2e:53:
                    41:d1:7e:ff:89:08:87:99:18:6b:8a:90:6b:76:b6:
                    7c:53:5c:43:89:08:76:cd:02:e4:20:23:d1:ba:a1:
                    a5:b9:1c:22:42:f7:e8:87:2d
                Exponent: 65537 (0x10001)
    Signature Algorithm: md5WithRSAEncryption
        13:42:ae:de:2d:aa:94:5d:4a:d9:0e:dc:44:d2:37:e8:e0:79:
        98:6f:97:e0:1d:1e:8e:80:d2:ea:11:ba:4a:4d:de:0f:e6:b9:
        61:3d:04:ee:9f:fa:bc:ad:2a:4a:9a:b9:41:71:9a:ba:65:2c:
        de:b9:9a:c2:5d:3b:05:a0:33:16:a9:5d:4f:c2:7e:22:ba:5e:
        7b:70:eb:ac:68:db:94:95:b7:86:fd:c2:32:59:cc:07:27:fc:
        f5:d4:60:36:e2:39:15:66:fc:bb:da:81:b2:61:1c:18:d3:1b:
        29:86:cb:d9:32:01:fd:f0:82:7c:95:19:fa:df:d3:89:da:46:
        1a:62
-----BEGIN CERTIFICATE-----
MIICvDCCAiUCCQCbJ9fo0boIijANBgkqhkiG9w0BAQQFADCBlTELMAkGA1UEBhMC
REUxETAPBgNVBAgTCFNhYXJsYW5kMRAwDgYDVQQKEwdNUEktU1dTMSIwIAYDVQQL
ExlEaXN0cmlidXRlZCBTeXN0ZW1zIEdyb3VwMRowGAYDVQQDExFBbmRyZWFzIEhh
ZWJlcmxlbjEhMB8GCSqGSIb3DQEJARYSZGVtb2NhQG9jdGFyaW5lLmRlMB4XDTE1
MDQyMDIwNDcwNFoXDTE2MDQxOTIwNDcwNFowga4xCzAJBgNVBAYTAkRFMREwDwYD
VQQIEwhTYWFybGFuZDEQMA4GA1UEChMHTVBJLVNXUzEiMCAGA1UECxMZRGlzdHJp
YnV0ZWQgU3lzdGVtcyBHcm91cDExMC8GA1UEAxMoNTBlMjFmMDhiNjQ3MjAyYmY1
ODQ2MzU1ODBhNmQ5YzNhYjViYTY0NTEjMCEGCSqGSIb3DQEJARYUbm9kZTAxNzhA
b2N0YXJpbmUuZGUwgZ8wDQYJKoZIhvcNAQEBBQADgY0AMIGJAoGBAMKVWuwxILFw
swVeGLOEyudKYuu2LmdTFNfMndZqA3aBgZf6+OSKX6LLHAmuTFOBhbdgaudz9IP5
UFktOgSm3tRZemt53d3NdHP2BxtLiFeMDRH4khCvtS5TQdF+/4kIh5kYa4qQa3a2
fFNcQ4kIds0C5CAj0bqhpbkcIkL36IctAgMBAAEwDQYJKoZIhvcNAQEEBQADgYEA
E0Ku3i2qlF1K2Q7cRNI36OB5mG+X4B0ejoDS6hG6Sk3eD+a5YT0E7p/6vK0qSpq5
QXGaumUs3rmawl07BaAzFqldT8J+Irpee3DrrGjblJW3hv3CMlnMByf89dRgNuI5
FWb8u9qBsmEcGNMbKYbL2TIB/fCCfJUZ+t/TidpGGmI=
-----END CERTIFICATE-----
