Certificate:
    Data:
        Version: 1 (0x0)
        Serial Number:
            9b:27:d7:e8:d1:ba:09:7e
        Signature Algorithm: md5WithRSAEncryption
        Issuer: C=DE, ST=Saarland, O=MPI-SWS, OU=Distributed Systems Group, CN=Andreas Haeberlen/emailAddress=democa@octarine.de
        Validity
            Not Before: Apr 20 20:47:15 2015 GMT
            Not After : Apr 19 20:47:15 2016 GMT
        Subject: C=DE, ST=Saarland, O=MPI-SWS, OU=Distributed Systems Group, CN=0f012100c08ba08a78db48d23141c0ec0fd20e3d/emailAddress=node0422@octarine.de
        Subject Public Key Info:
            Public Key Algorithm: rsaEncryption
            RSA Public Key: (1024 bit)
                Modulus (1024 bit):
                    00:d5:66:25:76:bb:45:30:c7:7b:71:f4:22:dd:aa:
                    c9:4e:16:89:ce:87:38:09:85:95:4b:ce:a3:ea:e6:
                    c1:34:c3:ed:cd:96:c2:74:e5:c3:f2:eb:35:aa:7c:
                    a9:c6:6f:c5:5b:5b:da:55:9b:75:65:f9:0e:55:10:
                    48:3c:cc:f6:ca:12:35:3f:dc:78:a4:47:29:4a:f5:
                    ce:5d:17:19:40:d0:b7:99:fd:01:3e:26:ba:84:35:
                    82:74:43:31:f3:1b:dd:7f:9a:f2:9d:49:d2:f5:d1:
                    ca:c5:c0:c1:fb:bc:66:32:2a:36:1e:72:67:8f:c7:
                    f3:bb:bf:01:49:35:de:55:b1
                Exponent: 65537 (0x10001)
    Signature Algorithm: md5WithRSAEncryption
        0e:cc:2a:6a:44:c4:9d:34:21:9b:dd:ab:39:bc:81:2b:dd:2c:
        5d:b5:82:63:58:c7:e4:2e:84:2b:80:c4:94:28:d2:83:39:f7:
        4a:b0:8b:77:4f:5e:54:d0:05:b3:33:0f:cd:73:48:c5:43:8c:
        43:26:d1:11:fd:8e:cf:a3:66:2d:4d:9d:06:1a:25:39:a0:be:
        7b:64:20:58:85:48:8f:f3:37:8a:3c:68:9b:bc:a9:1f:05:8a:
        f1:b2:e6:e1:ac:7a:fe:3a:d6:5b:88:0e:f6:9e:f9:5f:ea:3b:
        f2:db:47:84:34:b4:3d:b2:12:cc:8a:fe:ad:e9:b9:dd:ce:b6:
        e3:d2
-----BEGIN CERTIFICATE-----
MIICvDCCAiUCCQCbJ9fo0boJfjANBgkqhkiG9w0BAQQFADCBlTELMAkGA1UEBhMC
REUxETAPBgNVBAgTCFNhYXJsYW5kMRAwDgYDVQQKEwdNUEktU1dTMSIwIAYDVQQL
ExlEaXN0cmlidXRlZCBTeXN0ZW1zIEdyb3VwMRowGAYDVQQDExFBbmRyZWFzIEhh
ZWJlcmxlbjEhMB8GCSqGSIb3DQEJARYSZGVtb2NhQG9jdGFyaW5lLmRlMB4XDTE1
MDQyMDIwNDcxNVoXDTE2MDQxOTIwNDcxNVowga4xCzAJBgNVBAYTAkRFMREwDwYD
VQQIEwhTYWFybGFuZDEQMA4GA1UEChMHTVBJLVNXUzEiMCAGA1UECxMZRGlzdHJp
YnV0ZWQgU3lzdGVtcyBHcm91cDExMC8GA1UEAxMoMGYwMTIxMDBjMDhiYTA4YTc4
ZGI0OGQyMzE0MWMwZWMwZmQyMGUzZDEjMCEGCSqGSIb3DQEJARYUbm9kZTA0MjJA
b2N0YXJpbmUuZGUwgZ8wDQYJKoZIhvcNAQEBBQADgY0AMIGJAoGBANVmJXa7RTDH
e3H0It2qyU4Wic6HOAmFlUvOo+rmwTTD7c2WwnTlw/LrNap8qcZvxVtb2lWbdWX5
DlUQSDzM9soSNT/ceKRHKUr1zl0XGUDQt5n9AT4muoQ1gnRDMfMb3X+a8p1J0vXR
ysXAwfu8ZjIqNh5yZ4/H87u/AUk13lWxAgMBAAEwDQYJKoZIhvcNAQEEBQADgYEA
DswqakTEnTQhm92rObyBK90sXbWCY1jH5C6EK4DElCjSgzn3SrCLd09eVNAFszMP
zXNIxUOMQybREf2Oz6NmLU2dBholOaC+e2QgWIVIj/M3ijxom7ypHwWK8bLm4ax6
/jrWW4gO9p75X+o78ttHhDS0PbISzIr+rem53c6249I=
-----END CERTIFICATE-----
