Certificate:
    Data:
        Version: 1 (0x0)
        Serial Number:
            9b:27:d7:e8:d1:ba:0a:b3
        Signature Algorithm: md5WithRSAEncryption
        Issuer: C=DE, ST=Saarland, O=MPI-SWS, OU=Distributed Systems Group, CN=Andreas Haeberlen/emailAddress=democa@octarine.de
        Validity
            Not Before: Apr 20 20:47:29 2015 GMT
            Not After : Apr 19 20:47:29 2016 GMT
        Subject: C=DE, ST=Saarland, O=MPI-SWS, OU=Distributed Systems Group, CN=c0ffdf311264c0c76f39b0231dd483c53b41b73c/emailAddress=node0731@octarine.de
        Subject Public Key Info:
            Public Key Algorithm: rsaEncryption
            RSA Public Key: (1024 bit)
                Modulus (1024 bit):
                    00:bf:f7:ae:d8:25:7a:a8:c9:4c:b4:9e:8f:75:87:
                    24:6c:9c:02:25:1b:7a:be:ad:d6:c7:06:d8:e3:88:
                    6e:9b:fa:9e:74:7e:9e:d2:25:bb:cf:8a:e2:8a:cc:
                    b3:ad:40:8e:49:88:49:e2:a7:dc:52:b6:0f:e5:ad:
                    55:4a:35:62:39:b1:a4:2b:fd:3b:9a:4e:92:37:22:
                    1d:6a:b1:f3:62:81:27:11:34:2d:62:c9:6f:c3:ed:
                    b1:7c:99:f9:2a:e0:67:1d:b7:2f:7d:33:cc:51:5f:
                    76:c1:3d:c3:ec:33:04:2a:24:48:ba:78:c9:5d:6e:
                    87:ca:87:94:fe:74:a6:e0:01
                Exponent: 65537 (0x10001)
    Signature Algorithm: md5WithRSAEncryption
        bc:1d:2b:1f:e5:fd:cf:d3:fa:11:c1:7d:1b:4f:b7:3e:21:bb:
        e8:ce:22:66:0f:07:ca:23:9f:e4:9a:2c:da:5f:4b:51:a8:88:
        70:af:78:f3:98:54:8b:b3:d0:14:6d:0c:f3:1f:03:88:a8:7c:
        6e:f0:dd:58:1d:f0:58:6b:10:f1:b7:81:23:bb:e2:13:fd:8b:
        aa:c8:f2:08:e7:0e:e1:19:21:7a:b7:18:25:9f:69:47:9b:1b:
        fe:2b:9d:aa:2c:af:f2:85:e5:13:31:b2:f3:9a:04:b9:0e:2b:
        de:23:c6:2b:16:4e:9f:d1:6b:bd:9d:18:7c:6b:f3:84:3d:f5:
        d6:b0
-----BEGIN CERTIFICATE-----
MIICvDCCAiUCCQCbJ9fo0boKszANBgkqhkiG9w0BAQQFADCBlTELMAkGA1UEBhMC
REUxETAPBgNVBAgTCFNhYXJsYW5kMRAwDgYDVQQKEwdNUEktU1dTMSIwIAYDVQQL
ExlEaXN0cmlidXRlZCBTeXN0ZW1zIEdyb3VwMRowGAYDVQQDExFBbmRyZWFzIEhh
ZWJlcmxlbjEhMB8GCSqGSIb3DQEJARYSZGVtb2NhQG9jdGFyaW5lLmRlMB4XDTE1
MDQyMDIwNDcyOVoXDTE2MDQxOTIwNDcyOVowga4xCzAJBgNVBAYTAkRFMREwDwYD
VQQIEwhTYWFybGFuZDEQMA4GA1UEChMHTVBJLVNXUzEiMCAGA1UECxMZRGlzdHJp
YnV0ZWQgU3lzdGVtcyBHcm91cDExMC8GA1UEAxMoYzBmZmRmMzExMjY0YzBjNzZm
MzliMDIzMWRkNDgzYzUzYjQxYjczYzEjMCEGCSqGSIb3DQEJARYUbm9kZTA3MzFA
b2N0YXJpbmUuZGUwgZ8wDQYJKoZIhvcNAQEBBQADgY0AMIGJAoGBAL/3rtgleqjJ
TLSej3WHJGycAiUber6t1scG2OOIbpv6nnR+ntIlu8+K4orMs61AjkmISeKn3FK2
D+WtVUo1YjmxpCv9O5pOkjciHWqx82KBJxE0LWLJb8PtsXyZ+SrgZx23L30zzFFf
dsE9w+wzBCokSLp4yV1uh8qHlP50puABAgMBAAEwDQYJKoZIhvcNAQEEBQADgYEA
vB0rH+X9z9P6EcF9G0+3PiG76M4iZg8HyiOf5Jos2l9LUaiIcK9485hUi7PQFG0M
8x8DiKh8bvDdWB3wWGsQ8beBI7viE/2LqsjyCOcO4RkhercYJZ9pR5sb/iudqiyv
8oXlEzGy85oEuQ4r3iPGKxZOn9FrvZ0YfGvzhD311rA=
-----END CERTIFICATE-----
