Certificate:
    Data:
        Version: 1 (0x0)
        Serial Number:
            9b:27:d7:e8:d1:ba:0a:ef
        Signature Algorithm: md5WithRSAEncryption
        Issuer: C=DE, ST=Saarland, O=MPI-SWS, OU=Distributed Systems Group, CN=Andreas Haeberlen/emailAddress=democa@octarine.de
        Validity
            Not Before: Apr 20 20:47:32 2015 GMT
            Not After : Apr 19 20:47:32 2016 GMT
        Subject: C=DE, ST=Saarland, O=MPI-SWS, OU=Distributed Systems Group, CN=8e11f423a9b526074e01f42d78594e3cd4ed8102/emailAddress=node0791@octarine.de
        Subject Public Key Info:
            Public Key Algorithm: rsaEncryption
            RSA Public Key: (1024 bit)
                Modulus (1024 bit):
                    00:a6:af:a5:ef:d3:80:3a:4b:86:55:78:22:b5:66:
                    f4:9c:8a:33:b5:b9:23:ca:ef:4b:20:cb:d6:0a:10:
                    ba:bc:f2:10:cc:c0:e0:46:b8:92:ee:20:8c:47:f2:
                    8f:d9:ee:87:ba:6e:0d:b5:9d:d3:10:96:af:2e:81:
                    ca:b3:14:34:fd:30:17:da:27:bc:b3:b1:f8:76:b0:
                    e0:e3:55:7a:df:ad:05:98:ef:57:4a:dc:dd:0a:bd:
                    39:2f:50:87:19:f4:8c:86:36:a5:a4:99:fd:e1:ed:
                    dc:1a:29:49:f6:d4:53:1e:8f:ac:95:ae:fa:bf:96:
                    fd:c9:bb:f8:73:1d:46:3f:65
                Exponent: 65537 (0x10001)
    Signature Algorithm: md5WithRSAEncryption
        c9:a9:6a:d9:4d:d0:32:59:bc:f4:9e:0d:d4:89:66:42:f9:27:
        be:35:32:a4:35:f3:19:9f:5d:b4:26:8b:00:f4:d9:a4:9b:1f:
        9f:01:9b:38:89:78:b4:e3:d3:a7:ec:92:de:0b:aa:91:93:2c:
        3a:54:67:b8:66:49:40:7b:28:4e:37:7a:d2:f5:d3:36:f4:a0:
        62:f0:59:80:56:09:ca:61:69:e1:94:f8:bb:9a:c8:b2:22:83:
        d2:38:e5:7e:1a:5d:41:a1:c2:71:df:06:9a:84:1c:84:94:51:
        a3:4c:8a:d3:f8:84:54:81:a3:0e:f9:49:7e:0b:f0:3e:98:9b:
        d9:76
-----BEGIN CERTIFICATE-----
MIICvDCCAiUCCQCbJ9fo0boK7zANBgkqhkiG9w0BAQQFADCBlTELMAkGA1UEBhMC
REUxETAPBgNVBAgTCFNhYXJsYW5kMRAwDgYDVQQKEwdNUEktU1dTMSIwIAYDVQQL
ExlEaXN0cmlidXRlZCBTeXN0ZW1zIEdyb3VwMRowGAYDVQQDExFBbmRyZWFzIEhh
ZWJlcmxlbjEhMB8GCSqGSIb3DQEJARYSZGVtb2NhQG9jdGFyaW5lLmRlMB4XDTE1
MDQyMDIwNDczMloXDTE2MDQxOTIwNDczMlowga4xCzAJBgNVBAYTAkRFMREwDwYD
VQQIEwhTYWFybGFuZDEQMA4GA1UEChMHTVBJLVNXUzEiMCAGA1UECxMZRGlzdHJp
YnV0ZWQgU3lzdGVtcyBHcm91cDExMC8GA1UEAxMoOGUxMWY0MjNhOWI1MjYwNzRl
MDFmNDJkNzg1OTRlM2NkNGVkODEwMjEjMCEGCSqGSIb3DQEJARYUbm9kZTA3OTFA
b2N0YXJpbmUuZGUwgZ8wDQYJKoZIhvcNAQEBBQADgY0AMIGJAoGBAKavpe/TgDpL
hlV4IrVm9JyKM7W5I8rvSyDL1goQurzyEMzA4Ea4ku4gjEfyj9nuh7puDbWd0xCW
ry6ByrMUNP0wF9onvLOx+Haw4ONVet+tBZjvV0rc3Qq9OS9Qhxn0jIY2paSZ/eHt
3BopSfbUUx6PrJWu+r+W/cm7+HMdRj9lAgMBAAEwDQYJKoZIhvcNAQEEBQADgYEA
yalq2U3QMlm89J4N1IlmQvknvjUypDXzGZ9dtCaLAPTZpJsfnwGbOIl4tOPTp+yS
3guqkZMsOlRnuGZJQHsoTjd60vXTNvSgYvBZgFYJymFp4ZT4u5rIsiKD0jjlfhpd
QaHCcd8GmoQchJRRo0yK0/iEVIGjDvlJfgvwPpib2XY=
-----END CERTIFICATE-----
