Certificate:
    Data:
        Version: 1 (0x0)
        Serial Number:
            9b:27:d7:e8:d1:ba:08:72
        Signature Algorithm: md5WithRSAEncryption
        Issuer: C=DE, ST=Saarland, O=MPI-SWS, OU=Distributed Systems Group, CN=Andreas Haeberlen/emailAddress=democa@octarine.de
        Validity
            Not Before: Apr 20 20:47:03 2015 GMT
            Not After : Apr 19 20:47:03 2016 GMT
        Subject: C=DE, ST=Saarland, O=MPI-SWS, OU=Distributed Systems Group, CN=d0fa0ae194beedd289de7a68fd85388097a929ab/emailAddress=node0154@octarine.de
        Subject Public Key Info:
            Public Key Algorithm: rsaEncryption
            RSA Public Key: (1024 bit)
                Modulus (1024 bit):
                    00:d9:68:4e:2e:7b:93:20:16:63:70:18:58:f9:6b:
                    98:44:fe:15:fc:93:56:3e:c2:4f:53:53:94:da:a6:
                    28:4f:95:bd:49:1a:7e:8c:f8:e4:aa:8d:1e:2b:db:
                    27:d0:e0:c2:77:dc:0a:c2:7e:af:15:0a:24:c1:64:
                    c5:5e:09:76:5a:a9:9d:f2:9c:7b:ba:00:ea:9b:b1:
                    eb:ca:c3:4b:16:af:73:97:b9:ec:5c:49:67:ef:e2:
                    da:63:1d:f6:91:4c:f4:fd:41:b7:21:f3:ed:be:5a:
                    3f:ff:9e:f0:d0:9c:01:3e:1e:ea:28:55:f7:b9:dd:
                    6f:bf:b6:14:e0:f1:b1:ae:9f
                Exponent: 65537 (0x10001)
    Signature Algorithm: md5WithRSAEncryption
        4f:65:2f:08:88:34:81:56:48:7a:82:b2:04:96:30:c9:73:fd:
        f5:15:2b:97:e1:b3:00:8c:2f:05:e5:0d:d0:bc:d0:74:9c:89:
        af:b4:21:db:7e:f9:52:74:f8:23:6c:ad:bc:58:a1:8a:06:2a:
        51:9c:18:d1:e4:f3:01:72:47:66:ed:d5:35:c1:7f:66:d0:59:
        99:07:cd:b8:95:33:75:5a:31:73:02:12:9d:38:e4:65:38:3a:
        fc:6f:49:26:7b:38:ef:6f:15:42:f8:d6:f1:94:2b:40:82:c3:
        60:5f:a5:c4:c8:81:c5:72:0e:19:c7:90:43:00:a7:6a:57:e2:
        32:cc
-----BEGIN CERTIFICATE-----
MIICvDCCAiUCCQCbJ9fo0boIcjANBgkqhkiG9w0BAQQFADCBlTELMAkGA1UEBhMC
REUxETAPBgNVBAgTCFNhYXJsYW5kMRAwDgYDVQQKEwdNUEktU1dTMSIwIAYDVQQL
ExlEaXN0cmlidXRlZCBTeXN0ZW1zIEdyb3VwMRowGAYDVQQDExFBbmRyZWFzIEhh
ZWJlcmxlbjEhMB8GCSqGSIb3DQEJARYSZGVtb2NhQG9jdGFyaW5lLmRlMB4XDTE1
MDQyMDIwNDcwM1oXDTE2MDQxOTIwNDcwM1owga4xCzAJBgNVBAYTAkRFMREwDwYD
VQQIEwhTYWFybGFuZDEQMA4GA1UEChMHTVBJLVNXUzEiMCAGA1UECxMZRGlzdHJp
YnV0ZWQgU3lzdGVtcyBHcm91cDExMC8GA1UEAxMoZDBmYTBhZTE5NGJlZWRkMjg5
ZGU3YTY4ZmQ4NTM4ODA5N2E5MjlhYjEjMCEGCSqGSIb3DQEJARYUbm9kZTAxNTRA
b2N0YXJpbmUuZGUwgZ8wDQYJKoZIhvcNAQEBBQADgY0AMIGJAoGBANloTi57kyAW
Y3AYWPlrmET+FfyTVj7CT1NTlNqmKE+VvUkafoz45KqNHivbJ9DgwnfcCsJ+rxUK
JMFkxV4JdlqpnfKce7oA6pux68rDSxavc5e57FxJZ+/i2mMd9pFM9P1BtyHz7b5a
P/+e8NCcAT4e6ihV97ndb7+2FODxsa6fAgMBAAEwDQYJKoZIhvcNAQEEBQADgYEA
T2UvCIg0gVZIeoKyBJYwyXP99RUrl+GzAIwvBeUN0LzQdJyJr7Qh2375UnT4I2yt
vFihigYqUZwY0eTzAXJHZu3VNcF/ZtBZmQfNuJUzdVoxcwISnTjkZTg6/G9JJns4
728VQvjW8ZQrQILDYF+lxMiBxXIOGceQQwCnalfiMsw=
-----END CERTIFICATE-----
