Certificate:
    Data:
        Version: 1 (0x0)
        Serial Number:
            9b:27:d7:e8:d1:ba:0b:69
        Signature Algorithm: md5WithRSAEncryption
        Issuer: C=DE, ST=Saarland, O=MPI-SWS, OU=Distributed Systems Group, CN=Andreas Haeberlen/emailAddress=democa@octarine.de
        Validity
            Not Before: Apr 20 20:47:37 2015 GMT
            Not After : Apr 19 20:47:37 2016 GMT
        Subject: C=DE, ST=Saarland, O=MPI-SWS, OU=Distributed Systems Group, CN=2fd2407460469f42307e637f5da57dd9dbb1c252/emailAddress=node0913@octarine.de
        Subject Public Key Info:
            Public Key Algorithm: rsaEncryption
            RSA Public Key: (1024 bit)
                Modulus (1024 bit):
                    00:ad:c6:de:d4:0d:6c:ad:6b:0e:e8:ff:4f:2b:ec:
                    dd:5a:5d:e8:23:80:5d:2d:63:de:97:5a:c7:87:1f:
                    84:34:65:41:a5:23:1b:d6:2c:95:8f:b7:3d:f8:84:
                    e1:34:9b:86:4f:99:c1:ab:48:5b:83:c0:78:10:67:
                    43:71:43:b0:33:28:06:6c:dc:ee:c5:9f:d2:dc:ef:
                    91:12:9f:5c:50:98:d2:ab:ac:84:76:2e:b6:ce:6a:
                    b6:5c:10:0a:50:b7:09:80:37:03:a3:e5:1d:51:bf:
                    3e:0c:db:59:19:29:e4:12:ac:31:25:77:b4:fd:75:
                    e7:62:38:e4:7d:2a:50:3d:2b
                Exponent: 65537 (0x10001)
    Signature Algorithm: md5WithRSAEncryption
        04:ec:fc:d5:d0:26:bb:a7:7a:18:a1:c4:4f:91:6f:30:5d:19:
        d2:c2:72:6f:1c:76:46:d3:be:17:25:19:2d:cf:74:b1:54:4d:
        f3:8d:19:a0:51:3f:4d:d8:fb:76:2f:ba:aa:3d:3b:d2:50:60:
        66:c7:0c:cb:ed:e6:94:3f:e7:89:8f:88:97:05:0b:7b:ce:33:
        8f:43:e5:0a:f3:b5:f4:2b:be:0e:23:a1:54:44:6a:ac:88:5a:
        92:ca:c4:61:a7:2f:47:ab:b1:87:f3:a2:30:75:fe:6b:fd:8a:
        d8:c0:86:fd:6b:9e:35:08:a6:c2:9d:7d:24:18:c0:35:b6:7e:
        1b:d8
-----BEGIN CERTIFICATE-----
MIICvDCCAiUCCQCbJ9fo0boLaTANBgkqhkiG9w0BAQQFADCBlTELMAkGA1UEBhMC
REUxETAPBgNVBAgTCFNhYXJsYW5kMRAwDgYDVQQKEwdNUEktU1dTMSIwIAYDVQQL
ExlEaXN0cmlidXRlZCBTeXN0ZW1zIEdyb3VwMRowGAYDVQQDExFBbmRyZWFzIEhh
ZWJlcmxlbjEhMB8GCSqGSIb3DQEJARYSZGVtb2NhQG9jdGFyaW5lLmRlMB4XDTE1
MDQyMDIwNDczN1oXDTE2MDQxOTIwNDczN1owga4xCzAJBgNVBAYTAkRFMREwDwYD
VQQIEwhTYWFybGFuZDEQMA4GA1UEChMHTVBJLVNXUzEiMCAGA1UECxMZRGlzdHJp
YnV0ZWQgU3lzdGVtcyBHcm91cDExMC8GA1UEAxMoMmZkMjQwNzQ2MDQ2OWY0MjMw
N2U2MzdmNWRhNTdkZDlkYmIxYzI1MjEjMCEGCSqGSIb3DQEJARYUbm9kZTA5MTNA
b2N0YXJpbmUuZGUwgZ8wDQYJKoZIhvcNAQEBBQADgY0AMIGJAoGBAK3G3tQNbK1r
Duj/Tyvs3Vpd6COAXS1j3pdax4cfhDRlQaUjG9YslY+3PfiE4TSbhk+ZwatIW4PA
eBBnQ3FDsDMoBmzc7sWf0tzvkRKfXFCY0qushHYuts5qtlwQClC3CYA3A6PlHVG/
PgzbWRkp5BKsMSV3tP1152I45H0qUD0rAgMBAAEwDQYJKoZIhvcNAQEEBQADgYEA
BOz81dAmu6d6GKHET5FvMF0Z0sJybxx2RtO+FyUZLc90sVRN840ZoFE/Tdj7di+6
qj070lBgZscMy+3mlD/niY+IlwULe84zj0PlCvO19Cu+DiOhVERqrIhaksrEYacv
R6uxh/OiMHX+a/2K2MCG/WueNQimwp19JBjANbZ+G9g=
-----END CERTIFICATE-----
