Certificate:
    Data:
        Version: 1 (0x0)
        Serial Number:
            9b:27:d7:e8:d1:ba:07:f4
        Signature Algorithm: md5WithRSAEncryption
        Issuer: C=DE, ST=Saarland, O=MPI-SWS, OU=Distributed Systems Group, CN=Andreas Haeberlen/emailAddress=democa@octarine.de
        Validity
            Not Before: Apr 20 20:46:58 2015 GMT
            Not After : Apr 19 20:46:58 2016 GMT
        Subject: C=DE, ST=Saarland, O=MPI-SWS, OU=Distributed Systems Group, CN=8cdda6e9bf2832a452f9e57bacdab244e2198024/emailAddress=node0028@octarine.de
        Subject Public Key Info:
            Public Key Algorithm: rsaEncryption
            RSA Public Key: (1024 bit)
                Modulus (1024 bit):
                    00:f0:3f:8f:39:88:c4:fa:d0:f4:c4:60:b6:b6:fa:
                    7d:51:15:d2:65:39:ca:b5:b9:05:9b:1e:28:02:84:
                    9f:83:11:31:76:49:30:6e:eb:73:d6:71:a7:72:75:
                    06:ac:e4:c0:fd:0e:d4:f5:d7:d8:07:b2:a9:f2:08:
                    a5:8d:af:e0:1b:53:b2:e4:8b:09:5d:ff:91:63:29:
                    db:0e:59:34:6a:73:a2:0a:8f:80:dd:d2:24:dc:b1:
                    16:16:d6:1d:08:c2:3c:47:43:56:2c:50:45:cb:9b:
                    3a:b3:cd:48:72:68:82:b1:f2:b8:02:b4:12:4d:7e:
                    22:ec:6a:c0:4f:82:fa:9a:21
                Exponent: 65537 (0x10001)
    Signature Algorithm: md5WithRSAEncryption
        0c:e7:0c:d7:95:57:d6:ab:52:d5:51:67:05:e6:fb:40:d1:31:
        2d:94:4f:79:71:0b:1e:37:ef:b1:14:59:87:98:cd:ae:fa:7c:
        63:32:73:e7:96:b3:d3:eb:73:11:0e:7a:d7:9f:9c:cd:fe:83:
        8d:04:8e:70:b9:3d:2b:aa:b5:06:a1:b5:64:95:61:a9:37:26:
        66:1f:b3:f9:28:83:bf:2b:42:ac:ce:ce:9b:07:61:8f:d3:3b:
        2e:4e:86:af:32:88:fd:d3:da:fc:56:22:7a:97:fb:ed:6c:45:
        78:73:ea:00:b3:5e:83:f5:7d:2f:d5:2a:d5:4c:d5:70:b1:22:
        ef:6b
-----BEGIN CERTIFICATE-----
MIICvDCCAiUCCQCbJ9fo0boH9DANBgkqhkiG9w0BAQQFADCBlTELMAkGA1UEBhMC
REUxETAPBgNVBAgTCFNhYXJsYW5kMRAwDgYDVQQKEwdNUEktU1dTMSIwIAYDVQQL
ExlEaXN0cmlidXRlZCBTeXN0ZW1zIEdyb3VwMRowGAYDVQQDExFBbmRyZWFzIEhh
ZWJlcmxlbjEhMB8GCSqGSIb3DQEJARYSZGVtb2NhQG9jdGFyaW5lLmRlMB4XDTE1
MDQyMDIwNDY1OFoXDTE2MDQxOTIwNDY1OFowga4xCzAJBgNVBAYTAkRFMREwDwYD
VQQIEwhTYWFybGFuZDEQMA4GA1UEChMHTVBJLVNXUzEiMCAGA1UECxMZRGlzdHJp
YnV0ZWQgU3lzdGVtcyBHcm91cDExMC8GA1UEAxMoOGNkZGE2ZTliZjI4MzJhNDUy
ZjllNTdiYWNkYWIyNDRlMjE5ODAyNDEjMCEGCSqGSIb3DQEJARYUbm9kZTAwMjhA
b2N0YXJpbmUuZGUwgZ8wDQYJKoZIhvcNAQEBBQADgY0AMIGJAoGBAPA/jzmIxPrQ
9MRgtrb6fVEV0mU5yrW5BZseKAKEn4MRMXZJMG7rc9Zxp3J1BqzkwP0O1PXX2Aey
qfIIpY2v4BtTsuSLCV3/kWMp2w5ZNGpzogqPgN3SJNyxFhbWHQjCPEdDVixQRcub
OrPNSHJogrHyuAK0Ek1+IuxqwE+C+pohAgMBAAEwDQYJKoZIhvcNAQEEBQADgYEA
DOcM15VX1qtS1VFnBeb7QNExLZRPeXELHjfvsRRZh5jNrvp8YzJz55az0+tzEQ56
15+czf6DjQSOcLk9K6q1BqG1ZJVhqTcmZh+z+SiDvytCrM7Omwdhj9M7Lk6GrzKI
/dPa/FYiepf77WxFeHPqALNeg/V9L9Uq1UzVcLEi72s=
-----END CERTIFICATE-----
