Certificate:
    Data:
        Version: 1 (0x0)
        Serial Number:
            9b:27:d7:e8:d1:ba:0a:13
        Signature Algorithm: md5WithRSAEncryption
        Issuer: C=DE, ST=Saarland, O=MPI-SWS, OU=Distributed Systems Group, CN=Andreas Haeberlen/emailAddress=democa@octarine.de
        Validity
            Not Before: Apr 20 20:47:22 2015 GMT
            Not After : Apr 19 20:47:22 2016 GMT
        Subject: C=DE, ST=Saarland, O=MPI-SWS, OU=Distributed Systems Group, CN=94fb341176369a55eb489ccf46efc245731a72cf/emailAddress=node0571@octarine.de
        Subject Public Key Info:
            Public Key Algorithm: rsaEncryption
            RSA Public Key: (1024 bit)
                Modulus (1024 bit):
                    00:9e:c0:f3:01:7f:28:d2:ce:d1:dc:83:e2:77:af:
                    a8:27:7e:b7:3c:4b:fe:57:9f:cb:8e:34:e9:bb:b9:
                    55:dd:cb:74:a6:4d:97:b8:50:6a:4b:c9:0a:ae:94:
                    38:80:4d:16:72:93:e9:f1:f6:0a:4b:95:e3:60:f3:
                    b6:77:9f:51:c6:6a:6f:99:60:d2:ff:c4:d8:40:78:
                    20:a0:55:b6:dd:4a:21:f5:df:98:ac:04:f9:2c:bf:
                    f6:01:6a:7c:5d:01:9f:cc:d0:b0:9d:4c:c9:dc:3e:
                    4f:09:7c:df:3c:47:d3:03:03:ae:4f:94:7f:d8:0f:
                    6f:32:f2:b7:e9:56:9b:99:99
                Exponent: 65537 (0x10001)
    Signature Algorithm: md5WithRSAEncryption
        77:b0:93:7c:b6:3b:40:75:10:bc:75:72:ee:5b:a7:2a:e4:01:
        c1:32:bd:ab:e3:15:86:6a:88:8b:1e:e0:49:fb:78:dd:ca:9c:
        6e:94:93:91:14:c0:2a:c7:24:b7:6b:de:20:75:35:bc:bf:b0:
        0c:b8:93:62:2c:09:a1:c7:e2:4e:7b:46:1b:e6:11:81:dd:bd:
        7e:19:73:49:1e:5a:53:ff:99:8e:8b:51:89:a8:43:14:ed:62:
        a6:f1:3d:a7:f3:c7:a0:a1:99:67:02:21:57:19:bb:e7:8e:cd:
        76:23:7c:be:bc:3d:35:4e:61:c6:54:80:1c:72:52:96:8e:d1:
        34:8a
-----BEGIN CERTIFICATE-----
MIICvDCCAiUCCQCbJ9fo0boKEzANBgkqhkiG9w0BAQQFADCBlTELMAkGA1UEBhMC
REUxETAPBgNVBAgTCFNhYXJsYW5kMRAwDgYDVQQKEwdNUEktU1dTMSIwIAYDVQQL
ExlEaXN0cmlidXRlZCBTeXN0ZW1zIEdyb3VwMRowGAYDVQQDExFBbmRyZWFzIEhh
ZWJlcmxlbjEhMB8GCSqGSIb3DQEJARYSZGVtb2NhQG9jdGFyaW5lLmRlMB4XDTE1
MDQyMDIwNDcyMloXDTE2MDQxOTIwNDcyMlowga4xCzAJBgNVBAYTAkRFMREwDwYD
VQQIEwhTYWFybGFuZDEQMA4GA1UEChMHTVBJLVNXUzEiMCAGA1UECxMZRGlzdHJp
YnV0ZWQgU3lzdGVtcyBHcm91cDExMC8GA1UEAxMoOTRmYjM0MTE3NjM2OWE1NWVi
NDg5Y2NmNDZlZmMyNDU3MzFhNzJjZjEjMCEGCSqGSIb3DQEJARYUbm9kZTA1NzFA
b2N0YXJpbmUuZGUwgZ8wDQYJKoZIhvcNAQEBBQADgY0AMIGJAoGBAJ7A8wF/KNLO
0dyD4nevqCd+tzxL/lefy4406bu5Vd3LdKZNl7hQakvJCq6UOIBNFnKT6fH2CkuV
42DztnefUcZqb5lg0v/E2EB4IKBVtt1KIfXfmKwE+Sy/9gFqfF0Bn8zQsJ1Mydw+
Twl83zxH0wMDrk+Uf9gPbzLyt+lWm5mZAgMBAAEwDQYJKoZIhvcNAQEEBQADgYEA
d7CTfLY7QHUQvHVy7lunKuQBwTK9q+MVhmqIix7gSft43cqcbpSTkRTAKsckt2ve
IHU1vL+wDLiTYiwJocfiTntGG+YRgd29fhlzSR5aU/+ZjotRiahDFO1ipvE9p/PH
oKGZZwIhVxm7547NdiN8vrw9NU5hxlSAHHJSlo7RNIo=
-----END CERTIFICATE-----
