Certificate:
    Data:
        Version: 1 (0x0)
        Serial Number:
            9b:27:d7:e8:d1:ba:0b:8b
        Signature Algorithm: md5WithRSAEncryption
        Issuer: C=DE, ST=Saarland, O=MPI-SWS, OU=Distributed Systems Group, CN=Andreas Haeberlen/emailAddress=democa@octarine.de
        Validity
            Not Before: Apr 20 20:47:39 2015 GMT
            Not After : Apr 19 20:47:39 2016 GMT
        Subject: C=DE, ST=Saarland, O=MPI-SWS, OU=Distributed Systems Group, CN=08ec227e9c20ace7f0658e33508687c90a52dd06/emailAddress=node0947@octarine.de
        Subject Public Key Info:
            Public Key Algorithm: rsaEncryption
            RSA Public Key: (1024 bit)
                Modulus (1024 bit):
                    00:ab:db:7a:10:d7:22:e4:f0:fa:82:7d:e3:b6:8b:
                    18:51:d8:af:25:43:9f:3a:45:3b:c0:0e:6f:14:82:
                    fa:48:0b:e5:97:9b:ec:d6:35:00:b4:25:e0:06:2f:
                    3a:07:b0:fa:cf:87:65:f9:f5:5b:20:78:5a:d0:41:
                    be:a4:84:76:3b:32:d2:38:32:e3:7a:8a:cd:77:f5:
                    99:79:8f:c3:af:05:7c:21:86:e3:56:a8:55:8a:e9:
                    b7:0f:af:fe:fe:79:84:7e:03:a6:0f:5e:36:8f:a3:
                    bf:02:f9:38:d9:82:19:cf:6e:f8:67:a6:15:78:0b:
                    16:c1:c7:0f:40:f2:40:d6:7d
                Exponent: 65537 (0x10001)
    Signature Algorithm: md5WithRSAEncryption
        66:86:d6:56:02:8d:56:81:8a:54:18:f2:e4:f0:f5:0f:16:ad:
        d3:e7:41:aa:c6:80:f5:a0:49:3e:b5:bf:1d:5e:58:27:a6:06:
        45:b9:32:f1:36:dc:21:bc:28:9b:f8:d6:f7:a3:23:3d:01:48:
        76:c1:b7:61:e4:23:86:df:f4:ee:87:75:b9:db:03:95:7f:82:
        13:f4:b8:9d:a3:30:f1:95:94:01:a4:7a:19:75:55:7d:be:88:
        dc:d8:8f:53:4e:bb:7e:c8:f9:0c:aa:c5:e3:73:d5:d8:e5:b4:
        3b:79:91:2c:af:05:c4:77:23:99:ff:d1:44:fe:b8:b4:1c:e8:
        3d:eb
-----BEGIN CERTIFICATE-----
MIICvDCCAiUCCQCbJ9fo0boLizANBgkqhkiG9w0BAQQFADCBlTELMAkGA1UEBhMC
REUxETAPBgNVBAgTCFNhYXJsYW5kMRAwDgYDVQQKEwdNUEktU1dTMSIwIAYDVQQL
ExlEaXN0cmlidXRlZCBTeXN0ZW1zIEdyb3VwMRowGAYDVQQDExFBbmRyZWFzIEhh
ZWJlcmxlbjEhMB8GCSqGSIb3DQEJARYSZGVtb2NhQG9jdGFyaW5lLmRlMB4XDTE1
MDQyMDIwNDczOVoXDTE2MDQxOTIwNDczOVowga4xCzAJBgNVBAYTAkRFMREwDwYD
VQQIEwhTYWFybGFuZDEQMA4GA1UEChMHTVBJLVNXUzEiMCAGA1UECxMZRGlzdHJp
YnV0ZWQgU3lzdGVtcyBHcm91cDExMC8GA1UEAxMoMDhlYzIyN2U5YzIwYWNlN2Yw
NjU4ZTMzNTA4Njg3YzkwYTUyZGQwNjEjMCEGCSqGSIb3DQEJARYUbm9kZTA5NDdA
b2N0YXJpbmUuZGUwgZ8wDQYJKoZIhvcNAQEBBQADgY0AMIGJAoGBAKvbehDXIuTw
+oJ947aLGFHYryVDnzpFO8AObxSC+kgL5Zeb7NY1ALQl4AYvOgew+s+HZfn1WyB4
WtBBvqSEdjsy0jgy43qKzXf1mXmPw68FfCGG41aoVYrptw+v/v55hH4Dpg9eNo+j
vwL5ONmCGc9u+GemFXgLFsHHD0DyQNZ9AgMBAAEwDQYJKoZIhvcNAQEEBQADgYEA
ZobWVgKNVoGKVBjy5PD1Dxat0+dBqsaA9aBJPrW/HV5YJ6YGRbky8TbcIbwom/jW
96MjPQFIdsG3YeQjht/07od1udsDlX+CE/S4naMw8ZWUAaR6GXVVfb6I3NiPU067
fsj5DKrF43PV2OW0O3mRLK8FxHcjmf/RRP64tBzoPes=
-----END CERTIFICATE-----
