Certificate:
    Data:
        Version: 1 (0x0)
        Serial Number:
            9b:27:d7:e8:d1:ba:08:d5
        Signature Algorithm: md5WithRSAEncryption
        Issuer: C=DE, ST=Saarland, O=MPI-SWS, OU=Distributed Systems Group, CN=Andreas Haeberlen/emailAddress=democa@octarine.de
        Validity
            Not Before: Apr 20 20:47:08 2015 GMT
            Not After : Apr 19 20:47:08 2016 GMT
        Subject: C=DE, ST=Saarland, O=MPI-SWS, OU=Distributed Systems Group, CN=e52a6eac940f2f1dea30cd0684f86de530fafa78/emailAddress=node0253@octarine.de
        Subject Public Key Info:
            Public Key Algorithm: rsaEncryption
            RSA Public Key: (1024 bit)
                Modulus (1024 bit):
                    00:a4:18:6d:9e:02:45:44:39:58:8d:5f:9d:3f:d3:
                    c7:1e:10:20:a5:f5:9d:20:cb:98:4a:00:fd:26:e8:
                    a1:f9:15:d1:ac:cd:1b:b4:9a:b3:c6:5d:1a:5b:e6:
                    95:1f:36:79:6b:2c:eb:43:a1:58:05:8b:82:03:80:
                    ea:41:fe:0c:44:cf:d6:f2:fb:0e:6d:f6:32:72:c6:
                    eb:c3:83:bd:41:95:27:8c:d6:81:a5:47:e7:44:88:
                    17:e9:21:23:c2:f6:05:c9:0a:75:eb:d9:a1:d4:a4:
                    80:d9:a8:a1:be:0a:63:5e:ce:80:a8:ba:e9:6f:66:
                    46:bf:d2:77:64:9a:b2:b8:1b
                Exponent: 65537 (0x10001)
    Signature Algorithm: md5WithRSAEncryption
        4c:5d:89:95:77:e1:27:44:f6:5e:4e:7b:e2:23:45:36:6e:a8:
        d5:3f:ec:8e:ee:9c:f2:e4:42:ce:c8:55:37:8a:89:d9:27:00:
        3c:84:c9:3b:0f:20:03:06:32:35:57:f3:53:7b:8f:06:7e:1e:
        b4:11:13:40:81:e3:ca:31:0c:6f:38:4a:ef:32:09:d8:c3:4c:
        05:54:a0:24:1f:ed:36:bb:10:62:cb:7b:55:af:f9:16:1b:68:
        7b:44:d1:ef:dd:bb:73:ad:1e:6f:1f:49:a4:fe:22:b5:3e:b9:
        30:ae:40:e3:88:4b:7d:1b:3a:46:bb:5c:85:50:3f:b7:e3:18:
        3f:c3
-----BEGIN CERTIFICATE-----
MIICvDCCAiUCCQCbJ9fo0boI1TANBgkqhkiG9w0BAQQFADCBlTELMAkGA1UEBhMC
REUxETAPBgNVBAgTCFNhYXJsYW5kMRAwDgYDVQQKEwdNUEktU1dTMSIwIAYDVQQL
ExlEaXN0cmlidXRlZCBTeXN0ZW1zIEdyb3VwMRowGAYDVQQDExFBbmRyZWFzIEhh
ZWJlcmxlbjEhMB8GCSqGSIb3DQEJARYSZGVtb2NhQG9jdGFyaW5lLmRlMB4XDTE1
MDQyMDIwNDcwOFoXDTE2MDQxOTIwNDcwOFowga4xCzAJBgNVBAYTAkRFMREwDwYD
VQQIEwhTYWFybGFuZDEQMA4GA1UEChMHTVBJLVNXUzEiMCAGA1UECxMZRGlzdHJp
YnV0ZWQgU3lzdGVtcyBHcm91cDExMC8GA1UEAxMoZTUyYTZlYWM5NDBmMmYxZGVh
MzBjZDA2ODRmODZkZTUzMGZhZmE3ODEjMCEGCSqGSIb3DQEJARYUbm9kZTAyNTNA
b2N0YXJpbmUuZGUwgZ8wDQYJKoZIhvcNAQEBBQADgY0AMIGJAoGBAKQYbZ4CRUQ5
WI1fnT/Txx4QIKX1nSDLmEoA/SboofkV0azNG7Sas8ZdGlvmlR82eWss60OhWAWL
ggOA6kH+DETP1vL7Dm32MnLG68ODvUGVJ4zWgaVH50SIF+khI8L2BckKdevZodSk
gNmoob4KY17OgKi66W9mRr/Sd2SasrgbAgMBAAEwDQYJKoZIhvcNAQEEBQADgYEA
TF2JlXfhJ0T2Xk574iNFNm6o1T/sju6c8uRCzshVN4qJ2ScAPITJOw8gAwYyNVfz
U3uPBn4etBETQIHjyjEMbzhK7zIJ2MNMBVSgJB/tNrsQYst7Va/5Fhtoe0TR7927
c60ebx9JpP4itT65MK5A44hLfRs6RrtchVA/t+MYP8M=
-----END CERTIFICATE-----
