Certificate:
    Data:
        Version: 1 (0x0)
        Serial Number:
            9b:27:d7:e8:d1:ba:09:38
        Signature Algorithm: md5WithRSAEncryption
        Issuer: C=DE, ST=Saarland, O=MPI-SWS, OU=Distributed Systems Group, CN=Andreas Haeberlen/emailAddress=democa@octarine.de
        Validity
            Not Before: Apr 20 20:47:12 2015 GMT
            Not After : Apr 19 20:47:12 2016 GMT
        Subject: C=DE, ST=Saarland, O=MPI-SWS, OU=Distributed Systems Group, CN=0fd12bd9c12dc140c81e185e6694a89a76ca293e/emailAddress=node0352@octarine.de
        Subject Public Key Info:
            Public Key Algorithm: rsaEncryption
            RSA Public Key: (1024 bit)
                Modulus (1024 bit):
                    00:a4:a0:0d:ec:e7:d1:ea:96:b5:de:07:42:1e:6a:
                    30:65:4b:5d:87:27:51:21:d3:e4:84:a7:3c:a3:51:
                    4c:dd:8c:1c:64:ba:68:4d:e9:01:1b:ff:f8:7f:60:
                    cc:87:1c:b4:ee:04:e3:b9:eb:a1:1e:85:f6:1c:74:
                    3f:88:2c:f0:60:7e:19:7d:39:cd:d8:0f:14:16:a4:
                    52:c6:ff:ef:7f:a0:8e:8e:4d:b3:9b:2b:c8:64:70:
                    24:13:9f:93:05:4b:0a:63:99:b5:6d:0c:81:22:1f:
                    aa:78:37:a3:c7:c5:d4:02:51:8d:c6:a2:e3:b7:fb:
                    66:65:db:23:5a:0c:ca:be:9b
                Exponent: 65537 (0x10001)
    Signature Algorithm: md5WithRSAEncryption
        60:38:34:b2:53:00:50:06:a1:30:95:85:4f:33:e7:d8:30:97:
        3c:1e:b6:91:f0:05:b8:52:e9:a6:df:dd:38:e5:c4:97:3d:7d:
        8a:46:4f:42:f1:8c:2d:71:65:1a:51:04:54:55:fa:d0:78:4b:
        24:5c:63:7b:14:42:37:f3:79:bd:fa:a0:28:1b:8e:74:f9:af:
        93:33:5b:92:21:c3:f8:25:d3:8d:3f:d2:69:3c:0a:4f:5a:fb:
        27:3b:c2:be:88:cf:1e:cd:fa:70:b6:52:b0:1c:13:48:22:80:
        90:6c:9d:44:01:9e:f5:60:7c:92:d2:22:7e:42:ff:b6:dd:18:
        33:9a
-----BEGIN CERTIFICATE-----
MIICvDCCAiUCCQCbJ9fo0boJODANBgkqhkiG9w0BAQQFADCBlTELMAkGA1UEBhMC
REUxETAPBgNVBAgTCFNhYXJsYW5kMRAwDgYDVQQKEwdNUEktU1dTMSIwIAYDVQQL
ExlEaXN0cmlidXRlZCBTeXN0ZW1zIEdyb3VwMRowGAYDVQQDExFBbmRyZWFzIEhh
ZWJlcmxlbjEhMB8GCSqGSIb3DQEJARYSZGVtb2NhQG9jdGFyaW5lLmRlMB4XDTE1
MDQyMDIwNDcxMloXDTE2MDQxOTIwNDcxMlowga4xCzAJBgNVBAYTAkRFMREwDwYD
VQQIEwhTYWFybGFuZDEQMA4GA1UEChMHTVBJLVNXUzEiMCAGA1UECxMZRGlzdHJp
YnV0ZWQgU3lzdGVtcyBHcm91cDExMC8GA1UEAxMoMGZkMTJiZDljMTJkYzE0MGM4
MWUxODVlNjY5NGE4OWE3NmNhMjkzZTEjMCEGCSqGSIb3DQEJARYUbm9kZTAzNTJA
b2N0YXJpbmUuZGUwgZ8wDQYJKoZIhvcNAQEBBQADgY0AMIGJAoGBAKSgDezn0eqW
td4HQh5qMGVLXYcnUSHT5ISnPKNRTN2MHGS6aE3pARv/+H9gzIcctO4E47nroR6F
9hx0P4gs8GB+GX05zdgPFBakUsb/73+gjo5Ns5sryGRwJBOfkwVLCmOZtW0MgSIf
qng3o8fF1AJRjcai47f7ZmXbI1oMyr6bAgMBAAEwDQYJKoZIhvcNAQEEBQADgYEA
YDg0slMAUAahMJWFTzPn2DCXPB62kfAFuFLppt/dOOXElz19ikZPQvGMLXFlGlEE
VFX60HhLJFxjexRCN/N5vfqgKBuOdPmvkzNbkiHD+CXTjT/SaTwKT1r7JzvCvojP
Hs36cLZSsBwTSCKAkGydRAGe9WB8ktIifkL/tt0YM5o=
-----END CERTIFICATE-----
