Certificate:
    Data:
        Version: 1 (0x0)
        Serial Number:
            9b:27:d7:e8:d1:ba:0b:41
        Signature Algorithm: md5WithRSAEncryption
        Issuer: C=DE, ST=Saarland, O=MPI-SWS, OU=Distributed Systems Group, CN=Andreas Haeberlen/emailAddress=democa@octarine.de
        Validity
            Not Before: Apr 20 20:47:35 2015 GMT
            Not After : Apr 19 20:47:35 2016 GMT
        Subject: C=DE, ST=Saarland, O=MPI-SWS, OU=Distributed Systems Group, CN=2547b561abe9c3822617a6b8e8235c1815fda6e5/emailAddress=node0873@octarine.de
        Subject Public Key Info:
            Public Key Algorithm: rsaEncryption
            RSA Public Key: (1024 bit)
                Modulus (1024 bit):
                    00:de:cb:a9:71:69:65:a2:cb:9c:3a:5a:07:66:c8:
                    ef:49:2d:3e:76:d1:4e:91:ef:af:ca:1b:0f:f9:07:
                    bf:41:91:11:3b:94:0a:87:fe:3a:e9:bd:96:ba:63:
                    79:cf:7f:1a:d3:80:61:89:17:86:9d:96:69:18:c0:
                    3b:d5:3c:50:a3:e6:75:0f:75:19:f3:5f:21:8e:04:
                    ab:6b:2d:de:7e:60:7b:45:e6:6d:c2:80:eb:23:d8:
                    cc:03:b1:69:c9:b2:80:d2:0f:24:d3:0b:1e:d2:f6:
                    df:26:6e:24:a7:d6:8c:6a:77:75:65:d7:3f:30:bb:
                    1f:39:12:36:55:b0:94:69:79
                Exponent: 65537 (0x10001)
    Signature Algorithm: md5WithRSAEncryption
        78:f3:8c:be:54:40:62:42:e4:aa:9c:6e:87:45:78:7c:10:7c:
        f6:90:35:6f:c0:91:d4:09:3c:ee:f1:36:67:e8:07:ce:34:15:
        05:e3:32:b8:3e:00:a2:22:a5:7b:8d:d0:5a:4d:08:ec:a5:a5:
        af:c8:47:f1:37:bb:17:a6:78:10:1e:79:18:84:9a:87:cc:82:
        41:d4:cf:08:20:38:5c:ad:06:e1:35:e8:a6:ab:79:c9:a2:55:
        e9:0c:81:8c:05:ed:1a:65:90:5a:78:67:77:a4:75:a3:3d:d9:
        5e:92:3f:55:1b:fa:87:f8:78:39:f8:7d:f6:a3:7c:ff:c4:bd:
        54:f4
-----BEGIN CERTIFICATE-----
MIICvDCCAiUCCQCbJ9fo0boLQTANBgkqhkiG9w0BAQQFADCBlTELMAkGA1UEBhMC
REUxETAPBgNVBAgTCFNhYXJsYW5kMRAwDgYDVQQKEwdNUEktU1dTMSIwIAYDVQQL
ExlEaXN0cmlidXRlZCBTeXN0ZW1zIEdyb3VwMRowGAYDVQQDExFBbmRyZWFzIEhh
ZWJlcmxlbjEhMB8GCSqGSIb3DQEJARYSZGVtb2NhQG9jdGFyaW5lLmRlMB4XDTE1
MDQyMDIwNDczNVoXDTE2MDQxOTIwNDczNVowga4xCzAJBgNVBAYTAkRFMREwDwYD
VQQIEwhTYWFybGFuZDEQMA4GA1UEChMHTVBJLVNXUzEiMCAGA1UECxMZRGlzdHJp
YnV0ZWQgU3lzdGVtcyBHcm91cDExMC8GA1UEAxMoMjU0N2I1NjFhYmU5YzM4MjI2
MTdhNmI4ZTgyMzVjMTgxNWZkYTZlNTEjMCEGCSqGSIb3DQEJARYUbm9kZTA4NzNA
b2N0YXJpbmUuZGUwgZ8wDQYJKoZIhvcNAQEBBQADgY0AMIGJAoGBAN7LqXFpZaLL
nDpaB2bI70ktPnbRTpHvr8obD/kHv0GRETuUCof+Oum9lrpjec9/GtOAYYkXhp2W
aRjAO9U8UKPmdQ91GfNfIY4Eq2st3n5ge0XmbcKA6yPYzAOxacmygNIPJNMLHtL2
3yZuJKfWjGp3dWXXPzC7HzkSNlWwlGl5AgMBAAEwDQYJKoZIhvcNAQEEBQADgYEA
ePOMvlRAYkLkqpxuh0V4fBB89pA1b8CR1Ak87vE2Z+gHzjQVBeMyuD4AoiKle43Q
Wk0I7KWlr8hH8Te7F6Z4EB55GISah8yCQdTPCCA4XK0G4TXopqt5yaJV6QyBjAXt
GmWQWnhnd6R1oz3ZXpI/VRv6h/h4Ofh99qN8/8S9VPQ=
-----END CERTIFICATE-----
