Certificate:
    Data:
        Version: 1 (0x0)
        Serial Number:
            9b:27:d7:e8:d1:ba:09:9c
        Signature Algorithm: md5WithRSAEncryption
        Issuer: C=DE, ST=Saarland, O=MPI-SWS, OU=Distributed Systems Group, CN=Andreas Haeberlen/emailAddress=democa@octarine.de
        Validity
            Not Before: Apr 20 20:47:16 2015 GMT
            Not After : Apr 19 20:47:16 2016 GMT
        Subject: C=DE, ST=Saarland, O=MPI-SWS, OU=Distributed Systems Group, CN=50410065186fb16d794736238b8429679b8acffd/emailAddress=node0452@octarine.de
        Subject Public Key Info:
            Public Key Algorithm: rsaEncryption
            RSA Public Key: (1024 bit)
                Modulus (1024 bit):
                    00:b5:31:df:2b:bc:b4:f5:94:57:69:66:b8:f3:91:
                    29:c2:d5:41:87:5b:33:df:d7:15:6a:a3:c0:b2:5c:
                    46:85:65:85:e4:9d:57:23:42:6e:7f:11:62:bf:b9:
                    67:29:ab:04:54:b6:04:a1:1d:88:86:a2:bd:bc:0c:
                    45:5a:4d:18:3b:6b:8d:cf:cf:27:7b:3d:c8:1b:76:
                    22:f0:e1:3c:2e:bc:f2:e1:5e:3b:59:c3:4f:a8:26:
                    2d:80:46:6b:88:fd:cf:b0:24:09:da:41:d3:de:42:
                    c8:d9:a1:01:3b:c7:0b:13:bf:0e:04:43:4d:36:2d:
                    d3:3b:40:da:c1:fe:a1:db:1b
                Exponent: 65537 (0x10001)
    Signature Algorithm: md5WithRSAEncryption
        67:78:cc:30:b5:cf:35:a3:90:10:d2:57:ce:83:ea:c1:e4:fc:
        55:b2:35:71:f5:56:48:7c:c5:67:77:35:bb:5c:9b:3b:90:ad:
        f7:97:4d:69:54:1c:c8:a2:f3:0f:8b:c5:c2:29:1f:50:9b:4b:
        93:a4:9f:75:e8:e3:d3:9b:e1:d5:81:20:00:7d:76:8f:47:83:
        94:75:0e:b7:2f:ab:e1:28:03:7e:eb:47:0a:16:0b:29:6d:dc:
        6c:ff:91:e3:75:4a:4d:ea:06:28:9b:a7:57:d5:60:9f:71:1f:
        d3:5b:85:3f:f8:8f:13:94:37:de:06:91:df:d2:ff:4a:18:cd:
        88:b1
-----BEGIN CERTIFICATE-----
MIICvDCCAiUCCQCbJ9fo0boJnDANBgkqhkiG9w0BAQQFADCBlTELMAkGA1UEBhMC
REUxETAPBgNVBAgTCFNhYXJsYW5kMRAwDgYDVQQKEwdNUEktU1dTMSIwIAYDVQQL
ExlEaXN0cmlidXRlZCBTeXN0ZW1zIEdyb3VwMRowGAYDVQQDExFBbmRyZWFzIEhh
ZWJlcmxlbjEhMB8GCSqGSIb3DQEJARYSZGVtb2NhQG9jdGFyaW5lLmRlMB4XDTE1
MDQyMDIwNDcxNloXDTE2MDQxOTIwNDcxNlowga4xCzAJBgNVBAYTAkRFMREwDwYD
VQQIEwhTYWFybGFuZDEQMA4GA1UEChMHTVBJLVNXUzEiMCAGA1UECxMZRGlzdHJp
YnV0ZWQgU3lzdGVtcyBHcm91cDExMC8GA1UEAxMoNTA0MTAwNjUxODZmYjE2ZDc5
NDczNjIzOGI4NDI5Njc5YjhhY2ZmZDEjMCEGCSqGSIb3DQEJARYUbm9kZTA0NTJA
b2N0YXJpbmUuZGUwgZ8wDQYJKoZIhvcNAQEBBQADgY0AMIGJAoGBALUx3yu8tPWU
V2lmuPORKcLVQYdbM9/XFWqjwLJcRoVlheSdVyNCbn8RYr+5ZymrBFS2BKEdiIai
vbwMRVpNGDtrjc/PJ3s9yBt2IvDhPC688uFeO1nDT6gmLYBGa4j9z7AkCdpB095C
yNmhATvHCxO/DgRDTTYt0ztA2sH+odsbAgMBAAEwDQYJKoZIhvcNAQEEBQADgYEA
Z3jMMLXPNaOQENJXzoPqweT8VbI1cfVWSHzFZ3c1u1ybO5Ct95dNaVQcyKLzD4vF
wikfUJtLk6Sfdejj05vh1YEgAH12j0eDlHUOty+r4SgDfutHChYLKW3cbP+R43VK
TeoGKJunV9Vgn3Ef01uFP/iPE5Q33gaR39L/ShjNiLE=
-----END CERTIFICATE-----
