Certificate:
    Data:
        Version: 1 (0x0)
        Serial Number:
            9b:27:d7:e8:d1:ba:0b:27
        Signature Algorithm: md5WithRSAEncryption
        Issuer: C=DE, ST=Saarland, O=MPI-SWS, OU=Distributed Systems Group, CN=Andreas Haeberlen/emailAddress=democa@octarine.de
        Validity
            Not Before: Apr 20 20:47:34 2015 GMT
            Not After : Apr 19 20:47:34 2016 GMT
        Subject: C=DE, ST=Saarland, O=MPI-SWS, OU=Distributed Systems Group, CN=0c311d6f2fab4b29c4605e56bb47f3cfff10d7f0/emailAddress=node0847@octarine.de
        Subject Public Key Info:
            Public Key Algorithm: rsaEncryption
            RSA Public Key: (1024 bit)
                Modulus (1024 bit):
                    00:c9:dc:e0:c4:df:72:41:23:96:0d:39:9b:52:8f:
                    9b:5d:37:ab:d6:45:c6:80:fd:83:22:4c:9d:80:98:
                    67:e7:56:00:b8:0f:ea:37:25:cb:c4:9e:90:94:c8:
                    46:76:1d:64:0f:f6:15:67:fe:7a:a5:b2:09:b7:be:
                    d3:46:d3:6e:dd:b0:88:a2:01:42:ad:54:4e:2f:12:
                    dc:e9:2e:ba:5b:23:71:cd:c5:41:55:83:44:af:ee:
                    d6:53:67:66:29:03:26:78:f5:4c:66:c4:f7:24:8c:
                    d5:b2:dc:90:87:cf:28:d5:2d:d3:a1:00:0c:e5:de:
                    42:7d:60:58:62:61:d7:12:4f
                Exponent: 65537 (0x10001)
    Signature Algorithm: md5WithRSAEncryption
        47:56:90:c9:95:99:87:50:9c:aa:9f:09:e7:9b:e8:00:1e:6b:
        90:26:fa:b7:fa:15:f5:16:6d:42:7b:94:48:e0:09:10:53:99:
        d8:52:dc:c2:1f:b8:6b:4f:a3:48:b0:33:7c:dc:2c:44:4f:a0:
        9e:4f:b1:c1:89:f4:81:e5:18:1e:d8:54:81:34:1e:29:0a:0c:
        b0:97:d8:06:cf:29:ab:dc:3c:cd:3a:14:45:47:4f:78:ed:cf:
        01:c0:36:33:cd:39:ef:b5:1e:4b:04:db:97:ef:88:98:a4:37:
        3c:27:6b:9b:e6:da:b0:09:83:5f:e4:3c:8a:93:9f:58:f8:87:
        64:5b
-----BEGIN CERTIFICATE-----
MIICvDCCAiUCCQCbJ9fo0boLJzANBgkqhkiG9w0BAQQFADCBlTELMAkGA1UEBhMC
REUxETAPBgNVBAgTCFNhYXJsYW5kMRAwDgYDVQQKEwdNUEktU1dTMSIwIAYDVQQL
ExlEaXN0cmlidXRlZCBTeXN0ZW1zIEdyb3VwMRowGAYDVQQDExFBbmRyZWFzIEhh
ZWJlcmxlbjEhMB8GCSqGSIb3DQEJARYSZGVtb2NhQG9jdGFyaW5lLmRlMB4XDTE1
MDQyMDIwNDczNFoXDTE2MDQxOTIwNDczNFowga4xCzAJBgNVBAYTAkRFMREwDwYD
VQQIEwhTYWFybGFuZDEQMA4GA1UEChMHTVBJLVNXUzEiMCAGA1UECxMZRGlzdHJp
YnV0ZWQgU3lzdGVtcyBHcm91cDExMC8GA1UEAxMoMGMzMTFkNmYyZmFiNGIyOWM0
NjA1ZTU2YmI0N2YzY2ZmZjEwZDdmMDEjMCEGCSqGSIb3DQEJARYUbm9kZTA4NDdA
b2N0YXJpbmUuZGUwgZ8wDQYJKoZIhvcNAQEBBQADgY0AMIGJAoGBAMnc4MTfckEj
lg05m1KPm103q9ZFxoD9gyJMnYCYZ+dWALgP6jcly8SekJTIRnYdZA/2FWf+eqWy
Cbe+00bTbt2wiKIBQq1UTi8S3Okuulsjcc3FQVWDRK/u1lNnZikDJnj1TGbE9ySM
1bLckIfPKNUt06EADOXeQn1gWGJh1xJPAgMBAAEwDQYJKoZIhvcNAQEEBQADgYEA
R1aQyZWZh1Ccqp8J55voAB5rkCb6t/oV9RZtQnuUSOAJEFOZ2FLcwh+4a0+jSLAz
fNwsRE+gnk+xwYn0geUYHthUgTQeKQoMsJfYBs8pq9w8zToURUdPeO3PAcA2M805
77UeSwTbl++ImKQ3PCdrm+basAmDX+Q8ipOfWPiHZFs=
-----END CERTIFICATE-----
