Certificate:
    Data:
        Version: 1 (0x0)
        Serial Number:
            9b:27:d7:e8:d1:ba:09:08
        Signature Algorithm: md5WithRSAEncryption
        Issuer: C=DE, ST=Saarland, O=MPI-SWS, OU=Distributed Systems Group, CN=Andreas Haeberlen/emailAddress=democa@octarine.de
        Validity
            Not Before: Apr 20 20:47:10 2015 GMT
            Not After : Apr 19 20:47:10 2016 GMT
        Subject: C=DE, ST=Saarland, O=MPI-SWS, OU=Distributed Systems Group, CN=7d76d262d11ab7824ed2e43224c8fc16a9d7b398/emailAddress=node0304@octarine.de
        Subject Public Key Info:
            Public Key Algorithm: rsaEncryption
            RSA Public Key: (1024 bit)
                Modulus (1024 bit):
                    00:ab:4e:8f:c7:12:ea:a3:52:16:44:19:0b:06:c3:
                    c1:1d:98:43:e4:e2:a2:d6:2f:37:61:6e:fc:0f:43:
                    64:9f:7e:d3:a2:e8:6c:a0:10:ca:92:f4:e9:1b:fd:
                    ee:ae:ea:fc:81:67:2e:0d:ac:2f:2d:ca:f9:ee:78:
                    7c:62:52:70:c9:c3:cd:25:dc:89:6b:ea:07:bc:90:
                    5e:da:e7:73:e8:70:e2:7e:08:77:b4:87:b3:3d:a6:
                    44:3b:2d:be:3b:e1:77:43:ea:28:b4:8f:47:13:6d:
                    90:17:c1:5f:d5:0b:28:70:08:52:f0:40:49:b1:cf:
                    bf:ef:3b:3e:ee:51:58:b0:e5
                Exponent: 65537 (0x10001)
    Signature Algorithm: md5WithRSAEncryption
        20:ec:ee:ed:df:3d:82:fa:e1:ba:21:8c:82:a5:65:11:72:96:
        5d:e7:86:61:01:5e:db:ef:77:d2:22:ea:27:54:fd:50:2a:f7:
        f1:c3:44:54:a4:0c:97:7d:f2:d0:10:f8:de:54:b6:aa:44:1a:
        c0:3f:e7:d5:eb:47:7a:9a:30:93:a3:d6:d5:2e:08:a0:75:0e:
        fa:8e:c8:c9:61:3b:b0:6e:de:96:1d:0d:c9:53:4b:8d:53:6c:
        04:f6:dd:2b:c3:fa:e9:a9:99:40:21:11:3b:e6:e4:b0:86:ab:
        58:4f:d6:56:03:82:e3:29:76:82:da:75:c2:9e:84:74:10:6d:
        9e:2f
-----BEGIN CERTIFICATE-----
MIICvDCCAiUCCQCbJ9fo0boJCDANBgkqhkiG9w0BAQQFADCBlTELMAkGA1UEBhMC
REUxETAPBgNVBAgTCFNhYXJsYW5kMRAwDgYDVQQKEwdNUEktU1dTMSIwIAYDVQQL
ExlEaXN0cmlidXRlZCBTeXN0ZW1zIEdyb3VwMRowGAYDVQQDExFBbmRyZWFzIEhh
ZWJlcmxlbjEhMB8GCSqGSIb3DQEJARYSZGVtb2NhQG9jdGFyaW5lLmRlMB4XDTE1
MDQyMDIwNDcxMFoXDTE2MDQxOTIwNDcxMFowga4xCzAJBgNVBAYTAkRFMREwDwYD
VQQIEwhTYWFybGFuZDEQMA4GA1UEChMHTVBJLVNXUzEiMCAGA1UECxMZRGlzdHJp
YnV0ZWQgU3lzdGVtcyBHcm91cDExMC8GA1UEAxMoN2Q3NmQyNjJkMTFhYjc4MjRl
ZDJlNDMyMjRjOGZjMTZhOWQ3YjM5ODEjMCEGCSqGSIb3DQEJARYUbm9kZTAzMDRA
b2N0YXJpbmUuZGUwgZ8wDQYJKoZIhvcNAQEBBQADgY0AMIGJAoGBAKtOj8cS6qNS
FkQZCwbDwR2YQ+TiotYvN2Fu/A9DZJ9+06LobKAQypL06Rv97q7q/IFnLg2sLy3K
+e54fGJScMnDzSXciWvqB7yQXtrnc+hw4n4Id7SHsz2mRDstvjvhd0PqKLSPRxNt
kBfBX9ULKHAIUvBASbHPv+87Pu5RWLDlAgMBAAEwDQYJKoZIhvcNAQEEBQADgYEA
IOzu7d89gvrhuiGMgqVlEXKWXeeGYQFe2+930iLqJ1T9UCr38cNEVKQMl33y0BD4
3lS2qkQawD/n1etHepowk6PW1S4IoHUO+o7IyWE7sG7elh0NyVNLjVNsBPbdK8P6
6amZQCERO+bksIarWE/WVgOC4yl2gtp1wp6EdBBtni8=
-----END CERTIFICATE-----
