Certificate:
    Data:
        Version: 1 (0x0)
        Serial Number:
            9b:27:d7:e8:d1:ba:09:f2
        Signature Algorithm: md5WithRSAEncryption
        Issuer: C=DE, ST=Saarland, O=MPI-SWS, OU=Distributed Systems Group, CN=Andreas Haeberlen/emailAddress=democa@octarine.de
        Validity
            Not Before: Apr 20 20:47:20 2015 GMT
            Not After : Apr 19 20:47:20 2016 GMT
        Subject: C=DE, ST=Saarland, O=MPI-SWS, OU=Distributed Systems Group, CN=16fb016b44707264a445ceb0f6452b5325e365ea/emailAddress=node0538@octarine.de
        Subject Public Key Info:
            Public Key Algorithm: rsaEncryption
            RSA Public Key: (1024 bit)
                Modulus (1024 bit):
                    00:c7:b3:95:b4:7d:cd:e6:c6:bc:ab:c8:dc:db:11:
                    72:ec:25:0a:97:73:29:ca:90:d7:ab:44:50:0b:69:
                    db:60:ba:10:9c:63:9c:61:d3:df:cb:4c:44:51:91:
                    2e:30:10:d2:bf:08:19:9a:ab:14:dc:e6:da:26:ad:
                    eb:e9:80:65:df:0d:88:58:66:36:d8:bb:7e:8f:c2:
                    03:a7:de:eb:59:f1:f8:4f:fd:ef:c9:48:2e:04:db:
                    d9:4a:98:36:29:48:7b:da:41:f7:c4:5f:1b:2b:64:
                    3d:be:7f:f2:62:bd:30:e0:4f:3e:1a:f5:27:61:04:
                    0f:76:f8:5b:4d:37:13:ab:3f
                Exponent: 65537 (0x10001)
    Signature Algorithm: md5WithRSAEncryption
        4e:32:a5:94:04:c2:70:4e:36:7b:e0:fd:10:cf:3d:46:c3:53:
        f0:59:f3:48:49:cd:10:89:1e:94:eb:37:66:64:5f:e5:e5:b7:
        57:21:08:31:70:15:86:f1:92:b9:f6:58:2c:be:43:71:ac:f3:
        39:1a:64:db:3a:fe:c8:47:3b:2c:0f:a6:af:c4:29:19:b7:af:
        fc:71:fe:d0:91:60:3b:20:59:00:c6:6c:58:5a:73:e1:12:b1:
        aa:4f:5e:15:d3:1a:4d:38:39:f7:50:08:19:04:9e:e2:bc:fc:
        d0:4c:4e:6a:ee:87:f3:62:3a:d1:de:40:ed:72:c8:9b:7e:69:
        8a:fb
-----BEGIN CERTIFICATE-----
MIICvDCCAiUCCQCbJ9fo0boJ8jANBgkqhkiG9w0BAQQFADCBlTELMAkGA1UEBhMC
REUxETAPBgNVBAgTCFNhYXJsYW5kMRAwDgYDVQQKEwdNUEktU1dTMSIwIAYDVQQL
ExlEaXN0cmlidXRlZCBTeXN0ZW1zIEdyb3VwMRowGAYDVQQDExFBbmRyZWFzIEhh
ZWJlcmxlbjEhMB8GCSqGSIb3DQEJARYSZGVtb2NhQG9jdGFyaW5lLmRlMB4XDTE1
MDQyMDIwNDcyMFoXDTE2MDQxOTIwNDcyMFowga4xCzAJBgNVBAYTAkRFMREwDwYD
VQQIEwhTYWFybGFuZDEQMA4GA1UEChMHTVBJLVNXUzEiMCAGA1UECxMZRGlzdHJp
YnV0ZWQgU3lzdGVtcyBHcm91cDExMC8GA1UEAxMoMTZmYjAxNmI0NDcwNzI2NGE0
NDVjZWIwZjY0NTJiNTMyNWUzNjVlYTEjMCEGCSqGSIb3DQEJARYUbm9kZTA1MzhA
b2N0YXJpbmUuZGUwgZ8wDQYJKoZIhvcNAQEBBQADgY0AMIGJAoGBAMezlbR9zebG
vKvI3NsRcuwlCpdzKcqQ16tEUAtp22C6EJxjnGHT38tMRFGRLjAQ0r8IGZqrFNzm
2iat6+mAZd8NiFhmNti7fo/CA6fe61nx+E/978lILgTb2UqYNilIe9pB98RfGytk
Pb5/8mK9MOBPPhr1J2EED3b4W003E6s/AgMBAAEwDQYJKoZIhvcNAQEEBQADgYEA
TjKllATCcE42e+D9EM89RsNT8FnzSEnNEIkelOs3ZmRf5eW3VyEIMXAVhvGSufZY
LL5DcazzORpk2zr+yEc7LA+mr8QpGbev/HH+0JFgOyBZAMZsWFpz4RKxqk9eFdMa
TTg591AIGQSe4rz80ExOau6H82I60d5A7XLIm35pivs=
-----END CERTIFICATE-----
