Certificate:
    Data:
        Version: 1 (0x0)
        Serial Number:
            9b:27:d7:e8:d1:ba:0a:48
        Signature Algorithm: md5WithRSAEncryption
        Issuer: C=DE, ST=Saarland, O=MPI-SWS, OU=Distributed Systems Group, CN=Andreas Haeberlen/emailAddress=democa@octarine.de
        Validity
            Not Before: Apr 20 20:47:24 2015 GMT
            Not After : Apr 19 20:47:24 2016 GMT
        Subject: C=DE, ST=Saarland, O=MPI-SWS, OU=Distributed Systems Group, CN=2e5fc51fb5d0903e0c719fca3f2b96ac4fb15d00/emailAddress=node0624@octarine.de
        Subject Public Key Info:
            Public Key Algorithm: rsaEncryption
            RSA Public Key: (1024 bit)
                Modulus (1024 bit):
                    00:b1:98:31:aa:4d:11:ed:56:c1:c6:01:c1:96:0d:
                    17:82:ae:58:3d:29:01:17:d9:e5:22:6f:84:39:60:
                    f0:63:76:fe:35:d3:7f:0c:a0:cb:5f:a7:6b:fb:75:
                    d6:42:d1:43:cc:ad:6d:8b:7f:24:23:6f:94:28:76:
                    ff:c8:48:e6:32:7b:c9:eb:d2:9e:ae:47:41:48:09:
                    92:d4:23:a7:02:a1:83:4d:50:05:df:5c:88:79:88:
                    b4:25:8d:29:f5:51:bc:a9:0e:58:4c:cc:9b:50:a9:
                    1c:1a:fe:ac:3b:1e:8e:89:ac:d3:bf:29:78:82:93:
                    5d:9b:0a:df:72:25:54:04:47
                Exponent: 65537 (0x10001)
    Signature Algorithm: md5WithRSAEncryption
        7a:4e:62:e4:d2:fd:a5:6d:85:9b:08:05:76:74:e3:86:ff:40:
        82:b6:50:6b:47:37:07:4f:8b:21:31:8d:5d:83:27:6a:39:4c:
        48:f0:53:58:96:55:5e:19:b4:f5:d1:db:8c:1f:a1:ac:79:9b:
        fd:71:3e:82:c3:67:2e:be:66:12:01:68:f0:bd:98:54:39:19:
        f7:e0:45:ed:a1:4f:dc:95:35:76:5f:f4:29:52:0f:18:5c:2b:
        8e:33:24:fb:3a:61:cc:07:4c:74:08:5a:3c:8b:3b:84:1c:f5:
        1e:7b:3a:73:e6:8e:9f:ce:62:8d:90:ec:58:29:57:d6:d7:3e:
        35:66
-----BEGIN CERTIFICATE-----
MIICvDCCAiUCCQCbJ9fo0boKSDANBgkqhkiG9w0BAQQFADCBlTELMAkGA1UEBhMC
REUxETAPBgNVBAgTCFNhYXJsYW5kMRAwDgYDVQQKEwdNUEktU1dTMSIwIAYDVQQL
ExlEaXN0cmlidXRlZCBTeXN0ZW1zIEdyb3VwMRowGAYDVQQDExFBbmRyZWFzIEhh
ZWJlcmxlbjEhMB8GCSqGSIb3DQEJARYSZGVtb2NhQG9jdGFyaW5lLmRlMB4XDTE1
MDQyMDIwNDcyNFoXDTE2MDQxOTIwNDcyNFowga4xCzAJBgNVBAYTAkRFMREwDwYD
VQQIEwhTYWFybGFuZDEQMA4GA1UEChMHTVBJLVNXUzEiMCAGA1UECxMZRGlzdHJp
YnV0ZWQgU3lzdGVtcyBHcm91cDExMC8GA1UEAxMoMmU1ZmM1MWZiNWQwOTAzZTBj
NzE5ZmNhM2YyYjk2YWM0ZmIxNWQwMDEjMCEGCSqGSIb3DQEJARYUbm9kZTA2MjRA
b2N0YXJpbmUuZGUwgZ8wDQYJKoZIhvcNAQEBBQADgY0AMIGJAoGBALGYMapNEe1W
wcYBwZYNF4KuWD0pARfZ5SJvhDlg8GN2/jXTfwygy1+na/t11kLRQ8ytbYt/JCNv
lCh2/8hI5jJ7yevSnq5HQUgJktQjpwKhg01QBd9ciHmItCWNKfVRvKkOWEzMm1Cp
HBr+rDsejoms078peIKTXZsK33IlVARHAgMBAAEwDQYJKoZIhvcNAQEEBQADgYEA
ek5i5NL9pW2FmwgFdnTjhv9AgrZQa0c3B0+LITGNXYMnajlMSPBTWJZVXhm09dHb
jB+hrHmb/XE+gsNnLr5mEgFo8L2YVDkZ9+BF7aFP3JU1dl/0KVIPGFwrjjMk+zph
zAdMdAhaPIs7hBz1Hns6c+aOn85ijZDsWClX1tc+NWY=
-----END CERTIFICATE-----
