Certificate:
    Data:
        Version: 1 (0x0)
        Serial Number:
            9b:27:d7:e8:d1:ba:09:b4
        Signature Algorithm: md5WithRSAEncryption
        Issuer: C=DE, ST=Saarland, O=MPI-SWS, OU=Distributed Systems Group, CN=Andreas Haeberlen/emailAddress=democa@octarine.de
        Validity
            Not Before: Apr 20 20:47:17 2015 GMT
            Not After : Apr 19 20:47:17 2016 GMT
        Subject: C=DE, ST=Saarland, O=MPI-SWS, OU=Distributed Systems Group, CN=0f483b139bd46da2bd7a75c557d7d1ee1364f878/emailAddress=node0476@octarine.de
        Subject Public Key Info:
            Public Key Algorithm: rsaEncryption
            RSA Public Key: (1024 bit)
                Modulus (1024 bit):
                    00:c8:d4:db:be:50:39:7b:62:46:c9:0e:2c:52:eb:
                    48:0a:ca:50:71:0e:97:85:4b:e5:6b:75:96:c5:7f:
                    d3:76:a6:54:c5:df:d6:ad:29:90:73:83:25:6f:97:
                    d5:b3:da:e9:74:a2:9d:f3:7a:4e:b4:37:1f:5d:fd:
                    ca:9b:46:78:08:5f:12:45:ac:c8:29:94:0a:28:ee:
                    58:01:7a:6d:de:8d:57:9e:a1:20:a2:1f:e2:9a:66:
                    47:8f:00:bb:e5:6b:20:2d:09:86:06:4b:bc:8e:af:
                    29:53:dc:b7:84:dd:e4:52:87:40:f1:91:49:ca:a4:
                    77:b5:94:bd:63:ae:cd:a7:77
                Exponent: 65537 (0x10001)
    Signature Algorithm: md5WithRSAEncryption
        10:25:72:d3:19:8a:22:b5:cd:1c:82:04:45:3a:08:91:e5:6e:
        80:1a:70:6e:7b:9c:63:88:dc:bd:74:24:d4:38:0f:f5:fc:3b:
        1f:30:0f:e5:06:a7:95:d1:7b:cd:f1:f9:9d:d1:f9:11:24:34:
        0f:ef:61:09:5e:41:63:8d:f3:ea:df:94:83:35:1d:bf:c6:5a:
        ed:b8:d5:17:76:9e:b9:2d:46:38:f5:e1:93:a2:91:90:34:4b:
        d7:95:fe:a5:7e:86:8d:be:60:0e:a2:7a:8b:e1:5d:58:7c:e3:
        37:23:14:b2:b8:e2:60:b1:00:f0:57:1c:12:97:6d:2b:93:86:
        65:f8
-----BEGIN CERTIFICATE-----
MIICvDCCAiUCCQCbJ9fo0boJtDANBgkqhkiG9w0BAQQFADCBlTELMAkGA1UEBhMC
REUxETAPBgNVBAgTCFNhYXJsYW5kMRAwDgYDVQQKEwdNUEktU1dTMSIwIAYDVQQL
ExlEaXN0cmlidXRlZCBTeXN0ZW1zIEdyb3VwMRowGAYDVQQDExFBbmRyZWFzIEhh
ZWJlcmxlbjEhMB8GCSqGSIb3DQEJARYSZGVtb2NhQG9jdGFyaW5lLmRlMB4XDTE1
MDQyMDIwNDcxN1oXDTE2MDQxOTIwNDcxN1owga4xCzAJBgNVBAYTAkRFMREwDwYD
VQQIEwhTYWFybGFuZDEQMA4GA1UEChMHTVBJLVNXUzEiMCAGA1UECxMZRGlzdHJp
YnV0ZWQgU3lzdGVtcyBHcm91cDExMC8GA1UEAxMoMGY0ODNiMTM5YmQ0NmRhMmJk
N2E3NWM1NTdkN2QxZWUxMzY0Zjg3ODEjMCEGCSqGSIb3DQEJARYUbm9kZTA0NzZA
b2N0YXJpbmUuZGUwgZ8wDQYJKoZIhvcNAQEBBQADgY0AMIGJAoGBAMjU275QOXti
RskOLFLrSArKUHEOl4VL5Wt1lsV/03amVMXf1q0pkHODJW+X1bPa6XSinfN6TrQ3
H139yptGeAhfEkWsyCmUCijuWAF6bd6NV56hIKIf4ppmR48Au+VrIC0JhgZLvI6v
KVPct4Td5FKHQPGRScqkd7WUvWOuzad3AgMBAAEwDQYJKoZIhvcNAQEEBQADgYEA
ECVy0xmKIrXNHIIERToIkeVugBpwbnucY4jcvXQk1DgP9fw7HzAP5QanldF7zfH5
ndH5ESQ0D+9hCV5BY43z6t+UgzUdv8Za7bjVF3aeuS1GOPXhk6KRkDRL15X+pX6G
jb5gDqJ6i+FdWHzjNyMUsrjiYLEA8FccEpdtK5OGZfg=
-----END CERTIFICATE-----
