Certificate:
    Data:
        Version: 1 (0x0)
        Serial Number:
            9b:27:d7:e8:d1:ba:09:fd
        Signature Algorithm: md5WithRSAEncryption
        Issuer: C=DE, ST=Saarland, O=MPI-SWS, OU=Distributed Systems Group, CN=Andreas Haeberlen/emailAddress=democa@octarine.de
        Validity
            Not Before: Apr 20 20:47:21 2015 GMT
            Not After : Apr 19 20:47:21 2016 GMT
        Subject: C=DE, ST=Saarland, O=MPI-SWS, OU=Distributed Systems Group, CN=761cb5c8446dc285d3802fa905d21ec94e603288/emailAddress=node0549@octarine.de
        Subject Public Key Info:
            Public Key Algorithm: rsaEncryption
            RSA Public Key: (1024 bit)
                Modulus (1024 bit):
                    00:95:a0:3f:8c:dd:75:61:df:8e:8b:8a:6a:5d:f3:
                    66:ce:de:4b:5f:66:5f:ec:db:5c:03:3b:65:83:a0:
                    69:9a:82:dc:55:e9:5d:24:05:83:ba:22:49:81:5e:
                    80:ea:cc:f7:c5:4a:c7:86:01:2b:30:b4:29:60:bd:
                    5b:65:9b:49:b0:a5:75:07:b1:2f:91:4d:8f:c4:3d:
                    22:28:97:4e:3e:01:ad:c8:17:2c:5d:8c:2d:2b:c4:
                    fc:e2:bf:24:d3:0a:f6:6f:3b:01:9f:1e:e4:22:31:
                    2e:00:b1:f2:98:8a:79:03:3a:a2:9d:0d:dc:b9:bb:
                    20:07:bf:64:15:5b:d6:a4:77
                Exponent: 65537 (0x10001)
    Signature Algorithm: md5WithRSAEncryption
        82:5b:71:c2:2c:4a:53:6e:bc:38:9f:fa:27:56:86:60:ae:b2:
        02:7f:52:a5:4f:0a:c3:49:fb:68:07:46:7d:f3:7d:13:99:4d:
        6c:92:ad:66:90:ef:da:0e:a2:5a:4c:80:b6:be:e9:8a:f3:e4:
        dd:03:8e:a9:c6:aa:db:37:5d:47:48:31:5b:30:e4:59:ea:eb:
        82:74:03:67:62:13:a4:43:a8:15:8e:56:03:eb:bd:01:9c:9b:
        c5:19:9d:02:ae:e3:72:7c:e3:dc:5e:a7:28:63:fc:a4:bb:3c:
        8e:91:a8:67:6b:90:6a:a5:e5:28:83:dd:f1:45:0a:4e:70:03:
        3e:d5
-----BEGIN CERTIFICATE-----
MIICvDCCAiUCCQCbJ9fo0boJ/TANBgkqhkiG9w0BAQQFADCBlTELMAkGA1UEBhMC
REUxETAPBgNVBAgTCFNhYXJsYW5kMRAwDgYDVQQKEwdNUEktU1dTMSIwIAYDVQQL
ExlEaXN0cmlidXRlZCBTeXN0ZW1zIEdyb3VwMRowGAYDVQQDExFBbmRyZWFzIEhh
ZWJlcmxlbjEhMB8GCSqGSIb3DQEJARYSZGVtb2NhQG9jdGFyaW5lLmRlMB4XDTE1
MDQyMDIwNDcyMVoXDTE2MDQxOTIwNDcyMVowga4xCzAJBgNVBAYTAkRFMREwDwYD
VQQIEwhTYWFybGFuZDEQMA4GA1UEChMHTVBJLVNXUzEiMCAGA1UECxMZRGlzdHJp
YnV0ZWQgU3lzdGVtcyBHcm91cDExMC8GA1UEAxMoNzYxY2I1Yzg0NDZkYzI4NWQz
ODAyZmE5MDVkMjFlYzk0ZTYwMzI4ODEjMCEGCSqGSIb3DQEJARYUbm9kZTA1NDlA
b2N0YXJpbmUuZGUwgZ8wDQYJKoZIhvcNAQEBBQADgY0AMIGJAoGBAJWgP4zddWHf
jouKal3zZs7eS19mX+zbXAM7ZYOgaZqC3FXpXSQFg7oiSYFegOrM98VKx4YBKzC0
KWC9W2WbSbCldQexL5FNj8Q9IiiXTj4BrcgXLF2MLSvE/OK/JNMK9m87AZ8e5CIx
LgCx8piKeQM6op0N3Lm7IAe/ZBVb1qR3AgMBAAEwDQYJKoZIhvcNAQEEBQADgYEA
gltxwixKU268OJ/6J1aGYK6yAn9SpU8Kw0n7aAdGffN9E5lNbJKtZpDv2g6iWkyA
tr7pivPk3QOOqcaq2zddR0gxWzDkWerrgnQDZ2ITpEOoFY5WA+u9AZybxRmdAq7j
cnzj3F6nKGP8pLs8jpGoZ2uQaqXlKIPd8UUKTnADPtU=
-----END CERTIFICATE-----
