Certificate:
    Data:
        Version: 1 (0x0)
        Serial Number:
            9b:27:d7:e8:d1:ba:08:84
        Signature Algorithm: md5WithRSAEncryption
        Issuer: C=DE, ST=Saarland, O=MPI-SWS, OU=Distributed Systems Group, CN=Andreas Haeberlen/emailAddress=democa@octarine.de
        Validity
            Not Before: Apr 20 20:47:04 2015 GMT
            Not After : Apr 19 20:47:04 2016 GMT
        Subject: C=DE, ST=Saarland, O=MPI-SWS, OU=Distributed Systems Group, CN=7ddac3927844026bb250079ab983333b106d4ffb/emailAddress=node0172@octarine.de
        Subject Public Key Info:
            Public Key Algorithm: rsaEncryption
            RSA Public Key: (1024 bit)
                Modulus (1024 bit):
                    00:cb:25:f3:bc:57:20:2f:a0:95:e1:50:50:6b:41:
                    d2:d4:c4:f5:64:6e:38:f3:90:12:02:92:3b:7d:55:
                    6c:48:aa:15:bc:84:c5:73:84:a4:1f:d0:5d:b7:dd:
                    e5:fa:66:62:48:4a:0b:38:d4:e4:41:5d:41:34:c7:
                    96:5b:e4:bc:0a:53:1f:31:96:0b:44:a3:be:6b:5e:
                    57:a0:2f:8e:3f:17:da:ad:6a:69:90:7e:4c:a0:60:
                    11:5e:c3:04:40:df:0e:03:d9:45:6b:5e:0d:62:12:
                    25:84:4b:d1:f0:84:75:f1:b8:e2:60:95:e8:22:67:
                    c3:c8:8f:29:37:d9:18:43:fd
                Exponent: 65537 (0x10001)
    Signature Algorithm: md5WithRSAEncryption
        0c:8f:7f:8b:30:86:a9:3c:ea:4e:a1:a9:e2:d3:ef:f1:ea:4b:
        f2:4f:e8:b8:7c:95:dd:5f:34:33:0b:b8:e9:f3:1c:c1:4f:51:
        8a:48:6b:fe:b0:af:05:09:93:8f:ee:07:21:62:70:80:db:c9:
        b8:21:f7:4f:3c:bd:cd:52:30:91:41:d1:ae:38:09:46:b1:01:
        4d:34:93:c0:98:fd:f5:d9:a4:9b:91:65:ac:54:4d:da:fb:6b:
        d2:d9:0c:f1:99:95:3e:73:63:a6:7a:ad:a4:c3:14:ca:13:3f:
        74:1e:c7:a0:a4:64:cc:a7:7e:45:a2:ca:31:d4:5c:bb:14:86:
        b5:fd
-----BEGIN CERTIFICATE-----
MIICvDCCAiUCCQCbJ9fo0boIhDANBgkqhkiG9w0BAQQFADCBlTELMAkGA1UEBhMC
REUxETAPBgNVBAgTCFNhYXJsYW5kMRAwDgYDVQQKEwdNUEktU1dTMSIwIAYDVQQL
ExlEaXN0cmlidXRlZCBTeXN0ZW1zIEdyb3VwMRowGAYDVQQDExFBbmRyZWFzIEhh
ZWJlcmxlbjEhMB8GCSqGSIb3DQEJARYSZGVtb2NhQG9jdGFyaW5lLmRlMB4XDTE1
MDQyMDIwNDcwNFoXDTE2MDQxOTIwNDcwNFowga4xCzAJBgNVBAYTAkRFMREwDwYD
VQQIEwhTYWFybGFuZDEQMA4GA1UEChMHTVBJLVNXUzEiMCAGA1UECxMZRGlzdHJp
YnV0ZWQgU3lzdGVtcyBHcm91cDExMC8GA1UEAxMoN2RkYWMzOTI3ODQ0MDI2YmIy
NTAwNzlhYjk4MzMzM2IxMDZkNGZmYjEjMCEGCSqGSIb3DQEJARYUbm9kZTAxNzJA
b2N0YXJpbmUuZGUwgZ8wDQYJKoZIhvcNAQEBBQADgY0AMIGJAoGBAMsl87xXIC+g
leFQUGtB0tTE9WRuOPOQEgKSO31VbEiqFbyExXOEpB/QXbfd5fpmYkhKCzjU5EFd
QTTHllvkvApTHzGWC0SjvmteV6Avjj8X2q1qaZB+TKBgEV7DBEDfDgPZRWteDWIS
JYRL0fCEdfG44mCV6CJnw8iPKTfZGEP9AgMBAAEwDQYJKoZIhvcNAQEEBQADgYEA
DI9/izCGqTzqTqGp4tPv8epL8k/ouHyV3V80Mwu46fMcwU9Rikhr/rCvBQmTj+4H
IWJwgNvJuCH3Tzy9zVIwkUHRrjgJRrEBTTSTwJj99dmkm5FlrFRN2vtr0tkM8ZmV
PnNjpnqtpMMUyhM/dB7HoKRkzKd+RaLKMdRcuxSGtf0=
-----END CERTIFICATE-----
