Certificate:
    Data:
        Version: 1 (0x0)
        Serial Number:
            9b:27:d7:e8:d1:ba:0a:ea
        Signature Algorithm: md5WithRSAEncryption
        Issuer: C=DE, ST=Saarland, O=MPI-SWS, OU=Distributed Systems Group, CN=Andreas Haeberlen/emailAddress=democa@octarine.de
        Validity
            Not Before: Apr 20 20:47:32 2015 GMT
            Not After : Apr 19 20:47:32 2016 GMT
        Subject: C=DE, ST=Saarland, O=MPI-SWS, OU=Distributed Systems Group, CN=2d5496d889ac1a704552ed22877eb9bd70116e9f/emailAddress=node0786@octarine.de
        Subject Public Key Info:
            Public Key Algorithm: rsaEncryption
            RSA Public Key: (1024 bit)
                Modulus (1024 bit):
                    00:ce:4e:a7:82:af:38:38:5c:75:23:66:02:0d:54:
                    43:52:1d:a3:5e:80:74:f8:b4:24:17:4c:ff:b5:9c:
                    7c:05:37:7f:50:00:fe:72:d5:6e:8a:73:f2:97:1f:
                    fb:33:b5:d9:47:1b:31:ba:d5:57:3d:ee:90:27:43:
                    04:66:cc:f6:25:4f:11:0c:d0:a0:8b:4a:50:30:63:
                    78:10:55:1d:12:35:16:38:d0:f5:18:66:fe:b9:e2:
                    a3:fb:da:19:bd:3a:a6:73:1c:c2:00:70:c3:05:5d:
                    f6:25:0d:b3:25:53:1c:98:c1:93:ee:dc:b4:6f:a3:
                    6c:2c:e4:b2:2f:22:15:55:b1
                Exponent: 65537 (0x10001)
    Signature Algorithm: md5WithRSAEncryption
        2e:e2:9e:53:1f:c9:c6:0c:4f:63:72:cd:29:d3:f7:08:25:b8:
        af:85:32:f8:b8:44:e7:29:98:a7:ff:a7:f0:30:1f:ac:62:7e:
        14:e3:7c:ad:a9:d3:49:da:8c:21:25:37:01:74:eb:01:ee:eb:
        b9:fb:a6:06:52:9f:da:55:ec:92:ff:8b:3b:7a:26:21:94:dc:
        b0:d1:5f:36:31:3e:f4:07:ca:f3:a5:55:ba:06:9b:c1:7c:09:
        43:e9:fe:df:c8:b0:23:89:58:09:21:3c:f0:63:20:77:dd:62:
        2a:7d:d9:a8:18:f6:d5:3d:96:f5:76:37:cb:aa:a5:62:a6:e4:
        00:d6
-----BEGIN CERTIFICATE-----
MIICvDCCAiUCCQCbJ9fo0boK6jANBgkqhkiG9w0BAQQFADCBlTELMAkGA1UEBhMC
REUxETAPBgNVBAgTCFNhYXJsYW5kMRAwDgYDVQQKEwdNUEktU1dTMSIwIAYDVQQL
ExlEaXN0cmlidXRlZCBTeXN0ZW1zIEdyb3VwMRowGAYDVQQDExFBbmRyZWFzIEhh
ZWJlcmxlbjEhMB8GCSqGSIb3DQEJARYSZGVtb2NhQG9jdGFyaW5lLmRlMB4XDTE1
MDQyMDIwNDczMloXDTE2MDQxOTIwNDczMlowga4xCzAJBgNVBAYTAkRFMREwDwYD
VQQIEwhTYWFybGFuZDEQMA4GA1UEChMHTVBJLVNXUzEiMCAGA1UECxMZRGlzdHJp
YnV0ZWQgU3lzdGVtcyBHcm91cDExMC8GA1UEAxMoMmQ1NDk2ZDg4OWFjMWE3MDQ1
NTJlZDIyODc3ZWI5YmQ3MDExNmU5ZjEjMCEGCSqGSIb3DQEJARYUbm9kZTA3ODZA
b2N0YXJpbmUuZGUwgZ8wDQYJKoZIhvcNAQEBBQADgY0AMIGJAoGBAM5Op4KvODhc
dSNmAg1UQ1Ido16AdPi0JBdM/7WcfAU3f1AA/nLVbopz8pcf+zO12UcbMbrVVz3u
kCdDBGbM9iVPEQzQoItKUDBjeBBVHRI1FjjQ9Rhm/rnio/vaGb06pnMcwgBwwwVd
9iUNsyVTHJjBk+7ctG+jbCzksi8iFVWxAgMBAAEwDQYJKoZIhvcNAQEEBQADgYEA
LuKeUx/JxgxPY3LNKdP3CCW4r4Uy+LhE5ymYp/+n8DAfrGJ+FON8ranTSdqMISU3
AXTrAe7rufumBlKf2lXskv+LO3omIZTcsNFfNjE+9AfK86VVugabwXwJQ+n+38iw
I4lYCSE88GMgd91iKn3ZqBj21T2W9XY3y6qlYqbkANY=
-----END CERTIFICATE-----
