Certificate:
    Data:
        Version: 1 (0x0)
        Serial Number:
            9b:27:d7:e8:d1:ba:09:a0
        Signature Algorithm: md5WithRSAEncryption
        Issuer: C=DE, ST=Saarland, O=MPI-SWS, OU=Distributed Systems Group, CN=Andreas Haeberlen/emailAddress=democa@octarine.de
        Validity
            Not Before: Apr 20 20:47:16 2015 GMT
            Not After : Apr 19 20:47:16 2016 GMT
        Subject: C=DE, ST=Saarland, O=MPI-SWS, OU=Distributed Systems Group, CN=7d627bcb8a9505e2eb67539f3d71643d1a095c4d/emailAddress=node0456@octarine.de
        Subject Public Key Info:
            Public Key Algorithm: rsaEncryption
            RSA Public Key: (1024 bit)
                Modulus (1024 bit):
                    00:e8:f6:68:40:a4:8c:f4:49:62:42:f4:31:4f:2e:
                    5c:c3:d6:ae:cc:ca:4d:c4:ae:18:f3:e8:72:71:5c:
                    ea:d3:13:f9:a2:ed:d2:1e:e3:2a:07:93:29:b1:80:
                    8b:e8:a7:4f:af:f0:c8:79:90:14:eb:e4:6c:84:63:
                    30:4f:cc:11:0a:78:e4:23:68:7e:bd:ec:90:74:6c:
                    f8:32:99:8b:fd:7f:12:9d:61:1f:35:84:1b:9d:b4:
                    05:4e:7f:85:57:ef:eb:87:22:d8:4b:7b:07:dc:ae:
                    1d:97:cb:2a:45:92:bc:e0:35:ef:9a:20:14:ed:95:
                    99:68:2d:f7:4a:b7:2f:f7:01
                Exponent: 65537 (0x10001)
    Signature Algorithm: md5WithRSAEncryption
        73:a9:f9:ee:94:d2:57:47:65:b9:5c:4a:f7:dc:fe:4d:ce:0e:
        2b:5b:5f:49:ef:c4:28:1e:a0:ff:f9:c2:96:4c:0c:1f:38:ae:
        cf:c2:26:9c:b8:91:23:51:ef:10:62:e5:82:b8:0e:f5:60:73:
        5e:c5:c0:99:23:7a:9d:6d:05:38:09:f8:b7:ca:0a:04:96:e1:
        df:5d:f1:14:4d:9c:9c:86:dc:a2:7f:61:b3:fb:25:85:57:53:
        44:f8:65:9c:0f:69:f4:d6:d0:fd:b4:17:ed:54:ec:02:7c:50:
        e8:2d:0b:9d:f2:07:6d:c2:33:18:0b:ac:cd:af:6b:bd:13:55:
        77:68
-----BEGIN CERTIFICATE-----
MIICvDCCAiUCCQCbJ9fo0boJoDANBgkqhkiG9w0BAQQFADCBlTELMAkGA1UEBhMC
REUxETAPBgNVBAgTCFNhYXJsYW5kMRAwDgYDVQQKEwdNUEktU1dTMSIwIAYDVQQL
ExlEaXN0cmlidXRlZCBTeXN0ZW1zIEdyb3VwMRowGAYDVQQDExFBbmRyZWFzIEhh
ZWJlcmxlbjEhMB8GCSqGSIb3DQEJARYSZGVtb2NhQG9jdGFyaW5lLmRlMB4XDTE1
MDQyMDIwNDcxNloXDTE2MDQxOTIwNDcxNlowga4xCzAJBgNVBAYTAkRFMREwDwYD
VQQIEwhTYWFybGFuZDEQMA4GA1UEChMHTVBJLVNXUzEiMCAGA1UECxMZRGlzdHJp
YnV0ZWQgU3lzdGVtcyBHcm91cDExMC8GA1UEAxMoN2Q2MjdiY2I4YTk1MDVlMmVi
Njc1MzlmM2Q3MTY0M2QxYTA5NWM0ZDEjMCEGCSqGSIb3DQEJARYUbm9kZTA0NTZA
b2N0YXJpbmUuZGUwgZ8wDQYJKoZIhvcNAQEBBQADgY0AMIGJAoGBAOj2aECkjPRJ
YkL0MU8uXMPWrszKTcSuGPPocnFc6tMT+aLt0h7jKgeTKbGAi+inT6/wyHmQFOvk
bIRjME/MEQp45CNofr3skHRs+DKZi/1/Ep1hHzWEG520BU5/hVfv64ci2Et7B9yu
HZfLKkWSvOA175ogFO2VmWgt90q3L/cBAgMBAAEwDQYJKoZIhvcNAQEEBQADgYEA
c6n57pTSV0dluVxK99z+Tc4OK1tfSe/EKB6g//nClkwMHziuz8ImnLiRI1HvEGLl
grgO9WBzXsXAmSN6nW0FOAn4t8oKBJbh313xFE2cnIbcon9hs/slhVdTRPhlnA9p
9NbQ/bQX7VTsAnxQ6C0LnfIHbcIzGAusza9rvRNVd2g=
-----END CERTIFICATE-----
