Certificate:
    Data:
        Version: 1 (0x0)
        Serial Number:
            9b:27:d7:e8:d1:ba:0a:b5
        Signature Algorithm: md5WithRSAEncryption
        Issuer: C=DE, ST=Saarland, O=MPI-SWS, OU=Distributed Systems Group, CN=Andreas Haeberlen/emailAddress=democa@octarine.de
        Validity
            Not Before: Apr 20 20:47:29 2015 GMT
            Not After : Apr 19 20:47:29 2016 GMT
        Subject: C=DE, ST=Saarland, O=MPI-SWS, OU=Distributed Systems Group, CN=53e8fac945b2a34bf783e12eb783a38f76761405/emailAddress=node0733@octarine.de
        Subject Public Key Info:
            Public Key Algorithm: rsaEncryption
            RSA Public Key: (1024 bit)
                Modulus (1024 bit):
                    00:c2:d0:7a:51:8c:c9:5f:0b:aa:76:04:38:b6:f9:
                    26:b5:7b:30:14:19:47:57:ff:3b:91:63:28:50:8d:
                    ec:27:18:ef:6d:69:74:df:c4:e3:f5:b8:e7:9b:ab:
                    07:44:b8:78:e8:ed:fe:37:1d:8b:d6:ed:da:83:0c:
                    af:cd:96:f3:47:36:07:78:1c:14:38:52:96:b7:de:
                    a4:b1:47:3e:e2:ba:64:86:9e:b6:8b:19:b5:02:8f:
                    a4:a3:d2:22:51:2e:0d:b5:d2:8e:90:ef:43:69:8a:
                    16:ab:32:60:9a:d2:71:91:87:10:78:78:a6:60:e4:
                    bb:31:5d:cb:0b:5c:05:1d:af
                Exponent: 65537 (0x10001)
    Signature Algorithm: md5WithRSAEncryption
        7c:55:8a:6d:8a:2b:1e:b7:6b:6a:a5:cb:71:44:00:27:03:9c:
        6c:26:1f:f2:14:7c:e6:7f:5a:97:2b:51:a8:93:c4:c1:1e:94:
        78:93:ba:34:1e:53:81:7f:db:a8:0c:91:de:a7:af:40:99:2f:
        1c:1e:76:00:c5:c6:a5:33:0b:7a:61:00:b5:c8:15:94:fa:82:
        9e:43:34:55:ac:42:76:54:4d:21:67:b5:ef:b6:25:e0:82:31:
        e6:49:ec:69:2e:ee:85:66:39:d3:5b:1b:b4:48:71:e8:8c:b8:
        ea:9f:f8:f7:47:3f:3c:65:46:b2:d1:0c:bf:8e:5c:51:e0:50:
        04:57
-----BEGIN CERTIFICATE-----
MIICvDCCAiUCCQCbJ9fo0boKtTANBgkqhkiG9w0BAQQFADCBlTELMAkGA1UEBhMC
REUxETAPBgNVBAgTCFNhYXJsYW5kMRAwDgYDVQQKEwdNUEktU1dTMSIwIAYDVQQL
ExlEaXN0cmlidXRlZCBTeXN0ZW1zIEdyb3VwMRowGAYDVQQDExFBbmRyZWFzIEhh
ZWJlcmxlbjEhMB8GCSqGSIb3DQEJARYSZGVtb2NhQG9jdGFyaW5lLmRlMB4XDTE1
MDQyMDIwNDcyOVoXDTE2MDQxOTIwNDcyOVowga4xCzAJBgNVBAYTAkRFMREwDwYD
VQQIEwhTYWFybGFuZDEQMA4GA1UEChMHTVBJLVNXUzEiMCAGA1UECxMZRGlzdHJp
YnV0ZWQgU3lzdGVtcyBHcm91cDExMC8GA1UEAxMoNTNlOGZhYzk0NWIyYTM0YmY3
ODNlMTJlYjc4M2EzOGY3Njc2MTQwNTEjMCEGCSqGSIb3DQEJARYUbm9kZTA3MzNA
b2N0YXJpbmUuZGUwgZ8wDQYJKoZIhvcNAQEBBQADgY0AMIGJAoGBAMLQelGMyV8L
qnYEOLb5JrV7MBQZR1f/O5FjKFCN7CcY721pdN/E4/W455urB0S4eOjt/jcdi9bt
2oMMr82W80c2B3gcFDhSlrfepLFHPuK6ZIaetosZtQKPpKPSIlEuDbXSjpDvQ2mK
FqsyYJrScZGHEHh4pmDkuzFdywtcBR2vAgMBAAEwDQYJKoZIhvcNAQEEBQADgYEA
fFWKbYorHrdraqXLcUQAJwOcbCYf8hR85n9alytRqJPEwR6UeJO6NB5TgX/bqAyR
3qevQJkvHB52AMXGpTMLemEAtcgVlPqCnkM0VaxCdlRNIWe177Yl4IIx5knsaS7u
hWY501sbtEhx6Iy46p/490c/PGVGstEMv45cUeBQBFc=
-----END CERTIFICATE-----
