Certificate:
    Data:
        Version: 1 (0x0)
        Serial Number:
            9b:27:d7:e8:d1:ba:0b:16
        Signature Algorithm: md5WithRSAEncryption
        Issuer: C=DE, ST=Saarland, O=MPI-SWS, OU=Distributed Systems Group, CN=Andreas Haeberlen/emailAddress=democa@octarine.de
        Validity
            Not Before: Apr 20 20:47:33 2015 GMT
            Not After : Apr 19 20:47:33 2016 GMT
        Subject: C=DE, ST=Saarland, O=MPI-SWS, OU=Distributed Systems Group, CN=b03e50e86fdc639afc609b0ee43a88f4832e307a/emailAddress=node0830@octarine.de
        Subject Public Key Info:
            Public Key Algorithm: rsaEncryption
            RSA Public Key: (1024 bit)
                Modulus (1024 bit):
                    00:a9:e1:28:96:a7:ce:b7:f2:77:07:4c:60:6b:14:
                    e1:2f:24:04:4d:3c:64:6c:e8:c5:1d:06:78:d6:e2:
                    2c:f1:76:83:74:a9:a9:8d:c9:12:95:04:f6:ef:49:
                    9f:c5:6f:23:a4:ff:00:ad:e9:9b:03:6b:59:fb:c4:
                    29:5d:8c:cf:02:15:a0:7d:97:ba:04:a8:e5:1e:6c:
                    e3:2e:21:d2:28:88:f0:9b:7c:da:71:08:35:13:b2:
                    cf:88:95:4e:c4:ef:df:b2:af:ba:01:78:a0:4d:fd:
                    71:56:bd:31:1e:0e:ea:70:a6:16:e0:65:f5:90:51:
                    dd:b1:ce:89:b7:fe:b3:01:25
                Exponent: 65537 (0x10001)
    Signature Algorithm: md5WithRSAEncryption
        03:cd:6d:df:34:4d:7e:61:64:d7:66:3f:eb:08:0a:c8:a9:03:
        c8:40:24:16:5a:52:cb:09:3c:e4:47:86:fc:e8:76:47:1e:83:
        82:e2:93:6d:9c:14:54:0f:6d:9a:ae:7d:d4:ff:58:7c:2e:8b:
        1d:5b:7f:88:31:fe:d1:ac:a9:03:32:52:10:72:41:ea:81:1a:
        58:f3:53:fb:bf:0e:fd:c5:a7:4d:94:73:25:c9:d9:da:5d:fc:
        3d:bc:40:e1:20:0f:f3:85:7b:be:c5:53:17:20:d0:fd:a2:5a:
        33:f7:1f:d7:72:8e:ce:1d:25:bb:68:44:65:64:0b:e2:92:73:
        e6:33
-----BEGIN CERTIFICATE-----
MIICvDCCAiUCCQCbJ9fo0boLFjANBgkqhkiG9w0BAQQFADCBlTELMAkGA1UEBhMC
REUxETAPBgNVBAgTCFNhYXJsYW5kMRAwDgYDVQQKEwdNUEktU1dTMSIwIAYDVQQL
ExlEaXN0cmlidXRlZCBTeXN0ZW1zIEdyb3VwMRowGAYDVQQDExFBbmRyZWFzIEhh
ZWJlcmxlbjEhMB8GCSqGSIb3DQEJARYSZGVtb2NhQG9jdGFyaW5lLmRlMB4XDTE1
MDQyMDIwNDczM1oXDTE2MDQxOTIwNDczM1owga4xCzAJBgNVBAYTAkRFMREwDwYD
VQQIEwhTYWFybGFuZDEQMA4GA1UEChMHTVBJLVNXUzEiMCAGA1UECxMZRGlzdHJp
YnV0ZWQgU3lzdGVtcyBHcm91cDExMC8GA1UEAxMoYjAzZTUwZTg2ZmRjNjM5YWZj
NjA5YjBlZTQzYTg4ZjQ4MzJlMzA3YTEjMCEGCSqGSIb3DQEJARYUbm9kZTA4MzBA
b2N0YXJpbmUuZGUwgZ8wDQYJKoZIhvcNAQEBBQADgY0AMIGJAoGBAKnhKJanzrfy
dwdMYGsU4S8kBE08ZGzoxR0GeNbiLPF2g3SpqY3JEpUE9u9Jn8VvI6T/AK3pmwNr
WfvEKV2MzwIVoH2XugSo5R5s4y4h0iiI8Jt82nEINROyz4iVTsTv37KvugF4oE39
cVa9MR4O6nCmFuBl9ZBR3bHOibf+swElAgMBAAEwDQYJKoZIhvcNAQEEBQADgYEA
A81t3zRNfmFk12Y/6wgKyKkDyEAkFlpSywk85EeG/Oh2Rx6DguKTbZwUVA9tmq59
1P9YfC6LHVt/iDH+0aypAzJSEHJB6oEaWPNT+78O/cWnTZRzJcnZ2l38PbxA4SAP
84V7vsVTFyDQ/aJaM/cf13KOzh0lu2hEZWQL4pJz5jM=
-----END CERTIFICATE-----
