Certificate:
    Data:
        Version: 1 (0x0)
        Serial Number:
            9b:27:d7:e8:d1:ba:0a:62
        Signature Algorithm: md5WithRSAEncryption
        Issuer: C=DE, ST=Saarland, O=MPI-SWS, OU=Distributed Systems Group, CN=Andreas Haeberlen/emailAddress=democa@octarine.de
        Validity
            Not Before: Apr 20 20:47:25 2015 GMT
            Not After : Apr 19 20:47:25 2016 GMT
        Subject: C=DE, ST=Saarland, O=MPI-SWS, OU=Distributed Systems Group, CN=94b1c9c9d4e125b5eb60e6302172b944d069a238/emailAddress=node0650@octarine.de
        Subject Public Key Info:
            Public Key Algorithm: rsaEncryption
            RSA Public Key: (1024 bit)
                Modulus (1024 bit):
                    00:d4:22:c4:c5:eb:20:2f:3a:22:0c:e4:cd:24:eb:
                    36:f2:d5:89:8b:87:9d:68:f0:b2:8d:03:d7:16:ac:
                    ed:a2:e5:fe:88:e1:4c:68:87:25:1e:f8:2c:99:76:
                    fa:ed:c4:5d:0a:a2:57:98:2b:a8:70:4a:30:4b:63:
                    a8:d9:b1:5a:65:a3:73:48:28:a3:93:f1:74:45:d2:
                    da:38:39:61:45:ab:a4:56:15:2b:94:25:5d:c1:c2:
                    fd:4a:18:61:3d:1b:7f:fb:d6:ca:a5:4b:44:35:31:
                    87:40:87:02:e5:17:d2:f3:21:9c:05:8e:a6:c5:e6:
                    7e:6d:8a:3c:f6:7d:27:a9:b5
                Exponent: 65537 (0x10001)
    Signature Algorithm: md5WithRSAEncryption
        62:ee:f3:1d:99:61:7e:b6:d5:34:51:8a:9e:b1:c3:fa:04:09:
        f3:13:88:ba:f4:c0:3f:4b:73:bd:a7:9a:e7:6c:40:14:e2:16:
        a3:b5:9a:74:78:67:33:cb:b7:48:74:1f:24:9b:7e:fb:d9:bc:
        34:31:46:4c:bc:02:70:1c:9f:35:ac:35:91:9a:9c:ad:db:2c:
        0a:8e:29:26:20:8b:f8:11:0f:b1:76:2e:51:14:d2:a9:60:da:
        4a:1e:ae:e1:ef:09:d2:6a:cc:39:46:a9:22:91:f3:72:91:ce:
        99:8b:8d:0a:23:a9:c2:dd:7c:4d:25:eb:0b:7a:6f:4a:7e:28:
        36:2f
-----BEGIN CERTIFICATE-----
MIICvDCCAiUCCQCbJ9fo0boKYjANBgkqhkiG9w0BAQQFADCBlTELMAkGA1UEBhMC
REUxETAPBgNVBAgTCFNhYXJsYW5kMRAwDgYDVQQKEwdNUEktU1dTMSIwIAYDVQQL
ExlEaXN0cmlidXRlZCBTeXN0ZW1zIEdyb3VwMRowGAYDVQQDExFBbmRyZWFzIEhh
ZWJlcmxlbjEhMB8GCSqGSIb3DQEJARYSZGVtb2NhQG9jdGFyaW5lLmRlMB4XDTE1
MDQyMDIwNDcyNVoXDTE2MDQxOTIwNDcyNVowga4xCzAJBgNVBAYTAkRFMREwDwYD
VQQIEwhTYWFybGFuZDEQMA4GA1UEChMHTVBJLVNXUzEiMCAGA1UECxMZRGlzdHJp
YnV0ZWQgU3lzdGVtcyBHcm91cDExMC8GA1UEAxMoOTRiMWM5YzlkNGUxMjViNWVi
NjBlNjMwMjE3MmI5NDRkMDY5YTIzODEjMCEGCSqGSIb3DQEJARYUbm9kZTA2NTBA
b2N0YXJpbmUuZGUwgZ8wDQYJKoZIhvcNAQEBBQADgY0AMIGJAoGBANQixMXrIC86
IgzkzSTrNvLViYuHnWjwso0D1xas7aLl/ojhTGiHJR74LJl2+u3EXQqiV5grqHBK
MEtjqNmxWmWjc0goo5PxdEXS2jg5YUWrpFYVK5QlXcHC/UoYYT0bf/vWyqVLRDUx
h0CHAuUX0vMhnAWOpsXmfm2KPPZ9J6m1AgMBAAEwDQYJKoZIhvcNAQEEBQADgYEA
Yu7zHZlhfrbVNFGKnrHD+gQJ8xOIuvTAP0tzvaea52xAFOIWo7WadHhnM8u3SHQf
JJt++9m8NDFGTLwCcByfNaw1kZqcrdssCo4pJiCL+BEPsXYuURTSqWDaSh6u4e8J
0mrMOUapIpHzcpHOmYuNCiOpwt18TSXrC3pvSn4oNi8=
-----END CERTIFICATE-----
