Certificate:
    Data:
        Version: 1 (0x0)
        Serial Number:
            9b:27:d7:e8:d1:ba:08:a1
        Signature Algorithm: md5WithRSAEncryption
        Issuer: C=DE, ST=Saarland, O=MPI-SWS, OU=Distributed Systems Group, CN=Andreas Haeberlen/emailAddress=democa@octarine.de
        Validity
            Not Before: Apr 20 20:47:05 2015 GMT
            Not After : Apr 19 20:47:05 2016 GMT
        Subject: C=DE, ST=Saarland, O=MPI-SWS, OU=Distributed Systems Group, CN=bc7084c2563403028888b166ef05309fc0f55c7b/emailAddress=node0201@octarine.de
        Subject Public Key Info:
            Public Key Algorithm: rsaEncryption
            RSA Public Key: (1024 bit)
                Modulus (1024 bit):
                    00:d5:c1:31:0b:24:1a:12:89:52:9f:82:75:ae:72:
                    61:1d:08:57:01:57:0c:80:80:f9:94:11:b6:ef:7d:
                    c1:de:7f:ee:cd:92:00:05:3a:18:6b:55:9e:17:0b:
                    e0:97:05:d0:a4:45:72:2d:aa:24:a7:06:bf:1d:aa:
                    26:7c:ee:c9:9e:47:18:89:19:d8:0c:fc:0c:09:c6:
                    22:81:8c:c5:f8:ec:e2:5f:1b:86:ab:98:00:13:e9:
                    16:20:3c:b4:d1:15:63:e0:ba:07:5e:5b:55:cf:8e:
                    fd:08:11:71:0a:b7:db:30:a3:15:59:0b:44:6a:59:
                    e3:bd:a7:bc:70:1d:fd:29:c5
                Exponent: 65537 (0x10001)
    Signature Algorithm: md5WithRSAEncryption
        24:70:00:e6:d2:c8:53:15:64:70:da:b0:1c:db:61:96:0c:08:
        2d:1f:2f:c5:b0:5e:81:08:d8:ce:d1:86:72:78:24:57:54:da:
        3b:d7:08:d5:d6:13:62:69:6b:64:0b:44:c6:fc:09:c6:5d:95:
        09:4e:9e:b2:d7:72:08:f0:c4:32:14:04:c3:37:ec:df:ea:00:
        90:f3:4f:42:20:c8:1b:a3:69:78:d1:31:a9:71:e4:6c:53:a4:
        5a:97:fe:05:d6:9d:83:74:6c:e1:58:2d:ff:0b:d6:15:a7:e1:
        c1:34:36:9a:e9:0c:7a:23:ca:b5:e2:a7:d2:4f:65:99:23:f2:
        35:ff
-----BEGIN CERTIFICATE-----
MIICvDCCAiUCCQCbJ9fo0boIoTANBgkqhkiG9w0BAQQFADCBlTELMAkGA1UEBhMC
REUxETAPBgNVBAgTCFNhYXJsYW5kMRAwDgYDVQQKEwdNUEktU1dTMSIwIAYDVQQL
ExlEaXN0cmlidXRlZCBTeXN0ZW1zIEdyb3VwMRowGAYDVQQDExFBbmRyZWFzIEhh
ZWJlcmxlbjEhMB8GCSqGSIb3DQEJARYSZGVtb2NhQG9jdGFyaW5lLmRlMB4XDTE1
MDQyMDIwNDcwNVoXDTE2MDQxOTIwNDcwNVowga4xCzAJBgNVBAYTAkRFMREwDwYD
VQQIEwhTYWFybGFuZDEQMA4GA1UEChMHTVBJLVNXUzEiMCAGA1UECxMZRGlzdHJp
YnV0ZWQgU3lzdGVtcyBHcm91cDExMC8GA1UEAxMoYmM3MDg0YzI1NjM0MDMwMjg4
ODhiMTY2ZWYwNTMwOWZjMGY1NWM3YjEjMCEGCSqGSIb3DQEJARYUbm9kZTAyMDFA
b2N0YXJpbmUuZGUwgZ8wDQYJKoZIhvcNAQEBBQADgY0AMIGJAoGBANXBMQskGhKJ
Up+Cda5yYR0IVwFXDICA+ZQRtu99wd5/7s2SAAU6GGtVnhcL4JcF0KRFci2qJKcG
vx2qJnzuyZ5HGIkZ2Az8DAnGIoGMxfjs4l8bhquYABPpFiA8tNEVY+C6B15bVc+O
/QgRcQq32zCjFVkLRGpZ472nvHAd/SnFAgMBAAEwDQYJKoZIhvcNAQEEBQADgYEA
JHAA5tLIUxVkcNqwHNthlgwILR8vxbBegQjYztGGcngkV1TaO9cI1dYTYmlrZAtE
xvwJxl2VCU6estdyCPDEMhQEwzfs3+oAkPNPQiDIG6NpeNExqXHkbFOkWpf+Bdad
g3Rs4Vgt/wvWFafhwTQ2mukMeiPKteKn0k9lmSPyNf8=
-----END CERTIFICATE-----
