Certificate:
    Data:
        Version: 1 (0x0)
        Serial Number:
            9b:27:d7:e8:d1:ba:08:5f
        Signature Algorithm: md5WithRSAEncryption
        Issuer: C=DE, ST=Saarland, O=MPI-SWS, OU=Distributed Systems Group, CN=Andreas Haeberlen/emailAddress=democa@octarine.de
        Validity
            Not Before: Apr 20 20:47:03 2015 GMT
            Not After : Apr 19 20:47:03 2016 GMT
        Subject: C=DE, ST=Saarland, O=MPI-SWS, OU=Distributed Systems Group, CN=f8eb5692a906c4095711d1c6bc22d92d10876190/emailAddress=node0135@octarine.de
        Subject Public Key Info:
            Public Key Algorithm: rsaEncryption
            RSA Public Key: (1024 bit)
                Modulus (1024 bit):
                    00:d4:d8:5c:b8:2c:24:48:c1:a0:ce:94:81:3d:cc:
                    16:5a:6b:4a:11:75:b0:b6:e7:30:7e:d1:d8:03:d1:
                    85:27:7f:a0:59:4f:f6:fd:dc:7d:be:4a:85:20:ed:
                    a3:1e:08:a4:e4:5e:5b:95:61:86:9c:ee:20:24:78:
                    8b:4e:42:82:cb:70:7e:ce:0f:64:03:97:53:2f:35:
                    e8:54:f5:e3:8b:2f:c1:e4:c2:bc:51:82:ea:6c:05:
                    5f:ad:77:78:b3:ff:cd:52:d5:41:58:ce:1e:36:66:
                    88:f8:63:93:1f:26:39:c0:11:d9:44:d8:0c:35:da:
                    98:5a:93:32:21:f3:ab:8a:f9
                Exponent: 65537 (0x10001)
    Signature Algorithm: md5WithRSAEncryption
        a0:3c:d7:c5:ae:c1:c3:2a:7d:bc:1d:2f:cd:13:03:33:96:ba:
        d6:6b:f0:35:be:e9:e4:ec:d1:55:0b:fb:9a:b1:f4:0e:f6:a8:
        2c:8c:09:e6:8e:10:b2:2d:5b:6d:df:96:d9:5f:1f:9c:3d:a2:
        5b:69:12:53:d9:34:79:34:cf:c0:1d:11:0c:36:69:16:af:88:
        94:58:52:80:9c:94:94:52:38:e5:b4:f8:68:76:75:b7:3c:9d:
        2c:17:2f:3c:3c:60:9f:5c:af:7a:4c:72:28:10:46:4d:5f:e0:
        a6:e2:fd:9b:e1:bc:f7:57:f5:ec:ca:a1:e7:c5:39:41:32:51:
        01:2f
-----BEGIN CERTIFICATE-----
MIICvDCCAiUCCQCbJ9fo0boIXzANBgkqhkiG9w0BAQQFADCBlTELMAkGA1UEBhMC
REUxETAPBgNVBAgTCFNhYXJsYW5kMRAwDgYDVQQKEwdNUEktU1dTMSIwIAYDVQQL
ExlEaXN0cmlidXRlZCBTeXN0ZW1zIEdyb3VwMRowGAYDVQQDExFBbmRyZWFzIEhh
ZWJlcmxlbjEhMB8GCSqGSIb3DQEJARYSZGVtb2NhQG9jdGFyaW5lLmRlMB4XDTE1
MDQyMDIwNDcwM1oXDTE2MDQxOTIwNDcwM1owga4xCzAJBgNVBAYTAkRFMREwDwYD
VQQIEwhTYWFybGFuZDEQMA4GA1UEChMHTVBJLVNXUzEiMCAGA1UECxMZRGlzdHJp
YnV0ZWQgU3lzdGVtcyBHcm91cDExMC8GA1UEAxMoZjhlYjU2OTJhOTA2YzQwOTU3
MTFkMWM2YmMyMmQ5MmQxMDg3NjE5MDEjMCEGCSqGSIb3DQEJARYUbm9kZTAxMzVA
b2N0YXJpbmUuZGUwgZ8wDQYJKoZIhvcNAQEBBQADgY0AMIGJAoGBANTYXLgsJEjB
oM6UgT3MFlprShF1sLbnMH7R2APRhSd/oFlP9v3cfb5KhSDtox4IpOReW5Vhhpzu
ICR4i05Cgstwfs4PZAOXUy816FT144svweTCvFGC6mwFX613eLP/zVLVQVjOHjZm
iPhjkx8mOcAR2UTYDDXamFqTMiHzq4r5AgMBAAEwDQYJKoZIhvcNAQEEBQADgYEA
oDzXxa7Bwyp9vB0vzRMDM5a61mvwNb7p5OzRVQv7mrH0DvaoLIwJ5o4Qsi1bbd+W
2V8fnD2iW2kSU9k0eTTPwB0RDDZpFq+IlFhSgJyUlFI45bT4aHZ1tzydLBcvPDxg
n1yvekxyKBBGTV/gpuL9m+G891f17Mqh58U5QTJRAS8=
-----END CERTIFICATE-----
