Certificate:
    Data:
        Version: 1 (0x0)
        Serial Number:
            9b:27:d7:e8:d1:ba:0b:43
        Signature Algorithm: md5WithRSAEncryption
        Issuer: C=DE, ST=Saarland, O=MPI-SWS, OU=Distributed Systems Group, CN=Andreas Haeberlen/emailAddress=democa@octarine.de
        Validity
            Not Before: Apr 20 20:47:36 2015 GMT
            Not After : Apr 19 20:47:36 2016 GMT
        Subject: C=DE, ST=Saarland, O=MPI-SWS, OU=Distributed Systems Group, CN=4c1c33427e87b59e18b46e821b0cd242e6f29350/emailAddress=node0875@octarine.de
        Subject Public Key Info:
            Public Key Algorithm: rsaEncryption
            RSA Public Key: (1024 bit)
                Modulus (1024 bit):
                    00:cd:61:22:de:0d:99:dd:f4:5b:82:b9:a4:de:f4:
                    4e:78:82:5a:95:ab:1e:ca:a6:77:40:28:7f:ce:c9:
                    c1:fa:f2:0c:a8:7f:ed:d2:a6:95:16:55:d3:75:18:
                    53:26:b9:23:08:3e:da:da:56:21:7b:b0:b3:ca:95:
                    5b:4b:f9:af:0d:a1:ba:e1:e2:2d:78:80:fb:2f:f9:
                    cc:c7:7d:f6:d5:42:cb:55:cf:01:66:83:cb:90:ef:
                    86:9d:c1:75:1c:38:2e:5b:30:0d:94:3a:cd:49:d5:
                    cc:3b:c3:8a:25:7f:6b:07:6b:ff:58:b5:ab:60:fa:
                    7b:8e:76:ba:34:5f:fb:dc:b1
                Exponent: 65537 (0x10001)
    Signature Algorithm: md5WithRSAEncryption
        9c:a0:81:70:b5:4f:a7:64:7b:89:e5:bc:bc:4a:03:19:ad:19:
        19:20:58:f3:cc:54:c5:ed:fc:eb:6d:1b:d9:2d:d6:95:43:88:
        7f:cf:50:af:dc:e5:31:e4:f0:17:34:83:f8:53:62:46:bc:37:
        e3:ec:03:cd:cc:aa:45:fd:fe:5f:79:40:cb:9b:61:f2:6f:75:
        fb:3b:b7:aa:84:25:5f:af:06:91:93:6a:a4:4c:dc:a8:8c:2c:
        fc:3e:eb:56:a9:5e:d7:da:a2:0c:7b:30:ec:de:f5:e6:c3:59:
        77:99:37:ad:ca:53:70:60:51:84:49:f1:75:54:f3:0d:68:33:
        07:c4
-----BEGIN CERTIFICATE-----
MIICvDCCAiUCCQCbJ9fo0boLQzANBgkqhkiG9w0BAQQFADCBlTELMAkGA1UEBhMC
REUxETAPBgNVBAgTCFNhYXJsYW5kMRAwDgYDVQQKEwdNUEktU1dTMSIwIAYDVQQL
ExlEaXN0cmlidXRlZCBTeXN0ZW1zIEdyb3VwMRowGAYDVQQDExFBbmRyZWFzIEhh
ZWJlcmxlbjEhMB8GCSqGSIb3DQEJARYSZGVtb2NhQG9jdGFyaW5lLmRlMB4XDTE1
MDQyMDIwNDczNloXDTE2MDQxOTIwNDczNlowga4xCzAJBgNVBAYTAkRFMREwDwYD
VQQIEwhTYWFybGFuZDEQMA4GA1UEChMHTVBJLVNXUzEiMCAGA1UECxMZRGlzdHJp
YnV0ZWQgU3lzdGVtcyBHcm91cDExMC8GA1UEAxMoNGMxYzMzNDI3ZTg3YjU5ZTE4
YjQ2ZTgyMWIwY2QyNDJlNmYyOTM1MDEjMCEGCSqGSIb3DQEJARYUbm9kZTA4NzVA
b2N0YXJpbmUuZGUwgZ8wDQYJKoZIhvcNAQEBBQADgY0AMIGJAoGBAM1hIt4Nmd30
W4K5pN70TniCWpWrHsqmd0Aof87JwfryDKh/7dKmlRZV03UYUya5Iwg+2tpWIXuw
s8qVW0v5rw2huuHiLXiA+y/5zMd99tVCy1XPAWaDy5Dvhp3BdRw4LlswDZQ6zUnV
zDvDiiV/awdr/1i1q2D6e452ujRf+9yxAgMBAAEwDQYJKoZIhvcNAQEEBQADgYEA
nKCBcLVPp2R7ieW8vEoDGa0ZGSBY88xUxe38620b2S3WlUOIf89Qr9zlMeTwFzSD
+FNiRrw34+wDzcyqRf3+X3lAy5th8m91+zu3qoQlX68GkZNqpEzcqIws/D7rVqle
19qiDHsw7N715sNZd5k3rcpTcGBRhEnxdVTzDWgzB8Q=
-----END CERTIFICATE-----
