Certificate:
    Data:
        Version: 1 (0x0)
        Serial Number:
            9b:27:d7:e8:d1:ba:09:0c
        Signature Algorithm: md5WithRSAEncryption
        Issuer: C=DE, ST=Saarland, O=MPI-SWS, OU=Distributed Systems Group, CN=Andreas Haeberlen/emailAddress=democa@octarine.de
        Validity
            Not Before: Apr 20 20:47:10 2015 GMT
            Not After : Apr 19 20:47:10 2016 GMT
        Subject: C=DE, ST=Saarland, O=MPI-SWS, OU=Distributed Systems Group, CN=7dcbc77249188e364205485c793539cb68720e54/emailAddress=node0308@octarine.de
        Subject Public Key Info:
            Public Key Algorithm: rsaEncryption
            RSA Public Key: (1024 bit)
                Modulus (1024 bit):
                    00:a0:84:d8:ce:5b:c3:51:3e:c7:53:ef:98:ff:3e:
                    d9:25:b8:b2:49:5c:73:3b:bd:63:5a:ee:7f:77:fe:
                    43:f0:8e:d9:4d:64:a0:d4:89:de:41:3f:52:29:19:
                    96:8d:e9:07:a2:47:49:1f:f7:23:53:73:e8:20:56:
                    9a:b3:95:81:94:53:5b:c3:af:b0:ed:f4:5d:ec:b5:
                    b8:fc:9f:28:df:be:b4:fb:83:f6:92:67:19:35:78:
                    c3:8e:9f:c1:91:0c:db:79:ef:b4:ed:8c:73:b4:18:
                    4a:e6:ee:89:d0:65:55:63:55:d8:c3:30:e1:29:08:
                    c7:fd:c9:84:bc:2a:a4:ef:61
                Exponent: 65537 (0x10001)
    Signature Algorithm: md5WithRSAEncryption
        a3:c1:ce:77:aa:9d:a9:bb:6f:e6:c7:90:8e:37:15:a6:7d:79:
        0b:16:df:cd:9e:d9:18:3c:bf:eb:0d:ef:58:68:8e:fd:75:3c:
        ca:45:e2:ad:6a:be:61:0b:63:75:ba:84:84:ae:a2:5d:e8:8e:
        e4:c7:9f:0b:a2:c2:06:17:3a:70:68:0c:69:d1:3a:84:e3:cf:
        d3:e3:65:2c:31:8a:a9:4e:6f:29:87:c1:f9:14:cc:21:a0:57:
        b6:bf:8a:6d:b8:18:da:b7:ff:0c:2f:fb:2e:6f:52:5e:83:f0:
        68:d0:55:4d:1b:6d:40:03:bc:6c:f9:bf:38:5a:f5:ba:1d:dd:
        6e:ab
-----BEGIN CERTIFICATE-----
MIICvDCCAiUCCQCbJ9fo0boJDDANBgkqhkiG9w0BAQQFADCBlTELMAkGA1UEBhMC
REUxETAPBgNVBAgTCFNhYXJsYW5kMRAwDgYDVQQKEwdNUEktU1dTMSIwIAYDVQQL
ExlEaXN0cmlidXRlZCBTeXN0ZW1zIEdyb3VwMRowGAYDVQQDExFBbmRyZWFzIEhh
ZWJlcmxlbjEhMB8GCSqGSIb3DQEJARYSZGVtb2NhQG9jdGFyaW5lLmRlMB4XDTE1
MDQyMDIwNDcxMFoXDTE2MDQxOTIwNDcxMFowga4xCzAJBgNVBAYTAkRFMREwDwYD
VQQIEwhTYWFybGFuZDEQMA4GA1UEChMHTVBJLVNXUzEiMCAGA1UECxMZRGlzdHJp
YnV0ZWQgU3lzdGVtcyBHcm91cDExMC8GA1UEAxMoN2RjYmM3NzI0OTE4OGUzNjQy
MDU0ODVjNzkzNTM5Y2I2ODcyMGU1NDEjMCEGCSqGSIb3DQEJARYUbm9kZTAzMDhA
b2N0YXJpbmUuZGUwgZ8wDQYJKoZIhvcNAQEBBQADgY0AMIGJAoGBAKCE2M5bw1E+
x1PvmP8+2SW4sklcczu9Y1ruf3f+Q/CO2U1koNSJ3kE/UikZlo3pB6JHSR/3I1Nz
6CBWmrOVgZRTW8OvsO30Xey1uPyfKN++tPuD9pJnGTV4w46fwZEM23nvtO2Mc7QY
SubuidBlVWNV2MMw4SkIx/3JhLwqpO9hAgMBAAEwDQYJKoZIhvcNAQEEBQADgYEA
o8HOd6qdqbtv5seQjjcVpn15CxbfzZ7ZGDy/6w3vWGiO/XU8ykXirWq+YQtjdbqE
hK6iXeiO5MefC6LCBhc6cGgMadE6hOPP0+NlLDGKqU5vKYfB+RTMIaBXtr+KbbgY
2rf/DC/7Lm9SXoPwaNBVTRttQAO8bPm/OFr1uh3dbqs=
-----END CERTIFICATE-----
