Certificate:
    Data:
        Version: 1 (0x0)
        Serial Number:
            9b:27:d7:e8:d1:ba:0a:2d
        Signature Algorithm: md5WithRSAEncryption
        Issuer: C=DE, ST=Saarland, O=MPI-SWS, OU=Distributed Systems Group, CN=Andreas Haeberlen/emailAddress=democa@octarine.de
        Validity
            Not Before: Apr 20 20:47:23 2015 GMT
            Not After : Apr 19 20:47:23 2016 GMT
        Subject: C=DE, ST=Saarland, O=MPI-SWS, OU=Distributed Systems Group, CN=06ed4ab806b3b4d0f76130d1ef34bb9c28a626e2/emailAddress=node0597@octarine.de
        Subject Public Key Info:
            Public Key Algorithm: rsaEncryption
            RSA Public Key: (1024 bit)
                Modulus (1024 bit):
                    00:c2:0d:85:87:97:6e:6a:6d:42:47:f0:3f:6e:d1:
                    c5:45:2e:e4:fa:94:63:5d:e0:2e:1f:46:9f:28:fe:
                    ed:76:21:46:c9:3f:46:ea:f6:ce:ee:fb:cd:b6:c3:
                    87:5e:39:d7:a9:73:f1:ba:d5:54:53:ff:f5:49:76:
                    18:6c:30:e6:f0:be:9c:0c:d3:d0:df:e8:a3:bc:cc:
                    6b:9b:d4:c0:e9:15:a0:ab:97:bd:45:44:7e:01:54:
                    c1:8b:d9:6d:b0:f3:3d:ec:d0:ee:b6:d0:1e:b0:bf:
                    af:06:de:69:4b:d2:bf:ae:8c:4a:6a:b3:78:5f:f7:
                    80:8c:fe:a0:ad:77:e4:c2:99
                Exponent: 65537 (0x10001)
    Signature Algorithm: md5WithRSAEncryption
        c1:8f:b5:6b:bc:47:9d:76:a0:71:5c:3a:97:fa:61:4a:fb:e2:
        cb:af:fd:9d:5f:0b:27:a0:2c:41:a8:4d:f5:91:01:56:4d:92:
        1c:20:27:ea:3b:26:7d:ec:1c:70:8e:41:43:87:a0:bb:e4:fb:
        66:14:54:2a:54:a2:14:ca:90:38:38:ca:8b:db:83:1e:cc:ad:
        18:87:18:9f:70:a3:42:4d:d0:50:b5:c3:ba:ce:5e:86:96:67:
        4c:cc:4a:ec:9f:83:e8:07:7f:f7:7d:21:49:d7:4c:3b:22:14:
        19:b9:b0:32:ba:4f:ff:69:2c:b0:2e:30:2e:1a:0b:cd:c7:02:
        b3:07
-----BEGIN CERTIFICATE-----
MIICvDCCAiUCCQCbJ9fo0boKLTANBgkqhkiG9w0BAQQFADCBlTELMAkGA1UEBhMC
REUxETAPBgNVBAgTCFNhYXJsYW5kMRAwDgYDVQQKEwdNUEktU1dTMSIwIAYDVQQL
ExlEaXN0cmlidXRlZCBTeXN0ZW1zIEdyb3VwMRowGAYDVQQDExFBbmRyZWFzIEhh
ZWJlcmxlbjEhMB8GCSqGSIb3DQEJARYSZGVtb2NhQG9jdGFyaW5lLmRlMB4XDTE1
MDQyMDIwNDcyM1oXDTE2MDQxOTIwNDcyM1owga4xCzAJBgNVBAYTAkRFMREwDwYD
VQQIEwhTYWFybGFuZDEQMA4GA1UEChMHTVBJLVNXUzEiMCAGA1UECxMZRGlzdHJp
YnV0ZWQgU3lzdGVtcyBHcm91cDExMC8GA1UEAxMoMDZlZDRhYjgwNmIzYjRkMGY3
NjEzMGQxZWYzNGJiOWMyOGE2MjZlMjEjMCEGCSqGSIb3DQEJARYUbm9kZTA1OTdA
b2N0YXJpbmUuZGUwgZ8wDQYJKoZIhvcNAQEBBQADgY0AMIGJAoGBAMINhYeXbmpt
QkfwP27RxUUu5PqUY13gLh9Gnyj+7XYhRsk/Rur2zu77zbbDh14516lz8brVVFP/
9Ul2GGww5vC+nAzT0N/oo7zMa5vUwOkVoKuXvUVEfgFUwYvZbbDzPezQ7rbQHrC/
rwbeaUvSv66MSmqzeF/3gIz+oK135MKZAgMBAAEwDQYJKoZIhvcNAQEEBQADgYEA
wY+1a7xHnXagcVw6l/phSvviy6/9nV8LJ6AsQahN9ZEBVk2SHCAn6jsmfewccI5B
Q4egu+T7ZhRUKlSiFMqQODjKi9uDHsytGIcYn3CjQk3QULXDus5ehpZnTMxK7J+D
6Ad/930hSddMOyIUGbmwMrpP/2kssC4wLhoLzccCswc=
-----END CERTIFICATE-----
