Certificate:
    Data:
        Version: 1 (0x0)
        Serial Number:
            9b:27:d7:e8:d1:ba:0b:bd
        Signature Algorithm: md5WithRSAEncryption
        Issuer: C=DE, ST=Saarland, O=MPI-SWS, OU=Distributed Systems Group, CN=Andreas Haeberlen/emailAddress=democa@octarine.de
        Validity
            Not Before: Apr 20 20:47:41 2015 GMT
            Not After : Apr 19 20:47:41 2016 GMT
        Subject: C=DE, ST=Saarland, O=MPI-SWS, OU=Distributed Systems Group, CN=a4b4fa9031aa1bb0876ebdd1ce97a4049c88629a/emailAddress=node0997@octarine.de
        Subject Public Key Info:
            Public Key Algorithm: rsaEncryption
            RSA Public Key: (1024 bit)
                Modulus (1024 bit):
                    00:bc:20:07:08:33:87:dd:9f:4b:e0:67:79:19:0f:
                    bd:c4:aa:d2:db:a6:c6:aa:34:5b:a1:16:5e:04:c1:
                    5d:a1:b2:d7:d4:16:ca:cb:50:28:b5:b3:59:dc:8a:
                    fc:3d:b9:5a:89:95:72:e7:69:b4:34:25:53:59:6b:
                    4c:37:a3:39:ae:fe:7f:b0:5a:6e:b9:84:db:4c:1e:
                    68:b8:fe:a6:ae:f2:70:5d:3a:dd:ae:9a:9f:66:e9:
                    86:a8:2b:0d:ff:c7:d7:3b:c4:13:e0:16:fa:e5:ad:
                    6c:a8:39:34:43:98:46:5e:f6:ba:6d:8b:fa:1b:dd:
                    f3:54:ea:54:2b:a3:bd:9a:1f
                Exponent: 65537 (0x10001)
    Signature Algorithm: md5WithRSAEncryption
        c5:45:99:75:af:42:65:9d:6f:c3:22:76:ae:7f:98:b2:e9:1f:
        4e:50:05:5e:03:be:bc:72:7d:ae:72:b9:5a:d9:5c:a5:32:2f:
        2d:9c:ed:5a:02:1b:c0:1e:a0:47:ce:a6:ee:24:b6:79:57:a3:
        3f:d7:0c:80:03:d7:85:69:66:4f:77:f0:05:5b:15:5f:51:72:
        dd:eb:eb:28:f1:01:08:70:44:42:62:51:70:fd:4f:f3:b9:9a:
        5b:26:ff:c9:a0:98:6a:a1:b6:cb:db:10:ac:ea:8b:ea:f7:0c:
        c5:21:52:8b:c9:43:95:7b:30:34:18:ba:83:01:f6:f1:3c:07:
        0f:3e
-----BEGIN CERTIFICATE-----
MIICvDCCAiUCCQCbJ9fo0boLvTANBgkqhkiG9w0BAQQFADCBlTELMAkGA1UEBhMC
REUxETAPBgNVBAgTCFNhYXJsYW5kMRAwDgYDVQQKEwdNUEktU1dTMSIwIAYDVQQL
ExlEaXN0cmlidXRlZCBTeXN0ZW1zIEdyb3VwMRowGAYDVQQDExFBbmRyZWFzIEhh
ZWJlcmxlbjEhMB8GCSqGSIb3DQEJARYSZGVtb2NhQG9jdGFyaW5lLmRlMB4XDTE1
MDQyMDIwNDc0MVoXDTE2MDQxOTIwNDc0MVowga4xCzAJBgNVBAYTAkRFMREwDwYD
VQQIEwhTYWFybGFuZDEQMA4GA1UEChMHTVBJLVNXUzEiMCAGA1UECxMZRGlzdHJp
YnV0ZWQgU3lzdGVtcyBHcm91cDExMC8GA1UEAxMoYTRiNGZhOTAzMWFhMWJiMDg3
NmViZGQxY2U5N2E0MDQ5Yzg4NjI5YTEjMCEGCSqGSIb3DQEJARYUbm9kZTA5OTdA
b2N0YXJpbmUuZGUwgZ8wDQYJKoZIhvcNAQEBBQADgY0AMIGJAoGBALwgBwgzh92f
S+BneRkPvcSq0tumxqo0W6EWXgTBXaGy19QWystQKLWzWdyK/D25WomVcudptDQl
U1lrTDejOa7+f7BabrmE20weaLj+pq7ycF063a6an2bphqgrDf/H1zvEE+AW+uWt
bKg5NEOYRl72um2L+hvd81TqVCujvZofAgMBAAEwDQYJKoZIhvcNAQEEBQADgYEA
xUWZda9CZZ1vwyJ2rn+YsukfTlAFXgO+vHJ9rnK5WtlcpTIvLZztWgIbwB6gR86m
7iS2eVejP9cMgAPXhWlmT3fwBVsVX1Fy3evrKPEBCHBEQmJRcP1P87maWyb/yaCY
aqG2y9sQrOqL6vcMxSFSi8lDlXswNBi6gwH28TwHDz4=
-----END CERTIFICATE-----
