Certificate:
    Data:
        Version: 1 (0x0)
        Serial Number:
            9b:27:d7:e8:d1:ba:0a:78
        Signature Algorithm: md5WithRSAEncryption
        Issuer: C=DE, ST=Saarland, O=MPI-SWS, OU=Distributed Systems Group, CN=Andreas Haeberlen/emailAddress=democa@octarine.de
        Validity
            Not Before: Apr 20 20:47:26 2015 GMT
            Not After : Apr 19 20:47:26 2016 GMT
        Subject: C=DE, ST=Saarland, O=MPI-SWS, OU=Distributed Systems Group, CN=b1271dbd378200e0e54851f93dc06e91fc9194ed/emailAddress=node0672@octarine.de
        Subject Public Key Info:
            Public Key Algorithm: rsaEncryption
            RSA Public Key: (1024 bit)
                Modulus (1024 bit):
                    00:d4:33:93:94:ff:82:c6:5a:a7:27:72:29:9b:c5:
                    72:b9:6c:6b:da:02:02:a1:a0:50:0c:69:69:bc:f1:
                    05:dc:74:fb:49:9e:5a:76:ba:a0:85:32:b5:eb:84:
                    a7:25:5c:7f:a9:67:c5:9f:c3:ea:a5:48:6c:3d:b7:
                    b9:3f:8c:f6:30:24:48:5f:e0:5f:a0:7e:d7:3b:72:
                    54:c3:0a:5f:b2:6c:4e:6d:1b:29:b1:10:0f:68:25:
                    9c:02:67:15:53:ff:71:10:86:d2:44:ee:99:56:30:
                    97:48:8d:03:ed:19:1f:e7:46:80:02:5c:22:a7:0f:
                    85:dd:55:c9:87:20:69:21:c9
                Exponent: 65537 (0x10001)
    Signature Algorithm: md5WithRSAEncryption
        c7:18:fd:60:1e:78:b1:30:33:66:fd:dd:88:ea:af:ac:0f:7f:
        25:10:8d:5e:7b:60:87:76:46:b9:f4:9d:96:77:0b:9f:6e:05:
        12:81:2c:3c:ec:fa:96:ee:02:72:ec:82:79:c9:30:4e:b1:5e:
        d3:a9:90:c2:1f:21:b9:3f:9b:5b:b0:ea:5e:25:e8:0f:a9:2e:
        94:66:43:ee:e4:84:1c:af:fc:91:09:52:a5:84:e8:af:f7:21:
        de:c4:03:8e:d9:5c:67:e3:d0:21:0d:c7:e8:02:6b:67:7d:80:
        42:4e:aa:ac:f4:3f:0c:46:88:e0:4a:21:33:dc:30:b2:68:69:
        b4:b6
-----BEGIN CERTIFICATE-----
MIICvDCCAiUCCQCbJ9fo0boKeDANBgkqhkiG9w0BAQQFADCBlTELMAkGA1UEBhMC
REUxETAPBgNVBAgTCFNhYXJsYW5kMRAwDgYDVQQKEwdNUEktU1dTMSIwIAYDVQQL
ExlEaXN0cmlidXRlZCBTeXN0ZW1zIEdyb3VwMRowGAYDVQQDExFBbmRyZWFzIEhh
ZWJlcmxlbjEhMB8GCSqGSIb3DQEJARYSZGVtb2NhQG9jdGFyaW5lLmRlMB4XDTE1
MDQyMDIwNDcyNloXDTE2MDQxOTIwNDcyNlowga4xCzAJBgNVBAYTAkRFMREwDwYD
VQQIEwhTYWFybGFuZDEQMA4GA1UEChMHTVBJLVNXUzEiMCAGA1UECxMZRGlzdHJp
YnV0ZWQgU3lzdGVtcyBHcm91cDExMC8GA1UEAxMoYjEyNzFkYmQzNzgyMDBlMGU1
NDg1MWY5M2RjMDZlOTFmYzkxOTRlZDEjMCEGCSqGSIb3DQEJARYUbm9kZTA2NzJA
b2N0YXJpbmUuZGUwgZ8wDQYJKoZIhvcNAQEBBQADgY0AMIGJAoGBANQzk5T/gsZa
pydyKZvFcrlsa9oCAqGgUAxpabzxBdx0+0meWna6oIUyteuEpyVcf6lnxZ/D6qVI
bD23uT+M9jAkSF/gX6B+1ztyVMMKX7JsTm0bKbEQD2glnAJnFVP/cRCG0kTumVYw
l0iNA+0ZH+dGgAJcIqcPhd1VyYcgaSHJAgMBAAEwDQYJKoZIhvcNAQEEBQADgYEA
xxj9YB54sTAzZv3diOqvrA9/JRCNXntgh3ZGufSdlncLn24FEoEsPOz6lu4CcuyC
eckwTrFe06mQwh8huT+bW7DqXiXoD6kulGZD7uSEHK/8kQlSpYTor/ch3sQDjtlc
Z+PQIQ3H6AJrZ32AQk6qrPQ/DEaI4EohM9wwsmhptLY=
-----END CERTIFICATE-----
