Certificate:
    Data:
        Version: 1 (0x0)
        Serial Number:
            9b:27:d7:e8:d1:ba:09:d6
        Signature Algorithm: md5WithRSAEncryption
        Issuer: C=DE, ST=Saarland, O=MPI-SWS, OU=Distributed Systems Group, CN=Andreas Haeberlen/emailAddress=democa@octarine.de
        Validity
            Not Before: Apr 20 20:47:19 2015 GMT
            Not After : Apr 19 20:47:19 2016 GMT
        Subject: C=DE, ST=Saarland, O=MPI-SWS, OU=Distributed Systems Group, CN=768c9b1e3ff27c46dc29e0859790f447bd34853c/emailAddress=node0510@octarine.de
        Subject Public Key Info:
            Public Key Algorithm: rsaEncryption
            RSA Public Key: (1024 bit)
                Modulus (1024 bit):
                    00:c3:84:c2:7d:42:10:53:3d:82:9a:76:31:47:6a:
                    01:d3:b8:1e:84:b4:f5:b2:09:e5:67:63:b9:fa:fb:
                    4c:78:0b:20:90:08:03:dc:ae:52:ed:b8:97:c7:41:
                    62:1d:27:b4:16:b1:28:2c:24:df:c7:b3:9b:02:c8:
                    84:ba:f7:37:92:56:51:60:28:cf:53:c2:61:5c:1d:
                    39:98:56:8a:03:92:20:9a:de:c8:11:58:0d:3a:16:
                    82:ef:37:93:f4:4b:4a:b4:80:51:06:0e:d6:ca:fb:
                    dd:a9:89:d9:58:63:f0:c6:bd:28:a3:92:e5:d5:53:
                    a6:0c:81:3d:d2:c8:d5:86:1d
                Exponent: 65537 (0x10001)
    Signature Algorithm: md5WithRSAEncryption
        1c:e8:53:56:f1:78:98:f6:8a:1d:c7:ca:26:75:9c:df:ba:44:
        20:6a:a3:4c:dd:e5:3b:19:33:fa:38:c1:17:09:ad:63:b5:d0:
        02:ea:10:5d:a7:0d:9a:b2:ae:13:a0:24:a9:17:1e:da:10:0e:
        8e:1b:c2:9f:34:89:f8:ac:21:c6:e2:cf:1f:20:ef:79:b2:4f:
        68:bc:aa:d5:06:e6:38:0a:a9:2a:cc:6e:b5:12:d8:90:c7:f6:
        e0:a2:ef:cc:d7:ba:c4:6e:8f:72:45:52:0f:2f:43:2a:19:89:
        4d:0c:9c:da:d3:6b:2a:cc:e4:13:08:f5:ee:0b:49:62:30:52:
        3b:71
-----BEGIN CERTIFICATE-----
MIICvDCCAiUCCQCbJ9fo0boJ1jANBgkqhkiG9w0BAQQFADCBlTELMAkGA1UEBhMC
REUxETAPBgNVBAgTCFNhYXJsYW5kMRAwDgYDVQQKEwdNUEktU1dTMSIwIAYDVQQL
ExlEaXN0cmlidXRlZCBTeXN0ZW1zIEdyb3VwMRowGAYDVQQDExFBbmRyZWFzIEhh
ZWJlcmxlbjEhMB8GCSqGSIb3DQEJARYSZGVtb2NhQG9jdGFyaW5lLmRlMB4XDTE1
MDQyMDIwNDcxOVoXDTE2MDQxOTIwNDcxOVowga4xCzAJBgNVBAYTAkRFMREwDwYD
VQQIEwhTYWFybGFuZDEQMA4GA1UEChMHTVBJLVNXUzEiMCAGA1UECxMZRGlzdHJp
YnV0ZWQgU3lzdGVtcyBHcm91cDExMC8GA1UEAxMoNzY4YzliMWUzZmYyN2M0NmRj
MjllMDg1OTc5MGY0NDdiZDM0ODUzYzEjMCEGCSqGSIb3DQEJARYUbm9kZTA1MTBA
b2N0YXJpbmUuZGUwgZ8wDQYJKoZIhvcNAQEBBQADgY0AMIGJAoGBAMOEwn1CEFM9
gpp2MUdqAdO4HoS09bIJ5Wdjufr7THgLIJAIA9yuUu24l8dBYh0ntBaxKCwk38ez
mwLIhLr3N5JWUWAoz1PCYVwdOZhWigOSIJreyBFYDToWgu83k/RLSrSAUQYO1sr7
3amJ2Vhj8Ma9KKOS5dVTpgyBPdLI1YYdAgMBAAEwDQYJKoZIhvcNAQEEBQADgYEA
HOhTVvF4mPaKHcfKJnWc37pEIGqjTN3lOxkz+jjBFwmtY7XQAuoQXacNmrKuE6Ak
qRce2hAOjhvCnzSJ+KwhxuLPHyDvebJPaLyq1QbmOAqpKsxutRLYkMf24KLvzNe6
xG6PckVSDy9DKhmJTQyc2tNrKszkEwj17gtJYjBSO3E=
-----END CERTIFICATE-----
