Certificate:
    Data:
        Version: 1 (0x0)
        Serial Number:
            9b:27:d7:e8:d1:ba:0b:61
        Signature Algorithm: md5WithRSAEncryption
        Issuer: C=DE, ST=Saarland, O=MPI-SWS, OU=Distributed Systems Group, CN=Andreas Haeberlen/emailAddress=democa@octarine.de
        Validity
            Not Before: Apr 20 20:47:37 2015 GMT
            Not After : Apr 19 20:47:37 2016 GMT
        Subject: C=DE, ST=Saarland, O=MPI-SWS, OU=Distributed Systems Group, CN=c1a65480d2713d58481dfb86e318094dbf303b11/emailAddress=node0905@octarine.de
        Subject Public Key Info:
            Public Key Algorithm: rsaEncryption
            RSA Public Key: (1024 bit)
                Modulus (1024 bit):
                    00:d2:f6:36:9a:ad:21:83:b7:1c:6e:a9:51:30:47:
                    f7:91:9c:04:87:92:32:8b:7c:97:12:d6:e1:05:45:
                    c2:66:ce:ec:4d:16:c8:a1:02:a1:c2:90:32:cd:9f:
                    ab:2d:f6:13:48:98:c8:4f:ed:8a:21:ee:57:b2:41:
                    92:de:4a:d2:72:0d:fa:3e:92:20:25:bb:1b:1a:b2:
                    03:96:c3:9a:20:da:2c:3a:c2:0f:e5:36:93:78:d0:
                    83:65:d1:42:f6:2a:12:5e:6c:8a:b3:f6:ff:02:88:
                    9c:a8:9d:a5:0f:d7:1b:f7:38:18:19:5a:4e:a7:56:
                    15:0f:c5:04:7e:a2:8f:85:01
                Exponent: 65537 (0x10001)
    Signature Algorithm: md5WithRSAEncryption
        7e:93:77:2c:9a:51:18:b7:cd:5f:bc:ca:cd:cc:a9:ab:ef:0f:
        e8:44:36:8c:be:6a:9e:35:94:b6:93:82:5b:ae:24:1a:c6:3e:
        75:74:1a:9c:81:a3:c5:7f:9c:5d:c2:bf:2a:11:18:a6:11:7b:
        8e:92:34:16:0c:f7:e6:da:26:7b:43:d2:05:d5:12:2f:ff:87:
        31:14:42:f3:01:30:97:94:4a:17:be:4d:6a:9a:a9:2f:82:94:
        51:b5:23:cf:36:c7:d8:95:0b:d0:3a:8d:d1:6d:59:54:46:80:
        9e:5e:51:7c:1b:f6:46:a0:03:b3:3d:c6:37:2b:31:99:a3:97:
        be:ab
-----BEGIN CERTIFICATE-----
MIICvDCCAiUCCQCbJ9fo0boLYTANBgkqhkiG9w0BAQQFADCBlTELMAkGA1UEBhMC
REUxETAPBgNVBAgTCFNhYXJsYW5kMRAwDgYDVQQKEwdNUEktU1dTMSIwIAYDVQQL
ExlEaXN0cmlidXRlZCBTeXN0ZW1zIEdyb3VwMRowGAYDVQQDExFBbmRyZWFzIEhh
ZWJlcmxlbjEhMB8GCSqGSIb3DQEJARYSZGVtb2NhQG9jdGFyaW5lLmRlMB4XDTE1
MDQyMDIwNDczN1oXDTE2MDQxOTIwNDczN1owga4xCzAJBgNVBAYTAkRFMREwDwYD
VQQIEwhTYWFybGFuZDEQMA4GA1UEChMHTVBJLVNXUzEiMCAGA1UECxMZRGlzdHJp
YnV0ZWQgU3lzdGVtcyBHcm91cDExMC8GA1UEAxMoYzFhNjU0ODBkMjcxM2Q1ODQ4
MWRmYjg2ZTMxODA5NGRiZjMwM2IxMTEjMCEGCSqGSIb3DQEJARYUbm9kZTA5MDVA
b2N0YXJpbmUuZGUwgZ8wDQYJKoZIhvcNAQEBBQADgY0AMIGJAoGBANL2NpqtIYO3
HG6pUTBH95GcBIeSMot8lxLW4QVFwmbO7E0WyKECocKQMs2fqy32E0iYyE/tiiHu
V7JBkt5K0nIN+j6SICW7GxqyA5bDmiDaLDrCD+U2k3jQg2XRQvYqEl5sirP2/wKI
nKidpQ/XG/c4GBlaTqdWFQ/FBH6ij4UBAgMBAAEwDQYJKoZIhvcNAQEEBQADgYEA
fpN3LJpRGLfNX7zKzcypq+8P6EQ2jL5qnjWUtpOCW64kGsY+dXQanIGjxX+cXcK/
KhEYphF7jpI0Fgz35tome0PSBdUSL/+HMRRC8wEwl5RKF75NapqpL4KUUbUjzzbH
2JUL0DqN0W1ZVEaAnl5RfBv2RqADsz3GNysxmaOXvqs=
-----END CERTIFICATE-----
