Certificate:
    Data:
        Version: 1 (0x0)
        Serial Number:
            9b:27:d7:e8:d1:ba:0a:d0
        Signature Algorithm: md5WithRSAEncryption
        Issuer: C=DE, ST=Saarland, O=MPI-SWS, OU=Distributed Systems Group, CN=Andreas Haeberlen/emailAddress=democa@octarine.de
        Validity
            Not Before: Apr 20 20:47:30 2015 GMT
            Not After : Apr 19 20:47:30 2016 GMT
        Subject: C=DE, ST=Saarland, O=MPI-SWS, OU=Distributed Systems Group, CN=d41a11d96c10054d180bfebf34ac96c6be0dfe66/emailAddress=node0760@octarine.de
        Subject Public Key Info:
            Public Key Algorithm: rsaEncryption
            RSA Public Key: (1024 bit)
                Modulus (1024 bit):
                    00:e3:1c:dd:a8:9b:ab:24:32:8f:1d:12:24:f5:9f:
                    39:7a:32:9a:14:22:81:55:bc:fa:45:f1:fb:07:06:
                    ad:78:fb:3d:d2:73:03:3e:77:c5:d1:af:e5:50:39:
                    ee:69:c6:4d:90:6b:dc:fa:ab:21:e0:80:43:31:5a:
                    8b:c8:f2:00:94:31:fb:c5:36:b5:ee:33:8c:a4:06:
                    ac:8c:f3:9a:9c:f0:25:66:d5:b6:c0:d4:74:1f:d8:
                    fd:ee:da:df:07:46:4d:dd:43:51:37:46:ef:fa:79:
                    e4:b9:62:de:64:54:d4:3e:53:de:53:e8:5b:8b:5f:
                    c2:bb:d7:9c:5a:3e:ee:fa:1b
                Exponent: 65537 (0x10001)
    Signature Algorithm: md5WithRSAEncryption
        ca:fe:90:84:ae:bf:f0:b0:b8:69:07:13:b3:98:95:25:7f:ab:
        ff:34:fe:18:61:47:43:be:8b:cd:01:22:45:65:12:6b:0b:b8:
        a8:05:70:e2:ce:40:a8:5a:a0:15:d0:3f:99:6a:b4:16:9e:85:
        d7:4d:ad:ac:43:ab:f8:df:4b:cc:bc:3f:6e:4c:f3:a7:fb:6f:
        79:6d:41:89:52:77:26:f2:52:09:f7:63:39:ad:32:5b:0f:78:
        1c:36:e9:f1:5e:51:10:bc:72:3f:23:14:07:c5:b6:7a:99:29:
        7e:1e:8a:83:53:07:03:29:56:fe:db:89:52:cb:62:49:3d:11:
        ba:42
-----BEGIN CERTIFICATE-----
MIICvDCCAiUCCQCbJ9fo0boK0DANBgkqhkiG9w0BAQQFADCBlTELMAkGA1UEBhMC
REUxETAPBgNVBAgTCFNhYXJsYW5kMRAwDgYDVQQKEwdNUEktU1dTMSIwIAYDVQQL
ExlEaXN0cmlidXRlZCBTeXN0ZW1zIEdyb3VwMRowGAYDVQQDExFBbmRyZWFzIEhh
ZWJlcmxlbjEhMB8GCSqGSIb3DQEJARYSZGVtb2NhQG9jdGFyaW5lLmRlMB4XDTE1
MDQyMDIwNDczMFoXDTE2MDQxOTIwNDczMFowga4xCzAJBgNVBAYTAkRFMREwDwYD
VQQIEwhTYWFybGFuZDEQMA4GA1UEChMHTVBJLVNXUzEiMCAGA1UECxMZRGlzdHJp
YnV0ZWQgU3lzdGVtcyBHcm91cDExMC8GA1UEAxMoZDQxYTExZDk2YzEwMDU0ZDE4
MGJmZWJmMzRhYzk2YzZiZTBkZmU2NjEjMCEGCSqGSIb3DQEJARYUbm9kZTA3NjBA
b2N0YXJpbmUuZGUwgZ8wDQYJKoZIhvcNAQEBBQADgY0AMIGJAoGBAOMc3aibqyQy
jx0SJPWfOXoymhQigVW8+kXx+wcGrXj7PdJzAz53xdGv5VA57mnGTZBr3PqrIeCA
QzFai8jyAJQx+8U2te4zjKQGrIzzmpzwJWbVtsDUdB/Y/e7a3wdGTd1DUTdG7/p5
5Lli3mRU1D5T3lPoW4tfwrvXnFo+7vobAgMBAAEwDQYJKoZIhvcNAQEEBQADgYEA
yv6QhK6/8LC4aQcTs5iVJX+r/zT+GGFHQ76LzQEiRWUSawu4qAVw4s5AqFqgFdA/
mWq0Fp6F102trEOr+N9LzLw/bkzzp/tveW1BiVJ3JvJSCfdjOa0yWw94HDbp8V5R
ELxyPyMUB8W2epkpfh6Kg1MHAylW/tuJUstiST0RukI=
-----END CERTIFICATE-----
