Certificate:
    Data:
        Version: 1 (0x0)
        Serial Number:
            9b:27:d7:e8:d1:ba:08:f3
        Signature Algorithm: md5WithRSAEncryption
        Issuer: C=DE, ST=Saarland, O=MPI-SWS, OU=Distributed Systems Group, CN=Andreas Haeberlen/emailAddress=democa@octarine.de
        Validity
            Not Before: Apr 20 20:47:09 2015 GMT
            Not After : Apr 19 20:47:09 2016 GMT
        Subject: C=DE, ST=Saarland, O=MPI-SWS, OU=Distributed Systems Group, CN=e141c7422e3a302299befb46048f107f2c1e3506/emailAddress=node0283@octarine.de
        Subject Public Key Info:
            Public Key Algorithm: rsaEncryption
            RSA Public Key: (1024 bit)
                Modulus (1024 bit):
                    00:a6:d5:c1:6f:94:e3:d8:8d:ce:48:fc:a1:2c:9c:
                    14:1a:b4:8f:93:69:ab:b3:ea:ed:a2:03:9d:2e:0b:
                    d8:61:0c:7e:a6:3a:4a:df:71:f2:f9:27:f7:02:c2:
                    c8:84:8a:e4:f9:1a:a4:bd:78:1c:41:52:2f:dd:3e:
                    9c:9a:79:c7:49:9b:96:f6:a1:02:ad:5f:8c:ac:d7:
                    e5:5a:90:ff:f2:6e:bc:91:e5:0b:26:fe:1a:09:f2:
                    f5:2b:6b:47:41:82:42:96:9f:2f:d1:08:b6:36:66:
                    b2:af:f3:1e:5b:a3:f0:cd:b3:37:28:9d:0c:82:94:
                    ff:05:b8:06:d0:0e:97:48:cd
                Exponent: 65537 (0x10001)
    Signature Algorithm: md5WithRSAEncryption
        4b:d2:1c:5d:e9:a9:45:b2:f1:40:0b:e4:77:28:e7:cb:46:4a:
        81:04:24:fd:10:d4:4f:8a:5e:01:f8:d1:a3:7d:06:3f:0b:19:
        9d:9c:05:94:7c:7b:3e:1a:2b:df:97:12:09:63:e2:a8:25:bd:
        5a:1f:72:a3:19:fd:a8:54:f5:db:e8:44:ba:c9:c0:d3:c6:96:
        03:22:f0:2f:aa:99:f5:8c:6a:2c:ec:3b:0d:ea:9f:f5:08:1a:
        38:eb:ee:88:2d:b5:f0:1e:3c:95:9a:aa:e4:2a:80:c9:ed:fa:
        3a:8a:21:ed:70:e3:60:1b:91:c9:ab:a5:10:d6:ec:a0:e1:0a:
        a4:cd
-----BEGIN CERTIFICATE-----
MIICvDCCAiUCCQCbJ9fo0boI8zANBgkqhkiG9w0BAQQFADCBlTELMAkGA1UEBhMC
REUxETAPBgNVBAgTCFNhYXJsYW5kMRAwDgYDVQQKEwdNUEktU1dTMSIwIAYDVQQL
ExlEaXN0cmlidXRlZCBTeXN0ZW1zIEdyb3VwMRowGAYDVQQDExFBbmRyZWFzIEhh
ZWJlcmxlbjEhMB8GCSqGSIb3DQEJARYSZGVtb2NhQG9jdGFyaW5lLmRlMB4XDTE1
MDQyMDIwNDcwOVoXDTE2MDQxOTIwNDcwOVowga4xCzAJBgNVBAYTAkRFMREwDwYD
VQQIEwhTYWFybGFuZDEQMA4GA1UEChMHTVBJLVNXUzEiMCAGA1UECxMZRGlzdHJp
YnV0ZWQgU3lzdGVtcyBHcm91cDExMC8GA1UEAxMoZTE0MWM3NDIyZTNhMzAyMjk5
YmVmYjQ2MDQ4ZjEwN2YyYzFlMzUwNjEjMCEGCSqGSIb3DQEJARYUbm9kZTAyODNA
b2N0YXJpbmUuZGUwgZ8wDQYJKoZIhvcNAQEBBQADgY0AMIGJAoGBAKbVwW+U49iN
zkj8oSycFBq0j5Npq7Pq7aIDnS4L2GEMfqY6St9x8vkn9wLCyISK5PkapL14HEFS
L90+nJp5x0mblvahAq1fjKzX5VqQ//JuvJHlCyb+Ggny9StrR0GCQpafL9EItjZm
sq/zHluj8M2zNyidDIKU/wW4BtAOl0jNAgMBAAEwDQYJKoZIhvcNAQEEBQADgYEA
S9IcXempRbLxQAvkdyjny0ZKgQQk/RDUT4peAfjRo30GPwsZnZwFlHx7Phor35cS
CWPiqCW9Wh9yoxn9qFT12+hEusnA08aWAyLwL6qZ9YxqLOw7Deqf9QgaOOvuiC21
8B48lZqq5CqAye36Oooh7XDjYBuRyaulENbsoOEKpM0=
-----END CERTIFICATE-----
