Certificate:
    Data:
        Version: 1 (0x0)
        Serial Number:
            9b:27:d7:e8:d1:ba:09:54
        Signature Algorithm: md5WithRSAEncryption
        Issuer: C=DE, ST=Saarland, O=MPI-SWS, OU=Distributed Systems Group, CN=Andreas Haeberlen/emailAddress=democa@octarine.de
        Validity
            Not Before: Apr 20 20:47:13 2015 GMT
            Not After : Apr 19 20:47:13 2016 GMT
        Subject: C=DE, ST=Saarland, O=MPI-SWS, OU=Distributed Systems Group, CN=274c03310c8d680abf99dd835e0c4cc631244655/emailAddress=node0380@octarine.de
        Subject Public Key Info:
            Public Key Algorithm: rsaEncryption
            RSA Public Key: (1024 bit)
                Modulus (1024 bit):
                    00:c7:a2:08:54:7c:8e:4f:90:e2:6f:a5:09:2d:11:
                    53:10:c6:4d:68:17:4b:14:c7:54:55:3e:70:dd:52:
                    bc:60:ef:94:7d:17:62:a4:ae:b2:e1:5b:eb:39:8c:
                    fe:5f:85:df:84:a0:b9:f6:38:9b:46:76:b8:ca:e8:
                    41:31:8f:cf:22:98:6d:7b:6a:f8:d9:56:97:b3:ab:
                    5b:6a:61:44:a7:f5:c5:ce:7c:d0:61:70:d7:44:44:
                    49:ee:b6:b9:9e:99:44:11:bf:07:63:9c:2c:50:8b:
                    7c:1f:ba:82:83:a6:79:22:5d:74:3b:d1:bb:9c:9b:
                    7b:d5:f1:5b:f2:be:ca:55:e3
                Exponent: 65537 (0x10001)
    Signature Algorithm: md5WithRSAEncryption
        73:5e:f9:ff:c5:21:0f:ad:15:c8:36:89:1a:b3:52:14:fc:10:
        f1:82:76:ba:f1:4d:78:f9:18:8b:22:32:e5:3a:aa:a0:3c:4a:
        f7:67:6a:ba:f1:13:b9:26:08:21:e9:2b:0c:78:cd:1a:8d:71:
        b9:53:06:e5:a2:23:46:75:19:89:57:2f:2e:80:f6:34:34:bd:
        12:b4:62:0c:67:f0:52:fa:d0:2c:99:47:c4:24:3b:82:03:ca:
        cd:ff:ea:3b:dd:90:7e:b9:ec:34:c5:4a:69:07:f5:49:6c:93:
        c1:af:4e:1c:a9:81:f5:19:33:b3:bb:3c:1f:48:24:93:96:9a:
        28:be
-----BEGIN CERTIFICATE-----
MIICvDCCAiUCCQCbJ9fo0boJVDANBgkqhkiG9w0BAQQFADCBlTELMAkGA1UEBhMC
REUxETAPBgNVBAgTCFNhYXJsYW5kMRAwDgYDVQQKEwdNUEktU1dTMSIwIAYDVQQL
ExlEaXN0cmlidXRlZCBTeXN0ZW1zIEdyb3VwMRowGAYDVQQDExFBbmRyZWFzIEhh
ZWJlcmxlbjEhMB8GCSqGSIb3DQEJARYSZGVtb2NhQG9jdGFyaW5lLmRlMB4XDTE1
MDQyMDIwNDcxM1oXDTE2MDQxOTIwNDcxM1owga4xCzAJBgNVBAYTAkRFMREwDwYD
VQQIEwhTYWFybGFuZDEQMA4GA1UEChMHTVBJLVNXUzEiMCAGA1UECxMZRGlzdHJp
YnV0ZWQgU3lzdGVtcyBHcm91cDExMC8GA1UEAxMoMjc0YzAzMzEwYzhkNjgwYWJm
OTlkZDgzNWUwYzRjYzYzMTI0NDY1NTEjMCEGCSqGSIb3DQEJARYUbm9kZTAzODBA
b2N0YXJpbmUuZGUwgZ8wDQYJKoZIhvcNAQEBBQADgY0AMIGJAoGBAMeiCFR8jk+Q
4m+lCS0RUxDGTWgXSxTHVFU+cN1SvGDvlH0XYqSusuFb6zmM/l+F34SgufY4m0Z2
uMroQTGPzyKYbXtq+NlWl7OrW2phRKf1xc580GFw10RESe62uZ6ZRBG/B2OcLFCL
fB+6goOmeSJddDvRu5ybe9XxW/K+ylXjAgMBAAEwDQYJKoZIhvcNAQEEBQADgYEA
c175/8UhD60VyDaJGrNSFPwQ8YJ2uvFNePkYiyIy5TqqoDxK92dquvETuSYIIekr
DHjNGo1xuVMG5aIjRnUZiVcvLoD2NDS9ErRiDGfwUvrQLJlHxCQ7ggPKzf/qO92Q
frnsNMVKaQf1SWyTwa9OHKmB9Rkzs7s8H0gkk5aaKL4=
-----END CERTIFICATE-----
