Certificate:
    Data:
        Version: 1 (0x0)
        Serial Number:
            9b:27:d7:e8:d1:ba:08:21
        Signature Algorithm: md5WithRSAEncryption
        Issuer: C=DE, ST=Saarland, O=MPI-SWS, OU=Distributed Systems Group, CN=Andreas Haeberlen/emailAddress=democa@octarine.de
        Validity
            Not Before: Apr 20 20:47:00 2015 GMT
            Not After : Apr 19 20:47:00 2016 GMT
        Subject: C=DE, ST=Saarland, O=MPI-SWS, OU=Distributed Systems Group, CN=2f9f834c6047bde973f35da85aba05135a3de8a4/emailAddress=node0073@octarine.de
        Subject Public Key Info:
            Public Key Algorithm: rsaEncryption
            RSA Public Key: (1024 bit)
                Modulus (1024 bit):
                    00:d2:f0:0e:4e:5b:9a:8a:58:75:ca:70:07:4e:0e:
                    aa:09:8a:c9:49:37:5a:18:2f:ad:07:f4:ac:78:57:
                    c7:26:cb:0b:f7:3d:75:29:d0:01:05:13:fe:7a:69:
                    69:fe:6b:47:10:a4:7f:20:c2:73:75:8b:8a:42:cb:
                    be:76:b8:a4:ab:f4:25:56:48:af:a8:f1:10:75:06:
                    ba:9e:58:91:2e:6b:1e:09:eb:78:81:db:d1:fc:a1:
                    d0:3f:fb:14:bc:33:42:55:84:2b:ee:85:41:7c:7c:
                    d5:4d:bf:99:e2:0b:da:3c:ef:af:85:65:91:e0:40:
                    31:53:30:98:4a:9a:59:46:17
                Exponent: 65537 (0x10001)
    Signature Algorithm: md5WithRSAEncryption
        59:70:20:d4:36:3e:e7:b1:33:0c:90:73:ad:2d:b1:66:4e:80:
        bf:16:f3:e4:b9:03:0b:fb:c3:e3:a9:5c:8a:e0:b9:dd:65:1e:
        98:63:4e:88:27:3c:10:f6:cf:e7:f6:f5:79:52:2f:81:47:db:
        b8:b2:e6:dc:06:1e:c6:d3:0e:ce:74:bf:86:86:c7:0c:c9:de:
        9e:02:59:f5:e2:67:9f:5c:75:19:bc:6f:8c:d1:d9:10:bb:18:
        b9:70:b8:ac:23:5f:11:fa:9b:20:f6:e1:9d:3d:47:a0:f2:f9:
        fc:ee:38:85:0f:69:85:5f:37:1b:99:3c:89:9f:2a:9f:87:c8:
        0f:bc
-----BEGIN CERTIFICATE-----
MIICvDCCAiUCCQCbJ9fo0boIITANBgkqhkiG9w0BAQQFADCBlTELMAkGA1UEBhMC
REUxETAPBgNVBAgTCFNhYXJsYW5kMRAwDgYDVQQKEwdNUEktU1dTMSIwIAYDVQQL
ExlEaXN0cmlidXRlZCBTeXN0ZW1zIEdyb3VwMRowGAYDVQQDExFBbmRyZWFzIEhh
ZWJlcmxlbjEhMB8GCSqGSIb3DQEJARYSZGVtb2NhQG9jdGFyaW5lLmRlMB4XDTE1
MDQyMDIwNDcwMFoXDTE2MDQxOTIwNDcwMFowga4xCzAJBgNVBAYTAkRFMREwDwYD
VQQIEwhTYWFybGFuZDEQMA4GA1UEChMHTVBJLVNXUzEiMCAGA1UECxMZRGlzdHJp
YnV0ZWQgU3lzdGVtcyBHcm91cDExMC8GA1UEAxMoMmY5ZjgzNGM2MDQ3YmRlOTcz
ZjM1ZGE4NWFiYTA1MTM1YTNkZThhNDEjMCEGCSqGSIb3DQEJARYUbm9kZTAwNzNA
b2N0YXJpbmUuZGUwgZ8wDQYJKoZIhvcNAQEBBQADgY0AMIGJAoGBANLwDk5bmopY
dcpwB04OqgmKyUk3WhgvrQf0rHhXxybLC/c9dSnQAQUT/nppaf5rRxCkfyDCc3WL
ikLLvna4pKv0JVZIr6jxEHUGup5YkS5rHgnreIHb0fyh0D/7FLwzQlWEK+6FQXx8
1U2/meIL2jzvr4VlkeBAMVMwmEqaWUYXAgMBAAEwDQYJKoZIhvcNAQEEBQADgYEA
WXAg1DY+57EzDJBzrS2xZk6Avxbz5LkDC/vD46lciuC53WUemGNOiCc8EPbP5/b1
eVIvgUfbuLLm3AYextMOznS/hobHDMnengJZ9eJnn1x1GbxvjNHZELsYuXC4rCNf
EfqbIPbhnT1HoPL5/O44hQ9phV83G5k8iZ8qn4fID7w=
-----END CERTIFICATE-----
