Certificate:
    Data:
        Version: 1 (0x0)
        Serial Number:
            9b:27:d7:e8:d1:ba:0a:dc
        Signature Algorithm: md5WithRSAEncryption
        Issuer: C=DE, ST=Saarland, O=MPI-SWS, OU=Distributed Systems Group, CN=Andreas Haeberlen/emailAddress=democa@octarine.de
        Validity
            Not Before: Apr 20 20:47:31 2015 GMT
            Not After : Apr 19 20:47:31 2016 GMT
        Subject: C=DE, ST=Saarland, O=MPI-SWS, OU=Distributed Systems Group, CN=b7adb145f520038482474088bb074e405ed1026f/emailAddress=node0772@octarine.de
        Subject Public Key Info:
            Public Key Algorithm: rsaEncryption
            RSA Public Key: (1024 bit)
                Modulus (1024 bit):
                    00:d5:89:9d:b4:0b:5c:3a:e1:58:49:0b:c5:7e:52:
                    a8:c1:70:8c:71:7b:d1:23:6f:3e:de:21:7d:72:37:
                    02:9c:b8:af:f9:bb:e8:9c:63:08:35:f2:25:2d:77:
                    9e:36:f4:2f:d2:f5:4b:10:f8:b1:c0:c7:5f:73:39:
                    98:35:34:4a:4a:7f:5a:1c:45:12:ba:6b:6c:5c:3f:
                    9c:97:31:8d:27:92:d3:e8:2c:52:3a:ea:d4:dc:fd:
                    e7:69:d7:67:1a:e0:7c:15:32:17:ae:0f:8c:5b:ce:
                    7e:c4:12:de:6f:d6:44:65:9a:b7:00:8e:51:59:99:
                    43:f8:d7:cf:09:14:7a:bf:4f
                Exponent: 65537 (0x10001)
    Signature Algorithm: md5WithRSAEncryption
        72:73:f6:d1:8a:ae:8b:2f:f2:89:fd:53:84:fa:b5:70:b6:c2:
        b6:ab:fb:ea:9b:ef:6e:4e:fc:6f:cb:50:66:4b:52:e3:64:f0:
        84:71:57:5c:51:15:35:22:9a:f7:cd:ef:21:5d:25:b0:ba:d4:
        da:f1:54:57:1d:42:2b:8c:99:2e:31:68:7e:f2:c6:21:71:1a:
        d4:64:2a:c8:7c:42:3f:8a:d0:b0:65:3c:77:39:e5:31:21:c0:
        0a:d4:dd:59:f8:6c:28:c2:73:a8:00:6c:ce:fa:81:8a:10:27:
        44:5a:ab:ad:6e:02:0e:04:a5:05:c9:03:9d:76:54:97:6d:e8:
        b3:55
-----BEGIN CERTIFICATE-----
MIICvDCCAiUCCQCbJ9fo0boK3DANBgkqhkiG9w0BAQQFADCBlTELMAkGA1UEBhMC
REUxETAPBgNVBAgTCFNhYXJsYW5kMRAwDgYDVQQKEwdNUEktU1dTMSIwIAYDVQQL
ExlEaXN0cmlidXRlZCBTeXN0ZW1zIEdyb3VwMRowGAYDVQQDExFBbmRyZWFzIEhh
ZWJlcmxlbjEhMB8GCSqGSIb3DQEJARYSZGVtb2NhQG9jdGFyaW5lLmRlMB4XDTE1
MDQyMDIwNDczMVoXDTE2MDQxOTIwNDczMVowga4xCzAJBgNVBAYTAkRFMREwDwYD
VQQIEwhTYWFybGFuZDEQMA4GA1UEChMHTVBJLVNXUzEiMCAGA1UECxMZRGlzdHJp
YnV0ZWQgU3lzdGVtcyBHcm91cDExMC8GA1UEAxMoYjdhZGIxNDVmNTIwMDM4NDgy
NDc0MDg4YmIwNzRlNDA1ZWQxMDI2ZjEjMCEGCSqGSIb3DQEJARYUbm9kZTA3NzJA
b2N0YXJpbmUuZGUwgZ8wDQYJKoZIhvcNAQEBBQADgY0AMIGJAoGBANWJnbQLXDrh
WEkLxX5SqMFwjHF70SNvPt4hfXI3Apy4r/m76JxjCDXyJS13njb0L9L1SxD4scDH
X3M5mDU0Skp/WhxFErprbFw/nJcxjSeS0+gsUjrq1Nz952nXZxrgfBUyF64PjFvO
fsQS3m/WRGWatwCOUVmZQ/jXzwkUer9PAgMBAAEwDQYJKoZIhvcNAQEEBQADgYEA
cnP20Yquiy/yif1ThPq1cLbCtqv76pvvbk78b8tQZktS42TwhHFXXFEVNSKa983v
IV0lsLrU2vFUVx1CK4yZLjFofvLGIXEa1GQqyHxCP4rQsGU8dznlMSHACtTdWfhs
KMJzqABszvqBihAnRFqrrW4CDgSlBckDnXZUl23os1U=
-----END CERTIFICATE-----
