Certificate:
    Data:
        Version: 1 (0x0)
        Serial Number:
            9b:27:d7:e8:d1:ba:08:4e
        Signature Algorithm: md5WithRSAEncryption
        Issuer: C=DE, ST=Saarland, O=MPI-SWS, OU=Distributed Systems Group, CN=Andreas Haeberlen/emailAddress=democa@octarine.de
        Validity
            Not Before: Apr 20 20:47:02 2015 GMT
            Not After : Apr 19 20:47:02 2016 GMT
        Subject: C=DE, ST=Saarland, O=MPI-SWS, OU=Distributed Systems Group, CN=9a9410db99f1fb6dac3b77e72fe7b035bc9dd687/emailAddress=node0118@octarine.de
        Subject Public Key Info:
            Public Key Algorithm: rsaEncryption
            RSA Public Key: (1024 bit)
                Modulus (1024 bit):
                    00:ab:e3:6b:63:13:e9:0b:7b:70:1a:7c:b8:20:b1:
                    11:5d:e6:0d:2d:ee:82:d1:c6:51:24:0a:1f:d1:ad:
                    bd:8f:a9:25:db:61:56:5f:6d:13:5d:75:ef:cc:1e:
                    1e:d7:2f:cb:31:16:f3:42:ec:38:83:7d:11:94:d1:
                    28:d0:d8:98:e0:ed:10:6c:39:38:39:3c:e5:91:75:
                    a0:5d:8f:d5:b2:89:b4:61:a7:39:a1:95:ab:91:fe:
                    3d:c6:26:55:da:6a:37:74:83:68:96:4b:33:73:03:
                    d4:20:71:0f:6f:63:2d:49:bf:4e:9a:c4:11:a5:6c:
                    dc:0c:d3:a5:86:4f:c7:b7:b5
                Exponent: 65537 (0x10001)
    Signature Algorithm: md5WithRSAEncryption
        7e:74:a5:3d:fe:c8:9c:45:40:89:5c:3f:9c:a0:f0:58:0b:f0:
        ba:60:ab:d6:db:b2:d1:8a:5e:90:34:b5:71:a9:89:bb:5f:8b:
        d4:8f:39:84:f6:cc:7e:fc:fa:14:b9:13:e5:a0:f7:41:68:d9:
        49:3c:27:95:04:cc:04:6e:a2:da:fa:64:87:41:63:3a:bc:00:
        ac:71:b1:af:8a:d4:ab:9f:ae:d1:6a:8e:58:c4:e4:68:cb:42:
        5e:8b:fc:1d:3b:b3:4d:d9:5b:f2:73:38:23:0f:1d:dc:d1:a7:
        1e:70:33:57:62:a5:54:c1:d2:d5:24:e3:0b:6b:10:2f:fa:91:
        53:ac
-----BEGIN CERTIFICATE-----
MIICvDCCAiUCCQCbJ9fo0boITjANBgkqhkiG9w0BAQQFADCBlTELMAkGA1UEBhMC
REUxETAPBgNVBAgTCFNhYXJsYW5kMRAwDgYDVQQKEwdNUEktU1dTMSIwIAYDVQQL
ExlEaXN0cmlidXRlZCBTeXN0ZW1zIEdyb3VwMRowGAYDVQQDExFBbmRyZWFzIEhh
ZWJlcmxlbjEhMB8GCSqGSIb3DQEJARYSZGVtb2NhQG9jdGFyaW5lLmRlMB4XDTE1
MDQyMDIwNDcwMloXDTE2MDQxOTIwNDcwMlowga4xCzAJBgNVBAYTAkRFMREwDwYD
VQQIEwhTYWFybGFuZDEQMA4GA1UEChMHTVBJLVNXUzEiMCAGA1UECxMZRGlzdHJp
YnV0ZWQgU3lzdGVtcyBHcm91cDExMC8GA1UEAxMoOWE5NDEwZGI5OWYxZmI2ZGFj
M2I3N2U3MmZlN2IwMzViYzlkZDY4NzEjMCEGCSqGSIb3DQEJARYUbm9kZTAxMThA
b2N0YXJpbmUuZGUwgZ8wDQYJKoZIhvcNAQEBBQADgY0AMIGJAoGBAKvja2MT6Qt7
cBp8uCCxEV3mDS3ugtHGUSQKH9GtvY+pJdthVl9tE11178weHtcvyzEW80LsOIN9
EZTRKNDYmODtEGw5ODk85ZF1oF2P1bKJtGGnOaGVq5H+PcYmVdpqN3SDaJZLM3MD
1CBxD29jLUm/TprEEaVs3AzTpYZPx7e1AgMBAAEwDQYJKoZIhvcNAQEEBQADgYEA
fnSlPf7InEVAiVw/nKDwWAvwumCr1tuy0YpekDS1camJu1+L1I85hPbMfvz6FLkT
5aD3QWjZSTwnlQTMBG6i2vpkh0FjOrwArHGxr4rUq5+u0WqOWMTkaMtCXov8HTuz
Tdlb8nM4Iw8d3NGnHnAzV2KlVMHS1STjC2sQL/qRU6w=
-----END CERTIFICATE-----
