Certificate:
    Data:
        Version: 1 (0x0)
        Serial Number:
            9b:27:d7:e8:d1:ba:08:d4
        Signature Algorithm: md5WithRSAEncryption
        Issuer: C=DE, ST=Saarland, O=MPI-SWS, OU=Distributed Systems Group, CN=Andreas Haeberlen/emailAddress=democa@octarine.de
        Validity
            Not Before: Apr 20 20:47:08 2015 GMT
            Not After : Apr 19 20:47:08 2016 GMT
        Subject: C=DE, ST=Saarland, O=MPI-SWS, OU=Distributed Systems Group, CN=d805f6d44b7dc0b06b936df2bf8511af9a4902e5/emailAddress=node0252@octarine.de
        Subject Public Key Info:
            Public Key Algorithm: rsaEncryption
            RSA Public Key: (1024 bit)
                Modulus (1024 bit):
                    00:a2:e2:4e:46:16:71:93:02:af:30:3f:e0:f2:6c:
                    4c:b4:36:4b:de:a5:48:e7:e7:f9:01:de:65:d3:09:
                    b3:7b:b5:8c:2e:76:17:8a:cc:c2:1b:af:84:cf:32:
                    e1:92:5d:78:5f:19:e7:3d:cd:f2:7e:b2:f9:7d:19:
                    9f:de:4d:c0:52:8a:18:a5:25:dd:64:3d:17:8a:7f:
                    f2:c7:31:4e:05:ec:b2:db:32:b0:db:3f:f9:14:0b:
                    78:8b:74:33:39:6f:41:63:4b:bc:27:05:16:ed:64:
                    8b:6b:64:67:cf:10:93:8b:74:81:a8:88:1c:f1:b2:
                    e9:10:80:33:6a:5c:fb:aa:6d
                Exponent: 65537 (0x10001)
    Signature Algorithm: md5WithRSAEncryption
        b1:8e:11:14:82:99:d1:ca:35:63:02:4c:8f:8b:f3:99:ae:77:
        c6:76:c3:86:a2:1c:57:9e:bb:bc:32:58:5c:99:2e:1c:5b:38:
        5e:55:6b:e3:66:48:b9:89:92:87:f3:eb:ae:45:52:1a:72:1b:
        9c:a6:05:1f:f9:e1:8e:e1:3c:70:d2:44:aa:38:97:a9:5a:34:
        95:be:6d:5b:50:d6:0c:b3:c2:21:2a:be:ea:e8:d0:ba:c7:44:
        c0:0e:f0:16:e3:34:d2:9d:1e:09:1b:8a:46:e2:cf:39:ec:bc:
        7e:2b:67:87:ce:bb:1d:1f:b8:3a:fb:2d:3f:9b:4d:3d:7b:41:
        01:4b
-----BEGIN CERTIFICATE-----
MIICvDCCAiUCCQCbJ9fo0boI1DANBgkqhkiG9w0BAQQFADCBlTELMAkGA1UEBhMC
REUxETAPBgNVBAgTCFNhYXJsYW5kMRAwDgYDVQQKEwdNUEktU1dTMSIwIAYDVQQL
ExlEaXN0cmlidXRlZCBTeXN0ZW1zIEdyb3VwMRowGAYDVQQDExFBbmRyZWFzIEhh
ZWJlcmxlbjEhMB8GCSqGSIb3DQEJARYSZGVtb2NhQG9jdGFyaW5lLmRlMB4XDTE1
MDQyMDIwNDcwOFoXDTE2MDQxOTIwNDcwOFowga4xCzAJBgNVBAYTAkRFMREwDwYD
VQQIEwhTYWFybGFuZDEQMA4GA1UEChMHTVBJLVNXUzEiMCAGA1UECxMZRGlzdHJp
YnV0ZWQgU3lzdGVtcyBHcm91cDExMC8GA1UEAxMoZDgwNWY2ZDQ0YjdkYzBiMDZi
OTM2ZGYyYmY4NTExYWY5YTQ5MDJlNTEjMCEGCSqGSIb3DQEJARYUbm9kZTAyNTJA
b2N0YXJpbmUuZGUwgZ8wDQYJKoZIhvcNAQEBBQADgY0AMIGJAoGBAKLiTkYWcZMC
rzA/4PJsTLQ2S96lSOfn+QHeZdMJs3u1jC52F4rMwhuvhM8y4ZJdeF8Z5z3N8n6y
+X0Zn95NwFKKGKUl3WQ9F4p/8scxTgXsstsysNs/+RQLeIt0MzlvQWNLvCcFFu1k
i2tkZ88Qk4t0gaiIHPGy6RCAM2pc+6ptAgMBAAEwDQYJKoZIhvcNAQEEBQADgYEA
sY4RFIKZ0co1YwJMj4vzma53xnbDhqIcV567vDJYXJkuHFs4XlVr42ZIuYmSh/Pr
rkVSGnIbnKYFH/nhjuE8cNJEqjiXqVo0lb5tW1DWDLPCISq+6ujQusdEwA7wFuM0
0p0eCRuKRuLPOey8fitnh867HR+4OvstP5tNPXtBAUs=
-----END CERTIFICATE-----
