Certificate:
    Data:
        Version: 1 (0x0)
        Serial Number:
            9b:27:d7:e8:d1:ba:09:7f
        Signature Algorithm: md5WithRSAEncryption
        Issuer: C=DE, ST=Saarland, O=MPI-SWS, OU=Distributed Systems Group, CN=Andreas Haeberlen/emailAddress=democa@octarine.de
        Validity
            Not Before: Apr 20 20:47:15 2015 GMT
            Not After : Apr 19 20:47:15 2016 GMT
        Subject: C=DE, ST=Saarland, O=MPI-SWS, OU=Distributed Systems Group, CN=fb99b14392febc0ee50a6e76e59f3cd286c37171/emailAddress=node0423@octarine.de
        Subject Public Key Info:
            Public Key Algorithm: rsaEncryption
            RSA Public Key: (1024 bit)
                Modulus (1024 bit):
                    00:dd:85:9e:ad:e2:8e:f1:7e:7d:01:dc:38:43:ac:
                    9f:9b:a6:d0:61:ff:34:7b:55:21:bd:a0:51:b2:97:
                    06:e1:75:21:5f:65:18:fc:22:0b:33:df:85:4f:2c:
                    f2:81:4f:cd:37:78:d5:77:76:14:81:2b:d5:d7:28:
                    cd:83:5d:a1:a0:28:b0:0a:52:e0:5a:c6:e2:37:f0:
                    81:6d:ac:07:f7:27:fc:e8:1e:31:60:51:51:7b:55:
                    ce:00:1f:a1:f7:9e:c5:be:26:02:1c:50:10:2d:9b:
                    1d:9e:de:8f:85:c7:94:b2:4c:dc:3e:42:60:a7:92:
                    2b:45:5c:c5:16:c2:9f:4d:8f
                Exponent: 65537 (0x10001)
    Signature Algorithm: md5WithRSAEncryption
        b8:61:47:26:ce:38:02:7d:5f:1c:ec:83:30:ea:66:79:6e:d1:
        e4:04:a3:ee:be:c5:26:fc:15:f8:13:eb:38:68:c7:1f:58:6f:
        9a:cc:f0:c6:e6:46:c9:33:37:db:66:c5:47:d1:b9:97:73:43:
        24:f9:55:8a:f1:bc:b9:45:d2:9c:fe:69:aa:ba:75:91:f5:da:
        e9:cf:8a:c1:61:92:c2:9c:53:9c:46:00:7c:91:ff:14:0d:d1:
        9f:e1:b3:42:aa:6f:9a:c4:42:66:87:08:6e:6f:8c:f9:c4:52:
        47:85:ef:39:ae:1f:e0:4e:87:12:6c:a1:38:9b:f2:57:94:90:
        01:fb
-----BEGIN CERTIFICATE-----
MIICvDCCAiUCCQCbJ9fo0boJfzANBgkqhkiG9w0BAQQFADCBlTELMAkGA1UEBhMC
REUxETAPBgNVBAgTCFNhYXJsYW5kMRAwDgYDVQQKEwdNUEktU1dTMSIwIAYDVQQL
ExlEaXN0cmlidXRlZCBTeXN0ZW1zIEdyb3VwMRowGAYDVQQDExFBbmRyZWFzIEhh
ZWJlcmxlbjEhMB8GCSqGSIb3DQEJARYSZGVtb2NhQG9jdGFyaW5lLmRlMB4XDTE1
MDQyMDIwNDcxNVoXDTE2MDQxOTIwNDcxNVowga4xCzAJBgNVBAYTAkRFMREwDwYD
VQQIEwhTYWFybGFuZDEQMA4GA1UEChMHTVBJLVNXUzEiMCAGA1UECxMZRGlzdHJp
YnV0ZWQgU3lzdGVtcyBHcm91cDExMC8GA1UEAxMoZmI5OWIxNDM5MmZlYmMwZWU1
MGE2ZTc2ZTU5ZjNjZDI4NmMzNzE3MTEjMCEGCSqGSIb3DQEJARYUbm9kZTA0MjNA
b2N0YXJpbmUuZGUwgZ8wDQYJKoZIhvcNAQEBBQADgY0AMIGJAoGBAN2Fnq3ijvF+
fQHcOEOsn5um0GH/NHtVIb2gUbKXBuF1IV9lGPwiCzPfhU8s8oFPzTd41Xd2FIEr
1dcozYNdoaAosApS4FrG4jfwgW2sB/cn/OgeMWBRUXtVzgAfofeexb4mAhxQEC2b
HZ7ej4XHlLJM3D5CYKeSK0VcxRbCn02PAgMBAAEwDQYJKoZIhvcNAQEEBQADgYEA
uGFHJs44An1fHOyDMOpmeW7R5ASj7r7FJvwV+BPrOGjHH1hvmszwxuZGyTM322bF
R9G5l3NDJPlVivG8uUXSnP5pqrp1kfXa6c+KwWGSwpxTnEYAfJH/FA3Rn+GzQqpv
msRCZocIbm+M+cRSR4XvOa4f4E6HEmyhOJvyV5SQAfs=
-----END CERTIFICATE-----
