Certificate:
    Data:
        Version: 1 (0x0)
        Serial Number:
            9b:27:d7:e8:d1:ba:09:92
        Signature Algorithm: md5WithRSAEncryption
        Issuer: C=DE, ST=Saarland, O=MPI-SWS, OU=Distributed Systems Group, CN=Andreas Haeberlen/emailAddress=democa@octarine.de
        Validity
            Not Before: Apr 20 20:47:16 2015 GMT
            Not After : Apr 19 20:47:16 2016 GMT
        Subject: C=DE, ST=Saarland, O=MPI-SWS, OU=Distributed Systems Group, CN=64f89958acd94e516b8e97f2f97652dc6c406980/emailAddress=node0442@octarine.de
        Subject Public Key Info:
            Public Key Algorithm: rsaEncryption
            RSA Public Key: (1024 bit)
                Modulus (1024 bit):
                    00:d3:14:5f:e7:9f:1c:e2:a7:45:60:a9:75:38:5b:
                    f9:06:a3:98:df:d2:45:86:6d:0d:8a:8f:a3:eb:35:
                    84:85:b9:5a:9f:73:f2:3f:ea:90:be:1e:65:02:19:
                    f8:a6:a3:50:4e:63:82:63:52:bf:68:38:fd:00:e9:
                    0e:fc:69:ad:37:ad:57:9a:d9:a2:b0:a4:4c:be:2e:
                    d8:65:0b:08:71:23:3a:6b:82:25:a6:9d:19:0e:7e:
                    44:b7:c3:5a:d4:94:9f:6a:2e:35:e5:42:26:f8:7d:
                    da:40:b2:d7:29:6a:59:44:58:55:b1:4d:2a:9c:e1:
                    3e:28:4c:f5:fb:f5:c9:2d:c1
                Exponent: 65537 (0x10001)
    Signature Algorithm: md5WithRSAEncryption
        6f:40:71:36:9c:7a:69:76:d6:05:3c:03:c8:67:5a:1a:1a:b2:
        2f:c8:7d:85:48:56:45:2f:75:c2:d1:6c:e1:1b:39:b9:4d:99:
        4d:8a:48:f6:a6:53:a1:8b:79:5b:cf:d4:96:e0:09:70:08:ef:
        3c:a9:4b:b2:54:b1:fa:a5:f8:75:98:94:98:b3:67:e1:f7:2e:
        05:72:28:bf:da:c8:f2:ab:6f:84:eb:06:8a:ef:d0:7c:7b:c9:
        ac:bd:54:09:e1:29:a9:dd:47:99:15:b2:90:71:12:e5:c1:9d:
        38:3f:ba:8f:28:da:30:d5:3c:18:f9:b5:e0:00:09:3a:fc:c4:
        a8:d9
-----BEGIN CERTIFICATE-----
MIICvDCCAiUCCQCbJ9fo0boJkjANBgkqhkiG9w0BAQQFADCBlTELMAkGA1UEBhMC
REUxETAPBgNVBAgTCFNhYXJsYW5kMRAwDgYDVQQKEwdNUEktU1dTMSIwIAYDVQQL
ExlEaXN0cmlidXRlZCBTeXN0ZW1zIEdyb3VwMRowGAYDVQQDExFBbmRyZWFzIEhh
ZWJlcmxlbjEhMB8GCSqGSIb3DQEJARYSZGVtb2NhQG9jdGFyaW5lLmRlMB4XDTE1
MDQyMDIwNDcxNloXDTE2MDQxOTIwNDcxNlowga4xCzAJBgNVBAYTAkRFMREwDwYD
VQQIEwhTYWFybGFuZDEQMA4GA1UEChMHTVBJLVNXUzEiMCAGA1UECxMZRGlzdHJp
YnV0ZWQgU3lzdGVtcyBHcm91cDExMC8GA1UEAxMoNjRmODk5NThhY2Q5NGU1MTZi
OGU5N2YyZjk3NjUyZGM2YzQwNjk4MDEjMCEGCSqGSIb3DQEJARYUbm9kZTA0NDJA
b2N0YXJpbmUuZGUwgZ8wDQYJKoZIhvcNAQEBBQADgY0AMIGJAoGBANMUX+efHOKn
RWCpdThb+QajmN/SRYZtDYqPo+s1hIW5Wp9z8j/qkL4eZQIZ+KajUE5jgmNSv2g4
/QDpDvxprTetV5rZorCkTL4u2GULCHEjOmuCJaadGQ5+RLfDWtSUn2ouNeVCJvh9
2kCy1ylqWURYVbFNKpzhPihM9fv1yS3BAgMBAAEwDQYJKoZIhvcNAQEEBQADgYEA
b0BxNpx6aXbWBTwDyGdaGhqyL8h9hUhWRS91wtFs4Rs5uU2ZTYpI9qZToYt5W8/U
luAJcAjvPKlLslSx+qX4dZiUmLNn4fcuBXIov9rI8qtvhOsGiu/QfHvJrL1UCeEp
qd1HmRWykHES5cGdOD+6jyjaMNU8GPm14AAJOvzEqNk=
-----END CERTIFICATE-----
