Certificate:
    Data:
        Version: 1 (0x0)
        Serial Number:
            9b:27:d7:e8:d1:ba:09:75
        Signature Algorithm: md5WithRSAEncryption
        Issuer: C=DE, ST=Saarland, O=MPI-SWS, OU=Distributed Systems Group, CN=Andreas Haeberlen/emailAddress=democa@octarine.de
        Validity
            Not Before: Apr 20 20:47:14 2015 GMT
            Not After : Apr 19 20:47:14 2016 GMT
        Subject: C=DE, ST=Saarland, O=MPI-SWS, OU=Distributed Systems Group, CN=ed3287cf08f2ef208dbb4870e3d9ef0dd305bc5c/emailAddress=node0413@octarine.de
        Subject Public Key Info:
            Public Key Algorithm: rsaEncryption
            RSA Public Key: (1024 bit)
                Modulus (1024 bit):
                    00:cb:b6:76:89:4d:dc:3e:0e:d2:18:bf:9a:b0:15:
                    c7:31:d9:74:57:d7:f8:5e:b2:50:79:b2:01:be:85:
                    5e:f9:53:41:bd:48:6d:39:00:19:95:94:55:41:fb:
                    99:6a:48:c4:0f:14:3f:44:76:70:4f:b9:0d:f8:cc:
                    0c:19:2c:1b:2a:c0:2b:77:58:94:3f:7f:3b:a4:f0:
                    a2:e7:a7:e0:a2:cc:e5:84:dc:3a:64:cc:98:42:bb:
                    b1:6a:54:52:57:54:07:9d:12:e7:37:3a:f4:77:55:
                    8e:a2:f1:16:ed:38:5f:4b:8c:cc:4f:37:5c:95:b1:
                    7c:0c:06:f2:11:4b:db:bb:0f
                Exponent: 65537 (0x10001)
    Signature Algorithm: md5WithRSAEncryption
        6a:6d:45:ca:74:19:a5:63:60:32:dc:22:72:b1:b0:52:f7:df:
        8d:a3:4e:14:e4:c6:97:b4:a6:04:76:83:41:58:3c:b9:0a:14:
        b8:6f:e1:69:1b:04:93:df:93:0d:8b:52:de:4d:d3:26:a0:85:
        48:7d:57:1b:7f:6a:90:25:c3:d5:d7:b0:ca:73:96:cd:d6:8b:
        bf:c2:00:5a:5d:88:d2:b4:7e:8b:f8:e4:95:3b:74:4a:1b:29:
        54:5f:d7:6b:6e:ff:d5:b2:87:77:06:cb:1e:c9:3f:c8:ed:87:
        e6:b1:b2:23:55:df:e2:dc:c5:96:88:35:ab:f2:b9:67:df:3a:
        12:56
-----BEGIN CERTIFICATE-----
MIICvDCCAiUCCQCbJ9fo0boJdTANBgkqhkiG9w0BAQQFADCBlTELMAkGA1UEBhMC
REUxETAPBgNVBAgTCFNhYXJsYW5kMRAwDgYDVQQKEwdNUEktU1dTMSIwIAYDVQQL
ExlEaXN0cmlidXRlZCBTeXN0ZW1zIEdyb3VwMRowGAYDVQQDExFBbmRyZWFzIEhh
ZWJlcmxlbjEhMB8GCSqGSIb3DQEJARYSZGVtb2NhQG9jdGFyaW5lLmRlMB4XDTE1
MDQyMDIwNDcxNFoXDTE2MDQxOTIwNDcxNFowga4xCzAJBgNVBAYTAkRFMREwDwYD
VQQIEwhTYWFybGFuZDEQMA4GA1UEChMHTVBJLVNXUzEiMCAGA1UECxMZRGlzdHJp
YnV0ZWQgU3lzdGVtcyBHcm91cDExMC8GA1UEAxMoZWQzMjg3Y2YwOGYyZWYyMDhk
YmI0ODcwZTNkOWVmMGRkMzA1YmM1YzEjMCEGCSqGSIb3DQEJARYUbm9kZTA0MTNA
b2N0YXJpbmUuZGUwgZ8wDQYJKoZIhvcNAQEBBQADgY0AMIGJAoGBAMu2dolN3D4O
0hi/mrAVxzHZdFfX+F6yUHmyAb6FXvlTQb1IbTkAGZWUVUH7mWpIxA8UP0R2cE+5
DfjMDBksGyrAK3dYlD9/O6Twouen4KLM5YTcOmTMmEK7sWpUUldUB50S5zc69HdV
jqLxFu04X0uMzE83XJWxfAwG8hFL27sPAgMBAAEwDQYJKoZIhvcNAQEEBQADgYEA
am1FynQZpWNgMtwicrGwUvffjaNOFOTGl7SmBHaDQVg8uQoUuG/haRsEk9+TDYtS
3k3TJqCFSH1XG39qkCXD1dewynOWzdaLv8IAWl2I0rR+i/jklTt0ShspVF/Xa27/
1bKHdwbLHsk/yO2H5rGyI1Xf4tzFlog1q/K5Z986ElY=
-----END CERTIFICATE-----
