Certificate:
    Data:
        Version: 1 (0x0)
        Serial Number:
            9b:27:d7:e8:d1:ba:0a:32
        Signature Algorithm: md5WithRSAEncryption
        Issuer: C=DE, ST=Saarland, O=MPI-SWS, OU=Distributed Systems Group, CN=Andreas Haeberlen/emailAddress=democa@octarine.de
        Validity
            Not Before: Apr 20 20:47:23 2015 GMT
            Not After : Apr 19 20:47:23 2016 GMT
        Subject: C=DE, ST=Saarland, O=MPI-SWS, OU=Distributed Systems Group, CN=257164d785d1b7b969c31693febb1c841068430d/emailAddress=node0602@octarine.de
        Subject Public Key Info:
            Public Key Algorithm: rsaEncryption
            RSA Public Key: (1024 bit)
                Modulus (1024 bit):
                    00:ea:3f:0e:90:09:13:4a:af:bf:c4:25:6e:68:ca:
                    5d:6f:9f:30:10:32:ab:a8:30:7d:37:a8:f2:33:e2:
                    95:96:a7:af:76:ca:0b:5c:29:68:61:e3:ec:eb:2e:
                    3a:e1:7c:4c:21:eb:3c:f5:82:fc:f9:9c:bc:c8:7e:
                    3e:ee:19:07:24:23:93:a4:e3:e9:9a:14:bb:ec:b2:
                    c0:54:ed:a0:f4:6b:b0:12:20:40:c8:ef:57:97:c9:
                    dd:f2:dc:dc:a2:9d:5c:52:29:68:85:17:d2:75:0c:
                    64:2a:60:ed:91:85:ee:e9:be:e1:c8:db:2e:62:ef:
                    32:0e:98:1d:0d:8c:d6:6c:29
                Exponent: 65537 (0x10001)
    Signature Algorithm: md5WithRSAEncryption
        32:3c:be:79:d5:8c:a1:a0:cf:ad:db:c4:d4:00:3f:51:5b:11:
        6d:42:cc:15:57:f4:9b:dc:b2:e1:54:6d:1d:d7:9d:b6:70:7a:
        46:3b:f2:9d:ef:01:2c:08:c5:08:0e:89:e4:7b:d8:ee:c8:8e:
        dc:07:80:bd:21:34:23:4a:f4:81:39:ea:c9:c2:f0:ba:0a:36:
        63:45:94:b4:4f:f1:15:5c:95:ed:b6:1d:02:ca:96:cc:18:da:
        17:d9:b0:d6:68:d5:63:cb:31:63:f7:84:8a:2e:fd:c4:e9:a0:
        02:6f:9e:f6:06:f9:cb:b4:70:a2:d9:4a:56:d0:fe:83:ce:90:
        55:c4
-----BEGIN CERTIFICATE-----
MIICvDCCAiUCCQCbJ9fo0boKMjANBgkqhkiG9w0BAQQFADCBlTELMAkGA1UEBhMC
REUxETAPBgNVBAgTCFNhYXJsYW5kMRAwDgYDVQQKEwdNUEktU1dTMSIwIAYDVQQL
ExlEaXN0cmlidXRlZCBTeXN0ZW1zIEdyb3VwMRowGAYDVQQDExFBbmRyZWFzIEhh
ZWJlcmxlbjEhMB8GCSqGSIb3DQEJARYSZGVtb2NhQG9jdGFyaW5lLmRlMB4XDTE1
MDQyMDIwNDcyM1oXDTE2MDQxOTIwNDcyM1owga4xCzAJBgNVBAYTAkRFMREwDwYD
VQQIEwhTYWFybGFuZDEQMA4GA1UEChMHTVBJLVNXUzEiMCAGA1UECxMZRGlzdHJp
YnV0ZWQgU3lzdGVtcyBHcm91cDExMC8GA1UEAxMoMjU3MTY0ZDc4NWQxYjdiOTY5
YzMxNjkzZmViYjFjODQxMDY4NDMwZDEjMCEGCSqGSIb3DQEJARYUbm9kZTA2MDJA
b2N0YXJpbmUuZGUwgZ8wDQYJKoZIhvcNAQEBBQADgY0AMIGJAoGBAOo/DpAJE0qv
v8QlbmjKXW+fMBAyq6gwfTeo8jPilZanr3bKC1wpaGHj7OsuOuF8TCHrPPWC/Pmc
vMh+Pu4ZByQjk6Tj6ZoUu+yywFTtoPRrsBIgQMjvV5fJ3fLc3KKdXFIpaIUX0nUM
ZCpg7ZGF7um+4cjbLmLvMg6YHQ2M1mwpAgMBAAEwDQYJKoZIhvcNAQEEBQADgYEA
Mjy+edWMoaDPrdvE1AA/UVsRbULMFVf0m9yy4VRtHdedtnB6Rjvyne8BLAjFCA6J
5HvY7siO3AeAvSE0I0r0gTnqycLwugo2Y0WUtE/xFVyV7bYdAsqWzBjaF9mw1mjV
Y8sxY/eEii79xOmgAm+e9gb5y7RwotlKVtD+g86QVcQ=
-----END CERTIFICATE-----
