Certificate:
    Data:
        Version: 1 (0x0)
        Serial Number:
            9b:27:d7:e8:d1:ba:08:5e
        Signature Algorithm: md5WithRSAEncryption
        Issuer: C=DE, ST=Saarland, O=MPI-SWS, OU=Distributed Systems Group, CN=Andreas Haeberlen/emailAddress=democa@octarine.de
        Validity
            Not Before: Apr 20 20:47:02 2015 GMT
            Not After : Apr 19 20:47:02 2016 GMT
        Subject: C=DE, ST=Saarland, O=MPI-SWS, OU=Distributed Systems Group, CN=f2a43c199d2ecc8dd4feb339c077c60b8afc616f/emailAddress=node0134@octarine.de
        Subject Public Key Info:
            Public Key Algorithm: rsaEncryption
            RSA Public Key: (1024 bit)
                Modulus (1024 bit):
                    00:e2:6c:5d:cb:a7:41:3d:74:42:33:93:0c:8d:a6:
                    94:79:d4:f1:13:af:94:8b:7c:06:da:7b:64:32:40:
                    31:17:67:76:e2:de:59:d5:e5:bc:9d:41:b0:85:a7:
                    0c:18:a7:3c:1d:a3:2a:f3:1a:00:0d:e4:7b:05:22:
                    f9:ae:f3:14:66:0e:99:c2:97:0c:7d:e9:9f:b5:77:
                    ce:56:d2:e5:88:36:e2:6c:64:d9:48:47:7b:0c:2c:
                    85:cc:8b:ea:3e:77:a9:13:dc:a6:5f:73:1e:3a:f0:
                    32:62:18:54:6e:60:9f:0c:3e:97:98:6f:a2:0f:bf:
                    f7:12:f7:4b:bd:94:5d:47:1d
                Exponent: 65537 (0x10001)
    Signature Algorithm: md5WithRSAEncryption
        65:53:bf:96:42:76:28:22:06:a7:b8:70:be:2e:e8:de:69:bb:
        b9:01:7d:d5:e1:46:ce:ba:83:1c:04:cb:b1:36:dd:4e:4b:e6:
        f9:75:9b:d5:84:18:8a:75:64:f2:e0:e8:db:14:04:c2:11:77:
        02:67:c7:96:80:34:08:83:07:30:20:8c:c9:49:f6:d7:a6:03:
        4f:6d:7c:18:cd:c6:01:62:01:44:03:d0:e8:d1:08:0a:9d:f8:
        89:b1:5e:91:47:59:9c:28:26:41:9c:a4:f2:b9:9f:e9:dd:44:
        9d:7f:98:5b:23:cb:f9:c5:e2:64:d4:85:84:f8:f1:fd:cc:12:
        0d:e3
-----BEGIN CERTIFICATE-----
MIICvDCCAiUCCQCbJ9fo0boIXjANBgkqhkiG9w0BAQQFADCBlTELMAkGA1UEBhMC
REUxETAPBgNVBAgTCFNhYXJsYW5kMRAwDgYDVQQKEwdNUEktU1dTMSIwIAYDVQQL
ExlEaXN0cmlidXRlZCBTeXN0ZW1zIEdyb3VwMRowGAYDVQQDExFBbmRyZWFzIEhh
ZWJlcmxlbjEhMB8GCSqGSIb3DQEJARYSZGVtb2NhQG9jdGFyaW5lLmRlMB4XDTE1
MDQyMDIwNDcwMloXDTE2MDQxOTIwNDcwMlowga4xCzAJBgNVBAYTAkRFMREwDwYD
VQQIEwhTYWFybGFuZDEQMA4GA1UEChMHTVBJLVNXUzEiMCAGA1UECxMZRGlzdHJp
YnV0ZWQgU3lzdGVtcyBHcm91cDExMC8GA1UEAxMoZjJhNDNjMTk5ZDJlY2M4ZGQ0
ZmViMzM5YzA3N2M2MGI4YWZjNjE2ZjEjMCEGCSqGSIb3DQEJARYUbm9kZTAxMzRA
b2N0YXJpbmUuZGUwgZ8wDQYJKoZIhvcNAQEBBQADgY0AMIGJAoGBAOJsXcunQT10
QjOTDI2mlHnU8ROvlIt8Btp7ZDJAMRdnduLeWdXlvJ1BsIWnDBinPB2jKvMaAA3k
ewUi+a7zFGYOmcKXDH3pn7V3zlbS5Yg24mxk2UhHewwshcyL6j53qRPcpl9zHjrw
MmIYVG5gnww+l5hvog+/9xL3S72UXUcdAgMBAAEwDQYJKoZIhvcNAQEEBQADgYEA
ZVO/lkJ2KCIGp7hwvi7o3mm7uQF91eFGzrqDHATLsTbdTkvm+XWb1YQYinVk8uDo
2xQEwhF3AmfHloA0CIMHMCCMyUn216YDT218GM3GAWIBRAPQ6NEICp34ibFekUdZ
nCgmQZyk8rmf6d1EnX+YWyPL+cXiZNSFhPjx/cwSDeM=
-----END CERTIFICATE-----
