Certificate:
    Data:
        Version: 1 (0x0)
        Serial Number:
            9b:27:d7:e8:d1:ba:09:15
        Signature Algorithm: md5WithRSAEncryption
        Issuer: C=DE, ST=Saarland, O=MPI-SWS, OU=Distributed Systems Group, CN=Andreas Haeberlen/emailAddress=democa@octarine.de
        Validity
            Not Before: Apr 20 20:47:10 2015 GMT
            Not After : Apr 19 20:47:10 2016 GMT
        Subject: C=DE, ST=Saarland, O=MPI-SWS, OU=Distributed Systems Group, CN=87dc7f8314bb5a2e05ddb8227e4e57ade7956298/emailAddress=node0317@octarine.de
        Subject Public Key Info:
            Public Key Algorithm: rsaEncryption
            RSA Public Key: (1024 bit)
                Modulus (1024 bit):
                    00:c8:ef:73:ff:64:6b:86:94:16:97:ed:00:61:f5:
                    c3:50:61:ed:34:42:4f:ad:21:7b:a0:d0:fd:69:93:
                    a6:49:1d:11:ed:5b:22:12:96:47:34:5e:72:bf:a3:
                    36:1b:6e:87:fe:3e:43:2f:8d:7c:7a:88:1e:74:35:
                    01:89:ce:d7:d5:23:eb:c9:ce:87:f2:b0:2a:92:6b:
                    84:d6:ed:4f:0d:6f:76:4d:97:7c:85:f2:82:b1:a5:
                    3a:fe:bd:75:e3:a9:83:50:b9:54:55:5b:b7:a4:fb:
                    6c:6d:a8:12:28:b9:da:78:65:1a:0c:af:42:03:53:
                    c8:2b:13:a4:9d:e8:61:dc:35
                Exponent: 65537 (0x10001)
    Signature Algorithm: md5WithRSAEncryption
        64:a0:72:c9:22:43:68:b8:32:49:59:42:cf:08:35:db:a1:8c:
        b6:8b:ea:a6:29:0e:bc:69:16:1d:4a:6b:f6:e3:ff:a7:db:32:
        a7:11:41:53:b4:dc:54:b2:8c:cc:e0:a9:18:49:fe:23:4d:14:
        16:f3:b4:8a:69:a2:a2:8e:f5:ee:6e:fe:91:d9:13:73:79:f6:
        3b:50:62:75:47:71:d1:89:a6:40:a8:43:5e:26:e9:46:dd:64:
        f5:35:d8:50:3b:9e:0e:41:8d:30:c8:0a:65:34:cb:79:80:31:
        3d:32:3d:87:31:48:0d:d6:81:21:ca:50:1e:84:dc:3c:14:51:
        47:64
-----BEGIN CERTIFICATE-----
MIICvDCCAiUCCQCbJ9fo0boJFTANBgkqhkiG9w0BAQQFADCBlTELMAkGA1UEBhMC
REUxETAPBgNVBAgTCFNhYXJsYW5kMRAwDgYDVQQKEwdNUEktU1dTMSIwIAYDVQQL
ExlEaXN0cmlidXRlZCBTeXN0ZW1zIEdyb3VwMRowGAYDVQQDExFBbmRyZWFzIEhh
ZWJlcmxlbjEhMB8GCSqGSIb3DQEJARYSZGVtb2NhQG9jdGFyaW5lLmRlMB4XDTE1
MDQyMDIwNDcxMFoXDTE2MDQxOTIwNDcxMFowga4xCzAJBgNVBAYTAkRFMREwDwYD
VQQIEwhTYWFybGFuZDEQMA4GA1UEChMHTVBJLVNXUzEiMCAGA1UECxMZRGlzdHJp
YnV0ZWQgU3lzdGVtcyBHcm91cDExMC8GA1UEAxMoODdkYzdmODMxNGJiNWEyZTA1
ZGRiODIyN2U0ZTU3YWRlNzk1NjI5ODEjMCEGCSqGSIb3DQEJARYUbm9kZTAzMTdA
b2N0YXJpbmUuZGUwgZ8wDQYJKoZIhvcNAQEBBQADgY0AMIGJAoGBAMjvc/9ka4aU
FpftAGH1w1Bh7TRCT60he6DQ/WmTpkkdEe1bIhKWRzRecr+jNhtuh/4+Qy+NfHqI
HnQ1AYnO19Uj68nOh/KwKpJrhNbtTw1vdk2XfIXygrGlOv69deOpg1C5VFVbt6T7
bG2oEii52nhlGgyvQgNTyCsTpJ3oYdw1AgMBAAEwDQYJKoZIhvcNAQEEBQADgYEA
ZKByySJDaLgySVlCzwg126GMtovqpikOvGkWHUpr9uP/p9sypxFBU7TcVLKMzOCp
GEn+I00UFvO0immioo717m7+kdkTc3n2O1BidUdx0YmmQKhDXibpRt1k9TXYUDue
DkGNMMgKZTTLeYAxPTI9hzFIDdaBIcpQHoTcPBRRR2Q=
-----END CERTIFICATE-----
