Certificate:
    Data:
        Version: 1 (0x0)
        Serial Number:
            9b:27:d7:e8:d1:ba:0a:1c
        Signature Algorithm: md5WithRSAEncryption
        Issuer: C=DE, ST=Saarland, O=MPI-SWS, OU=Distributed Systems Group, CN=Andreas Haeberlen/emailAddress=democa@octarine.de
        Validity
            Not Before: Apr 20 20:47:22 2015 GMT
            Not After : Apr 19 20:47:22 2016 GMT
        Subject: C=DE, ST=Saarland, O=MPI-SWS, OU=Distributed Systems Group, CN=bbcfd11d6036cb9ff1aef2f5ecc8dd399f861947/emailAddress=node0580@octarine.de
        Subject Public Key Info:
            Public Key Algorithm: rsaEncryption
            RSA Public Key: (1024 bit)
                Modulus (1024 bit):
                    00:d7:9c:00:3f:02:02:28:0c:19:21:4d:b3:99:de:
                    fe:e3:8d:8f:54:aa:62:f4:e4:ff:09:76:67:3e:f0:
                    95:b9:2f:56:98:7f:59:2d:45:cb:0c:78:ec:ad:99:
                    6f:12:40:c6:8a:71:82:28:b1:3a:1e:3a:18:4d:4d:
                    52:f7:83:8f:8e:55:e3:4f:6a:a8:8d:20:9f:c3:d2:
                    11:4c:67:ba:a3:26:e4:c8:cb:c4:3c:37:34:bb:5c:
                    4e:73:fc:36:39:c2:f8:7b:d8:0b:b9:cf:0a:71:3d:
                    c0:ac:77:76:c2:52:d9:1a:1d:9a:63:ec:f2:45:a5:
                    39:7e:48:f7:23:fe:04:8d:39
                Exponent: 65537 (0x10001)
    Signature Algorithm: md5WithRSAEncryption
        32:a3:82:88:a4:fb:61:b6:1c:94:87:bb:41:8c:20:9d:a1:94:
        9e:0e:ca:78:a7:e3:54:68:26:af:2e:59:d7:d4:e8:8e:6c:fd:
        0c:e8:6e:1e:a4:5b:c2:15:82:76:03:00:49:fc:0d:af:ec:67:
        a7:8c:a5:9e:db:a4:be:c1:a9:58:81:96:c5:03:4f:04:76:1b:
        4d:26:c0:82:5a:c7:e2:98:62:4d:e5:86:ad:4d:1a:7a:b3:e8:
        f3:c3:a3:3e:7a:f0:26:43:60:d0:e7:8d:bb:94:9b:02:4d:7d:
        fd:75:23:4d:02:99:a5:1c:c7:fa:a2:ec:9a:2c:26:bd:cb:d3:
        49:a2
-----BEGIN CERTIFICATE-----
MIICvDCCAiUCCQCbJ9fo0boKHDANBgkqhkiG9w0BAQQFADCBlTELMAkGA1UEBhMC
REUxETAPBgNVBAgTCFNhYXJsYW5kMRAwDgYDVQQKEwdNUEktU1dTMSIwIAYDVQQL
ExlEaXN0cmlidXRlZCBTeXN0ZW1zIEdyb3VwMRowGAYDVQQDExFBbmRyZWFzIEhh
ZWJlcmxlbjEhMB8GCSqGSIb3DQEJARYSZGVtb2NhQG9jdGFyaW5lLmRlMB4XDTE1
MDQyMDIwNDcyMloXDTE2MDQxOTIwNDcyMlowga4xCzAJBgNVBAYTAkRFMREwDwYD
VQQIEwhTYWFybGFuZDEQMA4GA1UEChMHTVBJLVNXUzEiMCAGA1UECxMZRGlzdHJp
YnV0ZWQgU3lzdGVtcyBHcm91cDExMC8GA1UEAxMoYmJjZmQxMWQ2MDM2Y2I5ZmYx
YWVmMmY1ZWNjOGRkMzk5Zjg2MTk0NzEjMCEGCSqGSIb3DQEJARYUbm9kZTA1ODBA
b2N0YXJpbmUuZGUwgZ8wDQYJKoZIhvcNAQEBBQADgY0AMIGJAoGBANecAD8CAigM
GSFNs5ne/uONj1SqYvTk/wl2Zz7wlbkvVph/WS1Fywx47K2ZbxJAxopxgiixOh46
GE1NUveDj45V409qqI0gn8PSEUxnuqMm5MjLxDw3NLtcTnP8NjnC+HvYC7nPCnE9
wKx3dsJS2RodmmPs8kWlOX5I9yP+BI05AgMBAAEwDQYJKoZIhvcNAQEEBQADgYEA
MqOCiKT7YbYclIe7QYwgnaGUng7KeKfjVGgmry5Z19Tojmz9DOhuHqRbwhWCdgMA
SfwNr+xnp4ylntukvsGpWIGWxQNPBHYbTSbAglrH4phiTeWGrU0aerPo88OjPnrw
JkNg0OeNu5SbAk19/XUjTQKZpRzH+qLsmiwmvcvTSaI=
-----END CERTIFICATE-----
