Certificate:
    Data:
        Version: 1 (0x0)
        Serial Number:
            9b:27:d7:e8:d1:ba:08:ab
        Signature Algorithm: md5WithRSAEncryption
        Issuer: C=DE, ST=Saarland, O=MPI-SWS, OU=Distributed Systems Group, CN=Andreas Haeberlen/emailAddress=democa@octarine.de
        Validity
            Not Before: Apr 20 20:47:06 2015 GMT
            Not After : Apr 19 20:47:06 2016 GMT
        Subject: C=DE, ST=Saarland, O=MPI-SWS, OU=Distributed Systems Group, CN=4adb284dd35722a6a5a082e5a54d56ca0a633a00/emailAddress=node0211@octarine.de
        Subject Public Key Info:
            Public Key Algorithm: rsaEncryption
            RSA Public Key: (1024 bit)
                Modulus (1024 bit):
                    00:bc:4e:96:2e:dd:da:d4:a7:80:1a:18:6b:1d:ab:
                    73:51:e5:14:98:7e:f1:58:bb:ad:87:1f:e2:61:a7:
                    6e:d9:18:55:ec:34:6c:5c:c6:be:ad:de:3a:d5:e2:
                    f2:98:ef:7e:ad:fc:a7:8b:00:42:3a:0e:db:88:fd:
                    dd:bd:ad:cd:37:8a:40:57:e1:2f:14:ca:67:3f:2c:
                    81:cc:a2:3d:9d:a3:17:e9:4b:1a:4d:6a:37:54:f6:
                    46:f6:21:40:ff:17:4c:3b:40:f5:cb:cd:2f:aa:2d:
                    4c:1a:8d:17:6e:a8:6a:3e:e5:58:0b:64:1c:b8:32:
                    ca:cf:a7:16:e8:c0:10:37:99
                Exponent: 65537 (0x10001)
    Signature Algorithm: md5WithRSAEncryption
        a0:10:d8:72:46:fc:01:37:65:37:db:4d:97:45:96:f4:8f:8d:
        66:c9:9e:1a:05:16:17:d6:fd:21:bf:9a:66:34:24:0a:f4:73:
        61:07:d9:e7:25:62:aa:e2:92:7d:4f:73:ea:c4:19:0c:a3:76:
        3e:9c:ee:5f:83:41:d6:5a:a3:74:ad:0a:22:9a:43:fb:02:8b:
        d9:2d:22:84:d8:44:a6:f6:32:e7:1f:75:a9:08:30:6d:d0:9e:
        bb:8c:3f:6a:31:70:e1:d6:84:c2:09:ed:3b:51:af:1d:2d:80:
        43:a8:82:fc:1e:cd:bd:89:63:d4:dc:91:5a:05:6b:ba:84:f2:
        91:9c
-----BEGIN CERTIFICATE-----
MIICvDCCAiUCCQCbJ9fo0boIqzANBgkqhkiG9w0BAQQFADCBlTELMAkGA1UEBhMC
REUxETAPBgNVBAgTCFNhYXJsYW5kMRAwDgYDVQQKEwdNUEktU1dTMSIwIAYDVQQL
ExlEaXN0cmlidXRlZCBTeXN0ZW1zIEdyb3VwMRowGAYDVQQDExFBbmRyZWFzIEhh
ZWJlcmxlbjEhMB8GCSqGSIb3DQEJARYSZGVtb2NhQG9jdGFyaW5lLmRlMB4XDTE1
MDQyMDIwNDcwNloXDTE2MDQxOTIwNDcwNlowga4xCzAJBgNVBAYTAkRFMREwDwYD
VQQIEwhTYWFybGFuZDEQMA4GA1UEChMHTVBJLVNXUzEiMCAGA1UECxMZRGlzdHJp
YnV0ZWQgU3lzdGVtcyBHcm91cDExMC8GA1UEAxMoNGFkYjI4NGRkMzU3MjJhNmE1
YTA4MmU1YTU0ZDU2Y2EwYTYzM2EwMDEjMCEGCSqGSIb3DQEJARYUbm9kZTAyMTFA
b2N0YXJpbmUuZGUwgZ8wDQYJKoZIhvcNAQEBBQADgY0AMIGJAoGBALxOli7d2tSn
gBoYax2rc1HlFJh+8Vi7rYcf4mGnbtkYVew0bFzGvq3eOtXi8pjvfq38p4sAQjoO
24j93b2tzTeKQFfhLxTKZz8sgcyiPZ2jF+lLGk1qN1T2RvYhQP8XTDtA9cvNL6ot
TBqNF26oaj7lWAtkHLgyys+nFujAEDeZAgMBAAEwDQYJKoZIhvcNAQEEBQADgYEA
oBDYckb8ATdlN9tNl0WW9I+NZsmeGgUWF9b9Ib+aZjQkCvRzYQfZ5yViquKSfU9z
6sQZDKN2PpzuX4NB1lqjdK0KIppD+wKL2S0ihNhEpvYy5x91qQgwbdCeu4w/ajFw
4daEwgntO1GvHS2AQ6iC/B7NvYlj1NyRWgVruoTykZw=
-----END CERTIFICATE-----
