Certificate:
    Data:
        Version: 1 (0x0)
        Serial Number:
            9b:27:d7:e8:d1:ba:0b:85
        Signature Algorithm: md5WithRSAEncryption
        Issuer: C=DE, ST=Saarland, O=MPI-SWS, OU=Distributed Systems Group, CN=Andreas Haeberlen/emailAddress=democa@octarine.de
        Validity
            Not Before: Apr 20 20:47:39 2015 GMT
            Not After : Apr 19 20:47:39 2016 GMT
        Subject: C=DE, ST=Saarland, O=MPI-SWS, OU=Distributed Systems Group, CN=bbcfdb496160797d857f561a97ea260d1cde818e/emailAddress=node0941@octarine.de
        Subject Public Key Info:
            Public Key Algorithm: rsaEncryption
            RSA Public Key: (1024 bit)
                Modulus (1024 bit):
                    00:d5:fb:ed:0f:a7:91:3d:e8:8b:07:91:ea:06:22:
                    d8:dd:ea:17:fb:51:9a:bd:16:3e:13:9b:0e:93:57:
                    dc:20:74:2e:aa:0f:8d:02:16:74:c5:51:90:54:12:
                    9a:41:d7:48:90:8d:cb:12:aa:5c:bf:d4:34:ac:af:
                    e1:95:a5:31:49:5e:99:8f:45:19:8f:83:47:f3:ad:
                    6f:ea:de:af:c8:1c:b0:1b:9b:a9:72:5d:73:88:bd:
                    7f:a6:50:84:86:b0:e3:96:5b:a3:31:cb:cc:bc:74:
                    c6:f2:c2:a6:f8:42:9c:9b:ba:b6:cd:d0:2c:0d:02:
                    7f:fe:f8:de:72:f5:75:ef:0d
                Exponent: 65537 (0x10001)
    Signature Algorithm: md5WithRSAEncryption
        2b:3b:48:67:3b:51:35:66:cd:c6:8d:5f:e9:e7:73:61:fb:7d:
        3f:2b:63:02:b7:a2:e0:d4:35:59:25:bb:36:ed:79:94:cb:a6:
        11:00:e1:c7:69:c9:12:67:89:4b:d2:51:84:b7:07:4f:42:5c:
        11:74:47:d2:23:1a:66:09:68:28:a0:35:cf:c2:3d:cd:ea:b6:
        68:f9:2e:d8:9c:54:b1:f9:bd:fe:24:21:5a:49:97:48:90:f9:
        3d:3d:6e:31:1b:2d:df:45:2b:c9:b5:91:fa:06:6d:5d:0c:7d:
        f4:3d:78:94:17:71:1d:e3:5e:41:6b:9a:f1:f3:d1:a2:de:84:
        57:34
-----BEGIN CERTIFICATE-----
MIICvDCCAiUCCQCbJ9fo0boLhTANBgkqhkiG9w0BAQQFADCBlTELMAkGA1UEBhMC
REUxETAPBgNVBAgTCFNhYXJsYW5kMRAwDgYDVQQKEwdNUEktU1dTMSIwIAYDVQQL
ExlEaXN0cmlidXRlZCBTeXN0ZW1zIEdyb3VwMRowGAYDVQQDExFBbmRyZWFzIEhh
ZWJlcmxlbjEhMB8GCSqGSIb3DQEJARYSZGVtb2NhQG9jdGFyaW5lLmRlMB4XDTE1
MDQyMDIwNDczOVoXDTE2MDQxOTIwNDczOVowga4xCzAJBgNVBAYTAkRFMREwDwYD
VQQIEwhTYWFybGFuZDEQMA4GA1UEChMHTVBJLVNXUzEiMCAGA1UECxMZRGlzdHJp
YnV0ZWQgU3lzdGVtcyBHcm91cDExMC8GA1UEAxMoYmJjZmRiNDk2MTYwNzk3ZDg1
N2Y1NjFhOTdlYTI2MGQxY2RlODE4ZTEjMCEGCSqGSIb3DQEJARYUbm9kZTA5NDFA
b2N0YXJpbmUuZGUwgZ8wDQYJKoZIhvcNAQEBBQADgY0AMIGJAoGBANX77Q+nkT3o
iweR6gYi2N3qF/tRmr0WPhObDpNX3CB0LqoPjQIWdMVRkFQSmkHXSJCNyxKqXL/U
NKyv4ZWlMUlemY9FGY+DR/Otb+rer8gcsBubqXJdc4i9f6ZQhIaw45ZbozHLzLx0
xvLCpvhCnJu6ts3QLA0Cf/743nL1de8NAgMBAAEwDQYJKoZIhvcNAQEEBQADgYEA
KztIZztRNWbNxo1f6edzYft9PytjArei4NQ1WSW7Nu15lMumEQDhx2nJEmeJS9JR
hLcHT0JcEXRH0iMaZgloKKA1z8I9zeq2aPku2JxUsfm9/iQhWkmXSJD5PT1uMRst
30UrybWR+gZtXQx99D14lBdxHeNeQWua8fPRot6EVzQ=
-----END CERTIFICATE-----
