Certificate:
    Data:
        Version: 1 (0x0)
        Serial Number:
            9b:27:d7:e8:d1:ba:0b:76
        Signature Algorithm: md5WithRSAEncryption
        Issuer: C=DE, ST=Saarland, O=MPI-SWS, OU=Distributed Systems Group, CN=Andreas Haeberlen/emailAddress=democa@octarine.de
        Validity
            Not Before: Apr 20 20:47:38 2015 GMT
            Not After : Apr 19 20:47:38 2016 GMT
        Subject: C=DE, ST=Saarland, O=MPI-SWS, OU=Distributed Systems Group, CN=59b6d8c30ce1f22fdf0f2ce548ee10e799d72aa3/emailAddress=node0926@octarine.de
        Subject Public Key Info:
            Public Key Algorithm: rsaEncryption
            RSA Public Key: (1024 bit)
                Modulus (1024 bit):
                    00:c6:91:9d:18:83:9c:84:1b:51:6b:91:3b:0a:84:
                    a8:66:2e:ce:f2:e9:76:a2:a6:8c:7e:94:1a:e9:61:
                    e8:87:70:00:71:cb:9d:8c:18:f6:9e:86:89:97:6e:
                    f3:20:08:0b:0b:9f:66:06:57:dc:a5:d8:49:0c:ae:
                    fa:60:3c:5f:0b:9e:ad:19:ee:8f:bb:60:5c:83:1b:
                    9e:59:07:77:24:c2:be:ff:c8:01:60:80:46:d7:49:
                    de:85:79:42:74:ee:05:d4:e8:a7:a6:eb:1d:9c:a1:
                    d2:8c:8f:af:c4:35:d8:ad:15:15:be:53:89:6c:ae:
                    2e:16:aa:5f:59:78:1b:0c:d5
                Exponent: 65537 (0x10001)
    Signature Algorithm: md5WithRSAEncryption
        0e:20:d2:b3:58:d6:47:12:01:83:a6:50:ce:9d:55:85:e3:dc:
        aa:9e:f1:4e:9d:2e:70:80:86:44:16:31:e3:f0:55:c9:c6:4b:
        ef:95:6e:64:4f:2f:7f:43:90:48:a8:5a:e2:d1:b1:47:ad:7b:
        65:2d:36:b4:5a:ce:76:00:c5:af:e6:c1:fe:06:10:b0:ff:a3:
        e3:71:e9:ce:19:bb:04:c0:99:5f:4b:ec:a3:ee:9f:90:8e:40:
        45:68:cc:8d:e8:e5:97:b4:4c:0f:11:27:0b:39:c8:b4:04:2b:
        fd:78:71:46:17:7f:e3:73:41:77:9c:f3:2a:2e:b9:18:4e:cc:
        ff:4c
-----BEGIN CERTIFICATE-----
MIICvDCCAiUCCQCbJ9fo0boLdjANBgkqhkiG9w0BAQQFADCBlTELMAkGA1UEBhMC
REUxETAPBgNVBAgTCFNhYXJsYW5kMRAwDgYDVQQKEwdNUEktU1dTMSIwIAYDVQQL
ExlEaXN0cmlidXRlZCBTeXN0ZW1zIEdyb3VwMRowGAYDVQQDExFBbmRyZWFzIEhh
ZWJlcmxlbjEhMB8GCSqGSIb3DQEJARYSZGVtb2NhQG9jdGFyaW5lLmRlMB4XDTE1
MDQyMDIwNDczOFoXDTE2MDQxOTIwNDczOFowga4xCzAJBgNVBAYTAkRFMREwDwYD
VQQIEwhTYWFybGFuZDEQMA4GA1UEChMHTVBJLVNXUzEiMCAGA1UECxMZRGlzdHJp
YnV0ZWQgU3lzdGVtcyBHcm91cDExMC8GA1UEAxMoNTliNmQ4YzMwY2UxZjIyZmRm
MGYyY2U1NDhlZTEwZTc5OWQ3MmFhMzEjMCEGCSqGSIb3DQEJARYUbm9kZTA5MjZA
b2N0YXJpbmUuZGUwgZ8wDQYJKoZIhvcNAQEBBQADgY0AMIGJAoGBAMaRnRiDnIQb
UWuROwqEqGYuzvLpdqKmjH6UGulh6IdwAHHLnYwY9p6GiZdu8yAICwufZgZX3KXY
SQyu+mA8XwuerRnuj7tgXIMbnlkHdyTCvv/IAWCARtdJ3oV5QnTuBdTop6brHZyh
0oyPr8Q12K0VFb5TiWyuLhaqX1l4GwzVAgMBAAEwDQYJKoZIhvcNAQEEBQADgYEA
DiDSs1jWRxIBg6ZQzp1VhePcqp7xTp0ucICGRBYx4/BVycZL75VuZE8vf0OQSKha
4tGxR617ZS02tFrOdgDFr+bB/gYQsP+j43Hpzhm7BMCZX0vso+6fkI5ARWjMjejl
l7RMDxEnCznItAQr/XhxRhd/43NBd5zzKi65GE7M/0w=
-----END CERTIFICATE-----
