Certificate:
    Data:
        Version: 1 (0x0)
        Serial Number:
            9b:27:d7:e8:d1:ba:0b:91
        Signature Algorithm: md5WithRSAEncryption
        Issuer: C=DE, ST=Saarland, O=MPI-SWS, OU=Distributed Systems Group, CN=Andreas Haeberlen/emailAddress=democa@octarine.de
        Validity
            Not Before: Apr 20 20:47:39 2015 GMT
            Not After : Apr 19 20:47:39 2016 GMT
        Subject: C=DE, ST=Saarland, O=MPI-SWS, OU=Distributed Systems Group, CN=2e0d1bfc0592fc54442556265306e2b00be17de7/emailAddress=node0953@octarine.de
        Subject Public Key Info:
            Public Key Algorithm: rsaEncryption
            RSA Public Key: (1024 bit)
                Modulus (1024 bit):
                    00:dd:65:f1:86:fa:86:6d:70:79:d7:c5:2f:b6:50:
                    d6:32:0f:0a:02:5a:d5:04:aa:db:ac:f8:2d:cd:dd:
                    71:04:3f:86:88:da:b0:64:7e:8f:a0:83:7e:1a:6d:
                    6f:9c:f6:b1:be:ee:e2:b0:16:ac:1f:63:07:4d:e1:
                    a5:e4:f7:32:99:bc:46:ee:6a:16:23:eb:5e:b3:e5:
                    db:92:8b:ae:1c:a5:74:71:e2:3d:12:57:ba:d9:b1:
                    14:06:00:e3:89:5e:95:36:3b:91:a9:83:78:bd:18:
                    4e:ac:aa:2a:a4:76:4b:a6:45:1f:f1:ca:fc:59:ee:
                    84:15:b5:27:89:10:25:cd:c7
                Exponent: 65537 (0x10001)
    Signature Algorithm: md5WithRSAEncryption
        47:36:a6:32:0c:35:6c:63:5d:d0:8b:66:00:71:42:22:32:f0:
        74:c9:45:28:bb:18:b3:27:13:02:94:fd:49:aa:20:1a:2d:06:
        b1:33:03:5d:26:5a:4c:a9:75:29:9a:c3:01:3e:f4:0e:bc:af:
        1b:29:d0:e9:29:de:b4:46:8e:86:32:52:12:51:06:0f:04:5a:
        8b:fb:39:44:0c:25:62:ef:5e:46:d8:94:bb:f8:87:24:78:74:
        50:1a:19:f9:42:55:20:c0:35:63:9f:b5:d9:20:df:cc:c6:84:
        b1:8e:66:ce:39:ae:b9:ba:ed:2b:5d:43:cd:1a:5d:6d:37:a9:
        f6:c3
-----BEGIN CERTIFICATE-----
MIICvDCCAiUCCQCbJ9fo0boLkTANBgkqhkiG9w0BAQQFADCBlTELMAkGA1UEBhMC
REUxETAPBgNVBAgTCFNhYXJsYW5kMRAwDgYDVQQKEwdNUEktU1dTMSIwIAYDVQQL
ExlEaXN0cmlidXRlZCBTeXN0ZW1zIEdyb3VwMRowGAYDVQQDExFBbmRyZWFzIEhh
ZWJlcmxlbjEhMB8GCSqGSIb3DQEJARYSZGVtb2NhQG9jdGFyaW5lLmRlMB4XDTE1
MDQyMDIwNDczOVoXDTE2MDQxOTIwNDczOVowga4xCzAJBgNVBAYTAkRFMREwDwYD
VQQIEwhTYWFybGFuZDEQMA4GA1UEChMHTVBJLVNXUzEiMCAGA1UECxMZRGlzdHJp
YnV0ZWQgU3lzdGVtcyBHcm91cDExMC8GA1UEAxMoMmUwZDFiZmMwNTkyZmM1NDQ0
MjU1NjI2NTMwNmUyYjAwYmUxN2RlNzEjMCEGCSqGSIb3DQEJARYUbm9kZTA5NTNA
b2N0YXJpbmUuZGUwgZ8wDQYJKoZIhvcNAQEBBQADgY0AMIGJAoGBAN1l8Yb6hm1w
edfFL7ZQ1jIPCgJa1QSq26z4Lc3dcQQ/hojasGR+j6CDfhptb5z2sb7u4rAWrB9j
B03hpeT3Mpm8Ru5qFiPrXrPl25KLrhyldHHiPRJXutmxFAYA44lelTY7kamDeL0Y
TqyqKqR2S6ZFH/HK/FnuhBW1J4kQJc3HAgMBAAEwDQYJKoZIhvcNAQEEBQADgYEA
RzamMgw1bGNd0ItmAHFCIjLwdMlFKLsYsycTApT9SaogGi0GsTMDXSZaTKl1KZrD
AT70DryvGynQ6SnetEaOhjJSElEGDwRai/s5RAwlYu9eRtiUu/iHJHh0UBoZ+UJV
IMA1Y5+12SDfzMaEsY5mzjmuubrtK11DzRpdbTep9sM=
-----END CERTIFICATE-----
