Certificate:
    Data:
        Version: 1 (0x0)
        Serial Number:
            9b:27:d7:e8:d1:ba:09:4a
        Signature Algorithm: md5WithRSAEncryption
        Issuer: C=DE, ST=Saarland, O=MPI-SWS, OU=Distributed Systems Group, CN=Andreas Haeberlen/emailAddress=democa@octarine.de
        Validity
            Not Before: Apr 20 20:47:12 2015 GMT
            Not After : Apr 19 20:47:12 2016 GMT
        Subject: C=DE, ST=Saarland, O=MPI-SWS, OU=Distributed Systems Group, CN=984bd0ff6255139ce401546ca766488e1c9fd9f3/emailAddress=node0370@octarine.de
        Subject Public Key Info:
            Public Key Algorithm: rsaEncryption
            RSA Public Key: (1024 bit)
                Modulus (1024 bit):
                    00:d7:e0:83:76:32:03:76:f5:ca:75:91:aa:23:f3:
                    dc:51:58:c8:e5:a3:6e:7f:a3:f2:40:36:a8:ce:76:
                    88:bc:f3:a4:bd:85:73:a4:79:19:55:da:9c:2a:71:
                    c2:ef:50:33:d9:32:1a:e6:4d:58:f7:20:c2:a1:8d:
                    5e:8c:b1:10:8e:7f:a9:2d:02:7c:40:41:3a:14:1a:
                    d1:b1:2b:c4:29:db:45:fc:3d:b5:67:08:73:dc:4c:
                    73:e1:47:09:df:24:3d:3e:7e:18:93:ad:75:ac:37:
                    65:31:96:4c:33:93:06:da:a3:f6:64:a0:42:07:b8:
                    39:7e:ea:ca:b6:5c:ad:48:fb
                Exponent: 65537 (0x10001)
    Signature Algorithm: md5WithRSAEncryption
        96:f9:be:c2:85:51:6a:bf:cb:e5:67:97:7a:98:ef:a9:09:89:
        d6:21:a3:2f:de:c6:86:a8:26:50:44:c7:6b:05:1a:85:85:6e:
        19:9b:8b:db:51:2c:e0:ff:f8:28:74:37:02:46:a1:52:46:74:
        96:86:dc:41:b6:73:7e:ee:90:d8:e8:74:1a:82:de:7f:0c:4a:
        35:69:43:f9:eb:43:92:e4:af:21:06:95:37:14:8c:25:57:c3:
        c2:5d:ca:78:32:ef:23:46:e4:68:00:9f:9f:0b:b0:5c:8d:fb:
        d2:c0:fc:00:23:77:93:89:3d:9e:b2:4d:25:31:b7:35:0a:ed:
        c9:f7
-----BEGIN CERTIFICATE-----
MIICvDCCAiUCCQCbJ9fo0boJSjANBgkqhkiG9w0BAQQFADCBlTELMAkGA1UEBhMC
REUxETAPBgNVBAgTCFNhYXJsYW5kMRAwDgYDVQQKEwdNUEktU1dTMSIwIAYDVQQL
ExlEaXN0cmlidXRlZCBTeXN0ZW1zIEdyb3VwMRowGAYDVQQDExFBbmRyZWFzIEhh
ZWJlcmxlbjEhMB8GCSqGSIb3DQEJARYSZGVtb2NhQG9jdGFyaW5lLmRlMB4XDTE1
MDQyMDIwNDcxMloXDTE2MDQxOTIwNDcxMlowga4xCzAJBgNVBAYTAkRFMREwDwYD
VQQIEwhTYWFybGFuZDEQMA4GA1UEChMHTVBJLVNXUzEiMCAGA1UECxMZRGlzdHJp
YnV0ZWQgU3lzdGVtcyBHcm91cDExMC8GA1UEAxMoOTg0YmQwZmY2MjU1MTM5Y2U0
MDE1NDZjYTc2NjQ4OGUxYzlmZDlmMzEjMCEGCSqGSIb3DQEJARYUbm9kZTAzNzBA
b2N0YXJpbmUuZGUwgZ8wDQYJKoZIhvcNAQEBBQADgY0AMIGJAoGBANfgg3YyA3b1
ynWRqiPz3FFYyOWjbn+j8kA2qM52iLzzpL2Fc6R5GVXanCpxwu9QM9kyGuZNWPcg
wqGNXoyxEI5/qS0CfEBBOhQa0bErxCnbRfw9tWcIc9xMc+FHCd8kPT5+GJOtdaw3
ZTGWTDOTBtqj9mSgQge4OX7qyrZcrUj7AgMBAAEwDQYJKoZIhvcNAQEEBQADgYEA
lvm+woVRar/L5WeXepjvqQmJ1iGjL97GhqgmUETHawUahYVuGZuL21Es4P/4KHQ3
AkahUkZ0lobcQbZzfu6Q2Oh0GoLefwxKNWlD+etDkuSvIQaVNxSMJVfDwl3KeDLv
I0bkaACfnwuwXI370sD8ACN3k4k9nrJNJTG3NQrtyfc=
-----END CERTIFICATE-----
