Certificate:
    Data:
        Version: 1 (0x0)
        Serial Number:
            9b:27:d7:e8:d1:ba:08:58
        Signature Algorithm: md5WithRSAEncryption
        Issuer: C=DE, ST=Saarland, O=MPI-SWS, OU=Distributed Systems Group, CN=Andreas Haeberlen/emailAddress=democa@octarine.de
        Validity
            Not Before: Apr 20 20:47:02 2015 GMT
            Not After : Apr 19 20:47:02 2016 GMT
        Subject: C=DE, ST=Saarland, O=MPI-SWS, OU=Distributed Systems Group, CN=341d0765f8065ff3a10f6520657d9f3d35a4c19c/emailAddress=node0128@octarine.de
        Subject Public Key Info:
            Public Key Algorithm: rsaEncryption
            RSA Public Key: (1024 bit)
                Modulus (1024 bit):
                    00:ba:52:44:04:e5:92:15:a6:6f:29:9b:7e:0e:7c:
                    ac:56:0f:c1:db:b5:23:d1:46:1c:95:3f:7b:47:0a:
                    06:99:97:b8:9d:19:82:56:f9:f2:7e:02:b0:ca:8e:
                    61:00:af:00:e1:9d:3a:6f:ea:32:11:8f:74:9b:3a:
                    8f:73:89:2a:b1:fa:e7:04:34:bf:25:64:69:34:7c:
                    f1:8c:fe:61:81:78:d4:6c:63:e1:61:36:ee:cd:2f:
                    d2:44:4e:de:c5:da:ca:41:c8:7d:d9:0b:be:5c:b0:
                    40:25:b4:1c:12:a6:8e:50:f0:2b:2b:df:04:b4:e9:
                    51:2b:b4:d2:03:ca:44:0a:4b
                Exponent: 65537 (0x10001)
    Signature Algorithm: md5WithRSAEncryption
        6c:23:06:d6:2d:82:8b:b9:ea:88:7f:19:5b:b6:11:17:8a:21:
        41:39:94:2d:a7:9c:f5:00:65:ed:ee:a8:b9:33:77:50:3c:d8:
        36:71:3a:c2:49:39:bc:31:ec:9d:4e:c0:2d:06:95:4e:f2:99:
        b7:30:8b:fb:0b:17:49:72:96:cc:d0:93:f6:6e:cb:1f:2f:50:
        2a:19:d9:b1:68:8a:45:2e:72:62:43:48:3c:ec:3d:9e:17:5b:
        05:06:4f:ed:3b:fc:aa:89:0e:99:5c:dd:6a:15:58:eb:0b:df:
        31:ef:f8:ff:fe:c1:dd:0e:a7:6c:85:9c:6f:9a:c7:c2:61:da:
        d8:13
-----BEGIN CERTIFICATE-----
MIICvDCCAiUCCQCbJ9fo0boIWDANBgkqhkiG9w0BAQQFADCBlTELMAkGA1UEBhMC
REUxETAPBgNVBAgTCFNhYXJsYW5kMRAwDgYDVQQKEwdNUEktU1dTMSIwIAYDVQQL
ExlEaXN0cmlidXRlZCBTeXN0ZW1zIEdyb3VwMRowGAYDVQQDExFBbmRyZWFzIEhh
ZWJlcmxlbjEhMB8GCSqGSIb3DQEJARYSZGVtb2NhQG9jdGFyaW5lLmRlMB4XDTE1
MDQyMDIwNDcwMloXDTE2MDQxOTIwNDcwMlowga4xCzAJBgNVBAYTAkRFMREwDwYD
VQQIEwhTYWFybGFuZDEQMA4GA1UEChMHTVBJLVNXUzEiMCAGA1UECxMZRGlzdHJp
YnV0ZWQgU3lzdGVtcyBHcm91cDExMC8GA1UEAxMoMzQxZDA3NjVmODA2NWZmM2Ex
MGY2NTIwNjU3ZDlmM2QzNWE0YzE5YzEjMCEGCSqGSIb3DQEJARYUbm9kZTAxMjhA
b2N0YXJpbmUuZGUwgZ8wDQYJKoZIhvcNAQEBBQADgY0AMIGJAoGBALpSRATlkhWm
bymbfg58rFYPwdu1I9FGHJU/e0cKBpmXuJ0Zglb58n4CsMqOYQCvAOGdOm/qMhGP
dJs6j3OJKrH65wQ0vyVkaTR88Yz+YYF41Gxj4WE27s0v0kRO3sXaykHIfdkLvlyw
QCW0HBKmjlDwKyvfBLTpUSu00gPKRApLAgMBAAEwDQYJKoZIhvcNAQEEBQADgYEA
bCMG1i2Ci7nqiH8ZW7YRF4ohQTmULaec9QBl7e6ouTN3UDzYNnE6wkk5vDHsnU7A
LQaVTvKZtzCL+wsXSXKWzNCT9m7LHy9QKhnZsWiKRS5yYkNIPOw9nhdbBQZP7Tv8
qokOmVzdahVY6wvfMe/4//7B3Q6nbIWcb5rHwmHa2BM=
-----END CERTIFICATE-----
