Certificate:
    Data:
        Version: 1 (0x0)
        Serial Number:
            9b:27:d7:e8:d1:ba:0a:51
        Signature Algorithm: md5WithRSAEncryption
        Issuer: C=DE, ST=Saarland, O=MPI-SWS, OU=Distributed Systems Group, CN=Andreas Haeberlen/emailAddress=democa@octarine.de
        Validity
            Not Before: Apr 20 20:47:25 2015 GMT
            Not After : Apr 19 20:47:25 2016 GMT
        Subject: C=DE, ST=Saarland, O=MPI-SWS, OU=Distributed Systems Group, CN=80b084fa4577468a550033832e9802f83b9cf864/emailAddress=node0633@octarine.de
        Subject Public Key Info:
            Public Key Algorithm: rsaEncryption
            RSA Public Key: (1024 bit)
                Modulus (1024 bit):
                    00:d8:08:03:cb:79:58:34:24:5b:13:ed:c3:a6:6d:
                    1f:e6:b9:b2:57:eb:0e:d1:ef:85:87:cf:17:f7:c0:
                    73:2e:99:bf:76:71:59:31:da:f3:b5:99:d1:18:3b:
                    4f:a7:20:59:37:4d:14:ad:14:0f:e4:f3:73:51:a8:
                    c4:ce:b1:1e:fd:1f:1d:4e:22:1e:19:3d:cc:98:9f:
                    e3:cb:68:76:c4:68:fd:53:b5:f3:5b:17:c9:be:37:
                    7c:bd:98:d1:57:53:af:27:f1:f9:5a:0d:2d:a5:05:
                    f1:f2:55:b3:a4:ed:dc:51:1d:6b:7c:91:80:91:02:
                    6d:f1:b2:84:43:43:86:f7:21
                Exponent: 65537 (0x10001)
    Signature Algorithm: md5WithRSAEncryption
        be:40:d9:7d:a2:4a:6f:c0:2f:3e:38:4c:32:f8:d2:6e:3f:28:
        64:9a:af:17:cb:83:e0:c2:ab:5f:6d:22:c4:d6:f5:cc:6c:44:
        61:79:42:5e:62:d0:1f:d1:08:43:a3:4a:62:66:a0:b2:37:f8:
        96:91:a7:5b:67:b6:58:9d:ee:e1:45:09:a9:c8:ad:d1:d7:64:
        b8:b0:94:4a:2b:50:a7:08:6f:7f:6d:fd:6e:df:34:e7:d4:07:
        18:10:d4:54:bb:20:37:21:fa:56:36:fa:e1:e5:3e:ed:06:09:
        0d:c1:96:1a:c8:d4:99:98:8a:7b:61:85:13:11:af:f7:a3:79:
        8c:81
-----BEGIN CERTIFICATE-----
MIICvDCCAiUCCQCbJ9fo0boKUTANBgkqhkiG9w0BAQQFADCBlTELMAkGA1UEBhMC
REUxETAPBgNVBAgTCFNhYXJsYW5kMRAwDgYDVQQKEwdNUEktU1dTMSIwIAYDVQQL
ExlEaXN0cmlidXRlZCBTeXN0ZW1zIEdyb3VwMRowGAYDVQQDExFBbmRyZWFzIEhh
ZWJlcmxlbjEhMB8GCSqGSIb3DQEJARYSZGVtb2NhQG9jdGFyaW5lLmRlMB4XDTE1
MDQyMDIwNDcyNVoXDTE2MDQxOTIwNDcyNVowga4xCzAJBgNVBAYTAkRFMREwDwYD
VQQIEwhTYWFybGFuZDEQMA4GA1UEChMHTVBJLVNXUzEiMCAGA1UECxMZRGlzdHJp
YnV0ZWQgU3lzdGVtcyBHcm91cDExMC8GA1UEAxMoODBiMDg0ZmE0NTc3NDY4YTU1
MDAzMzgzMmU5ODAyZjgzYjljZjg2NDEjMCEGCSqGSIb3DQEJARYUbm9kZTA2MzNA
b2N0YXJpbmUuZGUwgZ8wDQYJKoZIhvcNAQEBBQADgY0AMIGJAoGBANgIA8t5WDQk
WxPtw6ZtH+a5slfrDtHvhYfPF/fAcy6Zv3ZxWTHa87WZ0Rg7T6cgWTdNFK0UD+Tz
c1GoxM6xHv0fHU4iHhk9zJif48todsRo/VO181sXyb43fL2Y0VdTryfx+VoNLaUF
8fJVs6Tt3FEda3yRgJECbfGyhENDhvchAgMBAAEwDQYJKoZIhvcNAQEEBQADgYEA
vkDZfaJKb8AvPjhMMvjSbj8oZJqvF8uD4MKrX20ixNb1zGxEYXlCXmLQH9EIQ6NK
Ymagsjf4lpGnW2e2WJ3u4UUJqcit0ddkuLCUSitQpwhvf239bt8059QHGBDUVLsg
NyH6Vjb64eU+7QYJDcGWGsjUmZiKe2GFExGv96N5jIE=
-----END CERTIFICATE-----
