Certificate:
    Data:
        Version: 1 (0x0)
        Serial Number:
            9b:27:d7:e8:d1:ba:0b:49
        Signature Algorithm: md5WithRSAEncryption
        Issuer: C=DE, ST=Saarland, O=MPI-SWS, OU=Distributed Systems Group, CN=Andreas Haeberlen/emailAddress=democa@octarine.de
        Validity
            Not Before: Apr 20 20:47:36 2015 GMT
            Not After : Apr 19 20:47:36 2016 GMT
        Subject: C=DE, ST=Saarland, O=MPI-SWS, OU=Distributed Systems Group, CN=749803ddb6f30424120b0de64960137970174f4f/emailAddress=node0881@octarine.de
        Subject Public Key Info:
            Public Key Algorithm: rsaEncryption
            RSA Public Key: (1024 bit)
                Modulus (1024 bit):
                    00:ca:d6:5d:b4:0a:8a:08:59:20:12:50:c7:c2:fd:
                    d9:89:0b:d0:b3:85:d6:a3:10:f0:c8:bd:2a:ae:36:
                    72:9a:78:3f:59:67:5e:db:0f:3a:fe:09:ab:2d:e8:
                    74:d2:ff:70:7c:fb:4a:9d:00:1e:d2:1f:a8:d0:95:
                    4d:c0:3f:8f:35:1e:4a:7b:27:26:70:30:8c:a3:5b:
                    56:6a:86:58:88:5f:c2:3d:72:b3:9e:bb:90:0b:24:
                    0b:0f:61:e3:18:1c:69:8f:3b:d2:b1:f6:1a:c3:bb:
                    b6:85:d4:49:88:39:cd:03:bb:9a:0f:03:e7:42:ac:
                    bb:2a:bc:e4:b9:4b:46:2f:cd
                Exponent: 65537 (0x10001)
    Signature Algorithm: md5WithRSAEncryption
        25:d2:48:07:f6:84:56:6b:91:a4:f2:84:77:94:cb:32:cf:fc:
        98:32:8b:00:4e:3f:c8:9c:bb:c0:5f:2c:59:e0:50:7b:c8:bd:
        ac:e7:5d:42:d2:4e:84:df:d1:27:f4:78:bc:a1:40:fb:7b:1b:
        5d:06:80:fd:3b:d3:b7:0a:e4:53:a3:1e:28:ce:2d:68:2d:61:
        a0:e6:ed:cd:d9:71:e4:6a:5a:5c:0c:3e:d7:c9:3b:ae:60:bd:
        21:e3:7b:b9:fa:52:7c:33:70:dc:d2:ab:4f:c1:b8:f6:df:a1:
        c6:5d:1d:3a:42:7c:a8:69:e7:44:73:12:86:da:2c:8a:1f:c9:
        66:69
-----BEGIN CERTIFICATE-----
MIICvDCCAiUCCQCbJ9fo0boLSTANBgkqhkiG9w0BAQQFADCBlTELMAkGA1UEBhMC
REUxETAPBgNVBAgTCFNhYXJsYW5kMRAwDgYDVQQKEwdNUEktU1dTMSIwIAYDVQQL
ExlEaXN0cmlidXRlZCBTeXN0ZW1zIEdyb3VwMRowGAYDVQQDExFBbmRyZWFzIEhh
ZWJlcmxlbjEhMB8GCSqGSIb3DQEJARYSZGVtb2NhQG9jdGFyaW5lLmRlMB4XDTE1
MDQyMDIwNDczNloXDTE2MDQxOTIwNDczNlowga4xCzAJBgNVBAYTAkRFMREwDwYD
VQQIEwhTYWFybGFuZDEQMA4GA1UEChMHTVBJLVNXUzEiMCAGA1UECxMZRGlzdHJp
YnV0ZWQgU3lzdGVtcyBHcm91cDExMC8GA1UEAxMoNzQ5ODAzZGRiNmYzMDQyNDEy
MGIwZGU2NDk2MDEzNzk3MDE3NGY0ZjEjMCEGCSqGSIb3DQEJARYUbm9kZTA4ODFA
b2N0YXJpbmUuZGUwgZ8wDQYJKoZIhvcNAQEBBQADgY0AMIGJAoGBAMrWXbQKighZ
IBJQx8L92YkL0LOF1qMQ8Mi9Kq42cpp4P1lnXtsPOv4Jqy3odNL/cHz7Sp0AHtIf
qNCVTcA/jzUeSnsnJnAwjKNbVmqGWIhfwj1ys567kAskCw9h4xgcaY870rH2GsO7
toXUSYg5zQO7mg8D50Ksuyq85LlLRi/NAgMBAAEwDQYJKoZIhvcNAQEEBQADgYEA
JdJIB/aEVmuRpPKEd5TLMs/8mDKLAE4/yJy7wF8sWeBQe8i9rOddQtJOhN/RJ/R4
vKFA+3sbXQaA/TvTtwrkU6MeKM4taC1hoObtzdlx5GpaXAw+18k7rmC9IeN7ufpS
fDNw3NKrT8G49t+hxl0dOkJ8qGnnRHMShtosih/JZmk=
-----END CERTIFICATE-----
