Certificate:
    Data:
        Version: 1 (0x0)
        Serial Number:
            9b:27:d7:e8:d1:ba:09:80
        Signature Algorithm: md5WithRSAEncryption
        Issuer: C=DE, ST=Saarland, O=MPI-SWS, OU=Distributed Systems Group, CN=Andreas Haeberlen/emailAddress=democa@octarine.de
        Validity
            Not Before: Apr 20 20:47:15 2015 GMT
            Not After : Apr 19 20:47:15 2016 GMT
        Subject: C=DE, ST=Saarland, O=MPI-SWS, OU=Distributed Systems Group, CN=36ff20d15ebbd32b8cbc88f0fb46db7117047e5c/emailAddress=node0424@octarine.de
        Subject Public Key Info:
            Public Key Algorithm: rsaEncryption
            RSA Public Key: (1024 bit)
                Modulus (1024 bit):
                    00:cf:7e:28:39:92:be:b7:eb:6c:79:9f:64:b9:63:
                    a1:9e:d0:24:79:b4:f6:01:ea:e0:aa:5f:74:bc:65:
                    88:ec:75:d4:20:c2:16:f5:67:98:3b:42:0a:21:cf:
                    95:51:32:42:73:db:f4:2f:70:9f:07:70:6f:c7:7a:
                    5a:2c:6c:10:e3:1b:20:92:e4:08:c6:98:c4:91:17:
                    41:38:12:52:af:cf:a3:c5:dd:30:03:19:1d:14:97:
                    3c:a4:19:19:a0:6c:b6:fa:f2:9d:6c:09:08:91:45:
                    b5:d1:a8:44:10:a5:d4:2e:ab:9e:ec:f5:bc:f5:9d:
                    4e:47:7a:e2:2b:32:94:76:9d
                Exponent: 65537 (0x10001)
    Signature Algorithm: md5WithRSAEncryption
        a1:18:14:95:dc:f9:ae:f5:a4:91:c8:49:f7:0b:86:ff:22:ee:
        95:15:9b:5b:e0:ba:c2:55:4e:10:96:89:1d:26:23:58:90:fe:
        19:d2:4c:f6:77:4c:d2:6e:56:c6:44:88:77:49:70:84:92:4d:
        02:a3:da:db:e8:c2:04:03:90:c4:a9:83:f7:cd:76:fd:ab:12:
        3b:e6:7f:85:b7:80:18:51:ae:86:d9:84:d6:62:d3:b3:36:e8:
        fc:1c:4e:be:10:f7:4a:65:81:73:37:b3:da:78:d9:5b:f0:b3:
        60:a1:4a:b2:a6:3d:16:da:23:37:d2:e4:84:6a:71:de:ca:36:
        86:22
-----BEGIN CERTIFICATE-----
MIICvDCCAiUCCQCbJ9fo0boJgDANBgkqhkiG9w0BAQQFADCBlTELMAkGA1UEBhMC
REUxETAPBgNVBAgTCFNhYXJsYW5kMRAwDgYDVQQKEwdNUEktU1dTMSIwIAYDVQQL
ExlEaXN0cmlidXRlZCBTeXN0ZW1zIEdyb3VwMRowGAYDVQQDExFBbmRyZWFzIEhh
ZWJlcmxlbjEhMB8GCSqGSIb3DQEJARYSZGVtb2NhQG9jdGFyaW5lLmRlMB4XDTE1
MDQyMDIwNDcxNVoXDTE2MDQxOTIwNDcxNVowga4xCzAJBgNVBAYTAkRFMREwDwYD
VQQIEwhTYWFybGFuZDEQMA4GA1UEChMHTVBJLVNXUzEiMCAGA1UECxMZRGlzdHJp
YnV0ZWQgU3lzdGVtcyBHcm91cDExMC8GA1UEAxMoMzZmZjIwZDE1ZWJiZDMyYjhj
YmM4OGYwZmI0NmRiNzExNzA0N2U1YzEjMCEGCSqGSIb3DQEJARYUbm9kZTA0MjRA
b2N0YXJpbmUuZGUwgZ8wDQYJKoZIhvcNAQEBBQADgY0AMIGJAoGBAM9+KDmSvrfr
bHmfZLljoZ7QJHm09gHq4KpfdLxliOx11CDCFvVnmDtCCiHPlVEyQnPb9C9wnwdw
b8d6WixsEOMbIJLkCMaYxJEXQTgSUq/Po8XdMAMZHRSXPKQZGaBstvrynWwJCJFF
tdGoRBCl1C6rnuz1vPWdTkd64isylHadAgMBAAEwDQYJKoZIhvcNAQEEBQADgYEA
oRgUldz5rvWkkchJ9wuG/yLulRWbW+C6wlVOEJaJHSYjWJD+GdJM9ndM0m5WxkSI
d0lwhJJNAqPa2+jCBAOQxKmD9812/asSO+Z/hbeAGFGuhtmE1mLTszbo/BxOvhD3
SmWBczez2njZW/CzYKFKsqY9FtojN9LkhGpx3so2hiI=
-----END CERTIFICATE-----
