Certificate:
    Data:
        Version: 1 (0x0)
        Serial Number:
            9b:27:d7:e8:d1:ba:0b:6c
        Signature Algorithm: md5WithRSAEncryption
        Issuer: C=DE, ST=Saarland, O=MPI-SWS, OU=Distributed Systems Group, CN=Andreas Haeberlen/emailAddress=democa@octarine.de
        Validity
            Not Before: Apr 20 20:47:37 2015 GMT
            Not After : Apr 19 20:47:37 2016 GMT
        Subject: C=DE, ST=Saarland, O=MPI-SWS, OU=Distributed Systems Group, CN=a9b87d429cd60bfc9eb80ff3aa939573e2b6f099/emailAddress=node0916@octarine.de
        Subject Public Key Info:
            Public Key Algorithm: rsaEncryption
            RSA Public Key: (1024 bit)
                Modulus (1024 bit):
                    00:a7:ae:68:2d:bb:5e:91:da:c8:d8:13:82:43:30:
                    b9:95:41:05:3d:ed:39:39:6a:1c:67:a0:ea:e5:64:
                    82:e5:fa:9a:0b:fa:65:ef:22:22:8f:d6:22:c7:6e:
                    35:f2:6c:9d:45:a0:de:4a:d6:2c:02:34:0c:1a:e7:
                    9c:f2:a2:3a:b6:35:32:20:f7:54:a6:e1:48:a2:b4:
                    27:3e:1c:63:da:12:8a:66:dd:93:16:c0:6a:a6:09:
                    8f:ec:98:6a:49:84:72:b4:fe:d2:4e:d8:f6:f7:22:
                    c5:dd:eb:3f:22:84:e6:07:c7:0b:8f:60:3d:32:ed:
                    e5:a8:52:de:36:ab:e6:4b:45
                Exponent: 65537 (0x10001)
    Signature Algorithm: md5WithRSAEncryption
        15:1f:f7:cb:42:92:ed:b8:35:3b:3b:d4:4c:7f:86:86:00:9f:
        ee:74:63:7e:d0:e6:10:28:e8:87:48:24:78:3b:3d:b8:8e:36:
        d2:35:ed:6f:13:0b:97:70:a3:db:ec:1b:57:15:4c:f3:7c:cb:
        91:25:ee:97:bb:dc:86:ab:41:25:e6:8c:c5:84:0b:ce:a2:b3:
        4c:94:1e:81:c3:dd:ac:29:01:6b:70:61:e9:ef:cb:89:01:2a:
        57:ec:5d:65:5a:7c:4c:e6:8c:f5:ee:1b:5d:6f:38:0f:0b:bf:
        e5:8a:d0:f9:61:8f:20:8b:df:85:ab:bc:89:04:70:80:34:f3:
        50:5a
-----BEGIN CERTIFICATE-----
MIICvDCCAiUCCQCbJ9fo0boLbDANBgkqhkiG9w0BAQQFADCBlTELMAkGA1UEBhMC
REUxETAPBgNVBAgTCFNhYXJsYW5kMRAwDgYDVQQKEwdNUEktU1dTMSIwIAYDVQQL
ExlEaXN0cmlidXRlZCBTeXN0ZW1zIEdyb3VwMRowGAYDVQQDExFBbmRyZWFzIEhh
ZWJlcmxlbjEhMB8GCSqGSIb3DQEJARYSZGVtb2NhQG9jdGFyaW5lLmRlMB4XDTE1
MDQyMDIwNDczN1oXDTE2MDQxOTIwNDczN1owga4xCzAJBgNVBAYTAkRFMREwDwYD
VQQIEwhTYWFybGFuZDEQMA4GA1UEChMHTVBJLVNXUzEiMCAGA1UECxMZRGlzdHJp
YnV0ZWQgU3lzdGVtcyBHcm91cDExMC8GA1UEAxMoYTliODdkNDI5Y2Q2MGJmYzll
YjgwZmYzYWE5Mzk1NzNlMmI2ZjA5OTEjMCEGCSqGSIb3DQEJARYUbm9kZTA5MTZA
b2N0YXJpbmUuZGUwgZ8wDQYJKoZIhvcNAQEBBQADgY0AMIGJAoGBAKeuaC27XpHa
yNgTgkMwuZVBBT3tOTlqHGeg6uVkguX6mgv6Ze8iIo/WIsduNfJsnUWg3krWLAI0
DBrnnPKiOrY1MiD3VKbhSKK0Jz4cY9oSimbdkxbAaqYJj+yYakmEcrT+0k7Y9vci
xd3rPyKE5gfHC49gPTLt5ahS3jar5ktFAgMBAAEwDQYJKoZIhvcNAQEEBQADgYEA
FR/3y0KS7bg1OzvUTH+GhgCf7nRjftDmECjoh0gkeDs9uI420jXtbxMLl3Cj2+wb
VxVM83zLkSXul7vchqtBJeaMxYQLzqKzTJQegcPdrCkBa3Bh6e/LiQEqV+xdZVp8
TOaM9e4bXW84Dwu/5YrQ+WGPIIvfhau8iQRwgDTzUFo=
-----END CERTIFICATE-----
