Certificate:
    Data:
        Version: 1 (0x0)
        Serial Number:
            9b:27:d7:e8:d1:ba:09:32
        Signature Algorithm: md5WithRSAEncryption
        Issuer: C=DE, ST=Saarland, O=MPI-SWS, OU=Distributed Systems Group, CN=Andreas Haeberlen/emailAddress=democa@octarine.de
        Validity
            Not Before: Apr 20 20:47:12 2015 GMT
            Not After : Apr 19 20:47:12 2016 GMT
        Subject: C=DE, ST=Saarland, O=MPI-SWS, OU=Distributed Systems Group, CN=9cc1db1770a903c32655e8980248f7f84c917b8f/emailAddress=node0346@octarine.de
        Subject Public Key Info:
            Public Key Algorithm: rsaEncryption
            RSA Public Key: (1024 bit)
                Modulus (1024 bit):
                    00:a0:8c:16:d3:d5:6b:68:37:56:07:3a:bb:f5:71:
                    13:59:18:c2:ef:df:0c:d8:1f:c0:cd:03:33:fc:c5:
                    5a:82:96:08:6b:27:60:71:14:73:5e:80:1a:d3:f5:
                    75:aa:3f:8d:0d:1d:47:12:15:f7:78:a5:c1:55:b9:
                    da:4f:54:66:eb:0d:e7:f3:c4:e8:10:bc:9f:9c:a7:
                    8a:de:2d:9a:b0:2f:39:32:f8:94:93:42:9b:d4:48:
                    a1:1b:a5:05:c8:08:76:42:57:be:fc:25:f7:26:46:
                    25:c9:d9:48:30:c6:9b:78:f2:26:73:51:b4:0c:0a:
                    b3:23:12:32:cb:a6:65:a5:d3
                Exponent: 65537 (0x10001)
    Signature Algorithm: md5WithRSAEncryption
        a6:8d:f7:c1:14:0e:a0:4f:2a:f0:35:02:e1:ae:5c:87:af:97:
        bc:b4:97:12:76:b9:66:72:69:2c:b4:b2:e3:36:41:f8:2e:f3:
        d0:38:10:aa:10:f9:2c:ea:1c:f1:8b:ab:19:94:45:37:6d:b4:
        e4:45:2d:48:34:9c:e8:58:82:3c:62:13:f6:12:fe:b4:cd:fb:
        80:65:23:27:57:13:1c:0c:5d:5c:76:bc:f3:93:e3:d6:ad:be:
        f6:39:94:a0:52:d4:7b:4d:97:21:18:ff:e0:47:b5:90:43:36:
        6d:dc:f3:8c:de:64:d9:7e:7c:67:36:a1:58:01:27:28:8d:df:
        ac:50
-----BEGIN CERTIFICATE-----
MIICvDCCAiUCCQCbJ9fo0boJMjANBgkqhkiG9w0BAQQFADCBlTELMAkGA1UEBhMC
REUxETAPBgNVBAgTCFNhYXJsYW5kMRAwDgYDVQQKEwdNUEktU1dTMSIwIAYDVQQL
ExlEaXN0cmlidXRlZCBTeXN0ZW1zIEdyb3VwMRowGAYDVQQDExFBbmRyZWFzIEhh
ZWJlcmxlbjEhMB8GCSqGSIb3DQEJARYSZGVtb2NhQG9jdGFyaW5lLmRlMB4XDTE1
MDQyMDIwNDcxMloXDTE2MDQxOTIwNDcxMlowga4xCzAJBgNVBAYTAkRFMREwDwYD
VQQIEwhTYWFybGFuZDEQMA4GA1UEChMHTVBJLVNXUzEiMCAGA1UECxMZRGlzdHJp
YnV0ZWQgU3lzdGVtcyBHcm91cDExMC8GA1UEAxMoOWNjMWRiMTc3MGE5MDNjMzI2
NTVlODk4MDI0OGY3Zjg0YzkxN2I4ZjEjMCEGCSqGSIb3DQEJARYUbm9kZTAzNDZA
b2N0YXJpbmUuZGUwgZ8wDQYJKoZIhvcNAQEBBQADgY0AMIGJAoGBAKCMFtPVa2g3
Vgc6u/VxE1kYwu/fDNgfwM0DM/zFWoKWCGsnYHEUc16AGtP1dao/jQ0dRxIV93il
wVW52k9UZusN5/PE6BC8n5ynit4tmrAvOTL4lJNCm9RIoRulBcgIdkJXvvwl9yZG
JcnZSDDGm3jyJnNRtAwKsyMSMsumZaXTAgMBAAEwDQYJKoZIhvcNAQEEBQADgYEA
po33wRQOoE8q8DUC4a5ch6+XvLSXEna5ZnJpLLSy4zZB+C7z0DgQqhD5LOoc8Yur
GZRFN2205EUtSDSc6FiCPGIT9hL+tM37gGUjJ1cTHAxdXHa885Pj1q2+9jmUoFLU
e02XIRj/4Ee1kEM2bdzzjN5k2X58ZzahWAEnKI3frFA=
-----END CERTIFICATE-----
