Certificate:
    Data:
        Version: 1 (0x0)
        Serial Number:
            9b:27:d7:e8:d1:ba:09:e9
        Signature Algorithm: md5WithRSAEncryption
        Issuer: C=DE, ST=Saarland, O=MPI-SWS, OU=Distributed Systems Group, CN=Andreas Haeberlen/emailAddress=democa@octarine.de
        Validity
            Not Before: Apr 20 20:47:20 2015 GMT
            Not After : Apr 19 20:47:20 2016 GMT
        Subject: C=DE, ST=Saarland, O=MPI-SWS, OU=Distributed Systems Group, CN=1e9f4d0fea0fd451cedb4feddef0920a0a947946/emailAddress=node0529@octarine.de
        Subject Public Key Info:
            Public Key Algorithm: rsaEncryption
            RSA Public Key: (1024 bit)
                Modulus (1024 bit):
                    00:dd:ab:63:04:82:7b:03:30:39:d1:dd:07:95:8b:
                    77:64:ca:a7:ef:37:72:96:ae:38:dd:77:0e:62:af:
                    38:67:05:bf:4c:2b:0a:67:73:59:bd:22:ae:c0:35:
                    84:53:0b:8a:76:53:63:d9:7a:ed:d9:4c:d0:47:a1:
                    b6:d9:9a:6f:c9:08:00:03:a2:f9:d9:69:92:6b:76:
                    dd:57:ff:57:5c:0f:67:bd:ae:c6:0f:bd:a9:e7:00:
                    37:d5:28:85:78:ac:0d:ff:f6:a1:d0:dc:fd:de:74:
                    72:61:ff:79:5b:9a:9d:0a:d0:6b:12:e1:c3:cc:9b:
                    82:7c:6b:60:3d:1e:42:9b:eb
                Exponent: 65537 (0x10001)
    Signature Algorithm: md5WithRSAEncryption
        90:15:aa:62:85:d1:62:7b:42:8c:fc:99:17:c7:c1:fc:b4:bd:
        85:89:bb:7a:8f:36:08:96:d5:a1:96:9f:0b:06:04:1b:00:b1:
        51:42:15:1a:62:0b:31:44:5d:7a:32:7e:ac:5d:26:2c:e1:8a:
        d9:64:95:10:3e:28:3a:4b:bb:c7:52:c8:a9:5c:a7:9d:49:02:
        5f:7e:ca:d2:d4:85:ca:5e:09:e9:e9:82:8d:66:1e:a4:9e:14:
        05:b8:33:66:9a:52:77:5e:f6:ab:bd:df:1f:05:fb:37:ee:ac:
        ef:70:35:46:04:1d:29:a1:d9:6e:ee:26:dc:9e:85:16:86:61:
        47:07
-----BEGIN CERTIFICATE-----
MIICvDCCAiUCCQCbJ9fo0boJ6TANBgkqhkiG9w0BAQQFADCBlTELMAkGA1UEBhMC
REUxETAPBgNVBAgTCFNhYXJsYW5kMRAwDgYDVQQKEwdNUEktU1dTMSIwIAYDVQQL
ExlEaXN0cmlidXRlZCBTeXN0ZW1zIEdyb3VwMRowGAYDVQQDExFBbmRyZWFzIEhh
ZWJlcmxlbjEhMB8GCSqGSIb3DQEJARYSZGVtb2NhQG9jdGFyaW5lLmRlMB4XDTE1
MDQyMDIwNDcyMFoXDTE2MDQxOTIwNDcyMFowga4xCzAJBgNVBAYTAkRFMREwDwYD
VQQIEwhTYWFybGFuZDEQMA4GA1UEChMHTVBJLVNXUzEiMCAGA1UECxMZRGlzdHJp
YnV0ZWQgU3lzdGVtcyBHcm91cDExMC8GA1UEAxMoMWU5ZjRkMGZlYTBmZDQ1MWNl
ZGI0ZmVkZGVmMDkyMGEwYTk0Nzk0NjEjMCEGCSqGSIb3DQEJARYUbm9kZTA1MjlA
b2N0YXJpbmUuZGUwgZ8wDQYJKoZIhvcNAQEBBQADgY0AMIGJAoGBAN2rYwSCewMw
OdHdB5WLd2TKp+83cpauON13DmKvOGcFv0wrCmdzWb0irsA1hFMLinZTY9l67dlM
0Eehttmab8kIAAOi+dlpkmt23Vf/V1wPZ72uxg+9qecAN9UohXisDf/2odDc/d50
cmH/eVuanQrQaxLhw8ybgnxrYD0eQpvrAgMBAAEwDQYJKoZIhvcNAQEEBQADgYEA
kBWqYoXRYntCjPyZF8fB/LS9hYm7eo82CJbVoZafCwYEGwCxUUIVGmILMURdejJ+
rF0mLOGK2WSVED4oOku7x1LIqVynnUkCX37K0tSFyl4J6emCjWYepJ4UBbgzZppS
d172q73fHwX7N+6s73A1RgQdKaHZbu4m3J6FFoZhRwc=
-----END CERTIFICATE-----
