Certificate:
    Data:
        Version: 1 (0x0)
        Serial Number:
            9b:27:d7:e8:d1:ba:09:5b
        Signature Algorithm: md5WithRSAEncryption
        Issuer: C=DE, ST=Saarland, O=MPI-SWS, OU=Distributed Systems Group, CN=Andreas Haeberlen/emailAddress=democa@octarine.de
        Validity
            Not Before: Apr 20 20:47:13 2015 GMT
            Not After : Apr 19 20:47:13 2016 GMT
        Subject: C=DE, ST=Saarland, O=MPI-SWS, OU=Distributed Systems Group, CN=83a6c1eaab7d7c21a8c11c9e39cba4337e9308da/emailAddress=node0387@octarine.de
        Subject Public Key Info:
            Public Key Algorithm: rsaEncryption
            RSA Public Key: (1024 bit)
                Modulus (1024 bit):
                    00:b8:a6:d6:5b:0c:9f:ae:ce:8c:53:62:dd:8d:1b:
                    87:41:79:02:9b:53:68:89:82:ef:97:fb:7d:b7:88:
                    91:db:f1:60:6b:7c:c4:90:f4:96:c1:a0:d4:5a:bd:
                    0c:0d:a8:4a:a8:11:d4:9f:ad:36:b2:3f:ce:15:d9:
                    b4:65:c2:f5:49:b1:14:c6:89:98:9e:a0:eb:f8:b9:
                    d4:fe:0b:13:71:95:ae:ea:8f:67:2b:ab:6a:40:e9:
                    fc:01:b7:d7:e3:16:fd:34:88:0b:cd:8d:1a:25:1f:
                    dc:57:96:63:9f:67:e5:f4:20:5f:70:a3:bd:75:3e:
                    dc:c6:b1:fe:39:4d:75:11:d3
                Exponent: 65537 (0x10001)
    Signature Algorithm: md5WithRSAEncryption
        0f:10:55:a0:77:0d:f9:46:79:b5:74:50:3d:5a:b4:a6:21:8a:
        5a:36:6d:2b:46:1d:b7:76:41:20:56:bd:0d:35:c0:83:72:42:
        82:43:e6:fb:3f:37:31:0d:3c:31:f8:bb:60:aa:cc:40:0d:4a:
        f8:61:6c:9d:23:d1:ef:b0:30:35:8f:d9:21:94:14:e4:07:fd:
        e8:4c:0d:57:1b:8c:09:dd:d9:64:41:6d:f5:19:98:4b:39:2d:
        a7:f2:11:a7:8b:7e:04:c7:b4:7b:62:98:5d:e7:cc:fd:3d:ed:
        dc:a1:68:2d:e2:c1:eb:d8:ab:9f:a9:37:b3:46:ee:e4:cf:d0:
        6a:d6
-----BEGIN CERTIFICATE-----
MIICvDCCAiUCCQCbJ9fo0boJWzANBgkqhkiG9w0BAQQFADCBlTELMAkGA1UEBhMC
REUxETAPBgNVBAgTCFNhYXJsYW5kMRAwDgYDVQQKEwdNUEktU1dTMSIwIAYDVQQL
ExlEaXN0cmlidXRlZCBTeXN0ZW1zIEdyb3VwMRowGAYDVQQDExFBbmRyZWFzIEhh
ZWJlcmxlbjEhMB8GCSqGSIb3DQEJARYSZGVtb2NhQG9jdGFyaW5lLmRlMB4XDTE1
MDQyMDIwNDcxM1oXDTE2MDQxOTIwNDcxM1owga4xCzAJBgNVBAYTAkRFMREwDwYD
VQQIEwhTYWFybGFuZDEQMA4GA1UEChMHTVBJLVNXUzEiMCAGA1UECxMZRGlzdHJp
YnV0ZWQgU3lzdGVtcyBHcm91cDExMC8GA1UEAxMoODNhNmMxZWFhYjdkN2MyMWE4
YzExYzllMzljYmE0MzM3ZTkzMDhkYTEjMCEGCSqGSIb3DQEJARYUbm9kZTAzODdA
b2N0YXJpbmUuZGUwgZ8wDQYJKoZIhvcNAQEBBQADgY0AMIGJAoGBALim1lsMn67O
jFNi3Y0bh0F5AptTaImC75f7fbeIkdvxYGt8xJD0lsGg1Fq9DA2oSqgR1J+tNrI/
zhXZtGXC9UmxFMaJmJ6g6/i51P4LE3GVruqPZyurakDp/AG31+MW/TSIC82NGiUf
3FeWY59n5fQgX3CjvXU+3Max/jlNdRHTAgMBAAEwDQYJKoZIhvcNAQEEBQADgYEA
DxBVoHcN+UZ5tXRQPVq0piGKWjZtK0Ydt3ZBIFa9DTXAg3JCgkPm+z83MQ08Mfi7
YKrMQA1K+GFsnSPR77AwNY/ZIZQU5Af96EwNVxuMCd3ZZEFt9RmYSzktp/IRp4t+
BMe0e2KYXefM/T3t3KFoLeLB69irn6k3s0bu5M/QatY=
-----END CERTIFICATE-----
