Certificate:
    Data:
        Version: 1 (0x0)
        Serial Number:
            9b:27:d7:e8:d1:ba:0a:ec
        Signature Algorithm: md5WithRSAEncryption
        Issuer: C=DE, ST=Saarland, O=MPI-SWS, OU=Distributed Systems Group, CN=Andreas Haeberlen/emailAddress=democa@octarine.de
        Validity
            Not Before: Apr 20 20:47:32 2015 GMT
            Not After : Apr 19 20:47:32 2016 GMT
        Subject: C=DE, ST=Saarland, O=MPI-SWS, OU=Distributed Systems Group, CN=5463c09b1e5beddf606fcdfbfa85f754bc77c12d/emailAddress=node0788@octarine.de
        Subject Public Key Info:
            Public Key Algorithm: rsaEncryption
            RSA Public Key: (1024 bit)
                Modulus (1024 bit):
                    00:b2:d3:94:2a:39:2e:07:35:4a:c3:dc:26:03:ea:
                    e2:27:17:e4:c2:7e:88:50:32:9c:b8:70:9b:b2:96:
                    51:91:97:c6:d5:5d:18:01:55:db:02:00:66:de:cc:
                    d7:ea:b6:ce:b8:2c:52:45:c7:98:70:1f:4e:7b:d2:
                    d6:60:c6:ff:3d:7c:dd:b1:26:9b:62:fc:a6:dc:e7:
                    69:9a:2f:52:cc:a5:6f:92:41:65:5a:20:00:be:f9:
                    e8:c9:7e:c1:55:3b:f7:07:32:45:1b:2d:19:4b:17:
                    63:f5:65:c5:bb:80:5c:71:48:1a:51:69:a2:ae:4c:
                    33:65:12:7b:59:5a:56:50:65
                Exponent: 65537 (0x10001)
    Signature Algorithm: md5WithRSAEncryption
        4d:72:f9:b2:64:36:f7:8e:61:61:cf:56:b0:23:da:64:af:ac:
        63:63:96:cd:95:79:e2:14:38:5f:08:11:7b:fc:a1:17:67:54:
        52:03:2d:a6:5f:1f:82:98:40:24:65:94:50:64:5f:64:94:28:
        01:a5:3e:d0:85:cf:ef:c8:a9:de:d2:fc:46:af:42:ff:2b:37:
        b7:ff:cc:bb:9b:e9:d3:a8:bf:06:4e:d0:b6:4d:6e:23:74:f2:
        11:ed:39:ce:e3:c2:56:30:e7:38:99:db:d4:67:91:5d:1a:e7:
        cf:28:f6:f2:93:99:9d:1f:a1:d9:f5:dd:47:ef:fa:8d:47:00:
        fe:21
-----BEGIN CERTIFICATE-----
MIICvDCCAiUCCQCbJ9fo0boK7DANBgkqhkiG9w0BAQQFADCBlTELMAkGA1UEBhMC
REUxETAPBgNVBAgTCFNhYXJsYW5kMRAwDgYDVQQKEwdNUEktU1dTMSIwIAYDVQQL
ExlEaXN0cmlidXRlZCBTeXN0ZW1zIEdyb3VwMRowGAYDVQQDExFBbmRyZWFzIEhh
ZWJlcmxlbjEhMB8GCSqGSIb3DQEJARYSZGVtb2NhQG9jdGFyaW5lLmRlMB4XDTE1
MDQyMDIwNDczMloXDTE2MDQxOTIwNDczMlowga4xCzAJBgNVBAYTAkRFMREwDwYD
VQQIEwhTYWFybGFuZDEQMA4GA1UEChMHTVBJLVNXUzEiMCAGA1UECxMZRGlzdHJp
YnV0ZWQgU3lzdGVtcyBHcm91cDExMC8GA1UEAxMoNTQ2M2MwOWIxZTViZWRkZjYw
NmZjZGZiZmE4NWY3NTRiYzc3YzEyZDEjMCEGCSqGSIb3DQEJARYUbm9kZTA3ODhA
b2N0YXJpbmUuZGUwgZ8wDQYJKoZIhvcNAQEBBQADgY0AMIGJAoGBALLTlCo5Lgc1
SsPcJgPq4icX5MJ+iFAynLhwm7KWUZGXxtVdGAFV2wIAZt7M1+q2zrgsUkXHmHAf
TnvS1mDG/z183bEmm2L8ptznaZovUsylb5JBZVogAL756Ml+wVU79wcyRRstGUsX
Y/VlxbuAXHFIGlFpoq5MM2USe1laVlBlAgMBAAEwDQYJKoZIhvcNAQEEBQADgYEA
TXL5smQ2945hYc9WsCPaZK+sY2OWzZV54hQ4XwgRe/yhF2dUUgMtpl8fgphAJGWU
UGRfZJQoAaU+0IXP78ip3tL8Rq9C/ys3t//Mu5vp06i/Bk7Qtk1uI3TyEe05zuPC
VjDnOJnb1GeRXRrnzyj28pOZnR+h2fXdR+/6jUcA/iE=
-----END CERTIFICATE-----
