Certificate:
    Data:
        Version: 1 (0x0)
        Serial Number:
            9b:27:d7:e8:d1:ba:09:b0
        Signature Algorithm: md5WithRSAEncryption
        Issuer: C=DE, ST=Saarland, O=MPI-SWS, OU=Distributed Systems Group, CN=Andreas Haeberlen/emailAddress=democa@octarine.de
        Validity
            Not Before: Apr 20 20:47:17 2015 GMT
            Not After : Apr 19 20:47:17 2016 GMT
        Subject: C=DE, ST=Saarland, O=MPI-SWS, OU=Distributed Systems Group, CN=e6fa9524832a56db4349ddf8243e8b87281bd4f6/emailAddress=node0472@octarine.de
        Subject Public Key Info:
            Public Key Algorithm: rsaEncryption
            RSA Public Key: (1024 bit)
                Modulus (1024 bit):
                    00:b9:53:06:1d:21:76:e8:5a:a1:58:70:bc:8b:91:
                    eb:11:6f:50:a0:7a:df:cd:ab:ea:aa:2d:9b:7b:d1:
                    ae:c7:65:ff:ef:63:4f:28:87:e8:3a:05:25:a7:80:
                    bb:c7:9f:58:35:b3:f1:1f:21:33:84:e0:15:76:5c:
                    76:24:1c:1a:96:dc:0f:da:16:99:97:a8:ed:c4:f5:
                    73:74:47:27:d1:cf:52:bd:ff:8d:db:b9:88:57:03:
                    7d:38:75:1d:e9:0d:24:b8:23:8a:00:30:91:74:9d:
                    dc:63:22:90:0c:b9:4f:96:88:97:71:09:09:0c:7c:
                    10:bc:a2:f8:15:90:5f:01:dd
                Exponent: 65537 (0x10001)
    Signature Algorithm: md5WithRSAEncryption
        7f:ff:95:76:a4:56:97:46:0f:fd:46:26:bb:6e:7a:a8:70:9d:
        d9:68:d5:57:a8:3b:23:03:7b:88:ad:da:f4:9f:99:1d:bd:ce:
        8a:61:8b:d6:87:39:4e:59:cf:3a:f5:b2:d2:38:9f:05:f1:55:
        c3:6e:9e:f0:f4:a8:25:90:ec:aa:c8:bc:e4:3f:17:46:97:1e:
        09:64:59:43:a2:48:1f:06:9d:3d:46:b9:39:24:95:d2:96:c7:
        f3:37:23:6e:aa:18:1b:4c:e3:77:15:bc:ec:f9:d8:bf:86:4c:
        36:77:e3:8f:a4:d5:18:a5:47:d6:e2:b9:ea:fb:9d:f3:3d:61:
        3d:32
-----BEGIN CERTIFICATE-----
MIICvDCCAiUCCQCbJ9fo0boJsDANBgkqhkiG9w0BAQQFADCBlTELMAkGA1UEBhMC
REUxETAPBgNVBAgTCFNhYXJsYW5kMRAwDgYDVQQKEwdNUEktU1dTMSIwIAYDVQQL
ExlEaXN0cmlidXRlZCBTeXN0ZW1zIEdyb3VwMRowGAYDVQQDExFBbmRyZWFzIEhh
ZWJlcmxlbjEhMB8GCSqGSIb3DQEJARYSZGVtb2NhQG9jdGFyaW5lLmRlMB4XDTE1
MDQyMDIwNDcxN1oXDTE2MDQxOTIwNDcxN1owga4xCzAJBgNVBAYTAkRFMREwDwYD
VQQIEwhTYWFybGFuZDEQMA4GA1UEChMHTVBJLVNXUzEiMCAGA1UECxMZRGlzdHJp
YnV0ZWQgU3lzdGVtcyBHcm91cDExMC8GA1UEAxMoZTZmYTk1MjQ4MzJhNTZkYjQz
NDlkZGY4MjQzZThiODcyODFiZDRmNjEjMCEGCSqGSIb3DQEJARYUbm9kZTA0NzJA
b2N0YXJpbmUuZGUwgZ8wDQYJKoZIhvcNAQEBBQADgY0AMIGJAoGBALlTBh0hduha
oVhwvIuR6xFvUKB6382r6qotm3vRrsdl/+9jTyiH6DoFJaeAu8efWDWz8R8hM4Tg
FXZcdiQcGpbcD9oWmZeo7cT1c3RHJ9HPUr3/jdu5iFcDfTh1HekNJLgjigAwkXSd
3GMikAy5T5aIl3EJCQx8ELyi+BWQXwHdAgMBAAEwDQYJKoZIhvcNAQEEBQADgYEA
f/+VdqRWl0YP/UYmu256qHCd2WjVV6g7IwN7iK3a9J+ZHb3OimGL1oc5TlnPOvWy
0jifBfFVw26e8PSoJZDsqsi85D8XRpceCWRZQ6JIHwadPUa5OSSV0pbH8zcjbqoY
G0zjdxW87PnYv4ZMNnfjj6TVGKVH1uK56vud8z1hPTI=
-----END CERTIFICATE-----
