Certificate:
    Data:
        Version: 1 (0x0)
        Serial Number:
            9b:27:d7:e8:d1:ba:08:fe
        Signature Algorithm: md5WithRSAEncryption
        Issuer: C=DE, ST=Saarland, O=MPI-SWS, OU=Distributed Systems Group, CN=Andreas Haeberlen/emailAddress=democa@octarine.de
        Validity
            Not Before: Apr 20 20:47:09 2015 GMT
            Not After : Apr 19 20:47:09 2016 GMT
        Subject: C=DE, ST=Saarland, O=MPI-SWS, OU=Distributed Systems Group, CN=d9fab2f1e26a31aad27e82672b4882f6bf172081/emailAddress=node0294@octarine.de
        Subject Public Key Info:
            Public Key Algorithm: rsaEncryption
            RSA Public Key: (1024 bit)
                Modulus (1024 bit):
                    00:e0:7d:11:5d:20:7c:40:01:3c:0c:84:d2:8a:fd:
                    9b:d5:fb:5e:ab:df:02:db:aa:c2:a3:4b:54:9a:7e:
                    03:05:2a:3c:3c:b2:77:71:63:e5:28:31:40:84:32:
                    9e:90:81:91:8c:b9:6d:33:5b:93:b2:0d:b8:72:04:
                    44:51:97:00:2d:3b:0c:a9:67:e2:53:f4:b2:95:3d:
                    ff:98:13:d3:c0:f9:f6:92:71:ab:4c:5e:c6:35:9a:
                    03:b2:d7:d9:53:0c:81:c3:68:cd:1e:a3:37:48:74:
                    e6:1b:53:8d:e8:c0:be:03:a3:be:10:9b:d4:ea:db:
                    f2:5d:64:f7:c1:84:97:a5:27
                Exponent: 65537 (0x10001)
    Signature Algorithm: md5WithRSAEncryption
        7c:96:e4:db:dd:14:98:32:95:ba:c1:36:2a:f8:22:36:d3:0a:
        74:4d:7a:75:d6:47:34:90:32:04:06:07:8c:0b:eb:99:80:ee:
        09:e9:21:68:42:c7:e4:04:8e:4e:02:ca:24:92:db:7a:e7:86:
        6d:af:a1:e3:86:78:d6:5a:49:f9:bd:f1:c1:3a:bf:a4:34:28:
        60:8f:75:fb:af:68:59:8c:c8:11:99:30:18:e5:99:61:e5:07:
        12:e1:2b:19:b8:ce:24:41:6c:6d:e9:98:33:00:4e:4f:ae:5e:
        00:c5:69:9f:39:e1:35:ef:6a:cf:88:72:f9:7b:8c:04:b2:e9:
        36:19
-----BEGIN CERTIFICATE-----
MIICvDCCAiUCCQCbJ9fo0boI/jANBgkqhkiG9w0BAQQFADCBlTELMAkGA1UEBhMC
REUxETAPBgNVBAgTCFNhYXJsYW5kMRAwDgYDVQQKEwdNUEktU1dTMSIwIAYDVQQL
ExlEaXN0cmlidXRlZCBTeXN0ZW1zIEdyb3VwMRowGAYDVQQDExFBbmRyZWFzIEhh
ZWJlcmxlbjEhMB8GCSqGSIb3DQEJARYSZGVtb2NhQG9jdGFyaW5lLmRlMB4XDTE1
MDQyMDIwNDcwOVoXDTE2MDQxOTIwNDcwOVowga4xCzAJBgNVBAYTAkRFMREwDwYD
VQQIEwhTYWFybGFuZDEQMA4GA1UEChMHTVBJLVNXUzEiMCAGA1UECxMZRGlzdHJp
YnV0ZWQgU3lzdGVtcyBHcm91cDExMC8GA1UEAxMoZDlmYWIyZjFlMjZhMzFhYWQy
N2U4MjY3MmI0ODgyZjZiZjE3MjA4MTEjMCEGCSqGSIb3DQEJARYUbm9kZTAyOTRA
b2N0YXJpbmUuZGUwgZ8wDQYJKoZIhvcNAQEBBQADgY0AMIGJAoGBAOB9EV0gfEAB
PAyE0or9m9X7XqvfAtuqwqNLVJp+AwUqPDyyd3Fj5SgxQIQynpCBkYy5bTNbk7IN
uHIERFGXAC07DKln4lP0spU9/5gT08D59pJxq0xexjWaA7LX2VMMgcNozR6jN0h0
5htTjejAvgOjvhCb1Orb8l1k98GEl6UnAgMBAAEwDQYJKoZIhvcNAQEEBQADgYEA
fJbk290UmDKVusE2KvgiNtMKdE16ddZHNJAyBAYHjAvrmYDuCekhaELH5ASOTgLK
JJLbeueGba+h44Z41lpJ+b3xwTq/pDQoYI91+69oWYzIEZkwGOWZYeUHEuErGbjO
JEFsbemYMwBOT65eAMVpnznhNe9qz4hy+XuMBLLpNhk=
-----END CERTIFICATE-----
