Certificate:
    Data:
        Version: 1 (0x0)
        Serial Number:
            9b:27:d7:e8:d1:ba:08:3c
        Signature Algorithm: md5WithRSAEncryption
        Issuer: C=DE, ST=Saarland, O=MPI-SWS, OU=Distributed Systems Group, CN=Andreas Haeberlen/emailAddress=democa@octarine.de
        Validity
            Not Before: Apr 20 20:47:01 2015 GMT
            Not After : Apr 19 20:47:01 2016 GMT
        Subject: C=DE, ST=Saarland, O=MPI-SWS, OU=Distributed Systems Group, CN=0a5959e9dcaa127456d279ee8e2efeb0909fa787/emailAddress=node0100@octarine.de
        Subject Public Key Info:
            Public Key Algorithm: rsaEncryption
            RSA Public Key: (1024 bit)
                Modulus (1024 bit):
                    00:c9:ed:40:f1:63:8c:6b:fd:c5:e7:44:24:8f:43:
                    a5:c5:4c:10:39:d4:06:a3:b5:38:78:8f:2d:f4:85:
                    f3:d7:12:3a:db:23:b3:2c:eb:08:6f:16:2f:da:47:
                    89:fd:94:25:db:2d:20:7c:9d:60:1b:4c:e3:39:54:
                    21:10:4e:e6:91:4a:cc:a0:4f:cd:dc:b7:04:4c:4c:
                    a1:a1:aa:bf:c0:12:a1:e7:5c:4c:f0:21:44:e8:d3:
                    8a:19:b0:04:a1:e4:c6:9d:3e:2a:75:33:72:67:29:
                    18:48:54:7a:c5:89:46:fe:77:6c:86:61:17:08:75:
                    48:7b:3f:68:ec:8e:36:d0:35
                Exponent: 65537 (0x10001)
    Signature Algorithm: md5WithRSAEncryption
        cb:e8:04:3b:9f:2b:4f:55:a3:c7:40:b0:54:1d:6f:e3:da:22:
        e7:a7:16:9d:7c:a2:cd:b4:e6:e7:dc:d0:16:8b:3b:87:47:15:
        92:42:59:c4:19:d2:cf:71:60:27:0a:91:c2:93:28:0e:2d:0e:
        19:11:06:24:63:1f:bc:1a:9f:7c:79:94:af:a9:f4:8b:b9:a6:
        42:57:8a:91:cf:db:4e:d4:b8:df:08:a2:aa:45:ab:39:ba:d8:
        bc:38:2b:1d:41:2b:7b:60:19:41:f6:6b:8f:2a:96:7a:18:fe:
        06:2a:97:8a:16:5e:83:28:26:e4:1b:f9:69:38:02:a2:61:d6:
        cd:82
-----BEGIN CERTIFICATE-----
MIICvDCCAiUCCQCbJ9fo0boIPDANBgkqhkiG9w0BAQQFADCBlTELMAkGA1UEBhMC
REUxETAPBgNVBAgTCFNhYXJsYW5kMRAwDgYDVQQKEwdNUEktU1dTMSIwIAYDVQQL
ExlEaXN0cmlidXRlZCBTeXN0ZW1zIEdyb3VwMRowGAYDVQQDExFBbmRyZWFzIEhh
ZWJlcmxlbjEhMB8GCSqGSIb3DQEJARYSZGVtb2NhQG9jdGFyaW5lLmRlMB4XDTE1
MDQyMDIwNDcwMVoXDTE2MDQxOTIwNDcwMVowga4xCzAJBgNVBAYTAkRFMREwDwYD
VQQIEwhTYWFybGFuZDEQMA4GA1UEChMHTVBJLVNXUzEiMCAGA1UECxMZRGlzdHJp
YnV0ZWQgU3lzdGVtcyBHcm91cDExMC8GA1UEAxMoMGE1OTU5ZTlkY2FhMTI3NDU2
ZDI3OWVlOGUyZWZlYjA5MDlmYTc4NzEjMCEGCSqGSIb3DQEJARYUbm9kZTAxMDBA
b2N0YXJpbmUuZGUwgZ8wDQYJKoZIhvcNAQEBBQADgY0AMIGJAoGBAMntQPFjjGv9
xedEJI9DpcVMEDnUBqO1OHiPLfSF89cSOtsjsyzrCG8WL9pHif2UJdstIHydYBtM
4zlUIRBO5pFKzKBPzdy3BExMoaGqv8ASoedcTPAhROjTihmwBKHkxp0+KnUzcmcp
GEhUesWJRv53bIZhFwh1SHs/aOyONtA1AgMBAAEwDQYJKoZIhvcNAQEEBQADgYEA
y+gEO58rT1Wjx0CwVB1v49oi56cWnXyizbTm59zQFos7h0cVkkJZxBnSz3FgJwqR
wpMoDi0OGREGJGMfvBqffHmUr6n0i7mmQleKkc/bTtS43wiiqkWrObrYvDgrHUEr
e2AZQfZrjyqWehj+BiqXihZegygm5Bv5aTgComHWzYI=
-----END CERTIFICATE-----
