Certificate:
    Data:
        Version: 1 (0x0)
        Serial Number:
            9b:27:d7:e8:d1:ba:09:40
        Signature Algorithm: md5WithRSAEncryption
        Issuer: C=DE, ST=Saarland, O=MPI-SWS, OU=Distributed Systems Group, CN=Andreas Haeberlen/emailAddress=democa@octarine.de
        Validity
            Not Before: Apr 20 20:47:12 2015 GMT
            Not After : Apr 19 20:47:12 2016 GMT
        Subject: C=DE, ST=Saarland, O=MPI-SWS, OU=Distributed Systems Group, CN=c2989a1c1ba93df3ebfec31806e6d9aac326d32f/emailAddress=node0360@octarine.de
        Subject Public Key Info:
            Public Key Algorithm: rsaEncryption
            RSA Public Key: (1024 bit)
                Modulus (1024 bit):
                    00:c0:39:d0:d5:59:52:68:b2:00:4e:e5:e1:e3:8c:
                    9b:cf:95:f4:d6:2a:fb:5f:eb:70:0a:cb:1b:d6:36:
                    a5:dd:5a:10:b6:ac:b8:0d:30:f0:d2:45:11:9d:bc:
                    61:26:02:d6:78:f4:b7:5f:dd:35:be:7e:b5:70:3f:
                    f8:8e:f9:0b:2c:02:8b:bb:8a:d4:7b:4d:52:88:bb:
                    0f:e8:32:bb:ae:12:8b:84:98:90:7d:52:df:46:e7:
                    a6:86:58:d0:9c:86:13:67:cc:da:18:cc:01:e0:28:
                    75:f9:ca:96:35:e4:2c:d5:cf:e1:39:93:b8:be:4e:
                    3b:64:7c:86:74:34:4a:9e:6b
                Exponent: 65537 (0x10001)
    Signature Algorithm: md5WithRSAEncryption
        30:9a:0a:97:46:8e:24:8e:01:1b:46:04:9a:cb:3b:5b:11:61:
        cc:a8:36:5d:46:89:a6:95:fd:98:9d:60:97:97:9a:18:76:49:
        c6:d5:8c:35:43:e5:80:8e:47:4a:26:4e:cf:1d:6e:61:09:a6:
        11:6c:0a:3c:cc:4f:78:e1:72:28:8c:7b:d4:9f:44:df:a7:c0:
        31:d3:83:af:7d:7f:16:73:c3:53:ce:99:c2:3b:40:78:d0:a3:
        9a:f9:f3:4b:98:ab:03:0e:48:6d:15:04:90:4c:f7:84:a6:66:
        79:5c:1f:31:61:4d:52:42:14:ac:8c:28:05:80:3f:f0:9f:34:
        a1:52
-----BEGIN CERTIFICATE-----
MIICvDCCAiUCCQCbJ9fo0boJQDANBgkqhkiG9w0BAQQFADCBlTELMAkGA1UEBhMC
REUxETAPBgNVBAgTCFNhYXJsYW5kMRAwDgYDVQQKEwdNUEktU1dTMSIwIAYDVQQL
ExlEaXN0cmlidXRlZCBTeXN0ZW1zIEdyb3VwMRowGAYDVQQDExFBbmRyZWFzIEhh
ZWJlcmxlbjEhMB8GCSqGSIb3DQEJARYSZGVtb2NhQG9jdGFyaW5lLmRlMB4XDTE1
MDQyMDIwNDcxMloXDTE2MDQxOTIwNDcxMlowga4xCzAJBgNVBAYTAkRFMREwDwYD
VQQIEwhTYWFybGFuZDEQMA4GA1UEChMHTVBJLVNXUzEiMCAGA1UECxMZRGlzdHJp
YnV0ZWQgU3lzdGVtcyBHcm91cDExMC8GA1UEAxMoYzI5ODlhMWMxYmE5M2RmM2Vi
ZmVjMzE4MDZlNmQ5YWFjMzI2ZDMyZjEjMCEGCSqGSIb3DQEJARYUbm9kZTAzNjBA
b2N0YXJpbmUuZGUwgZ8wDQYJKoZIhvcNAQEBBQADgY0AMIGJAoGBAMA50NVZUmiy
AE7l4eOMm8+V9NYq+1/rcArLG9Y2pd1aELasuA0w8NJFEZ28YSYC1nj0t1/dNb5+
tXA/+I75CywCi7uK1HtNUoi7D+gyu64Si4SYkH1S30bnpoZY0JyGE2fM2hjMAeAo
dfnKljXkLNXP4TmTuL5OO2R8hnQ0Sp5rAgMBAAEwDQYJKoZIhvcNAQEEBQADgYEA
MJoKl0aOJI4BG0YEmss7WxFhzKg2XUaJppX9mJ1gl5eaGHZJxtWMNUPlgI5HSiZO
zx1uYQmmEWwKPMxPeOFyKIx71J9E36fAMdODr31/FnPDU86ZwjtAeNCjmvnzS5ir
Aw5IbRUEkEz3hKZmeVwfMWFNUkIUrIwoBYA/8J80oVI=
-----END CERTIFICATE-----
