Certificate:
    Data:
        Version: 1 (0x0)
        Serial Number:
            9b:27:d7:e8:d1:ba:0a:46
        Signature Algorithm: md5WithRSAEncryption
        Issuer: C=DE, ST=Saarland, O=MPI-SWS, OU=Distributed Systems Group, CN=Andreas Haeberlen/emailAddress=democa@octarine.de
        Validity
            Not Before: Apr 20 20:47:24 2015 GMT
            Not After : Apr 19 20:47:24 2016 GMT
        Subject: C=DE, ST=Saarland, O=MPI-SWS, OU=Distributed Systems Group, CN=8df9933ccb0aa4812201f5195551bf14d0d63030/emailAddress=node0622@octarine.de
        Subject Public Key Info:
            Public Key Algorithm: rsaEncryption
            RSA Public Key: (1024 bit)
                Modulus (1024 bit):
                    00:d1:e0:96:89:98:cb:59:b8:ef:9b:17:87:c4:be:
                    b2:ad:f1:3f:51:72:2f:5e:20:72:02:07:b0:49:60:
                    ee:24:1f:31:80:5c:7e:5a:07:65:d6:20:29:1d:d5:
                    8e:a5:4b:31:3f:85:21:c8:4e:ca:6a:f9:e7:6b:3b:
                    5a:f5:99:b6:a1:c8:3e:d5:19:b0:1f:21:44:c0:dc:
                    59:53:b4:38:bd:95:16:3b:0d:07:1b:9d:a8:05:0a:
                    2c:8f:c1:d1:74:44:15:2c:12:9b:e7:31:be:9a:c9:
                    94:ce:72:c4:16:2c:0f:5a:dc:d7:b9:16:28:2c:45:
                    92:09:55:cd:89:f3:be:cc:8d
                Exponent: 65537 (0x10001)
    Signature Algorithm: md5WithRSAEncryption
        a9:c0:b7:37:24:a4:ff:67:2e:8b:ff:06:64:7f:67:34:fb:7a:
        f1:a7:a3:7d:50:a0:d3:15:a8:78:f2:3c:c6:b9:77:a4:bd:1b:
        1e:d8:48:d9:65:f3:57:a5:dc:28:93:be:46:f1:1f:04:59:b0:
        ef:dd:93:10:9c:83:33:d6:2c:ca:a0:40:da:dd:f9:d8:46:26:
        a3:da:ba:95:4f:31:8d:57:fe:56:a6:c7:ca:ac:70:8d:67:53:
        bb:87:43:da:f6:e4:e5:c5:5d:c1:60:32:13:2a:45:59:d6:8c:
        8d:be:cb:c2:5b:35:34:d8:67:57:07:0e:7d:37:f7:14:73:b4:
        05:59
-----BEGIN CERTIFICATE-----
MIICvDCCAiUCCQCbJ9fo0boKRjANBgkqhkiG9w0BAQQFADCBlTELMAkGA1UEBhMC
REUxETAPBgNVBAgTCFNhYXJsYW5kMRAwDgYDVQQKEwdNUEktU1dTMSIwIAYDVQQL
ExlEaXN0cmlidXRlZCBTeXN0ZW1zIEdyb3VwMRowGAYDVQQDExFBbmRyZWFzIEhh
ZWJlcmxlbjEhMB8GCSqGSIb3DQEJARYSZGVtb2NhQG9jdGFyaW5lLmRlMB4XDTE1
MDQyMDIwNDcyNFoXDTE2MDQxOTIwNDcyNFowga4xCzAJBgNVBAYTAkRFMREwDwYD
VQQIEwhTYWFybGFuZDEQMA4GA1UEChMHTVBJLVNXUzEiMCAGA1UECxMZRGlzdHJp
YnV0ZWQgU3lzdGVtcyBHcm91cDExMC8GA1UEAxMoOGRmOTkzM2NjYjBhYTQ4MTIy
MDFmNTE5NTU1MWJmMTRkMGQ2MzAzMDEjMCEGCSqGSIb3DQEJARYUbm9kZTA2MjJA
b2N0YXJpbmUuZGUwgZ8wDQYJKoZIhvcNAQEBBQADgY0AMIGJAoGBANHglomYy1m4
75sXh8S+sq3xP1FyL14gcgIHsElg7iQfMYBcfloHZdYgKR3VjqVLMT+FIchOymr5
52s7WvWZtqHIPtUZsB8hRMDcWVO0OL2VFjsNBxudqAUKLI/B0XREFSwSm+cxvprJ
lM5yxBYsD1rc17kWKCxFkglVzYnzvsyNAgMBAAEwDQYJKoZIhvcNAQEEBQADgYEA
qcC3NySk/2cui/8GZH9nNPt68aejfVCg0xWoePI8xrl3pL0bHthI2WXzV6XcKJO+
RvEfBFmw792TEJyDM9YsyqBA2t352EYmo9q6lU8xjVf+VqbHyqxwjWdTu4dD2vbk
5cVdwWAyEypFWdaMjb7Lwls1NNhnVwcOfTf3FHO0BVk=
-----END CERTIFICATE-----
