Certificate:
    Data:
        Version: 1 (0x0)
        Serial Number:
            9b:27:d7:e8:d1:ba:09:50
        Signature Algorithm: md5WithRSAEncryption
        Issuer: C=DE, ST=Saarland, O=MPI-SWS, OU=Distributed Systems Group, CN=Andreas Haeberlen/emailAddress=democa@octarine.de
        Validity
            Not Before: Apr 20 20:47:13 2015 GMT
            Not After : Apr 19 20:47:13 2016 GMT
        Subject: C=DE, ST=Saarland, O=MPI-SWS, OU=Distributed Systems Group, CN=cad990d1a6a549ea4feb437c4de5ddba88319024/emailAddress=node0376@octarine.de
        Subject Public Key Info:
            Public Key Algorithm: rsaEncryption
            RSA Public Key: (1024 bit)
                Modulus (1024 bit):
                    00:d3:93:22:74:f9:ad:c3:ce:70:43:13:b6:ac:c6:
                    b0:67:2b:12:50:5f:f1:0d:2f:92:8b:7c:73:14:4b:
                    23:c7:e2:53:ce:d3:45:15:c8:df:6b:50:ba:05:1f:
                    39:b0:ec:d6:79:36:24:67:f5:fc:69:3c:a6:9a:42:
                    d1:58:9e:ba:2e:6d:c5:30:ab:cc:2a:f4:01:d8:73:
                    bf:50:50:0f:b2:d8:bc:10:46:10:d3:08:84:fa:de:
                    2d:7b:1d:04:2f:b6:ee:e5:4a:e1:2f:96:b4:6a:88:
                    4b:70:65:3f:f0:5e:e4:1f:c0:45:16:0f:86:5d:de:
                    d4:29:03:62:c2:2f:ab:b1:45
                Exponent: 65537 (0x10001)
    Signature Algorithm: md5WithRSAEncryption
        5a:4c:8a:4c:f6:73:32:98:07:96:22:59:71:38:dc:4e:79:0e:
        b7:3a:7d:9f:2c:93:34:16:6f:f9:50:d2:ab:3f:43:c1:f7:05:
        8d:99:6c:a3:e8:f0:18:e9:32:7b:09:d8:8a:4f:62:a5:dd:18:
        49:d9:04:51:87:9e:65:e7:55:1b:94:55:1e:74:bd:75:c2:3e:
        d0:24:30:e3:60:36:13:7d:69:14:1d:e4:2f:69:a0:25:e7:24:
        41:fa:c6:22:cb:f7:84:bb:bf:00:57:19:88:3f:e3:07:9b:ed:
        3c:2d:be:06:56:66:64:2d:58:bb:c1:7b:f3:aa:7c:c6:22:60:
        02:b0
-----BEGIN CERTIFICATE-----
MIICvDCCAiUCCQCbJ9fo0boJUDANBgkqhkiG9w0BAQQFADCBlTELMAkGA1UEBhMC
REUxETAPBgNVBAgTCFNhYXJsYW5kMRAwDgYDVQQKEwdNUEktU1dTMSIwIAYDVQQL
ExlEaXN0cmlidXRlZCBTeXN0ZW1zIEdyb3VwMRowGAYDVQQDExFBbmRyZWFzIEhh
ZWJlcmxlbjEhMB8GCSqGSIb3DQEJARYSZGVtb2NhQG9jdGFyaW5lLmRlMB4XDTE1
MDQyMDIwNDcxM1oXDTE2MDQxOTIwNDcxM1owga4xCzAJBgNVBAYTAkRFMREwDwYD
VQQIEwhTYWFybGFuZDEQMA4GA1UEChMHTVBJLVNXUzEiMCAGA1UECxMZRGlzdHJp
YnV0ZWQgU3lzdGVtcyBHcm91cDExMC8GA1UEAxMoY2FkOTkwZDFhNmE1NDllYTRm
ZWI0MzdjNGRlNWRkYmE4ODMxOTAyNDEjMCEGCSqGSIb3DQEJARYUbm9kZTAzNzZA
b2N0YXJpbmUuZGUwgZ8wDQYJKoZIhvcNAQEBBQADgY0AMIGJAoGBANOTInT5rcPO
cEMTtqzGsGcrElBf8Q0vkot8cxRLI8fiU87TRRXI32tQugUfObDs1nk2JGf1/Gk8
pppC0Vieui5txTCrzCr0Adhzv1BQD7LYvBBGENMIhPreLXsdBC+27uVK4S+WtGqI
S3BlP/Be5B/ARRYPhl3e1CkDYsIvq7FFAgMBAAEwDQYJKoZIhvcNAQEEBQADgYEA
WkyKTPZzMpgHliJZcTjcTnkOtzp9nyyTNBZv+VDSqz9DwfcFjZlso+jwGOkyewnY
ik9ipd0YSdkEUYeeZedVG5RVHnS9dcI+0CQw42A2E31pFB3kL2mgJeckQfrGIsv3
hLu/AFcZiD/jB5vtPC2+BlZmZC1Yu8F786p8xiJgArA=
-----END CERTIFICATE-----
