Certificate:
    Data:
        Version: 1 (0x0)
        Serial Number:
            9b:27:d7:e8:d1:ba:0a:d2
        Signature Algorithm: md5WithRSAEncryption
        Issuer: C=DE, ST=Saarland, O=MPI-SWS, OU=Distributed Systems Group, CN=Andreas Haeberlen/emailAddress=democa@octarine.de
        Validity
            Not Before: Apr 20 20:47:30 2015 GMT
            Not After : Apr 19 20:47:30 2016 GMT
        Subject: C=DE, ST=Saarland, O=MPI-SWS, OU=Distributed Systems Group, CN=540ea2a6f3a3952d1e1c1b3db5660f56364e9f49/emailAddress=node0762@octarine.de
        Subject Public Key Info:
            Public Key Algorithm: rsaEncryption
            RSA Public Key: (1024 bit)
                Modulus (1024 bit):
                    00:cc:fb:5a:ac:1c:6d:77:5e:3c:70:aa:65:87:19:
                    05:6a:2c:4a:7f:04:33:50:7d:c9:76:3c:b2:27:5a:
                    42:16:0b:35:c6:cf:2d:3e:59:d1:48:19:d4:82:34:
                    be:2a:1f:0e:71:ce:6e:0b:f2:ba:19:bb:c9:d7:7e:
                    41:a8:37:d2:08:a8:98:e2:ea:49:b2:75:5b:3d:bb:
                    11:30:3f:ec:1b:bf:d6:b1:3b:fe:6a:84:5b:a9:70:
                    d3:55:52:f3:e3:4e:ee:c4:98:6a:5e:14:9e:52:85:
                    f8:44:82:2f:9e:3d:69:7f:e6:18:c3:9f:ae:f6:50:
                    51:f7:48:3b:fb:6a:f8:cd:c1
                Exponent: 65537 (0x10001)
    Signature Algorithm: md5WithRSAEncryption
        99:91:db:f6:26:c4:b7:80:c2:3e:5e:91:45:34:4e:1f:b7:3a:
        0f:9e:9b:76:12:c8:6d:b7:bb:a3:e9:98:cb:0c:39:a4:39:94:
        03:0f:6f:b1:1b:59:18:dd:5c:0e:8f:56:d1:4b:46:35:2a:75:
        23:33:2e:28:fc:53:fe:77:7c:9c:d8:ee:7a:e3:07:bc:e6:c8:
        d2:fe:e4:10:44:2a:6b:82:25:99:b7:dd:d3:fb:da:1a:a9:14:
        00:4b:a3:0b:cd:ce:e5:f3:a9:7b:33:01:ca:42:e4:17:1a:48:
        55:13:58:f8:48:1b:ce:52:89:a3:2d:22:93:97:6b:0c:ab:ef:
        9b:2f
-----BEGIN CERTIFICATE-----
MIICvDCCAiUCCQCbJ9fo0boK0jANBgkqhkiG9w0BAQQFADCBlTELMAkGA1UEBhMC
REUxETAPBgNVBAgTCFNhYXJsYW5kMRAwDgYDVQQKEwdNUEktU1dTMSIwIAYDVQQL
ExlEaXN0cmlidXRlZCBTeXN0ZW1zIEdyb3VwMRowGAYDVQQDExFBbmRyZWFzIEhh
ZWJlcmxlbjEhMB8GCSqGSIb3DQEJARYSZGVtb2NhQG9jdGFyaW5lLmRlMB4XDTE1
MDQyMDIwNDczMFoXDTE2MDQxOTIwNDczMFowga4xCzAJBgNVBAYTAkRFMREwDwYD
VQQIEwhTYWFybGFuZDEQMA4GA1UEChMHTVBJLVNXUzEiMCAGA1UECxMZRGlzdHJp
YnV0ZWQgU3lzdGVtcyBHcm91cDExMC8GA1UEAxMoNTQwZWEyYTZmM2EzOTUyZDFl
MWMxYjNkYjU2NjBmNTYzNjRlOWY0OTEjMCEGCSqGSIb3DQEJARYUbm9kZTA3NjJA
b2N0YXJpbmUuZGUwgZ8wDQYJKoZIhvcNAQEBBQADgY0AMIGJAoGBAMz7WqwcbXde
PHCqZYcZBWosSn8EM1B9yXY8sidaQhYLNcbPLT5Z0UgZ1II0viofDnHObgvyuhm7
ydd+Qag30giomOLqSbJ1Wz27ETA/7Bu/1rE7/mqEW6lw01VS8+NO7sSYal4UnlKF
+ESCL549aX/mGMOfrvZQUfdIO/tq+M3BAgMBAAEwDQYJKoZIhvcNAQEEBQADgYEA
mZHb9ibEt4DCPl6RRTROH7c6D56bdhLIbbe7o+mYyww5pDmUAw9vsRtZGN1cDo9W
0UtGNSp1IzMuKPxT/nd8nNjueuMHvObI0v7kEEQqa4Ilmbfd0/vaGqkUAEujC83O
5fOpezMBykLkFxpIVRNY+EgbzlKJoy0ik5drDKvvmy8=
-----END CERTIFICATE-----
