Certificate:
    Data:
        Version: 1 (0x0)
        Serial Number:
            9b:27:d7:e8:d1:ba:08:ca
        Signature Algorithm: md5WithRSAEncryption
        Issuer: C=DE, ST=Saarland, O=MPI-SWS, OU=Distributed Systems Group, CN=Andreas Haeberlen/emailAddress=democa@octarine.de
        Validity
            Not Before: Apr 20 20:47:07 2015 GMT
            Not After : Apr 19 20:47:07 2016 GMT
        Subject: C=DE, ST=Saarland, O=MPI-SWS, OU=Distributed Systems Group, CN=2f1ec3e5563b35aae3236b8239aafe11e30a6f0c/emailAddress=node0242@octarine.de
        Subject Public Key Info:
            Public Key Algorithm: rsaEncryption
            RSA Public Key: (1024 bit)
                Modulus (1024 bit):
                    00:bf:86:24:2a:b6:a5:39:0b:84:8c:96:df:be:81:
                    52:69:b6:7c:07:6f:a5:38:70:7b:2d:2b:ad:a0:de:
                    c1:77:91:57:f8:30:15:48:33:e2:2d:23:16:23:c6:
                    f0:2d:74:69:c6:7e:a6:84:60:fe:e2:54:80:c2:ba:
                    b2:b9:a1:13:7d:f4:2b:7f:c6:27:28:59:cf:02:ed:
                    05:59:e3:5d:0c:27:6e:6a:07:cf:10:f0:e9:b4:2e:
                    66:aa:33:90:c6:67:11:8c:f9:ad:2b:09:1a:9e:bd:
                    6b:3d:6a:15:a0:98:29:6e:5a:d5:4e:05:97:76:92:
                    16:dd:85:bd:02:c8:76:00:3b
                Exponent: 65537 (0x10001)
    Signature Algorithm: md5WithRSAEncryption
        c6:a9:ae:6c:64:1a:2a:25:9b:6b:70:a6:3b:77:3f:1d:94:e6:
        6e:fb:4c:12:e6:02:56:23:ae:26:92:10:ae:cb:e3:5e:66:a6:
        bb:dd:eb:66:04:b2:b4:fe:60:69:f4:d7:ca:3a:67:32:67:cd:
        3f:7a:f5:b8:1c:ed:24:ce:b7:dc:2e:04:a2:62:f8:74:d0:02:
        18:b0:4c:05:fe:c0:3d:d1:c3:58:2e:31:9a:a1:fd:10:6c:b6:
        f6:a7:eb:a6:a9:dc:92:f0:4a:81:e6:40:33:30:19:04:ab:a2:
        66:2d:df:48:45:7d:ea:cb:ad:cd:07:f9:d9:7c:7a:b0:3f:49:
        45:06
-----BEGIN CERTIFICATE-----
MIICvDCCAiUCCQCbJ9fo0boIyjANBgkqhkiG9w0BAQQFADCBlTELMAkGA1UEBhMC
REUxETAPBgNVBAgTCFNhYXJsYW5kMRAwDgYDVQQKEwdNUEktU1dTMSIwIAYDVQQL
ExlEaXN0cmlidXRlZCBTeXN0ZW1zIEdyb3VwMRowGAYDVQQDExFBbmRyZWFzIEhh
ZWJlcmxlbjEhMB8GCSqGSIb3DQEJARYSZGVtb2NhQG9jdGFyaW5lLmRlMB4XDTE1
MDQyMDIwNDcwN1oXDTE2MDQxOTIwNDcwN1owga4xCzAJBgNVBAYTAkRFMREwDwYD
VQQIEwhTYWFybGFuZDEQMA4GA1UEChMHTVBJLVNXUzEiMCAGA1UECxMZRGlzdHJp
YnV0ZWQgU3lzdGVtcyBHcm91cDExMC8GA1UEAxMoMmYxZWMzZTU1NjNiMzVhYWUz
MjM2YjgyMzlhYWZlMTFlMzBhNmYwYzEjMCEGCSqGSIb3DQEJARYUbm9kZTAyNDJA
b2N0YXJpbmUuZGUwgZ8wDQYJKoZIhvcNAQEBBQADgY0AMIGJAoGBAL+GJCq2pTkL
hIyW376BUmm2fAdvpThwey0rraDewXeRV/gwFUgz4i0jFiPG8C10acZ+poRg/uJU
gMK6srmhE330K3/GJyhZzwLtBVnjXQwnbmoHzxDw6bQuZqozkMZnEYz5rSsJGp69
az1qFaCYKW5a1U4Fl3aSFt2FvQLIdgA7AgMBAAEwDQYJKoZIhvcNAQEEBQADgYEA
xqmubGQaKiWba3CmO3c/HZTmbvtMEuYCViOuJpIQrsvjXmamu93rZgSytP5gafTX
yjpnMmfNP3r1uBztJM633C4EomL4dNACGLBMBf7APdHDWC4xmqH9EGy29qfrpqnc
kvBKgeZAMzAZBKuiZi3fSEV96sutzQf52Xx6sD9JRQY=
-----END CERTIFICATE-----
