Certificate:
    Data:
        Version: 1 (0x0)
        Serial Number:
            9b:27:d7:e8:d1:ba:09:14
        Signature Algorithm: md5WithRSAEncryption
        Issuer: C=DE, ST=Saarland, O=MPI-SWS, OU=Distributed Systems Group, CN=Andreas Haeberlen/emailAddress=democa@octarine.de
        Validity
            Not Before: Apr 20 20:47:10 2015 GMT
            Not After : Apr 19 20:47:10 2016 GMT
        Subject: C=DE, ST=Saarland, O=MPI-SWS, OU=Distributed Systems Group, CN=7137a9b14141302cc1c7a0f6863fc5a47eb1773b/emailAddress=node0316@octarine.de
        Subject Public Key Info:
            Public Key Algorithm: rsaEncryption
            RSA Public Key: (1024 bit)
                Modulus (1024 bit):
                    00:b9:1a:bd:26:4d:bc:48:67:3b:9a:99:11:70:8e:
                    5b:48:09:2a:46:d7:53:8a:5c:27:2e:dd:6c:cc:8e:
                    c5:d8:37:2e:5e:55:19:a1:b9:8e:e9:29:1d:69:ae:
                    dd:86:5b:11:46:53:19:29:b1:73:b5:78:fb:86:47:
                    ab:b1:b6:74:23:74:d0:11:6e:b4:fc:89:15:c1:7e:
                    9a:55:ac:4d:58:55:01:ef:b4:1d:d1:0f:4c:27:47:
                    0d:07:ee:66:48:b6:fb:78:5f:50:5f:c2:ed:f5:67:
                    e3:23:54:7f:a8:5e:97:20:11:97:ef:13:8d:f6:6c:
                    eb:53:10:1a:70:11:99:20:5f
                Exponent: 65537 (0x10001)
    Signature Algorithm: md5WithRSAEncryption
        ac:6f:d5:f1:43:77:b0:b8:73:56:e6:87:ba:e6:f5:7a:29:8c:
        98:a0:16:de:06:bb:22:17:02:85:89:49:d5:e0:1c:84:ae:93:
        5b:26:26:66:c0:16:11:98:96:48:98:ce:53:1b:4f:75:c4:31:
        f5:0d:74:8a:89:7d:3f:af:be:c8:19:08:82:b7:6a:08:d0:77:
        a6:5f:ad:98:d3:f5:94:af:c2:74:21:fa:24:fa:a9:48:76:f2:
        14:cf:ca:4b:ca:1c:bb:35:4d:32:b3:ea:43:08:90:ee:bb:f4:
        b1:b9:e9:96:a4:0b:ed:33:72:06:1a:bc:3b:50:79:ba:72:70:
        cf:16
-----BEGIN CERTIFICATE-----
MIICvDCCAiUCCQCbJ9fo0boJFDANBgkqhkiG9w0BAQQFADCBlTELMAkGA1UEBhMC
REUxETAPBgNVBAgTCFNhYXJsYW5kMRAwDgYDVQQKEwdNUEktU1dTMSIwIAYDVQQL
ExlEaXN0cmlidXRlZCBTeXN0ZW1zIEdyb3VwMRowGAYDVQQDExFBbmRyZWFzIEhh
ZWJlcmxlbjEhMB8GCSqGSIb3DQEJARYSZGVtb2NhQG9jdGFyaW5lLmRlMB4XDTE1
MDQyMDIwNDcxMFoXDTE2MDQxOTIwNDcxMFowga4xCzAJBgNVBAYTAkRFMREwDwYD
VQQIEwhTYWFybGFuZDEQMA4GA1UEChMHTVBJLVNXUzEiMCAGA1UECxMZRGlzdHJp
YnV0ZWQgU3lzdGVtcyBHcm91cDExMC8GA1UEAxMoNzEzN2E5YjE0MTQxMzAyY2Mx
YzdhMGY2ODYzZmM1YTQ3ZWIxNzczYjEjMCEGCSqGSIb3DQEJARYUbm9kZTAzMTZA
b2N0YXJpbmUuZGUwgZ8wDQYJKoZIhvcNAQEBBQADgY0AMIGJAoGBALkavSZNvEhn
O5qZEXCOW0gJKkbXU4pcJy7dbMyOxdg3Ll5VGaG5jukpHWmu3YZbEUZTGSmxc7V4
+4ZHq7G2dCN00BFutPyJFcF+mlWsTVhVAe+0HdEPTCdHDQfuZki2+3hfUF/C7fVn
4yNUf6helyARl+8TjfZs61MQGnARmSBfAgMBAAEwDQYJKoZIhvcNAQEEBQADgYEA
rG/V8UN3sLhzVuaHuub1eimMmKAW3ga7IhcChYlJ1eAchK6TWyYmZsAWEZiWSJjO
UxtPdcQx9Q10iol9P6++yBkIgrdqCNB3pl+tmNP1lK/CdCH6JPqpSHbyFM/KS8oc
uzVNMrPqQwiQ7rv0sbnplqQL7TNyBhq8O1B5unJwzxY=
-----END CERTIFICATE-----
