Certificate:
    Data:
        Version: 1 (0x0)
        Serial Number:
            9b:27:d7:e8:d1:ba:08:da
        Signature Algorithm: md5WithRSAEncryption
        Issuer: C=DE, ST=Saarland, O=MPI-SWS, OU=Distributed Systems Group, CN=Andreas Haeberlen/emailAddress=democa@octarine.de
        Validity
            Not Before: Apr 20 20:47:08 2015 GMT
            Not After : Apr 19 20:47:08 2016 GMT
        Subject: C=DE, ST=Saarland, O=MPI-SWS, OU=Distributed Systems Group, CN=27efad89102d513fb41391291715edb0490e7978/emailAddress=node0258@octarine.de
        Subject Public Key Info:
            Public Key Algorithm: rsaEncryption
            RSA Public Key: (1024 bit)
                Modulus (1024 bit):
                    00:be:7b:28:63:8a:98:80:15:25:19:5f:b3:1e:a6:
                    60:c1:73:35:c5:f0:8b:c9:dc:f4:e2:85:3d:81:fc:
                    37:80:d7:20:05:cb:c0:54:2f:c9:8a:48:a3:69:8a:
                    b0:9c:f8:c8:15:6f:2f:0c:d3:80:ff:f0:87:d3:92:
                    66:68:70:fd:8d:de:f0:3c:9c:e0:5e:2a:cc:4c:0a:
                    27:f6:8b:b3:b2:9d:48:7c:82:cf:fd:c7:b7:40:f8:
                    a0:a4:80:fd:0a:ab:15:01:0f:4c:7e:b1:d5:aa:8b:
                    94:eb:91:7d:f2:2c:37:35:14:f3:77:7d:c4:f9:30:
                    f4:8b:5a:0a:69:2b:45:7c:95
                Exponent: 65537 (0x10001)
    Signature Algorithm: md5WithRSAEncryption
        a6:cb:fd:2c:af:e7:52:06:6a:80:e9:47:bb:f8:dd:42:6d:0b:
        54:ea:cd:96:bd:00:a4:0c:5c:54:27:f4:31:a0:70:42:b8:9c:
        5a:82:43:1b:c8:54:a5:da:0b:25:24:55:24:21:20:69:d1:af:
        49:04:6d:e5:a3:18:74:fd:92:85:05:0d:26:18:df:0c:3c:ba:
        ea:4a:f9:2e:71:9b:7c:d5:c6:7a:44:f5:73:6e:9e:a7:53:61:
        bc:ff:5d:e3:2e:cf:e7:60:3a:21:77:7a:74:6f:99:d5:d2:fa:
        aa:42:f0:d0:aa:c4:fe:5e:e7:f5:69:50:f1:60:87:86:d9:5c:
        d1:d7
-----BEGIN CERTIFICATE-----
MIICvDCCAiUCCQCbJ9fo0boI2jANBgkqhkiG9w0BAQQFADCBlTELMAkGA1UEBhMC
REUxETAPBgNVBAgTCFNhYXJsYW5kMRAwDgYDVQQKEwdNUEktU1dTMSIwIAYDVQQL
ExlEaXN0cmlidXRlZCBTeXN0ZW1zIEdyb3VwMRowGAYDVQQDExFBbmRyZWFzIEhh
ZWJlcmxlbjEhMB8GCSqGSIb3DQEJARYSZGVtb2NhQG9jdGFyaW5lLmRlMB4XDTE1
MDQyMDIwNDcwOFoXDTE2MDQxOTIwNDcwOFowga4xCzAJBgNVBAYTAkRFMREwDwYD
VQQIEwhTYWFybGFuZDEQMA4GA1UEChMHTVBJLVNXUzEiMCAGA1UECxMZRGlzdHJp
YnV0ZWQgU3lzdGVtcyBHcm91cDExMC8GA1UEAxMoMjdlZmFkODkxMDJkNTEzZmI0
MTM5MTI5MTcxNWVkYjA0OTBlNzk3ODEjMCEGCSqGSIb3DQEJARYUbm9kZTAyNThA
b2N0YXJpbmUuZGUwgZ8wDQYJKoZIhvcNAQEBBQADgY0AMIGJAoGBAL57KGOKmIAV
JRlfsx6mYMFzNcXwi8nc9OKFPYH8N4DXIAXLwFQvyYpIo2mKsJz4yBVvLwzTgP/w
h9OSZmhw/Y3e8Dyc4F4qzEwKJ/aLs7KdSHyCz/3Ht0D4oKSA/QqrFQEPTH6x1aqL
lOuRffIsNzUU83d9xPkw9ItaCmkrRXyVAgMBAAEwDQYJKoZIhvcNAQEEBQADgYEA
psv9LK/nUgZqgOlHu/jdQm0LVOrNlr0ApAxcVCf0MaBwQricWoJDG8hUpdoLJSRV
JCEgadGvSQRt5aMYdP2ShQUNJhjfDDy66kr5LnGbfNXGekT1c26ep1NhvP9d4y7P
52A6IXd6dG+Z1dL6qkLw0KrE/l7n9WlQ8WCHhtlc0dc=
-----END CERTIFICATE-----
