Certificate:
    Data:
        Version: 1 (0x0)
        Serial Number:
            9b:27:d7:e8:d1:ba:07:da
        Signature Algorithm: md5WithRSAEncryption
        Issuer: C=DE, ST=Saarland, O=MPI-SWS, OU=Distributed Systems Group, CN=Andreas Haeberlen/emailAddress=democa@octarine.de
        Validity
            Not Before: Apr 20 20:46:57 2015 GMT
            Not After : Apr 19 20:46:57 2016 GMT
        Subject: C=DE, ST=Saarland, O=MPI-SWS, OU=Distributed Systems Group, CN=c78e359ddabceadf4a0fc03766296fc3641a9a77/emailAddress=node0002@octarine.de
        Subject Public Key Info:
            Public Key Algorithm: rsaEncryption
            RSA Public Key: (1024 bit)
                Modulus (1024 bit):
                    00:aa:15:45:03:00:7b:d1:63:14:dd:56:7b:f0:5e:
                    92:0e:98:03:13:79:23:15:dd:78:b0:7a:39:55:f9:
                    f2:f6:33:7c:16:47:21:90:d8:4a:db:27:21:eb:4b:
                    a2:3b:38:71:7a:22:b2:ae:0f:11:97:8e:b9:c3:2d:
                    f5:85:cc:d1:76:59:56:d0:39:0d:31:69:2f:43:91:
                    09:58:65:4f:fb:8e:b0:42:f5:e4:e8:a5:13:6e:51:
                    d9:a7:4a:bc:6d:df:b0:5f:4f:84:8e:84:5e:d8:8c:
                    45:25:02:23:84:5c:fa:82:15:a3:19:f5:12:ba:67:
                    45:1a:fa:79:45:3e:46:27:2d
                Exponent: 65537 (0x10001)
    Signature Algorithm: md5WithRSAEncryption
        64:4c:48:0b:13:e2:dc:7c:5a:d6:7e:fc:f8:79:22:40:85:68:
        9f:7b:c9:56:2c:40:a3:76:6a:7d:c3:c6:bc:14:3d:f0:cd:e8:
        56:c2:62:30:ff:71:9d:01:86:cc:89:c2:fa:19:91:46:b9:ed:
        5f:f8:97:8c:f9:18:8a:b6:fb:f1:0b:3e:67:17:b2:c6:5b:ae:
        08:5c:f6:bd:e8:28:66:98:76:b1:aa:b5:a8:23:2b:e2:4d:de:
        3c:36:be:5c:f0:27:4c:0d:73:ff:f2:7c:8c:f2:b8:91:01:7b:
        b4:25:13:79:9b:d6:dc:1c:51:6e:db:3d:35:e6:4e:c3:41:05:
        46:28
-----BEGIN CERTIFICATE-----
MIICvDCCAiUCCQCbJ9fo0boH2jANBgkqhkiG9w0BAQQFADCBlTELMAkGA1UEBhMC
REUxETAPBgNVBAgTCFNhYXJsYW5kMRAwDgYDVQQKEwdNUEktU1dTMSIwIAYDVQQL
ExlEaXN0cmlidXRlZCBTeXN0ZW1zIEdyb3VwMRowGAYDVQQDExFBbmRyZWFzIEhh
ZWJlcmxlbjEhMB8GCSqGSIb3DQEJARYSZGVtb2NhQG9jdGFyaW5lLmRlMB4XDTE1
MDQyMDIwNDY1N1oXDTE2MDQxOTIwNDY1N1owga4xCzAJBgNVBAYTAkRFMREwDwYD
VQQIEwhTYWFybGFuZDEQMA4GA1UEChMHTVBJLVNXUzEiMCAGA1UECxMZRGlzdHJp
YnV0ZWQgU3lzdGVtcyBHcm91cDExMC8GA1UEAxMoYzc4ZTM1OWRkYWJjZWFkZjRh
MGZjMDM3NjYyOTZmYzM2NDFhOWE3NzEjMCEGCSqGSIb3DQEJARYUbm9kZTAwMDJA
b2N0YXJpbmUuZGUwgZ8wDQYJKoZIhvcNAQEBBQADgY0AMIGJAoGBAKoVRQMAe9Fj
FN1We/Bekg6YAxN5IxXdeLB6OVX58vYzfBZHIZDYStsnIetLojs4cXoisq4PEZeO
ucMt9YXM0XZZVtA5DTFpL0ORCVhlT/uOsEL15OilE25R2adKvG3fsF9PhI6EXtiM
RSUCI4Rc+oIVoxn1ErpnRRr6eUU+RictAgMBAAEwDQYJKoZIhvcNAQEEBQADgYEA
ZExICxPi3Hxa1n78+HkiQIVon3vJVixAo3ZqfcPGvBQ98M3oVsJiMP9xnQGGzInC
+hmRRrntX/iXjPkYirb78Qs+ZxeyxluuCFz2vegoZph2saq1qCMr4k3ePDa+XPAn
TA1z//J8jPK4kQF7tCUTeZvW3BxRbts9NeZOw0EFRig=
-----END CERTIFICATE-----
