Certificate:
    Data:
        Version: 1 (0x0)
        Serial Number:
            9b:27:d7:e8:d1:ba:09:5c
        Signature Algorithm: md5WithRSAEncryption
        Issuer: C=DE, ST=Saarland, O=MPI-SWS, OU=Distributed Systems Group, CN=Andreas Haeberlen/emailAddress=democa@octarine.de
        Validity
            Not Before: Apr 20 20:47:13 2015 GMT
            Not After : Apr 19 20:47:13 2016 GMT
        Subject: C=DE, ST=Saarland, O=MPI-SWS, OU=Distributed Systems Group, CN=357b19cc28e347270e2b26f949d41bf506020de2/emailAddress=node0388@octarine.de
        Subject Public Key Info:
            Public Key Algorithm: rsaEncryption
            RSA Public Key: (1024 bit)
                Modulus (1024 bit):
                    00:b7:97:20:2e:31:18:19:26:6c:ba:33:8c:6f:99:
                    54:43:d3:fd:37:90:39:12:20:bd:76:a2:1b:d5:e9:
                    7d:51:8c:ad:ac:0d:8f:05:95:6d:f6:df:e0:53:9e:
                    0d:b8:42:a4:a6:4e:a4:10:e1:aa:8d:06:d9:17:cd:
                    40:ef:8a:80:b6:7a:65:40:d9:54:16:65:0a:38:d8:
                    80:7c:58:07:04:e8:0f:e9:94:f2:aa:81:fb:f0:45:
                    8c:75:2f:87:df:00:d6:69:a8:8e:76:0f:6e:b3:82:
                    13:34:84:c4:1a:21:72:33:6a:75:61:c4:56:40:a9:
                    e1:bb:8b:8b:02:71:4a:39:9f
                Exponent: 65537 (0x10001)
    Signature Algorithm: md5WithRSAEncryption
        03:72:67:27:87:8e:54:36:9b:e8:cc:53:4b:59:b0:43:bb:4b:
        dd:c7:17:8d:13:48:b3:d2:d0:9d:65:da:7e:a1:06:13:2e:07:
        02:d1:67:5a:74:90:5a:ec:83:38:40:03:f5:83:a2:22:91:16:
        ef:7c:b1:00:1c:c1:5b:42:c8:5e:f6:44:83:f5:16:32:63:f0:
        9e:77:a3:fc:eb:9a:f2:9c:b6:c4:5f:64:7a:b5:ee:37:b8:cd:
        e5:5f:07:1d:64:97:36:05:cb:ee:9c:e5:14:1f:fd:ce:62:02:
        d3:22:ac:00:dc:77:80:f4:4c:fc:50:a2:36:eb:5d:35:ae:b6:
        9f:05
-----BEGIN CERTIFICATE-----
MIICvDCCAiUCCQCbJ9fo0boJXDANBgkqhkiG9w0BAQQFADCBlTELMAkGA1UEBhMC
REUxETAPBgNVBAgTCFNhYXJsYW5kMRAwDgYDVQQKEwdNUEktU1dTMSIwIAYDVQQL
ExlEaXN0cmlidXRlZCBTeXN0ZW1zIEdyb3VwMRowGAYDVQQDExFBbmRyZWFzIEhh
ZWJlcmxlbjEhMB8GCSqGSIb3DQEJARYSZGVtb2NhQG9jdGFyaW5lLmRlMB4XDTE1
MDQyMDIwNDcxM1oXDTE2MDQxOTIwNDcxM1owga4xCzAJBgNVBAYTAkRFMREwDwYD
VQQIEwhTYWFybGFuZDEQMA4GA1UEChMHTVBJLVNXUzEiMCAGA1UECxMZRGlzdHJp
YnV0ZWQgU3lzdGVtcyBHcm91cDExMC8GA1UEAxMoMzU3YjE5Y2MyOGUzNDcyNzBl
MmIyNmY5NDlkNDFiZjUwNjAyMGRlMjEjMCEGCSqGSIb3DQEJARYUbm9kZTAzODhA
b2N0YXJpbmUuZGUwgZ8wDQYJKoZIhvcNAQEBBQADgY0AMIGJAoGBALeXIC4xGBkm
bLozjG+ZVEPT/TeQORIgvXaiG9XpfVGMrawNjwWVbfbf4FOeDbhCpKZOpBDhqo0G
2RfNQO+KgLZ6ZUDZVBZlCjjYgHxYBwToD+mU8qqB+/BFjHUvh98A1mmojnYPbrOC
EzSExBohcjNqdWHEVkCp4buLiwJxSjmfAgMBAAEwDQYJKoZIhvcNAQEEBQADgYEA
A3JnJ4eOVDab6MxTS1mwQ7tL3ccXjRNIs9LQnWXafqEGEy4HAtFnWnSQWuyDOEAD
9YOiIpEW73yxABzBW0LIXvZEg/UWMmPwnnej/Oua8py2xF9kerXuN7jN5V8HHWSX
NgXL7pzlFB/9zmIC0yKsANx3gPRM/FCiNutdNa62nwU=
-----END CERTIFICATE-----
