Certificate:
    Data:
        Version: 1 (0x0)
        Serial Number:
            9b:27:d7:e8:d1:ba:0b:8e
        Signature Algorithm: md5WithRSAEncryption
        Issuer: C=DE, ST=Saarland, O=MPI-SWS, OU=Distributed Systems Group, CN=Andreas Haeberlen/emailAddress=democa@octarine.de
        Validity
            Not Before: Apr 20 20:47:39 2015 GMT
            Not After : Apr 19 20:47:39 2016 GMT
        Subject: C=DE, ST=Saarland, O=MPI-SWS, OU=Distributed Systems Group, CN=c6cffc690c289374fd0394f1c3c953529229e83f/emailAddress=node0950@octarine.de
        Subject Public Key Info:
            Public Key Algorithm: rsaEncryption
            RSA Public Key: (1024 bit)
                Modulus (1024 bit):
                    00:b3:c4:43:32:e1:92:80:33:fc:f0:8c:cc:9f:68:
                    b6:d6:58:90:4f:c2:53:cc:64:9c:44:de:ab:0e:87:
                    cb:91:ac:f5:f5:eb:40:7e:23:1f:d7:0c:02:19:c1:
                    18:0e:92:a8:7b:28:c9:93:84:df:c8:2a:ce:b4:4e:
                    bb:1f:a6:5b:71:88:13:89:e9:b4:14:e3:2b:6e:58:
                    f6:66:ef:04:13:dd:1d:1b:e1:9c:dc:3a:65:9b:62:
                    74:f1:e3:8d:c5:fe:75:e0:b1:f9:4d:0f:1b:b5:f3:
                    17:37:69:d7:e8:a6:94:a7:6b:bc:74:12:b0:c3:46:
                    75:48:a9:c0:47:ad:19:eb:bd
                Exponent: 65537 (0x10001)
    Signature Algorithm: md5WithRSAEncryption
        45:36:f0:6e:58:37:d8:f3:b6:57:4e:d9:4d:34:6e:6d:c1:e2:
        21:13:29:1c:7a:2a:7c:12:e2:8a:6e:a3:87:30:3a:40:69:69:
        15:04:e4:b7:31:14:71:31:96:1c:a2:2e:c1:40:4c:cd:58:71:
        81:25:00:8a:04:83:f1:91:0d:11:57:a8:b6:88:07:68:90:9e:
        c8:20:ab:56:31:e3:77:5a:44:1c:eb:74:41:63:8f:a5:d4:5f:
        98:fe:88:c9:06:90:0e:5e:80:09:1b:c3:d9:2a:21:e0:77:2f:
        ce:29:f5:cd:84:23:3b:fa:a6:51:07:ae:e0:68:ce:8d:30:64:
        1e:c6
-----BEGIN CERTIFICATE-----
MIICvDCCAiUCCQCbJ9fo0boLjjANBgkqhkiG9w0BAQQFADCBlTELMAkGA1UEBhMC
REUxETAPBgNVBAgTCFNhYXJsYW5kMRAwDgYDVQQKEwdNUEktU1dTMSIwIAYDVQQL
ExlEaXN0cmlidXRlZCBTeXN0ZW1zIEdyb3VwMRowGAYDVQQDExFBbmRyZWFzIEhh
ZWJlcmxlbjEhMB8GCSqGSIb3DQEJARYSZGVtb2NhQG9jdGFyaW5lLmRlMB4XDTE1
MDQyMDIwNDczOVoXDTE2MDQxOTIwNDczOVowga4xCzAJBgNVBAYTAkRFMREwDwYD
VQQIEwhTYWFybGFuZDEQMA4GA1UEChMHTVBJLVNXUzEiMCAGA1UECxMZRGlzdHJp
YnV0ZWQgU3lzdGVtcyBHcm91cDExMC8GA1UEAxMoYzZjZmZjNjkwYzI4OTM3NGZk
MDM5NGYxYzNjOTUzNTI5MjI5ZTgzZjEjMCEGCSqGSIb3DQEJARYUbm9kZTA5NTBA
b2N0YXJpbmUuZGUwgZ8wDQYJKoZIhvcNAQEBBQADgY0AMIGJAoGBALPEQzLhkoAz
/PCMzJ9ottZYkE/CU8xknETeqw6Hy5Gs9fXrQH4jH9cMAhnBGA6SqHsoyZOE38gq
zrROux+mW3GIE4nptBTjK25Y9mbvBBPdHRvhnNw6ZZtidPHjjcX+deCx+U0PG7Xz
Fzdp1+imlKdrvHQSsMNGdUipwEetGeu9AgMBAAEwDQYJKoZIhvcNAQEEBQADgYEA
RTbwblg32PO2V07ZTTRubcHiIRMpHHoqfBLiim6jhzA6QGlpFQTktzEUcTGWHKIu
wUBMzVhxgSUAigSD8ZENEVeotogHaJCeyCCrVjHjd1pEHOt0QWOPpdRfmP6IyQaQ
Dl6ACRvD2Soh4Hcvzin1zYQjO/qmUQeu4GjOjTBkHsY=
-----END CERTIFICATE-----
