Certificate:
    Data:
        Version: 1 (0x0)
        Serial Number:
            9b:27:d7:e8:d1:ba:09:1d
        Signature Algorithm: md5WithRSAEncryption
        Issuer: C=DE, ST=Saarland, O=MPI-SWS, OU=Distributed Systems Group, CN=Andreas Haeberlen/emailAddress=democa@octarine.de
        Validity
            Not Before: Apr 20 20:47:11 2015 GMT
            Not After : Apr 19 20:47:11 2016 GMT
        Subject: C=DE, ST=Saarland, O=MPI-SWS, OU=Distributed Systems Group, CN=2100a5b28a805798b04d1382da5708c39c332f6b/emailAddress=node0325@octarine.de
        Subject Public Key Info:
            Public Key Algorithm: rsaEncryption
            RSA Public Key: (1024 bit)
                Modulus (1024 bit):
                    00:b7:11:4b:76:2a:be:0c:0b:af:a6:a8:00:58:5d:
                    8c:fd:7c:b8:28:d7:55:72:7f:92:a2:51:04:87:63:
                    08:64:0d:10:1d:62:f0:e0:a3:d1:f5:c7:06:d6:e8:
                    95:bc:1f:33:c5:c3:3d:08:66:40:6e:69:70:c9:24:
                    08:50:5c:0d:62:3b:f8:5d:08:08:21:2e:c4:1e:5d:
                    b5:fb:9b:04:d8:45:0d:f1:e5:04:de:18:b1:10:0c:
                    19:bd:ab:8b:b1:da:3d:43:b0:45:a7:36:e9:de:c8:
                    80:6f:a0:9b:2d:62:77:50:4f:d4:67:61:75:24:09:
                    1f:d7:93:b7:75:0b:0a:2b:b9
                Exponent: 65537 (0x10001)
    Signature Algorithm: md5WithRSAEncryption
        92:c3:06:ee:22:50:9d:af:7a:15:16:4e:57:4a:3b:1f:1c:82:
        c7:e4:c3:24:80:84:f8:cc:50:54:74:83:cf:15:d6:25:e8:07:
        f6:1e:bf:56:19:09:ba:ae:3f:da:0f:1d:46:6f:03:b9:1b:5a:
        fb:55:c4:58:65:da:9e:7c:61:87:50:b4:3a:90:4c:10:ff:90:
        53:a7:c8:c2:88:8f:9d:5f:47:b3:39:a9:fb:45:be:5f:88:38:
        c0:22:8f:53:be:81:07:27:21:89:2d:c3:ae:6f:50:aa:2a:31:
        fe:ab:30:4d:81:09:b3:f1:c1:7a:32:d8:31:e6:2b:b0:a4:e9:
        71:94
-----BEGIN CERTIFICATE-----
MIICvDCCAiUCCQCbJ9fo0boJHTANBgkqhkiG9w0BAQQFADCBlTELMAkGA1UEBhMC
REUxETAPBgNVBAgTCFNhYXJsYW5kMRAwDgYDVQQKEwdNUEktU1dTMSIwIAYDVQQL
ExlEaXN0cmlidXRlZCBTeXN0ZW1zIEdyb3VwMRowGAYDVQQDExFBbmRyZWFzIEhh
ZWJlcmxlbjEhMB8GCSqGSIb3DQEJARYSZGVtb2NhQG9jdGFyaW5lLmRlMB4XDTE1
MDQyMDIwNDcxMVoXDTE2MDQxOTIwNDcxMVowga4xCzAJBgNVBAYTAkRFMREwDwYD
VQQIEwhTYWFybGFuZDEQMA4GA1UEChMHTVBJLVNXUzEiMCAGA1UECxMZRGlzdHJp
YnV0ZWQgU3lzdGVtcyBHcm91cDExMC8GA1UEAxMoMjEwMGE1YjI4YTgwNTc5OGIw
NGQxMzgyZGE1NzA4YzM5YzMzMmY2YjEjMCEGCSqGSIb3DQEJARYUbm9kZTAzMjVA
b2N0YXJpbmUuZGUwgZ8wDQYJKoZIhvcNAQEBBQADgY0AMIGJAoGBALcRS3YqvgwL
r6aoAFhdjP18uCjXVXJ/kqJRBIdjCGQNEB1i8OCj0fXHBtbolbwfM8XDPQhmQG5p
cMkkCFBcDWI7+F0ICCEuxB5dtfubBNhFDfHlBN4YsRAMGb2ri7HaPUOwRac26d7I
gG+gmy1id1BP1GdhdSQJH9eTt3ULCiu5AgMBAAEwDQYJKoZIhvcNAQEEBQADgYEA
ksMG7iJQna96FRZOV0o7HxyCx+TDJICE+MxQVHSDzxXWJegH9h6/VhkJuq4/2g8d
Rm8DuRta+1XEWGXannxhh1C0OpBMEP+QU6fIwoiPnV9Hszmp+0W+X4g4wCKPU76B
BychiS3Drm9Qqiox/qswTYEJs/HBejLYMeYrsKTpcZQ=
-----END CERTIFICATE-----
