Certificate:
    Data:
        Version: 1 (0x0)
        Serial Number:
            9b:27:d7:e8:d1:ba:0b:67
        Signature Algorithm: md5WithRSAEncryption
        Issuer: C=DE, ST=Saarland, O=MPI-SWS, OU=Distributed Systems Group, CN=Andreas Haeberlen/emailAddress=democa@octarine.de
        Validity
            Not Before: Apr 20 20:47:37 2015 GMT
            Not After : Apr 19 20:47:37 2016 GMT
        Subject: C=DE, ST=Saarland, O=MPI-SWS, OU=Distributed Systems Group, CN=a41dfbecb79ddf974946d78d4a3419fbe08db697/emailAddress=node0911@octarine.de
        Subject Public Key Info:
            Public Key Algorithm: rsaEncryption
            RSA Public Key: (1024 bit)
                Modulus (1024 bit):
                    00:cd:da:92:90:ab:fb:9d:c8:cc:0a:84:47:cb:e9:
                    dd:a0:bd:d6:7c:7e:5a:b3:95:35:15:45:0c:43:ff:
                    62:a0:82:18:85:06:a9:6d:fa:16:27:f9:fa:5d:3f:
                    e1:60:8b:74:3f:67:a1:b5:2d:44:87:c1:7a:de:38:
                    55:68:e4:2d:0a:79:cd:d2:c6:17:cb:3f:f8:00:10:
                    8d:a8:d0:7d:0e:e0:77:1a:9f:09:58:e7:3a:9a:3c:
                    fa:de:5d:7b:d0:9a:13:cd:f5:e9:5d:ac:b0:bf:c2:
                    11:be:de:67:48:6b:39:97:61:f9:29:fa:a8:b3:70:
                    8d:9a:40:a5:32:ee:a7:b6:bf
                Exponent: 65537 (0x10001)
    Signature Algorithm: md5WithRSAEncryption
        ab:e1:f9:9c:90:e6:cc:5e:50:86:fb:5f:13:b5:87:e7:27:bd:
        bb:06:9e:f0:4e:d1:85:ad:3d:d5:9e:41:1c:bd:94:a1:21:64:
        1f:95:c6:e4:87:0f:1a:ce:15:3a:85:20:51:4d:14:8f:22:d7:
        4b:a2:36:0d:2a:4f:92:19:ff:99:6e:9e:76:84:d7:5a:d1:5f:
        54:78:90:d7:ae:37:f2:38:d6:59:6f:9b:3e:71:8e:67:a6:e1:
        1f:ca:a9:dc:b1:bb:00:4a:17:85:e5:b5:fa:5b:bc:82:03:c2:
        30:01:b0:8d:44:5b:b8:69:06:34:9a:8d:c6:e2:c2:2b:88:47:
        c0:9e
-----BEGIN CERTIFICATE-----
MIICvDCCAiUCCQCbJ9fo0boLZzANBgkqhkiG9w0BAQQFADCBlTELMAkGA1UEBhMC
REUxETAPBgNVBAgTCFNhYXJsYW5kMRAwDgYDVQQKEwdNUEktU1dTMSIwIAYDVQQL
ExlEaXN0cmlidXRlZCBTeXN0ZW1zIEdyb3VwMRowGAYDVQQDExFBbmRyZWFzIEhh
ZWJlcmxlbjEhMB8GCSqGSIb3DQEJARYSZGVtb2NhQG9jdGFyaW5lLmRlMB4XDTE1
MDQyMDIwNDczN1oXDTE2MDQxOTIwNDczN1owga4xCzAJBgNVBAYTAkRFMREwDwYD
VQQIEwhTYWFybGFuZDEQMA4GA1UEChMHTVBJLVNXUzEiMCAGA1UECxMZRGlzdHJp
YnV0ZWQgU3lzdGVtcyBHcm91cDExMC8GA1UEAxMoYTQxZGZiZWNiNzlkZGY5NzQ5
NDZkNzhkNGEzNDE5ZmJlMDhkYjY5NzEjMCEGCSqGSIb3DQEJARYUbm9kZTA5MTFA
b2N0YXJpbmUuZGUwgZ8wDQYJKoZIhvcNAQEBBQADgY0AMIGJAoGBAM3akpCr+53I
zAqER8vp3aC91nx+WrOVNRVFDEP/YqCCGIUGqW36Fif5+l0/4WCLdD9nobUtRIfB
et44VWjkLQp5zdLGF8s/+AAQjajQfQ7gdxqfCVjnOpo8+t5de9CaE8316V2ssL/C
Eb7eZ0hrOZdh+Sn6qLNwjZpApTLup7a/AgMBAAEwDQYJKoZIhvcNAQEEBQADgYEA
q+H5nJDmzF5QhvtfE7WH5ye9uwae8E7Rha091Z5BHL2UoSFkH5XG5IcPGs4VOoUg
UU0UjyLXS6I2DSpPkhn/mW6edoTXWtFfVHiQ16438jjWWW+bPnGOZ6bhH8qp3LG7
AEoXheW1+lu8ggPCMAGwjURbuGkGNJqNxuLCK4hHwJ4=
-----END CERTIFICATE-----
