Certificate:
    Data:
        Version: 1 (0x0)
        Serial Number:
            9b:27:d7:e8:d1:ba:0b:22
        Signature Algorithm: md5WithRSAEncryption
        Issuer: C=DE, ST=Saarland, O=MPI-SWS, OU=Distributed Systems Group, CN=Andreas Haeberlen/emailAddress=democa@octarine.de
        Validity
            Not Before: Apr 20 20:47:34 2015 GMT
            Not After : Apr 19 20:47:34 2016 GMT
        Subject: C=DE, ST=Saarland, O=MPI-SWS, OU=Distributed Systems Group, CN=2847fd9ab7108d524be3a8ee84b355f8e40e1a9c/emailAddress=node0842@octarine.de
        Subject Public Key Info:
            Public Key Algorithm: rsaEncryption
            RSA Public Key: (1024 bit)
                Modulus (1024 bit):
                    00:ce:f4:af:d3:d1:d6:c8:63:ac:3d:ab:44:a0:2b:
                    a9:4e:58:ea:d3:88:0c:92:ca:49:13:cc:a0:4e:f9:
                    68:1c:b6:f6:53:4f:6d:80:9a:4d:50:ef:99:70:99:
                    92:b8:69:85:ae:fe:7c:ed:7b:bc:db:fb:1d:30:34:
                    3e:ce:cc:74:e9:fc:6c:45:3e:a8:6f:bd:41:07:db:
                    89:41:a2:e4:b1:2e:12:3a:db:6e:d6:85:55:1e:73:
                    00:de:45:96:a8:35:5b:f2:9b:b3:4c:22:f6:0e:bd:
                    fd:60:74:b1:5b:0b:47:1f:b6:3b:85:e6:07:18:37:
                    6a:d2:c5:83:d2:16:19:a5:d1
                Exponent: 65537 (0x10001)
    Signature Algorithm: md5WithRSAEncryption
        a1:0d:45:c6:2f:13:98:00:1c:05:27:c4:c1:a7:d5:a8:1c:06:
        87:da:7e:c5:28:d9:6c:9d:de:17:b4:9b:f8:df:7f:23:22:c7:
        52:c3:a9:5e:e8:c3:9e:a6:ca:55:eb:cc:94:01:ca:a5:1e:66:
        d5:d2:67:67:22:a0:5e:21:0b:1d:a2:09:92:18:66:54:a5:fa:
        b3:b6:b7:05:49:16:6b:ff:a1:5d:ef:1d:d9:44:17:4a:cb:2c:
        29:d6:05:8b:7c:6a:82:d8:22:5a:0f:30:94:5c:9e:46:dd:13:
        e4:30:52:e1:47:e1:63:42:c1:89:d3:7f:38:54:14:ec:37:4e:
        78:c0
-----BEGIN CERTIFICATE-----
MIICvDCCAiUCCQCbJ9fo0boLIjANBgkqhkiG9w0BAQQFADCBlTELMAkGA1UEBhMC
REUxETAPBgNVBAgTCFNhYXJsYW5kMRAwDgYDVQQKEwdNUEktU1dTMSIwIAYDVQQL
ExlEaXN0cmlidXRlZCBTeXN0ZW1zIEdyb3VwMRowGAYDVQQDExFBbmRyZWFzIEhh
ZWJlcmxlbjEhMB8GCSqGSIb3DQEJARYSZGVtb2NhQG9jdGFyaW5lLmRlMB4XDTE1
MDQyMDIwNDczNFoXDTE2MDQxOTIwNDczNFowga4xCzAJBgNVBAYTAkRFMREwDwYD
VQQIEwhTYWFybGFuZDEQMA4GA1UEChMHTVBJLVNXUzEiMCAGA1UECxMZRGlzdHJp
YnV0ZWQgU3lzdGVtcyBHcm91cDExMC8GA1UEAxMoMjg0N2ZkOWFiNzEwOGQ1MjRi
ZTNhOGVlODRiMzU1ZjhlNDBlMWE5YzEjMCEGCSqGSIb3DQEJARYUbm9kZTA4NDJA
b2N0YXJpbmUuZGUwgZ8wDQYJKoZIhvcNAQEBBQADgY0AMIGJAoGBAM70r9PR1shj
rD2rRKArqU5Y6tOIDJLKSRPMoE75aBy29lNPbYCaTVDvmXCZkrhpha7+fO17vNv7
HTA0Ps7MdOn8bEU+qG+9QQfbiUGi5LEuEjrbbtaFVR5zAN5Flqg1W/Kbs0wi9g69
/WB0sVsLRx+2O4XmBxg3atLFg9IWGaXRAgMBAAEwDQYJKoZIhvcNAQEEBQADgYEA
oQ1Fxi8TmAAcBSfEwafVqBwGh9p+xSjZbJ3eF7Sb+N9/IyLHUsOpXujDnqbKVevM
lAHKpR5m1dJnZyKgXiELHaIJkhhmVKX6s7a3BUkWa/+hXe8d2UQXSsssKdYFi3xq
gtgiWg8wlFyeRt0T5DBS4UfhY0LBidN/OFQU7DdOeMA=
-----END CERTIFICATE-----
