Certificate:
    Data:
        Version: 1 (0x0)
        Serial Number:
            9b:27:d7:e8:d1:ba:09:51
        Signature Algorithm: md5WithRSAEncryption
        Issuer: C=DE, ST=Saarland, O=MPI-SWS, OU=Distributed Systems Group, CN=Andreas Haeberlen/emailAddress=democa@octarine.de
        Validity
            Not Before: Apr 20 20:47:13 2015 GMT
            Not After : Apr 19 20:47:13 2016 GMT
        Subject: C=DE, ST=Saarland, O=MPI-SWS, OU=Distributed Systems Group, CN=6d9b685b736b7e8cb7195d3d57ef814eeda56f0d/emailAddress=node0377@octarine.de
        Subject Public Key Info:
            Public Key Algorithm: rsaEncryption
            RSA Public Key: (1024 bit)
                Modulus (1024 bit):
                    00:c8:65:c3:9e:f6:60:05:ef:1f:81:2f:bb:5d:be:
                    21:18:14:af:59:5e:39:7e:e1:16:f5:17:4f:be:f7:
                    64:d1:b8:8e:a1:66:f4:45:67:e2:8a:e1:be:84:8a:
                    8b:28:2b:60:0b:8e:6a:d1:89:44:65:9d:85:3d:85:
                    50:18:b0:50:b5:1f:13:07:97:0b:ad:bb:65:45:93:
                    bf:4f:49:89:43:2e:73:a9:b8:b6:58:f4:d1:64:91:
                    16:8b:a2:81:52:64:17:b9:6e:15:1f:47:60:a4:2a:
                    9b:24:e7:c7:66:dd:db:cb:72:6c:4f:36:a6:a2:6f:
                    3f:53:9b:f2:0b:fd:72:ed:1f
                Exponent: 65537 (0x10001)
    Signature Algorithm: md5WithRSAEncryption
        ab:81:ab:23:68:7a:68:21:95:7f:36:21:a1:e3:8d:31:b3:0e:
        05:5b:f7:91:45:aa:02:40:ad:b6:d8:d4:e1:ee:1c:74:6d:fd:
        c6:29:66:8a:b6:06:71:1a:b0:f5:d6:cf:a7:1d:4b:42:ab:8c:
        87:f3:fc:45:b2:fb:29:c7:a6:96:5b:ba:98:cb:ab:bd:f2:c9:
        09:d3:6c:4b:62:b2:87:06:3e:a9:80:c3:82:f9:9d:d4:f9:ff:
        05:f8:09:47:53:f4:9f:20:24:e1:a8:61:3c:b7:1a:79:71:91:
        6c:dd:b4:5f:4a:8d:19:b5:7e:47:20:19:b3:72:3f:16:ef:28:
        7c:a9
-----BEGIN CERTIFICATE-----
MIICvDCCAiUCCQCbJ9fo0boJUTANBgkqhkiG9w0BAQQFADCBlTELMAkGA1UEBhMC
REUxETAPBgNVBAgTCFNhYXJsYW5kMRAwDgYDVQQKEwdNUEktU1dTMSIwIAYDVQQL
ExlEaXN0cmlidXRlZCBTeXN0ZW1zIEdyb3VwMRowGAYDVQQDExFBbmRyZWFzIEhh
ZWJlcmxlbjEhMB8GCSqGSIb3DQEJARYSZGVtb2NhQG9jdGFyaW5lLmRlMB4XDTE1
MDQyMDIwNDcxM1oXDTE2MDQxOTIwNDcxM1owga4xCzAJBgNVBAYTAkRFMREwDwYD
VQQIEwhTYWFybGFuZDEQMA4GA1UEChMHTVBJLVNXUzEiMCAGA1UECxMZRGlzdHJp
YnV0ZWQgU3lzdGVtcyBHcm91cDExMC8GA1UEAxMoNmQ5YjY4NWI3MzZiN2U4Y2I3
MTk1ZDNkNTdlZjgxNGVlZGE1NmYwZDEjMCEGCSqGSIb3DQEJARYUbm9kZTAzNzdA
b2N0YXJpbmUuZGUwgZ8wDQYJKoZIhvcNAQEBBQADgY0AMIGJAoGBAMhlw572YAXv
H4Evu12+IRgUr1leOX7hFvUXT773ZNG4jqFm9EVn4orhvoSKiygrYAuOatGJRGWd
hT2FUBiwULUfEweXC627ZUWTv09JiUMuc6m4tlj00WSRFouigVJkF7luFR9HYKQq
myTnx2bd28tybE82pqJvP1Ob8gv9cu0fAgMBAAEwDQYJKoZIhvcNAQEEBQADgYEA
q4GrI2h6aCGVfzYhoeONMbMOBVv3kUWqAkCtttjU4e4cdG39xilmirYGcRqw9dbP
px1LQquMh/P8RbL7Kcemllu6mMurvfLJCdNsS2KyhwY+qYDDgvmd1Pn/BfgJR1P0
nyAk4ahhPLcaeXGRbN20X0qNGbV+RyAZs3I/Fu8ofKk=
-----END CERTIFICATE-----
