Certificate:
    Data:
        Version: 1 (0x0)
        Serial Number:
            9b:27:d7:e8:d1:ba:0a:4b
        Signature Algorithm: md5WithRSAEncryption
        Issuer: C=DE, ST=Saarland, O=MPI-SWS, OU=Distributed Systems Group, CN=Andreas Haeberlen/emailAddress=democa@octarine.de
        Validity
            Not Before: Apr 20 20:47:24 2015 GMT
            Not After : Apr 19 20:47:24 2016 GMT
        Subject: C=DE, ST=Saarland, O=MPI-SWS, OU=Distributed Systems Group, CN=7704b0cf44ecdd677089b137d910f646e4ba589a/emailAddress=node0627@octarine.de
        Subject Public Key Info:
            Public Key Algorithm: rsaEncryption
            RSA Public Key: (1024 bit)
                Modulus (1024 bit):
                    00:c9:c1:ba:86:9c:e9:23:ff:4e:80:16:37:05:11:
                    1f:f3:ce:31:b0:3f:c9:ea:90:8a:02:8b:e0:78:9d:
                    f4:4a:83:7b:fa:44:3e:f8:f9:1e:23:a4:b4:17:5b:
                    75:b9:29:32:f7:b4:9f:bf:4b:fc:88:a6:d1:54:26:
                    e1:e6:d2:a8:1f:6a:b4:5e:75:f1:22:f5:b9:44:c7:
                    5d:75:e1:4b:b4:89:57:82:ff:b0:80:23:91:34:9a:
                    f7:2e:dd:dd:1a:4a:78:6a:f3:e6:e8:d7:dd:ba:0e:
                    55:9f:a6:2c:9f:1d:a2:37:f3:2f:b1:42:c2:4c:40:
                    46:38:99:55:2d:0a:f7:fb:ef
                Exponent: 65537 (0x10001)
    Signature Algorithm: md5WithRSAEncryption
        63:73:92:74:39:7c:e7:ec:0d:c8:f0:18:e5:b7:e5:52:0d:e0:
        94:62:17:37:59:a1:3e:54:eb:36:7a:3a:4a:ce:e9:fb:f1:15:
        48:28:6c:bd:f3:f5:a3:1e:ae:b4:0d:64:27:52:2f:23:cb:20:
        7e:38:5d:02:63:9e:07:31:f4:b1:95:05:41:ea:11:10:f6:fb:
        14:88:c7:6f:f0:0f:4a:26:76:47:10:68:ed:0a:8c:fc:2a:35:
        8b:b3:50:93:cc:dd:50:f8:7d:b5:c8:f8:4d:32:7f:69:2c:3c:
        cb:4b:4c:3f:d8:e1:2c:d0:de:d8:7c:53:1b:c9:c9:b9:65:12:
        3d:b4
-----BEGIN CERTIFICATE-----
MIICvDCCAiUCCQCbJ9fo0boKSzANBgkqhkiG9w0BAQQFADCBlTELMAkGA1UEBhMC
REUxETAPBgNVBAgTCFNhYXJsYW5kMRAwDgYDVQQKEwdNUEktU1dTMSIwIAYDVQQL
ExlEaXN0cmlidXRlZCBTeXN0ZW1zIEdyb3VwMRowGAYDVQQDExFBbmRyZWFzIEhh
ZWJlcmxlbjEhMB8GCSqGSIb3DQEJARYSZGVtb2NhQG9jdGFyaW5lLmRlMB4XDTE1
MDQyMDIwNDcyNFoXDTE2MDQxOTIwNDcyNFowga4xCzAJBgNVBAYTAkRFMREwDwYD
VQQIEwhTYWFybGFuZDEQMA4GA1UEChMHTVBJLVNXUzEiMCAGA1UECxMZRGlzdHJp
YnV0ZWQgU3lzdGVtcyBHcm91cDExMC8GA1UEAxMoNzcwNGIwY2Y0NGVjZGQ2Nzcw
ODliMTM3ZDkxMGY2NDZlNGJhNTg5YTEjMCEGCSqGSIb3DQEJARYUbm9kZTA2MjdA
b2N0YXJpbmUuZGUwgZ8wDQYJKoZIhvcNAQEBBQADgY0AMIGJAoGBAMnBuoac6SP/
ToAWNwURH/POMbA/yeqQigKL4Hid9EqDe/pEPvj5HiOktBdbdbkpMve0n79L/Iim
0VQm4ebSqB9qtF518SL1uUTHXXXhS7SJV4L/sIAjkTSa9y7d3RpKeGrz5ujX3boO
VZ+mLJ8dojfzL7FCwkxARjiZVS0K9/vvAgMBAAEwDQYJKoZIhvcNAQEEBQADgYEA
Y3OSdDl85+wNyPAY5bflUg3glGIXN1mhPlTrNno6Ss7p+/EVSChsvfP1ox6utA1k
J1IvI8sgfjhdAmOeBzH0sZUFQeoREPb7FIjHb/APSiZ2RxBo7QqM/Co1i7NQk8zd
UPh9tcj4TTJ/aSw8y0tMP9jhLNDe2HxTG8nJuWUSPbQ=
-----END CERTIFICATE-----
