Certificate:
    Data:
        Version: 1 (0x0)
        Serial Number:
            9b:27:d7:e8:d1:ba:0b:02
        Signature Algorithm: md5WithRSAEncryption
        Issuer: C=DE, ST=Saarland, O=MPI-SWS, OU=Distributed Systems Group, CN=Andreas Haeberlen/emailAddress=democa@octarine.de
        Validity
            Not Before: Apr 20 20:47:33 2015 GMT
            Not After : Apr 19 20:47:33 2016 GMT
        Subject: C=DE, ST=Saarland, O=MPI-SWS, OU=Distributed Systems Group, CN=07275a5672830acfe7725ab28ccfca1c1436e9d5/emailAddress=node0810@octarine.de
        Subject Public Key Info:
            Public Key Algorithm: rsaEncryption
            RSA Public Key: (1024 bit)
                Modulus (1024 bit):
                    00:c0:0f:b8:e3:4b:f1:95:36:9a:84:34:78:1d:4b:
                    80:d1:c0:66:37:e9:60:5c:4f:f0:33:68:a0:97:6d:
                    15:6f:a1:8e:32:b0:aa:4a:ab:28:21:39:ac:25:c0:
                    32:db:9b:6c:0b:f2:cb:a6:bf:58:c2:4c:1a:20:da:
                    95:f4:92:61:e6:c1:b1:e8:82:a8:f7:e9:6c:5d:96:
                    0e:4e:a0:1d:ca:38:58:98:45:93:57:e9:c2:fb:07:
                    5d:ef:46:e7:34:3b:cf:df:23:89:6d:c3:dd:c0:03:
                    0a:d6:e0:54:6b:c0:a4:17:fe:1d:68:19:e5:1f:93:
                    ae:27:45:81:18:e0:91:f5:55
                Exponent: 65537 (0x10001)
    Signature Algorithm: md5WithRSAEncryption
        07:49:8e:49:83:0e:79:de:d3:7f:b4:f5:f3:68:9d:21:05:25:
        9e:1a:57:33:ab:c7:2d:e6:ed:63:aa:47:24:3f:b5:b1:57:66:
        f5:06:33:87:41:dc:f5:54:4b:14:6e:23:d4:8c:0d:10:db:ce:
        ac:4a:44:4a:f5:09:46:d1:c8:a1:48:41:c8:a6:2c:de:ba:27:
        a4:30:2c:98:5b:6b:cf:7d:6c:ba:4a:36:ba:c4:28:b4:f9:34:
        37:a3:2b:ee:5e:8b:30:21:e7:8f:48:a2:d6:01:b7:d6:94:24:
        98:e1:04:69:2b:be:39:25:16:d4:c8:e8:6e:df:c6:29:af:5d:
        38:04
-----BEGIN CERTIFICATE-----
MIICvDCCAiUCCQCbJ9fo0boLAjANBgkqhkiG9w0BAQQFADCBlTELMAkGA1UEBhMC
REUxETAPBgNVBAgTCFNhYXJsYW5kMRAwDgYDVQQKEwdNUEktU1dTMSIwIAYDVQQL
ExlEaXN0cmlidXRlZCBTeXN0ZW1zIEdyb3VwMRowGAYDVQQDExFBbmRyZWFzIEhh
ZWJlcmxlbjEhMB8GCSqGSIb3DQEJARYSZGVtb2NhQG9jdGFyaW5lLmRlMB4XDTE1
MDQyMDIwNDczM1oXDTE2MDQxOTIwNDczM1owga4xCzAJBgNVBAYTAkRFMREwDwYD
VQQIEwhTYWFybGFuZDEQMA4GA1UEChMHTVBJLVNXUzEiMCAGA1UECxMZRGlzdHJp
YnV0ZWQgU3lzdGVtcyBHcm91cDExMC8GA1UEAxMoMDcyNzVhNTY3MjgzMGFjZmU3
NzI1YWIyOGNjZmNhMWMxNDM2ZTlkNTEjMCEGCSqGSIb3DQEJARYUbm9kZTA4MTBA
b2N0YXJpbmUuZGUwgZ8wDQYJKoZIhvcNAQEBBQADgY0AMIGJAoGBAMAPuONL8ZU2
moQ0eB1LgNHAZjfpYFxP8DNooJdtFW+hjjKwqkqrKCE5rCXAMtubbAvyy6a/WMJM
GiDalfSSYebBseiCqPfpbF2WDk6gHco4WJhFk1fpwvsHXe9G5zQ7z98jiW3D3cAD
CtbgVGvApBf+HWgZ5R+TridFgRjgkfVVAgMBAAEwDQYJKoZIhvcNAQEEBQADgYEA
B0mOSYMOed7Tf7T182idIQUlnhpXM6vHLebtY6pHJD+1sVdm9QYzh0Hc9VRLFG4j
1IwNENvOrEpESvUJRtHIoUhByKYs3ronpDAsmFtrz31suko2usQotPk0N6Mr7l6L
MCHnj0ii1gG31pQkmOEEaSu+OSUW1Mjobt/GKa9dOAQ=
-----END CERTIFICATE-----
