Certificate:
    Data:
        Version: 1 (0x0)
        Serial Number:
            9b:27:d7:e8:d1:ba:0b:81
        Signature Algorithm: md5WithRSAEncryption
        Issuer: C=DE, ST=Saarland, O=MPI-SWS, OU=Distributed Systems Group, CN=Andreas Haeberlen/emailAddress=democa@octarine.de
        Validity
            Not Before: Apr 20 20:47:38 2015 GMT
            Not After : Apr 19 20:47:38 2016 GMT
        Subject: C=DE, ST=Saarland, O=MPI-SWS, OU=Distributed Systems Group, CN=1f43208dd3b164b5fcadbc1972f2afdce10128ef/emailAddress=node0937@octarine.de
        Subject Public Key Info:
            Public Key Algorithm: rsaEncryption
            RSA Public Key: (1024 bit)
                Modulus (1024 bit):
                    00:e2:d8:42:38:03:87:1a:fd:cb:41:f2:a2:e3:be:
                    86:b9:c8:1c:b1:40:92:9f:9c:c3:e3:3c:5c:ce:04:
                    0d:d6:35:2d:2b:36:ff:72:c8:a8:39:df:c7:62:df:
                    0d:80:cd:78:50:b1:00:ab:3c:61:5f:9c:0b:47:e0:
                    ae:2b:de:f6:cc:c1:5c:34:ae:63:f4:c2:08:bc:93:
                    e7:ab:bb:5c:4b:05:1e:cd:01:9a:e8:a5:f4:80:11:
                    ca:28:1f:3d:9b:51:1a:b0:1d:23:60:f5:72:52:de:
                    5c:8d:d5:e1:e4:ab:4e:4d:0f:c1:62:d5:47:17:26:
                    a7:fa:70:d9:cc:db:3b:82:25
                Exponent: 65537 (0x10001)
    Signature Algorithm: md5WithRSAEncryption
        07:3d:da:73:9e:34:f5:22:0b:4c:82:39:31:b0:28:b9:44:e2:
        1a:3f:06:45:60:6c:d4:37:56:aa:32:f0:61:74:c9:ec:18:86:
        2a:dc:a2:86:89:a9:13:d6:d9:47:f7:82:54:08:1a:d3:0c:21:
        69:c5:57:a6:2e:f6:6e:3a:a2:03:0c:8a:04:3e:06:e2:cb:6a:
        12:69:17:f1:43:f8:0c:db:05:22:48:7a:e0:4b:ee:de:8b:34:
        73:d5:08:48:38:52:7c:41:4e:f1:c8:70:f6:cf:7e:ea:3c:7f:
        b2:32:f5:32:76:ef:be:6f:a4:94:f9:cd:43:4b:1e:cd:d0:45:
        ba:37
-----BEGIN CERTIFICATE-----
MIICvDCCAiUCCQCbJ9fo0boLgTANBgkqhkiG9w0BAQQFADCBlTELMAkGA1UEBhMC
REUxETAPBgNVBAgTCFNhYXJsYW5kMRAwDgYDVQQKEwdNUEktU1dTMSIwIAYDVQQL
ExlEaXN0cmlidXRlZCBTeXN0ZW1zIEdyb3VwMRowGAYDVQQDExFBbmRyZWFzIEhh
ZWJlcmxlbjEhMB8GCSqGSIb3DQEJARYSZGVtb2NhQG9jdGFyaW5lLmRlMB4XDTE1
MDQyMDIwNDczOFoXDTE2MDQxOTIwNDczOFowga4xCzAJBgNVBAYTAkRFMREwDwYD
VQQIEwhTYWFybGFuZDEQMA4GA1UEChMHTVBJLVNXUzEiMCAGA1UECxMZRGlzdHJp
YnV0ZWQgU3lzdGVtcyBHcm91cDExMC8GA1UEAxMoMWY0MzIwOGRkM2IxNjRiNWZj
YWRiYzE5NzJmMmFmZGNlMTAxMjhlZjEjMCEGCSqGSIb3DQEJARYUbm9kZTA5MzdA
b2N0YXJpbmUuZGUwgZ8wDQYJKoZIhvcNAQEBBQADgY0AMIGJAoGBAOLYQjgDhxr9
y0HyouO+hrnIHLFAkp+cw+M8XM4EDdY1LSs2/3LIqDnfx2LfDYDNeFCxAKs8YV+c
C0fgrive9szBXDSuY/TCCLyT56u7XEsFHs0Bmuil9IARyigfPZtRGrAdI2D1clLe
XI3V4eSrTk0PwWLVRxcmp/pw2czbO4IlAgMBAAEwDQYJKoZIhvcNAQEEBQADgYEA
Bz3ac5409SILTII5MbAouUTiGj8GRWBs1DdWqjLwYXTJ7BiGKtyihompE9bZR/eC
VAga0wwhacVXpi72bjqiAwyKBD4G4stqEmkX8UP4DNsFIkh64Evu3os0c9UISDhS
fEFO8chw9s9+6jx/sjL1Mnbvvm+klPnNQ0sezdBFujc=
-----END CERTIFICATE-----
