Certificate:
    Data:
        Version: 1 (0x0)
        Serial Number:
            9b:27:d7:e8:d1:ba:08:14
        Signature Algorithm: md5WithRSAEncryption
        Issuer: C=DE, ST=Saarland, O=MPI-SWS, OU=Distributed Systems Group, CN=Andreas Haeberlen/emailAddress=democa@octarine.de
        Validity
            Not Before: Apr 20 20:46:59 2015 GMT
            Not After : Apr 19 20:46:59 2016 GMT
        Subject: C=DE, ST=Saarland, O=MPI-SWS, OU=Distributed Systems Group, CN=39987112210ee4c9874111928764dbc1559c7ae9/emailAddress=node0060@octarine.de
        Subject Public Key Info:
            Public Key Algorithm: rsaEncryption
            RSA Public Key: (1024 bit)
                Modulus (1024 bit):
                    00:c2:8d:4e:27:37:f5:0e:43:ee:8b:e9:4b:01:bd:
                    f2:d9:b3:c4:7a:c5:86:0f:48:ca:77:bf:bd:7c:c6:
                    99:c4:1b:45:81:6a:e2:23:a7:30:34:ad:eb:6d:90:
                    02:58:07:d1:71:5e:de:5f:45:e6:49:9c:de:7d:c6:
                    20:32:fc:fb:1a:4a:20:81:6f:7f:42:ae:2b:5b:96:
                    7a:12:3d:67:4c:3f:4e:89:c5:78:33:3e:1c:90:2e:
                    0e:3e:b9:b9:de:d1:6a:49:6f:8d:4c:8d:be:e9:02:
                    ab:e2:68:6b:aa:04:37:eb:6e:0b:a5:3f:38:0c:ea:
                    e3:7f:a9:ed:c0:aa:4a:d7:8f
                Exponent: 65537 (0x10001)
    Signature Algorithm: md5WithRSAEncryption
        cd:cc:95:68:35:cc:5a:d6:41:de:ad:a6:19:cc:45:aa:7f:53:
        31:9f:82:0a:db:a9:92:47:09:b5:05:60:87:97:4d:3e:d9:81:
        5c:30:aa:8f:15:fb:6f:25:a9:f5:54:33:2f:13:f6:34:1d:ad:
        1f:28:5d:fe:d5:98:84:ca:76:8c:ec:8e:4a:0c:14:0c:b6:05:
        19:80:a6:2c:69:09:f9:2e:94:ca:e8:92:46:f6:f4:80:ba:d8:
        b4:88:63:cd:4d:ad:f4:ea:d7:b0:33:b9:2f:47:a7:ed:76:e7:
        ed:4f:93:39:a3:e2:d6:ad:0f:26:36:08:c4:f5:45:1c:f1:4c:
        c1:85
-----BEGIN CERTIFICATE-----
MIICvDCCAiUCCQCbJ9fo0boIFDANBgkqhkiG9w0BAQQFADCBlTELMAkGA1UEBhMC
REUxETAPBgNVBAgTCFNhYXJsYW5kMRAwDgYDVQQKEwdNUEktU1dTMSIwIAYDVQQL
ExlEaXN0cmlidXRlZCBTeXN0ZW1zIEdyb3VwMRowGAYDVQQDExFBbmRyZWFzIEhh
ZWJlcmxlbjEhMB8GCSqGSIb3DQEJARYSZGVtb2NhQG9jdGFyaW5lLmRlMB4XDTE1
MDQyMDIwNDY1OVoXDTE2MDQxOTIwNDY1OVowga4xCzAJBgNVBAYTAkRFMREwDwYD
VQQIEwhTYWFybGFuZDEQMA4GA1UEChMHTVBJLVNXUzEiMCAGA1UECxMZRGlzdHJp
YnV0ZWQgU3lzdGVtcyBHcm91cDExMC8GA1UEAxMoMzk5ODcxMTIyMTBlZTRjOTg3
NDExMTkyODc2NGRiYzE1NTljN2FlOTEjMCEGCSqGSIb3DQEJARYUbm9kZTAwNjBA
b2N0YXJpbmUuZGUwgZ8wDQYJKoZIhvcNAQEBBQADgY0AMIGJAoGBAMKNTic39Q5D
7ovpSwG98tmzxHrFhg9Iyne/vXzGmcQbRYFq4iOnMDSt622QAlgH0XFe3l9F5kmc
3n3GIDL8+xpKIIFvf0KuK1uWehI9Z0w/TonFeDM+HJAuDj65ud7RaklvjUyNvukC
q+Joa6oEN+tuC6U/OAzq43+p7cCqStePAgMBAAEwDQYJKoZIhvcNAQEEBQADgYEA
zcyVaDXMWtZB3q2mGcxFqn9TMZ+CCtupkkcJtQVgh5dNPtmBXDCqjxX7byWp9VQz
LxP2NB2tHyhd/tWYhMp2jOyOSgwUDLYFGYCmLGkJ+S6UyuiSRvb0gLrYtIhjzU2t
9OrXsDO5L0en7Xbn7U+TOaPi1q0PJjYIxPVFHPFMwYU=
-----END CERTIFICATE-----
