Certificate:
    Data:
        Version: 1 (0x0)
        Serial Number:
            9b:27:d7:e8:d1:ba:0b:6b
        Signature Algorithm: md5WithRSAEncryption
        Issuer: C=DE, ST=Saarland, O=MPI-SWS, OU=Distributed Systems Group, CN=Andreas Haeberlen/emailAddress=democa@octarine.de
        Validity
            Not Before: Apr 20 20:47:37 2015 GMT
            Not After : Apr 19 20:47:37 2016 GMT
        Subject: C=DE, ST=Saarland, O=MPI-SWS, OU=Distributed Systems Group, CN=80834c45bad7ee1cbc7ad4d8beefe2372ba68fb3/emailAddress=node0915@octarine.de
        Subject Public Key Info:
            Public Key Algorithm: rsaEncryption
            RSA Public Key: (1024 bit)
                Modulus (1024 bit):
                    00:ac:a7:50:84:a8:2a:12:32:e0:9e:1e:c7:c1:c8:
                    6d:5f:0b:93:ae:21:49:c3:c1:c0:d3:9f:5b:f5:59:
                    67:96:03:7b:65:43:a4:a0:42:c3:4e:d6:bf:28:60:
                    57:3c:54:bf:11:e8:0c:f5:d5:f7:20:73:b2:55:ae:
                    e4:4e:df:c5:f3:39:4e:5f:75:9d:76:2c:a6:db:b0:
                    d2:6e:1e:73:ca:3d:43:8b:b6:7c:ad:74:e6:5a:f2:
                    a2:e9:4a:4a:32:18:d4:f4:4a:0d:7a:50:80:52:7e:
                    f1:a0:8d:ff:07:0a:88:55:6e:a4:eb:e2:08:27:e2:
                    7c:9d:e2:a7:d8:21:39:30:37
                Exponent: 65537 (0x10001)
    Signature Algorithm: md5WithRSAEncryption
        79:78:ba:2b:f3:ed:11:a9:2d:a8:d2:39:83:56:07:54:6e:41:
        b6:08:10:e6:15:30:cb:0a:ad:59:e6:1d:d2:c3:7f:08:6a:90:
        53:7b:65:8d:29:89:c7:b8:f0:9f:a8:c5:99:43:11:20:72:67:
        7c:4b:09:a0:ad:49:3b:ae:d3:7d:38:ed:2e:ab:36:d1:1a:5b:
        16:3e:98:7b:da:09:72:8e:b2:af:9b:a7:bf:89:f2:6e:fb:49:
        2b:5b:4c:08:61:e7:5c:d6:27:f6:38:6d:95:58:d9:f7:7c:03:
        58:e3:c2:98:74:da:1f:34:1b:55:b6:1a:15:5f:e8:51:f7:c7:
        4a:f2
-----BEGIN CERTIFICATE-----
MIICvDCCAiUCCQCbJ9fo0boLazANBgkqhkiG9w0BAQQFADCBlTELMAkGA1UEBhMC
REUxETAPBgNVBAgTCFNhYXJsYW5kMRAwDgYDVQQKEwdNUEktU1dTMSIwIAYDVQQL
ExlEaXN0cmlidXRlZCBTeXN0ZW1zIEdyb3VwMRowGAYDVQQDExFBbmRyZWFzIEhh
ZWJlcmxlbjEhMB8GCSqGSIb3DQEJARYSZGVtb2NhQG9jdGFyaW5lLmRlMB4XDTE1
MDQyMDIwNDczN1oXDTE2MDQxOTIwNDczN1owga4xCzAJBgNVBAYTAkRFMREwDwYD
VQQIEwhTYWFybGFuZDEQMA4GA1UEChMHTVBJLVNXUzEiMCAGA1UECxMZRGlzdHJp
YnV0ZWQgU3lzdGVtcyBHcm91cDExMC8GA1UEAxMoODA4MzRjNDViYWQ3ZWUxY2Jj
N2FkNGQ4YmVlZmUyMzcyYmE2OGZiMzEjMCEGCSqGSIb3DQEJARYUbm9kZTA5MTVA
b2N0YXJpbmUuZGUwgZ8wDQYJKoZIhvcNAQEBBQADgY0AMIGJAoGBAKynUISoKhIy
4J4ex8HIbV8Lk64hScPBwNOfW/VZZ5YDe2VDpKBCw07WvyhgVzxUvxHoDPXV9yBz
slWu5E7fxfM5Tl91nXYsptuw0m4ec8o9Q4u2fK105lryoulKSjIY1PRKDXpQgFJ+
8aCN/wcKiFVupOviCCfifJ3ip9ghOTA3AgMBAAEwDQYJKoZIhvcNAQEEBQADgYEA
eXi6K/PtEaktqNI5g1YHVG5BtggQ5hUwywqtWeYd0sN/CGqQU3tljSmJx7jwn6jF
mUMRIHJnfEsJoK1JO67TfTjtLqs20RpbFj6Ye9oJco6yr5unv4nybvtJK1tMCGHn
XNYn9jhtlVjZ93wDWOPCmHTaHzQbVbYaFV/oUffHSvI=
-----END CERTIFICATE-----
