Certificate:
    Data:
        Version: 1 (0x0)
        Serial Number:
            9b:27:d7:e8:d1:ba:08:9d
        Signature Algorithm: md5WithRSAEncryption
        Issuer: C=DE, ST=Saarland, O=MPI-SWS, OU=Distributed Systems Group, CN=Andreas Haeberlen/emailAddress=democa@octarine.de
        Validity
            Not Before: Apr 20 20:47:05 2015 GMT
            Not After : Apr 19 20:47:05 2016 GMT
        Subject: C=DE, ST=Saarland, O=MPI-SWS, OU=Distributed Systems Group, CN=d6d4573d737eaf0bb8e402b40facf4ecbb1024da/emailAddress=node0197@octarine.de
        Subject Public Key Info:
            Public Key Algorithm: rsaEncryption
            RSA Public Key: (1024 bit)
                Modulus (1024 bit):
                    00:cb:72:ef:76:80:4a:42:96:97:61:8c:79:5e:1e:
                    13:01:41:d0:4a:df:7e:92:d4:d3:28:6d:8e:ff:22:
                    e0:59:6d:30:c5:9a:72:44:4c:01:f7:32:ce:4b:b3:
                    a3:a6:e6:91:d3:58:7d:4e:c7:bc:d3:e2:69:fa:58:
                    ee:44:0a:1c:ef:1e:02:b0:e4:78:8b:ac:0f:b9:b9:
                    a7:ac:ef:2a:b1:73:7c:c1:37:86:f1:91:85:36:2a:
                    31:eb:1f:6f:34:6f:96:e0:1a:75:6c:2b:e8:e5:f0:
                    27:0e:7d:99:8a:56:e0:1c:e9:8e:07:f0:2a:bc:51:
                    d3:3f:74:c3:36:e4:3a:4e:4d
                Exponent: 65537 (0x10001)
    Signature Algorithm: md5WithRSAEncryption
        38:2b:f9:8f:f4:23:0f:d3:8c:26:02:0f:b3:40:54:a1:f7:28:
        4a:99:b1:40:ce:18:96:81:c8:80:72:0f:c8:08:1b:16:85:58:
        a2:6e:5a:3a:fe:d4:2d:a3:7d:58:a7:43:42:5e:ca:eb:a0:cc:
        48:f3:4d:fa:e5:db:83:54:2e:f1:67:cf:b5:b6:70:7c:a2:55:
        d5:05:4a:15:ac:d8:a8:12:b9:39:d8:8a:69:6d:f4:e7:6c:62:
        09:7b:e2:8c:5f:fc:8a:65:53:f1:c0:e4:1d:50:28:33:8f:4d:
        16:91:34:5e:65:08:05:bf:16:48:ba:f6:cb:39:79:ba:5b:23:
        e2:b3
-----BEGIN CERTIFICATE-----
MIICvDCCAiUCCQCbJ9fo0boInTANBgkqhkiG9w0BAQQFADCBlTELMAkGA1UEBhMC
REUxETAPBgNVBAgTCFNhYXJsYW5kMRAwDgYDVQQKEwdNUEktU1dTMSIwIAYDVQQL
ExlEaXN0cmlidXRlZCBTeXN0ZW1zIEdyb3VwMRowGAYDVQQDExFBbmRyZWFzIEhh
ZWJlcmxlbjEhMB8GCSqGSIb3DQEJARYSZGVtb2NhQG9jdGFyaW5lLmRlMB4XDTE1
MDQyMDIwNDcwNVoXDTE2MDQxOTIwNDcwNVowga4xCzAJBgNVBAYTAkRFMREwDwYD
VQQIEwhTYWFybGFuZDEQMA4GA1UEChMHTVBJLVNXUzEiMCAGA1UECxMZRGlzdHJp
YnV0ZWQgU3lzdGVtcyBHcm91cDExMC8GA1UEAxMoZDZkNDU3M2Q3MzdlYWYwYmI4
ZTQwMmI0MGZhY2Y0ZWNiYjEwMjRkYTEjMCEGCSqGSIb3DQEJARYUbm9kZTAxOTdA
b2N0YXJpbmUuZGUwgZ8wDQYJKoZIhvcNAQEBBQADgY0AMIGJAoGBAMty73aASkKW
l2GMeV4eEwFB0ErffpLU0yhtjv8i4FltMMWackRMAfcyzkuzo6bmkdNYfU7HvNPi
afpY7kQKHO8eArDkeIusD7m5p6zvKrFzfME3hvGRhTYqMesfbzRvluAadWwr6OXw
Jw59mYpW4BzpjgfwKrxR0z90wzbkOk5NAgMBAAEwDQYJKoZIhvcNAQEEBQADgYEA
OCv5j/QjD9OMJgIPs0BUofcoSpmxQM4YloHIgHIPyAgbFoVYom5aOv7ULaN9WKdD
Ql7K66DMSPNN+uXbg1Qu8WfPtbZwfKJV1QVKFazYqBK5OdiKaW3052xiCXvijF/8
imVT8cDkHVAoM49NFpE0XmUIBb8WSLr2yzl5ulsj4rM=
-----END CERTIFICATE-----
