Certificate:
    Data:
        Version: 1 (0x0)
        Serial Number:
            9b:27:d7:e8:d1:ba:09:c1
        Signature Algorithm: md5WithRSAEncryption
        Issuer: C=DE, ST=Saarland, O=MPI-SWS, OU=Distributed Systems Group, CN=Andreas Haeberlen/emailAddress=democa@octarine.de
        Validity
            Not Before: Apr 20 20:47:18 2015 GMT
            Not After : Apr 19 20:47:18 2016 GMT
        Subject: C=DE, ST=Saarland, O=MPI-SWS, OU=Distributed Systems Group, CN=1c66633286ded047d1230a9b795b880a560ba3e2/emailAddress=node0489@octarine.de
        Subject Public Key Info:
            Public Key Algorithm: rsaEncryption
            RSA Public Key: (1024 bit)
                Modulus (1024 bit):
                    00:ee:3c:e0:99:b8:79:f4:92:a2:30:ee:e0:90:f5:
                    dc:02:3b:09:17:b8:d3:85:70:90:83:ac:6e:e6:23:
                    ee:14:7e:1c:b5:cc:15:c2:2f:09:7b:7e:5a:9b:02:
                    fd:00:f1:0b:fe:5a:04:33:13:db:0c:d0:69:24:bc:
                    9e:72:bb:e0:42:22:47:e3:72:d3:fe:ef:a6:fa:17:
                    92:3b:15:83:0a:47:7f:d8:fb:80:a5:42:5a:54:90:
                    75:fc:eb:dd:0d:96:84:8d:44:d7:74:e4:66:04:25:
                    47:4a:c1:45:99:80:67:8f:2d:01:fc:9b:de:0f:d1:
                    b0:33:d4:2b:fc:c2:15:c0:33
                Exponent: 65537 (0x10001)
    Signature Algorithm: md5WithRSAEncryption
        3c:36:83:c6:b9:7b:c5:47:ff:57:10:1f:76:e4:5a:20:8a:6c:
        b0:30:15:80:d1:63:d2:3a:90:1b:68:75:96:b2:af:e5:17:d9:
        69:c1:07:fd:1c:db:aa:c1:0d:e3:19:d3:62:ed:b2:1b:0a:04:
        40:06:32:0a:3f:b4:62:34:15:cd:08:b7:79:ae:41:87:e2:2f:
        c9:ac:1c:dc:6e:52:75:dc:37:95:ea:f1:f4:27:f3:14:04:be:
        2e:01:eb:db:60:85:6b:86:e4:27:7f:66:dd:cb:83:f3:3b:9c:
        61:d4:9c:16:db:da:e6:d6:65:a4:2a:2a:e7:97:ec:2b:c8:2b:
        f1:e2
-----BEGIN CERTIFICATE-----
MIICvDCCAiUCCQCbJ9fo0boJwTANBgkqhkiG9w0BAQQFADCBlTELMAkGA1UEBhMC
REUxETAPBgNVBAgTCFNhYXJsYW5kMRAwDgYDVQQKEwdNUEktU1dTMSIwIAYDVQQL
ExlEaXN0cmlidXRlZCBTeXN0ZW1zIEdyb3VwMRowGAYDVQQDExFBbmRyZWFzIEhh
ZWJlcmxlbjEhMB8GCSqGSIb3DQEJARYSZGVtb2NhQG9jdGFyaW5lLmRlMB4XDTE1
MDQyMDIwNDcxOFoXDTE2MDQxOTIwNDcxOFowga4xCzAJBgNVBAYTAkRFMREwDwYD
VQQIEwhTYWFybGFuZDEQMA4GA1UEChMHTVBJLVNXUzEiMCAGA1UECxMZRGlzdHJp
YnV0ZWQgU3lzdGVtcyBHcm91cDExMC8GA1UEAxMoMWM2NjYzMzI4NmRlZDA0N2Qx
MjMwYTliNzk1Yjg4MGE1NjBiYTNlMjEjMCEGCSqGSIb3DQEJARYUbm9kZTA0ODlA
b2N0YXJpbmUuZGUwgZ8wDQYJKoZIhvcNAQEBBQADgY0AMIGJAoGBAO484Jm4efSS
ojDu4JD13AI7CRe404VwkIOsbuYj7hR+HLXMFcIvCXt+WpsC/QDxC/5aBDMT2wzQ
aSS8nnK74EIiR+Ny0/7vpvoXkjsVgwpHf9j7gKVCWlSQdfzr3Q2WhI1E13TkZgQl
R0rBRZmAZ48tAfyb3g/RsDPUK/zCFcAzAgMBAAEwDQYJKoZIhvcNAQEEBQADgYEA
PDaDxrl7xUf/VxAfduRaIIpssDAVgNFj0jqQG2h1lrKv5RfZacEH/RzbqsEN4xnT
Yu2yGwoEQAYyCj+0YjQVzQi3ea5Bh+Ivyawc3G5Sddw3lerx9CfzFAS+LgHr22CF
a4bkJ39m3cuD8zucYdScFtva5tZlpCoq55fsK8gr8eI=
-----END CERTIFICATE-----
