Certificate:
    Data:
        Version: 1 (0x0)
        Serial Number:
            9b:27:d7:e8:d1:ba:0b:48
        Signature Algorithm: md5WithRSAEncryption
        Issuer: C=DE, ST=Saarland, O=MPI-SWS, OU=Distributed Systems Group, CN=Andreas Haeberlen/emailAddress=democa@octarine.de
        Validity
            Not Before: Apr 20 20:47:36 2015 GMT
            Not After : Apr 19 20:47:36 2016 GMT
        Subject: C=DE, ST=Saarland, O=MPI-SWS, OU=Distributed Systems Group, CN=879894ddbf610ca4d882795f4cfcaec256afb8d7/emailAddress=node0880@octarine.de
        Subject Public Key Info:
            Public Key Algorithm: rsaEncryption
            RSA Public Key: (1024 bit)
                Modulus (1024 bit):
                    00:ae:38:54:1b:30:83:98:b7:de:58:36:3a:4b:67:
                    cd:bc:08:9a:d8:fc:c5:37:de:bf:39:67:59:93:e3:
                    7c:c2:39:65:08:34:8f:16:12:26:53:ff:76:74:86:
                    d1:f0:bf:2b:97:a3:a4:4a:7c:d7:16:8d:6f:35:51:
                    29:6e:f8:a4:3e:0a:bb:60:7f:6f:24:19:6c:dd:b6:
                    09:06:a0:fb:c5:20:bf:24:32:d5:31:e8:7b:02:1b:
                    aa:84:c6:76:1c:09:21:41:e2:e7:84:4c:d0:e6:eb:
                    7a:fc:f1:35:b1:ff:04:56:54:b3:7b:4d:75:53:b3:
                    66:11:1c:38:80:bf:5a:08:ad
                Exponent: 65537 (0x10001)
    Signature Algorithm: md5WithRSAEncryption
        c3:2d:cf:17:23:32:ef:29:17:ee:86:67:86:7d:33:3a:d9:29:
        bd:49:b1:19:c3:d7:91:b5:51:18:55:2d:f1:de:52:0f:a4:9a:
        0f:e4:24:2d:b6:d1:80:f1:08:11:a6:42:a9:da:03:15:7c:aa:
        71:67:d0:87:31:65:7d:6b:a8:ad:ba:52:fd:8f:a2:09:a5:2a:
        bc:47:c5:6c:5b:b0:bc:88:da:90:75:cc:c7:72:e4:3b:93:99:
        59:98:e9:a3:1b:7f:d8:be:bf:f4:b3:eb:d3:aa:ae:3e:0f:3b:
        ab:7b:8c:4f:7d:84:a0:bd:d4:5e:63:ab:23:b8:9d:21:43:eb:
        be:b5
-----BEGIN CERTIFICATE-----
MIICvDCCAiUCCQCbJ9fo0boLSDANBgkqhkiG9w0BAQQFADCBlTELMAkGA1UEBhMC
REUxETAPBgNVBAgTCFNhYXJsYW5kMRAwDgYDVQQKEwdNUEktU1dTMSIwIAYDVQQL
ExlEaXN0cmlidXRlZCBTeXN0ZW1zIEdyb3VwMRowGAYDVQQDExFBbmRyZWFzIEhh
ZWJlcmxlbjEhMB8GCSqGSIb3DQEJARYSZGVtb2NhQG9jdGFyaW5lLmRlMB4XDTE1
MDQyMDIwNDczNloXDTE2MDQxOTIwNDczNlowga4xCzAJBgNVBAYTAkRFMREwDwYD
VQQIEwhTYWFybGFuZDEQMA4GA1UEChMHTVBJLVNXUzEiMCAGA1UECxMZRGlzdHJp
YnV0ZWQgU3lzdGVtcyBHcm91cDExMC8GA1UEAxMoODc5ODk0ZGRiZjYxMGNhNGQ4
ODI3OTVmNGNmY2FlYzI1NmFmYjhkNzEjMCEGCSqGSIb3DQEJARYUbm9kZTA4ODBA
b2N0YXJpbmUuZGUwgZ8wDQYJKoZIhvcNAQEBBQADgY0AMIGJAoGBAK44VBswg5i3
3lg2OktnzbwImtj8xTfevzlnWZPjfMI5ZQg0jxYSJlP/dnSG0fC/K5ejpEp81xaN
bzVRKW74pD4Ku2B/byQZbN22CQag+8UgvyQy1THoewIbqoTGdhwJIUHi54RM0Obr
evzxNbH/BFZUs3tNdVOzZhEcOIC/WgitAgMBAAEwDQYJKoZIhvcNAQEEBQADgYEA
wy3PFyMy7ykX7oZnhn0zOtkpvUmxGcPXkbVRGFUt8d5SD6SaD+QkLbbRgPEIEaZC
qdoDFXyqcWfQhzFlfWuorbpS/Y+iCaUqvEfFbFuwvIjakHXMx3LkO5OZWZjpoxt/
2L6/9LPr06quPg87q3uMT32EoL3UXmOrI7idIUPrvrU=
-----END CERTIFICATE-----
