Certificate:
    Data:
        Version: 1 (0x0)
        Serial Number:
            9b:27:d7:e8:d1:ba:0a:60
        Signature Algorithm: md5WithRSAEncryption
        Issuer: C=DE, ST=Saarland, O=MPI-SWS, OU=Distributed Systems Group, CN=Andreas Haeberlen/emailAddress=democa@octarine.de
        Validity
            Not Before: Apr 20 20:47:25 2015 GMT
            Not After : Apr 19 20:47:25 2016 GMT
        Subject: C=DE, ST=Saarland, O=MPI-SWS, OU=Distributed Systems Group, CN=97dfea8df6ddb46f6f467864246c8f717415e92e/emailAddress=node0648@octarine.de
        Subject Public Key Info:
            Public Key Algorithm: rsaEncryption
            RSA Public Key: (1024 bit)
                Modulus (1024 bit):
                    00:dc:31:5f:39:e9:18:3c:4a:23:ce:39:a8:31:52:
                    e1:a8:5b:4a:58:c2:84:a4:8f:a0:e1:44:f3:5e:83:
                    da:96:cb:75:fd:2a:5e:9f:1f:bd:4f:df:5d:f6:02:
                    80:85:08:b7:ed:5d:c9:bd:17:4a:9f:e1:a5:c7:ab:
                    88:39:c8:ed:d3:50:6c:cd:7a:a5:0d:3c:10:a3:9a:
                    07:2f:3d:97:c9:26:3a:1a:2d:0c:a1:92:cd:8c:42:
                    88:ba:4c:a3:46:06:77:01:51:99:46:d4:5a:74:8f:
                    4d:77:0d:73:bd:68:6a:b6:fd:8e:f2:64:3b:87:b8:
                    0e:37:1d:f0:34:59:94:a1:9b
                Exponent: 65537 (0x10001)
    Signature Algorithm: md5WithRSAEncryption
        08:e6:ac:ac:d5:b1:57:9e:be:e6:08:bf:1b:ba:4e:10:10:87:
        6b:de:b4:01:13:da:2c:cf:e5:cf:41:5e:a8:21:da:b0:d4:f2:
        69:78:61:97:8c:58:3b:2e:b8:bb:4e:99:4f:45:5a:76:26:db:
        a8:fc:90:a2:26:6e:12:3f:23:fd:a8:90:a3:2a:86:74:36:d1:
        9f:e8:06:71:7a:1b:b5:8d:95:63:4e:c8:fa:e9:ab:c4:18:b7:
        56:de:b1:5e:62:51:0c:08:b5:da:dc:d3:e0:09:5a:85:e9:ba:
        e8:9e:e8:68:f5:66:1b:51:60:07:e9:71:00:d9:41:1a:73:5d:
        c0:0c
-----BEGIN CERTIFICATE-----
MIICvDCCAiUCCQCbJ9fo0boKYDANBgkqhkiG9w0BAQQFADCBlTELMAkGA1UEBhMC
REUxETAPBgNVBAgTCFNhYXJsYW5kMRAwDgYDVQQKEwdNUEktU1dTMSIwIAYDVQQL
ExlEaXN0cmlidXRlZCBTeXN0ZW1zIEdyb3VwMRowGAYDVQQDExFBbmRyZWFzIEhh
ZWJlcmxlbjEhMB8GCSqGSIb3DQEJARYSZGVtb2NhQG9jdGFyaW5lLmRlMB4XDTE1
MDQyMDIwNDcyNVoXDTE2MDQxOTIwNDcyNVowga4xCzAJBgNVBAYTAkRFMREwDwYD
VQQIEwhTYWFybGFuZDEQMA4GA1UEChMHTVBJLVNXUzEiMCAGA1UECxMZRGlzdHJp
YnV0ZWQgU3lzdGVtcyBHcm91cDExMC8GA1UEAxMoOTdkZmVhOGRmNmRkYjQ2ZjZm
NDY3ODY0MjQ2YzhmNzE3NDE1ZTkyZTEjMCEGCSqGSIb3DQEJARYUbm9kZTA2NDhA
b2N0YXJpbmUuZGUwgZ8wDQYJKoZIhvcNAQEBBQADgY0AMIGJAoGBANwxXznpGDxK
I845qDFS4ahbSljChKSPoOFE816D2pbLdf0qXp8fvU/fXfYCgIUIt+1dyb0XSp/h
pceriDnI7dNQbM16pQ08EKOaBy89l8kmOhotDKGSzYxCiLpMo0YGdwFRmUbUWnSP
TXcNc71oarb9jvJkO4e4Djcd8DRZlKGbAgMBAAEwDQYJKoZIhvcNAQEEBQADgYEA
COasrNWxV56+5gi/G7pOEBCHa960ARPaLM/lz0FeqCHasNTyaXhhl4xYOy64u06Z
T0VadibbqPyQoiZuEj8j/aiQoyqGdDbRn+gGcXobtY2VY07I+umrxBi3Vt6xXmJR
DAi12tzT4Alahem66J7oaPVmG1FgB+lxANlBGnNdwAw=
-----END CERTIFICATE-----
