Certificate:
    Data:
        Version: 1 (0x0)
        Serial Number:
            9b:27:d7:e8:d1:ba:0a:ca
        Signature Algorithm: md5WithRSAEncryption
        Issuer: C=DE, ST=Saarland, O=MPI-SWS, OU=Distributed Systems Group, CN=Andreas Haeberlen/emailAddress=democa@octarine.de
        Validity
            Not Before: Apr 20 20:47:30 2015 GMT
            Not After : Apr 19 20:47:30 2016 GMT
        Subject: C=DE, ST=Saarland, O=MPI-SWS, OU=Distributed Systems Group, CN=709010e0fff636b44e7a4fb663a7774f8df9ee9e/emailAddress=node0754@octarine.de
        Subject Public Key Info:
            Public Key Algorithm: rsaEncryption
            RSA Public Key: (1024 bit)
                Modulus (1024 bit):
                    00:a9:08:23:f4:2c:0e:8a:a6:6d:20:df:3e:b2:3a:
                    7c:a4:b4:58:3f:16:df:68:0e:50:62:30:6c:54:6c:
                    f7:3e:dc:a7:fe:9d:52:fb:ff:f5:fa:ca:a7:8e:b8:
                    3b:c1:d7:b0:9a:e8:ce:e0:64:69:51:29:9b:a6:78:
                    8b:17:0e:c5:1b:40:9d:95:5b:41:bc:9c:0f:36:02:
                    fa:d7:1e:79:ab:f8:22:d4:df:2d:db:86:c5:80:27:
                    14:bc:38:38:7e:e4:c8:27:8c:27:f6:c0:75:b7:69:
                    a6:52:a5:95:93:66:1c:c5:fe:3e:81:1f:c8:b2:12:
                    28:00:f3:41:d3:e6:93:b5:59
                Exponent: 65537 (0x10001)
    Signature Algorithm: md5WithRSAEncryption
        5a:20:e2:bd:fe:1c:11:86:47:d1:39:8f:02:5f:d9:ec:30:b7:
        76:11:ac:97:e8:35:2a:e1:7b:63:90:5b:98:83:a1:5f:21:bf:
        d1:cb:00:c1:b4:5d:ae:14:77:5a:ea:5e:85:2c:db:ae:ef:a1:
        ee:ad:7e:c2:a8:60:92:82:9f:1f:d1:85:9b:22:af:63:6a:f3:
        a0:8f:fe:09:dd:ca:4a:76:b9:02:8f:f2:69:3d:59:e4:38:4b:
        64:c5:f4:fa:75:28:51:55:9a:3d:d8:a3:4f:b1:0b:f7:20:ec:
        97:11:25:ec:53:1f:ea:0a:02:a6:e9:ed:80:1c:31:6c:1b:a7:
        f3:30
-----BEGIN CERTIFICATE-----
MIICvDCCAiUCCQCbJ9fo0boKyjANBgkqhkiG9w0BAQQFADCBlTELMAkGA1UEBhMC
REUxETAPBgNVBAgTCFNhYXJsYW5kMRAwDgYDVQQKEwdNUEktU1dTMSIwIAYDVQQL
ExlEaXN0cmlidXRlZCBTeXN0ZW1zIEdyb3VwMRowGAYDVQQDExFBbmRyZWFzIEhh
ZWJlcmxlbjEhMB8GCSqGSIb3DQEJARYSZGVtb2NhQG9jdGFyaW5lLmRlMB4XDTE1
MDQyMDIwNDczMFoXDTE2MDQxOTIwNDczMFowga4xCzAJBgNVBAYTAkRFMREwDwYD
VQQIEwhTYWFybGFuZDEQMA4GA1UEChMHTVBJLVNXUzEiMCAGA1UECxMZRGlzdHJp
YnV0ZWQgU3lzdGVtcyBHcm91cDExMC8GA1UEAxMoNzA5MDEwZTBmZmY2MzZiNDRl
N2E0ZmI2NjNhNzc3NGY4ZGY5ZWU5ZTEjMCEGCSqGSIb3DQEJARYUbm9kZTA3NTRA
b2N0YXJpbmUuZGUwgZ8wDQYJKoZIhvcNAQEBBQADgY0AMIGJAoGBAKkII/QsDoqm
bSDfPrI6fKS0WD8W32gOUGIwbFRs9z7cp/6dUvv/9frKp464O8HXsJrozuBkaVEp
m6Z4ixcOxRtAnZVbQbycDzYC+tceeav4ItTfLduGxYAnFLw4OH7kyCeMJ/bAdbdp
plKllZNmHMX+PoEfyLISKADzQdPmk7VZAgMBAAEwDQYJKoZIhvcNAQEEBQADgYEA
WiDivf4cEYZH0TmPAl/Z7DC3dhGsl+g1KuF7Y5BbmIOhXyG/0csAwbRdrhR3Wupe
hSzbru+h7q1+wqhgkoKfH9GFmyKvY2rzoI/+Cd3KSna5Ao/yaT1Z5DhLZMX0+nUo
UVWaPdijT7EL9yDslxEl7FMf6goCpuntgBwxbBun8zA=
-----END CERTIFICATE-----
