Certificate:
    Data:
        Version: 1 (0x0)
        Serial Number:
            9b:27:d7:e8:d1:ba:09:3b
        Signature Algorithm: md5WithRSAEncryption
        Issuer: C=DE, ST=Saarland, O=MPI-SWS, OU=Distributed Systems Group, CN=Andreas Haeberlen/emailAddress=democa@octarine.de
        Validity
            Not Before: Apr 20 20:47:12 2015 GMT
            Not After : Apr 19 20:47:12 2016 GMT
        Subject: C=DE, ST=Saarland, O=MPI-SWS, OU=Distributed Systems Group, CN=1e7e918581b086080f4f34de2e798ebac29542ac/emailAddress=node0355@octarine.de
        Subject Public Key Info:
            Public Key Algorithm: rsaEncryption
            RSA Public Key: (1024 bit)
                Modulus (1024 bit):
                    00:db:68:53:4a:94:0b:a7:a7:5d:ad:c0:d7:9e:32:
                    30:b3:24:50:be:b2:f6:5b:3a:35:4a:94:00:16:88:
                    fa:42:64:1b:ad:15:68:a0:29:5f:0b:4b:5b:10:47:
                    3f:2e:7f:bc:f0:b2:2e:fe:1c:6e:dd:65:2a:07:5f:
                    96:49:32:95:db:f8:bb:74:57:a3:09:e5:c1:9b:af:
                    58:c2:46:ce:ba:b7:4c:f6:17:d3:c2:ad:2f:45:27:
                    0a:39:07:f3:19:e6:bb:bc:ab:b9:dd:36:95:90:01:
                    12:c7:e1:f7:9b:32:4c:63:d1:dc:2f:a1:2e:4f:b5:
                    4b:e3:bb:4b:24:79:9b:3f:73
                Exponent: 65537 (0x10001)
    Signature Algorithm: md5WithRSAEncryption
        8b:f4:53:26:4a:41:6b:e6:3f:fb:38:d6:3a:06:9a:14:d2:8d:
        7d:4c:a0:cf:95:9f:8c:05:99:85:0d:2c:90:1f:92:35:d8:f3:
        f4:c7:aa:c6:43:ed:3d:e3:b4:20:fb:19:a1:92:4d:d7:97:ba:
        c5:8c:ec:b1:b2:a6:74:95:79:a5:b0:0e:48:26:91:e9:f6:8a:
        78:91:ad:12:7d:98:9f:64:1b:ee:aa:d5:fc:9f:18:aa:08:ba:
        1e:0e:f6:36:8d:80:49:64:39:44:21:3c:45:8c:04:4f:1c:7a:
        a3:75:85:04:c6:e9:c2:34:18:52:10:8b:4c:9d:08:d3:b5:a7:
        96:f6
-----BEGIN CERTIFICATE-----
MIICvDCCAiUCCQCbJ9fo0boJOzANBgkqhkiG9w0BAQQFADCBlTELMAkGA1UEBhMC
REUxETAPBgNVBAgTCFNhYXJsYW5kMRAwDgYDVQQKEwdNUEktU1dTMSIwIAYDVQQL
ExlEaXN0cmlidXRlZCBTeXN0ZW1zIEdyb3VwMRowGAYDVQQDExFBbmRyZWFzIEhh
ZWJlcmxlbjEhMB8GCSqGSIb3DQEJARYSZGVtb2NhQG9jdGFyaW5lLmRlMB4XDTE1
MDQyMDIwNDcxMloXDTE2MDQxOTIwNDcxMlowga4xCzAJBgNVBAYTAkRFMREwDwYD
VQQIEwhTYWFybGFuZDEQMA4GA1UEChMHTVBJLVNXUzEiMCAGA1UECxMZRGlzdHJp
YnV0ZWQgU3lzdGVtcyBHcm91cDExMC8GA1UEAxMoMWU3ZTkxODU4MWIwODYwODBm
NGYzNGRlMmU3OThlYmFjMjk1NDJhYzEjMCEGCSqGSIb3DQEJARYUbm9kZTAzNTVA
b2N0YXJpbmUuZGUwgZ8wDQYJKoZIhvcNAQEBBQADgY0AMIGJAoGBANtoU0qUC6en
Xa3A154yMLMkUL6y9ls6NUqUABaI+kJkG60VaKApXwtLWxBHPy5/vPCyLv4cbt1l
Kgdflkkyldv4u3RXownlwZuvWMJGzrq3TPYX08KtL0UnCjkH8xnmu7yrud02lZAB
Esfh95syTGPR3C+hLk+1S+O7SyR5mz9zAgMBAAEwDQYJKoZIhvcNAQEEBQADgYEA
i/RTJkpBa+Y/+zjWOgaaFNKNfUygz5WfjAWZhQ0skB+SNdjz9MeqxkPtPeO0IPsZ
oZJN15e6xYzssbKmdJV5pbAOSCaR6faKeJGtEn2Yn2Qb7qrV/J8Yqgi6Hg72No2A
SWQ5RCE8RYwETxx6o3WFBMbpwjQYUhCLTJ0I07WnlvY=
-----END CERTIFICATE-----
