Certificate:
    Data:
        Version: 1 (0x0)
        Serial Number:
            9b:27:d7:e8:d1:ba:09:f7
        Signature Algorithm: md5WithRSAEncryption
        Issuer: C=DE, ST=Saarland, O=MPI-SWS, OU=Distributed Systems Group, CN=Andreas Haeberlen/emailAddress=democa@octarine.de
        Validity
            Not Before: Apr 20 20:47:20 2015 GMT
            Not After : Apr 19 20:47:20 2016 GMT
        Subject: C=DE, ST=Saarland, O=MPI-SWS, OU=Distributed Systems Group, CN=de8ba47155fd4521bab40e99a9d34e42cce60576/emailAddress=node0543@octarine.de
        Subject Public Key Info:
            Public Key Algorithm: rsaEncryption
            RSA Public Key: (1024 bit)
                Modulus (1024 bit):
                    00:bc:fb:5e:c6:38:df:b0:ce:5a:7d:9a:d1:34:80:
                    54:db:c4:11:e8:40:c8:e6:3c:50:85:7f:1c:d2:db:
                    1d:ca:94:d1:2e:18:63:d5:67:44:6f:e4:bd:49:4e:
                    8a:f0:3d:00:54:f9:8b:1d:20:fa:69:75:9b:fb:a2:
                    6e:7c:57:19:3a:2f:61:a7:6b:ee:a3:f1:e6:0a:a6:
                    da:60:9b:9b:5b:70:dc:3f:7b:17:f9:b7:bd:08:e0:
                    2d:15:b2:46:64:f7:c2:53:5b:a8:5a:2a:44:c7:55:
                    32:a7:74:d8:a3:ef:4c:e2:9c:44:17:5b:41:f2:fd:
                    ff:64:fa:e5:8d:ad:bd:67:6f
                Exponent: 65537 (0x10001)
    Signature Algorithm: md5WithRSAEncryption
        84:84:c1:03:10:0a:21:09:ba:ff:2c:5f:0c:4b:2b:a4:00:9a:
        dd:76:bf:fc:d1:74:db:c0:1b:99:a0:2c:9f:df:c9:6d:f8:cc:
        81:2e:22:e5:08:87:22:b5:c9:89:0a:3f:36:08:42:6f:7b:51:
        9f:a0:1a:2c:8f:82:2a:af:1c:02:2e:63:d4:69:58:3d:66:e8:
        8f:f9:c0:b1:57:30:82:6f:b0:74:39:18:0c:b5:c5:19:62:74:
        c5:0e:b7:52:44:89:98:38:82:7d:c2:28:d4:25:00:dd:c2:28:
        0c:81:e8:43:83:f4:86:b6:4b:f4:90:d7:c2:3e:76:eb:0d:ce:
        5d:e8
-----BEGIN CERTIFICATE-----
MIICvDCCAiUCCQCbJ9fo0boJ9zANBgkqhkiG9w0BAQQFADCBlTELMAkGA1UEBhMC
REUxETAPBgNVBAgTCFNhYXJsYW5kMRAwDgYDVQQKEwdNUEktU1dTMSIwIAYDVQQL
ExlEaXN0cmlidXRlZCBTeXN0ZW1zIEdyb3VwMRowGAYDVQQDExFBbmRyZWFzIEhh
ZWJlcmxlbjEhMB8GCSqGSIb3DQEJARYSZGVtb2NhQG9jdGFyaW5lLmRlMB4XDTE1
MDQyMDIwNDcyMFoXDTE2MDQxOTIwNDcyMFowga4xCzAJBgNVBAYTAkRFMREwDwYD
VQQIEwhTYWFybGFuZDEQMA4GA1UEChMHTVBJLVNXUzEiMCAGA1UECxMZRGlzdHJp
YnV0ZWQgU3lzdGVtcyBHcm91cDExMC8GA1UEAxMoZGU4YmE0NzE1NWZkNDUyMWJh
YjQwZTk5YTlkMzRlNDJjY2U2MDU3NjEjMCEGCSqGSIb3DQEJARYUbm9kZTA1NDNA
b2N0YXJpbmUuZGUwgZ8wDQYJKoZIhvcNAQEBBQADgY0AMIGJAoGBALz7XsY437DO
Wn2a0TSAVNvEEehAyOY8UIV/HNLbHcqU0S4YY9VnRG/kvUlOivA9AFT5ix0g+ml1
m/uibnxXGTovYadr7qPx5gqm2mCbm1tw3D97F/m3vQjgLRWyRmT3wlNbqFoqRMdV
Mqd02KPvTOKcRBdbQfL9/2T65Y2tvWdvAgMBAAEwDQYJKoZIhvcNAQEEBQADgYEA
hITBAxAKIQm6/yxfDEsrpACa3Xa//NF028AbmaAsn9/JbfjMgS4i5QiHIrXJiQo/
NghCb3tRn6AaLI+CKq8cAi5j1GlYPWboj/nAsVcwgm+wdDkYDLXFGWJ0xQ63UkSJ
mDiCfcIo1CUA3cIoDIHoQ4P0hrZL9JDXwj526w3OXeg=
-----END CERTIFICATE-----
