Certificate:
    Data:
        Version: 1 (0x0)
        Serial Number:
            9b:27:d7:e8:d1:ba:09:06
        Signature Algorithm: md5WithRSAEncryption
        Issuer: C=DE, ST=Saarland, O=MPI-SWS, OU=Distributed Systems Group, CN=Andreas Haeberlen/emailAddress=democa@octarine.de
        Validity
            Not Before: Apr 20 20:47:10 2015 GMT
            Not After : Apr 19 20:47:10 2016 GMT
        Subject: C=DE, ST=Saarland, O=MPI-SWS, OU=Distributed Systems Group, CN=eede77a172bab21bea27a12c150a92f70c68409b/emailAddress=node0302@octarine.de
        Subject Public Key Info:
            Public Key Algorithm: rsaEncryption
            RSA Public Key: (1024 bit)
                Modulus (1024 bit):
                    00:d1:52:06:eb:1f:0f:de:27:97:bd:54:4f:14:ca:
                    9c:97:01:ed:53:43:6f:cb:5f:8f:1a:4a:a8:f9:8e:
                    90:ae:3a:9b:28:11:9e:93:61:22:e9:90:cb:bb:33:
                    7f:d0:08:e0:b2:18:c9:5d:ae:d5:bb:9d:c7:b8:a7:
                    f4:cd:cb:40:52:22:11:e8:42:a8:ad:a6:b2:04:4d:
                    5c:03:64:7e:a0:96:dd:c3:6c:e8:b5:43:59:73:9d:
                    3a:e1:96:4a:16:14:f3:66:f0:7f:c1:e8:7c:d6:0e:
                    e2:76:a3:74:eb:1c:d4:4f:a3:15:73:75:b5:32:fa:
                    53:f3:ce:1d:c3:01:42:9d:33
                Exponent: 65537 (0x10001)
    Signature Algorithm: md5WithRSAEncryption
        59:49:f9:3f:11:3b:53:d7:2a:0e:5c:b7:e8:05:83:0d:12:d2:
        07:3f:72:6c:31:3f:6b:a9:0c:0f:99:34:93:04:d4:00:d7:3e:
        2f:7a:46:e2:f3:94:a4:b8:bb:94:75:f3:87:c6:fe:26:f4:4d:
        4f:75:71:c2:45:5a:d3:6f:09:28:8a:34:9e:7a:7b:7f:c5:10:
        8e:8d:49:33:61:3e:2b:c4:88:a6:17:ea:f3:d0:64:e2:b2:6a:
        21:60:0a:78:b3:39:b1:27:23:4a:e7:ce:c3:29:1c:3d:86:d5:
        c1:f3:48:d7:5a:27:f1:0d:bf:ea:d1:f3:98:23:8f:cf:9e:39:
        c8:59
-----BEGIN CERTIFICATE-----
MIICvDCCAiUCCQCbJ9fo0boJBjANBgkqhkiG9w0BAQQFADCBlTELMAkGA1UEBhMC
REUxETAPBgNVBAgTCFNhYXJsYW5kMRAwDgYDVQQKEwdNUEktU1dTMSIwIAYDVQQL
ExlEaXN0cmlidXRlZCBTeXN0ZW1zIEdyb3VwMRowGAYDVQQDExFBbmRyZWFzIEhh
ZWJlcmxlbjEhMB8GCSqGSIb3DQEJARYSZGVtb2NhQG9jdGFyaW5lLmRlMB4XDTE1
MDQyMDIwNDcxMFoXDTE2MDQxOTIwNDcxMFowga4xCzAJBgNVBAYTAkRFMREwDwYD
VQQIEwhTYWFybGFuZDEQMA4GA1UEChMHTVBJLVNXUzEiMCAGA1UECxMZRGlzdHJp
YnV0ZWQgU3lzdGVtcyBHcm91cDExMC8GA1UEAxMoZWVkZTc3YTE3MmJhYjIxYmVh
MjdhMTJjMTUwYTkyZjcwYzY4NDA5YjEjMCEGCSqGSIb3DQEJARYUbm9kZTAzMDJA
b2N0YXJpbmUuZGUwgZ8wDQYJKoZIhvcNAQEBBQADgY0AMIGJAoGBANFSBusfD94n
l71UTxTKnJcB7VNDb8tfjxpKqPmOkK46mygRnpNhIumQy7szf9AI4LIYyV2u1bud
x7in9M3LQFIiEehCqK2msgRNXANkfqCW3cNs6LVDWXOdOuGWShYU82bwf8HofNYO
4najdOsc1E+jFXN1tTL6U/POHcMBQp0zAgMBAAEwDQYJKoZIhvcNAQEEBQADgYEA
WUn5PxE7U9cqDly36AWDDRLSBz9ybDE/a6kMD5k0kwTUANc+L3pG4vOUpLi7lHXz
h8b+JvRNT3VxwkVa028JKIo0nnp7f8UQjo1JM2E+K8SIphfq89Bk4rJqIWAKeLM5
sScjSufOwykcPYbVwfNI11on8Q2/6tHzmCOPz545yFk=
-----END CERTIFICATE-----
