Certificate:
    Data:
        Version: 1 (0x0)
        Serial Number:
            9b:27:d7:e8:d1:ba:08:a0
        Signature Algorithm: md5WithRSAEncryption
        Issuer: C=DE, ST=Saarland, O=MPI-SWS, OU=Distributed Systems Group, CN=Andreas Haeberlen/emailAddress=democa@octarine.de
        Validity
            Not Before: Apr 20 20:47:05 2015 GMT
            Not After : Apr 19 20:47:05 2016 GMT
        Subject: C=DE, ST=Saarland, O=MPI-SWS, OU=Distributed Systems Group, CN=d75a08c5e7c34cdc9091fafc1586028ead8a64f4/emailAddress=node0200@octarine.de
        Subject Public Key Info:
            Public Key Algorithm: rsaEncryption
            RSA Public Key: (1024 bit)
                Modulus (1024 bit):
                    00:c8:6a:73:d8:c1:20:09:f9:91:08:c4:0b:9d:91:
                    99:d2:21:6c:6b:b1:cb:f0:fb:5a:8d:89:2b:f1:3b:
                    72:42:2d:f5:b4:c5:bd:ae:2b:d8:fd:83:50:56:ce:
                    1c:d9:fb:e7:40:d8:9a:b9:cf:3b:c0:9c:28:0f:13:
                    63:29:c1:95:17:ea:5f:88:b5:28:19:0c:fe:b3:72:
                    d2:32:58:4a:fc:8b:74:ef:70:bd:53:3e:f3:90:a8:
                    56:36:93:5a:00:84:45:54:b6:7a:e1:b0:5d:13:0f:
                    ac:0d:1b:12:7c:13:ab:77:3a:50:31:f3:c3:8d:33:
                    6d:af:6a:a0:db:06:be:12:63
                Exponent: 65537 (0x10001)
    Signature Algorithm: md5WithRSAEncryption
        0c:7f:f0:1b:32:24:17:9f:17:0d:aa:30:3a:66:3a:6c:7c:d6:
        c0:1d:60:eb:24:6a:db:aa:08:bf:c6:23:1e:0c:fe:75:93:4c:
        ce:23:0b:db:73:75:74:2c:41:fa:c7:46:fa:dd:b9:18:43:82:
        69:ef:61:7e:99:6d:4a:32:8a:c4:1b:9d:b1:e3:7d:b4:79:bc:
        f0:6e:7d:89:c3:2e:32:15:c1:4a:cf:07:77:63:d4:7f:a9:f1:
        ee:8c:af:c8:65:b2:50:e5:36:dd:52:fe:6f:40:ec:5c:95:9f:
        2f:6a:13:9b:0c:bd:5e:0a:31:69:a6:68:d0:12:d0:10:31:b3:
        ad:74
-----BEGIN CERTIFICATE-----
MIICvDCCAiUCCQCbJ9fo0boIoDANBgkqhkiG9w0BAQQFADCBlTELMAkGA1UEBhMC
REUxETAPBgNVBAgTCFNhYXJsYW5kMRAwDgYDVQQKEwdNUEktU1dTMSIwIAYDVQQL
ExlEaXN0cmlidXRlZCBTeXN0ZW1zIEdyb3VwMRowGAYDVQQDExFBbmRyZWFzIEhh
ZWJlcmxlbjEhMB8GCSqGSIb3DQEJARYSZGVtb2NhQG9jdGFyaW5lLmRlMB4XDTE1
MDQyMDIwNDcwNVoXDTE2MDQxOTIwNDcwNVowga4xCzAJBgNVBAYTAkRFMREwDwYD
VQQIEwhTYWFybGFuZDEQMA4GA1UEChMHTVBJLVNXUzEiMCAGA1UECxMZRGlzdHJp
YnV0ZWQgU3lzdGVtcyBHcm91cDExMC8GA1UEAxMoZDc1YTA4YzVlN2MzNGNkYzkw
OTFmYWZjMTU4NjAyOGVhZDhhNjRmNDEjMCEGCSqGSIb3DQEJARYUbm9kZTAyMDBA
b2N0YXJpbmUuZGUwgZ8wDQYJKoZIhvcNAQEBBQADgY0AMIGJAoGBAMhqc9jBIAn5
kQjEC52RmdIhbGuxy/D7Wo2JK/E7ckIt9bTFva4r2P2DUFbOHNn750DYmrnPO8Cc
KA8TYynBlRfqX4i1KBkM/rNy0jJYSvyLdO9wvVM+85CoVjaTWgCERVS2euGwXRMP
rA0bEnwTq3c6UDHzw40zba9qoNsGvhJjAgMBAAEwDQYJKoZIhvcNAQEEBQADgYEA
DH/wGzIkF58XDaowOmY6bHzWwB1g6yRq26oIv8YjHgz+dZNMziML23N1dCxB+sdG
+t25GEOCae9hfpltSjKKxBudseN9tHm88G59icMuMhXBSs8Hd2PUf6nx7oyvyGWy
UOU23VL+b0DsXJWfL2oTmwy9XgoxaaZo0BLQEDGzrXQ=
-----END CERTIFICATE-----
