Certificate:
    Data:
        Version: 1 (0x0)
        Serial Number:
            9b:27:d7:e8:d1:ba:09:9d
        Signature Algorithm: md5WithRSAEncryption
        Issuer: C=DE, ST=Saarland, O=MPI-SWS, OU=Distributed Systems Group, CN=Andreas Haeberlen/emailAddress=democa@octarine.de
        Validity
            Not Before: Apr 20 20:47:16 2015 GMT
            Not After : Apr 19 20:47:16 2016 GMT
        Subject: C=DE, ST=Saarland, O=MPI-SWS, OU=Distributed Systems Group, CN=76d274fed460a9324c766ed0a6a66a4d01085063/emailAddress=node0453@octarine.de
        Subject Public Key Info:
            Public Key Algorithm: rsaEncryption
            RSA Public Key: (1024 bit)
                Modulus (1024 bit):
                    00:c3:21:92:3f:65:f6:ac:1b:de:28:77:16:36:1c:
                    13:bd:64:63:ba:9e:87:19:b7:ca:e9:16:d6:f6:83:
                    a5:a6:2f:8c:13:07:5f:a0:dd:31:37:f4:c4:78:80:
                    ca:1a:f7:3b:3b:4f:43:99:8f:a7:d2:37:1c:b9:99:
                    59:e1:aa:52:99:50:96:e7:57:27:b4:59:cd:e9:08:
                    99:6d:d7:41:62:b0:cd:df:c0:8a:50:73:f9:76:6d:
                    ae:e5:6b:d7:75:4b:1f:c6:71:6b:4c:77:9a:74:7f:
                    39:f9:62:5f:70:fa:db:fc:49:b3:0b:e1:be:6b:2a:
                    78:74:36:c0:f7:25:eb:ba:39
                Exponent: 65537 (0x10001)
    Signature Algorithm: md5WithRSAEncryption
        00:db:cd:e7:8a:dd:72:78:7b:2a:75:f6:03:c7:72:e4:b5:c7:
        1e:19:3a:84:76:08:ac:82:d1:ce:37:88:ba:12:59:fc:18:f6:
        db:19:6f:27:61:34:aa:46:91:1b:b9:a7:bf:0a:b6:63:f8:1d:
        97:1a:3c:b9:84:d1:50:64:b6:f3:da:6a:e5:e6:3d:22:b0:08:
        18:a7:f0:35:7f:f4:8e:7d:ba:2d:36:10:0e:83:e4:49:72:22:
        61:24:39:5c:5e:b8:7c:4c:69:3e:1f:87:af:d3:62:bb:39:d5:
        a2:02:ef:84:2c:b7:32:a3:61:6d:f0:bf:91:8f:38:c9:e2:ce:
        b6:ef
-----BEGIN CERTIFICATE-----
MIICvDCCAiUCCQCbJ9fo0boJnTANBgkqhkiG9w0BAQQFADCBlTELMAkGA1UEBhMC
REUxETAPBgNVBAgTCFNhYXJsYW5kMRAwDgYDVQQKEwdNUEktU1dTMSIwIAYDVQQL
ExlEaXN0cmlidXRlZCBTeXN0ZW1zIEdyb3VwMRowGAYDVQQDExFBbmRyZWFzIEhh
ZWJlcmxlbjEhMB8GCSqGSIb3DQEJARYSZGVtb2NhQG9jdGFyaW5lLmRlMB4XDTE1
MDQyMDIwNDcxNloXDTE2MDQxOTIwNDcxNlowga4xCzAJBgNVBAYTAkRFMREwDwYD
VQQIEwhTYWFybGFuZDEQMA4GA1UEChMHTVBJLVNXUzEiMCAGA1UECxMZRGlzdHJp
YnV0ZWQgU3lzdGVtcyBHcm91cDExMC8GA1UEAxMoNzZkMjc0ZmVkNDYwYTkzMjRj
NzY2ZWQwYTZhNjZhNGQwMTA4NTA2MzEjMCEGCSqGSIb3DQEJARYUbm9kZTA0NTNA
b2N0YXJpbmUuZGUwgZ8wDQYJKoZIhvcNAQEBBQADgY0AMIGJAoGBAMMhkj9l9qwb
3ih3FjYcE71kY7qehxm3yukW1vaDpaYvjBMHX6DdMTf0xHiAyhr3OztPQ5mPp9I3
HLmZWeGqUplQludXJ7RZzekImW3XQWKwzd/AilBz+XZtruVr13VLH8Zxa0x3mnR/
OfliX3D62/xJswvhvmsqeHQ2wPcl67o5AgMBAAEwDQYJKoZIhvcNAQEEBQADgYEA
ANvN54rdcnh7KnX2A8dy5LXHHhk6hHYIrILRzjeIuhJZ/Bj22xlvJ2E0qkaRG7mn
vwq2Y/gdlxo8uYTRUGS289pq5eY9IrAIGKfwNX/0jn26LTYQDoPkSXIiYSQ5XF64
fExpPh+Hr9NiuznVogLvhCy3MqNhbfC/kY84yeLOtu8=
-----END CERTIFICATE-----
