Certificate:
    Data:
        Version: 1 (0x0)
        Serial Number:
            9b:27:d7:e8:d1:ba:0b:66
        Signature Algorithm: md5WithRSAEncryption
        Issuer: C=DE, ST=Saarland, O=MPI-SWS, OU=Distributed Systems Group, CN=Andreas Haeberlen/emailAddress=democa@octarine.de
        Validity
            Not Before: Apr 20 20:47:37 2015 GMT
            Not After : Apr 19 20:47:37 2016 GMT
        Subject: C=DE, ST=Saarland, O=MPI-SWS, OU=Distributed Systems Group, CN=0b906240b3d53aa1d09c156c950c1332fc26f66b/emailAddress=node0910@octarine.de
        Subject Public Key Info:
            Public Key Algorithm: rsaEncryption
            RSA Public Key: (1024 bit)
                Modulus (1024 bit):
                    00:b0:f6:9d:c1:a6:49:c0:ac:5e:82:33:e4:75:06:
                    eb:12:d3:d2:f5:77:5a:c9:e4:74:09:eb:18:a9:3a:
                    5c:24:28:48:c6:5d:e3:d8:01:b9:43:7f:15:bd:35:
                    5e:c4:ae:57:78:b6:48:ab:d6:50:39:7a:3e:7e:cb:
                    97:41:52:1c:d2:fa:d4:dd:84:20:af:5e:8d:f3:01:
                    3d:92:0a:62:06:73:ee:61:22:47:41:84:ab:5a:23:
                    31:d8:10:ba:f3:94:cd:1e:ad:f4:d7:38:79:04:72:
                    ed:a3:ac:39:af:a9:7b:ef:ff:cb:ee:f6:cf:f8:36:
                    ea:81:22:af:88:4e:28:ee:37
                Exponent: 65537 (0x10001)
    Signature Algorithm: md5WithRSAEncryption
        4c:4a:06:30:01:c1:f8:51:8a:fa:83:19:57:0e:c2:2d:df:0c:
        b6:24:29:1c:de:a6:af:34:b8:90:a1:01:4c:4e:e4:1e:25:be:
        b9:cd:07:33:26:5f:4c:1b:06:7c:e5:ef:c7:91:de:17:b0:a4:
        e5:7a:b8:c8:e6:c9:8b:d2:e2:ff:4d:b2:23:c6:3e:13:09:9c:
        eb:07:4a:6c:7e:1a:14:48:e2:f9:f9:15:3c:95:19:c4:5a:70:
        69:1a:15:a6:56:8b:47:a3:94:ee:b1:dc:86:95:12:d1:76:6f:
        99:30:34:a4:5b:70:a3:a6:82:34:1c:38:30:12:26:89:9c:29:
        67:7f
-----BEGIN CERTIFICATE-----
MIICvDCCAiUCCQCbJ9fo0boLZjANBgkqhkiG9w0BAQQFADCBlTELMAkGA1UEBhMC
REUxETAPBgNVBAgTCFNhYXJsYW5kMRAwDgYDVQQKEwdNUEktU1dTMSIwIAYDVQQL
ExlEaXN0cmlidXRlZCBTeXN0ZW1zIEdyb3VwMRowGAYDVQQDExFBbmRyZWFzIEhh
ZWJlcmxlbjEhMB8GCSqGSIb3DQEJARYSZGVtb2NhQG9jdGFyaW5lLmRlMB4XDTE1
MDQyMDIwNDczN1oXDTE2MDQxOTIwNDczN1owga4xCzAJBgNVBAYTAkRFMREwDwYD
VQQIEwhTYWFybGFuZDEQMA4GA1UEChMHTVBJLVNXUzEiMCAGA1UECxMZRGlzdHJp
YnV0ZWQgU3lzdGVtcyBHcm91cDExMC8GA1UEAxMoMGI5MDYyNDBiM2Q1M2FhMWQw
OWMxNTZjOTUwYzEzMzJmYzI2ZjY2YjEjMCEGCSqGSIb3DQEJARYUbm9kZTA5MTBA
b2N0YXJpbmUuZGUwgZ8wDQYJKoZIhvcNAQEBBQADgY0AMIGJAoGBALD2ncGmScCs
XoIz5HUG6xLT0vV3WsnkdAnrGKk6XCQoSMZd49gBuUN/Fb01XsSuV3i2SKvWUDl6
Pn7Ll0FSHNL61N2EIK9ejfMBPZIKYgZz7mEiR0GEq1ojMdgQuvOUzR6t9Nc4eQRy
7aOsOa+pe+//y+72z/g26oEir4hOKO43AgMBAAEwDQYJKoZIhvcNAQEEBQADgYEA
TEoGMAHB+FGK+oMZVw7CLd8MtiQpHN6mrzS4kKEBTE7kHiW+uc0HMyZfTBsGfOXv
x5HeF7Ck5Xq4yObJi9Li/02yI8Y+Ewmc6wdKbH4aFEji+fkVPJUZxFpwaRoVplaL
R6OU7rHchpUS0XZvmTA0pFtwo6aCNBw4MBImiZwpZ38=
-----END CERTIFICATE-----
