Certificate:
    Data:
        Version: 1 (0x0)
        Serial Number:
            9b:27:d7:e8:d1:ba:08:7b
        Signature Algorithm: md5WithRSAEncryption
        Issuer: C=DE, ST=Saarland, O=MPI-SWS, OU=Distributed Systems Group, CN=Andreas Haeberlen/emailAddress=democa@octarine.de
        Validity
            Not Before: Apr 20 20:47:04 2015 GMT
            Not After : Apr 19 20:47:04 2016 GMT
        Subject: C=DE, ST=Saarland, O=MPI-SWS, OU=Distributed Systems Group, CN=0fc5482562560b37cbfe13fa1892dbfeac3f464a/emailAddress=node0163@octarine.de
        Subject Public Key Info:
            Public Key Algorithm: rsaEncryption
            RSA Public Key: (1024 bit)
                Modulus (1024 bit):
                    00:f4:44:55:5b:b5:1d:85:fe:0b:5f:38:be:1b:f6:
                    ca:e3:61:17:fe:f6:6a:95:cc:8b:51:5f:a2:7e:b4:
                    15:92:4d:ad:3a:d2:60:66:65:d2:22:03:87:4f:ae:
                    b8:7b:df:cd:92:92:01:d5:24:53:28:dd:5c:01:cb:
                    08:7a:94:35:f4:19:1f:8a:e6:9b:ba:d1:78:86:b1:
                    15:7a:77:b7:26:47:f7:78:02:bb:02:74:bf:ba:4c:
                    fe:ea:f9:16:aa:46:04:1f:2d:2b:2c:0f:6d:3d:f0:
                    ca:ea:70:48:15:a3:eb:c1:0f:2d:ae:78:ca:55:0e:
                    c5:5e:f0:0c:bd:6e:21:87:f5
                Exponent: 65537 (0x10001)
    Signature Algorithm: md5WithRSAEncryption
        1a:df:9a:df:b1:39:c3:dd:7e:a0:b8:1f:fb:1a:e5:35:dc:80:
        92:e7:a4:53:fa:94:4c:80:dd:32:22:f8:96:fd:50:69:98:0a:
        9a:3e:37:2d:bc:21:1a:24:ac:2f:d7:d1:61:61:ab:6e:52:f7:
        9d:e6:82:1f:c0:03:06:5f:10:80:de:9f:7c:cd:13:e1:79:3d:
        ee:bd:58:a9:de:02:47:0f:1c:31:63:82:68:4c:0f:67:a9:7a:
        df:eb:b1:2f:e5:06:31:d7:e1:97:93:a1:89:44:1e:ac:54:a9:
        71:57:60:6b:af:db:e2:eb:0e:0a:c3:5c:a9:73:2a:76:22:43:
        2c:ea
-----BEGIN CERTIFICATE-----
MIICvDCCAiUCCQCbJ9fo0boIezANBgkqhkiG9w0BAQQFADCBlTELMAkGA1UEBhMC
REUxETAPBgNVBAgTCFNhYXJsYW5kMRAwDgYDVQQKEwdNUEktU1dTMSIwIAYDVQQL
ExlEaXN0cmlidXRlZCBTeXN0ZW1zIEdyb3VwMRowGAYDVQQDExFBbmRyZWFzIEhh
ZWJlcmxlbjEhMB8GCSqGSIb3DQEJARYSZGVtb2NhQG9jdGFyaW5lLmRlMB4XDTE1
MDQyMDIwNDcwNFoXDTE2MDQxOTIwNDcwNFowga4xCzAJBgNVBAYTAkRFMREwDwYD
VQQIEwhTYWFybGFuZDEQMA4GA1UEChMHTVBJLVNXUzEiMCAGA1UECxMZRGlzdHJp
YnV0ZWQgU3lzdGVtcyBHcm91cDExMC8GA1UEAxMoMGZjNTQ4MjU2MjU2MGIzN2Ni
ZmUxM2ZhMTg5MmRiZmVhYzNmNDY0YTEjMCEGCSqGSIb3DQEJARYUbm9kZTAxNjNA
b2N0YXJpbmUuZGUwgZ8wDQYJKoZIhvcNAQEBBQADgY0AMIGJAoGBAPREVVu1HYX+
C184vhv2yuNhF/72apXMi1Ffon60FZJNrTrSYGZl0iIDh0+uuHvfzZKSAdUkUyjd
XAHLCHqUNfQZH4rmm7rReIaxFXp3tyZH93gCuwJ0v7pM/ur5FqpGBB8tKywPbT3w
yupwSBWj68EPLa54ylUOxV7wDL1uIYf1AgMBAAEwDQYJKoZIhvcNAQEEBQADgYEA
Gt+a37E5w91+oLgf+xrlNdyAkuekU/qUTIDdMiL4lv1QaZgKmj43LbwhGiSsL9fR
YWGrblL3neaCH8ADBl8QgN6ffM0T4Xk97r1Yqd4CRw8cMWOCaEwPZ6l63+uxL+UG
Mdfhl5OhiUQerFSpcVdga6/b4usOCsNcqXMqdiJDLOo=
-----END CERTIFICATE-----
