Certificate:
    Data:
        Version: 1 (0x0)
        Serial Number:
            9b:27:d7:e8:d1:ba:0a:61
        Signature Algorithm: md5WithRSAEncryption
        Issuer: C=DE, ST=Saarland, O=MPI-SWS, OU=Distributed Systems Group, CN=Andreas Haeberlen/emailAddress=democa@octarine.de
        Validity
            Not Before: Apr 20 20:47:25 2015 GMT
            Not After : Apr 19 20:47:25 2016 GMT
        Subject: C=DE, ST=Saarland, O=MPI-SWS, OU=Distributed Systems Group, CN=0fcb43bb2f2988dbc4753e7a28f122f22ce6f922/emailAddress=node0649@octarine.de
        Subject Public Key Info:
            Public Key Algorithm: rsaEncryption
            RSA Public Key: (1024 bit)
                Modulus (1024 bit):
                    00:b0:5f:f3:d1:f8:ac:e0:8c:79:7c:88:6e:8f:c3:
                    28:8b:c6:f4:28:8b:34:cb:80:3c:bc:80:e4:ab:53:
                    4a:de:f4:99:4e:64:a6:4f:e9:49:c2:36:84:ea:05:
                    b7:cd:74:d6:32:67:8a:ca:7e:d6:42:d3:35:b4:34:
                    c6:a5:41:33:6d:8d:54:2a:bc:20:86:4b:d9:63:5d:
                    cf:91:19:9d:1a:07:6f:d9:45:78:99:7f:25:0d:e4:
                    d8:01:a4:b8:e0:20:3b:80:f5:a3:29:8a:ed:8f:4e:
                    2f:8c:4b:13:e4:49:84:1c:8a:47:15:7a:68:5b:9d:
                    c8:05:be:14:9d:84:bc:65:e9
                Exponent: 65537 (0x10001)
    Signature Algorithm: md5WithRSAEncryption
        9b:da:60:70:e7:4b:f7:12:95:b7:5e:66:e6:b8:e9:b4:0e:34:
        9c:d4:c4:a3:66:72:f0:bd:e9:90:5f:74:6d:82:8f:41:0e:3d:
        26:0f:fa:d0:2c:06:36:71:09:b2:3b:f8:dc:1d:b5:19:74:db:
        e3:b8:2a:72:3a:54:49:b2:f5:01:aa:f1:bc:45:32:42:4a:04:
        eb:46:29:69:2f:3e:81:08:86:ee:b0:e9:15:30:b1:c3:21:55:
        0d:2c:18:f2:51:26:6b:f0:a2:0c:60:25:33:67:9e:06:3b:85:
        4a:e0:6e:44:71:16:09:74:0e:e2:95:dc:6d:98:cb:ae:68:e5:
        cc:ab
-----BEGIN CERTIFICATE-----
MIICvDCCAiUCCQCbJ9fo0boKYTANBgkqhkiG9w0BAQQFADCBlTELMAkGA1UEBhMC
REUxETAPBgNVBAgTCFNhYXJsYW5kMRAwDgYDVQQKEwdNUEktU1dTMSIwIAYDVQQL
ExlEaXN0cmlidXRlZCBTeXN0ZW1zIEdyb3VwMRowGAYDVQQDExFBbmRyZWFzIEhh
ZWJlcmxlbjEhMB8GCSqGSIb3DQEJARYSZGVtb2NhQG9jdGFyaW5lLmRlMB4XDTE1
MDQyMDIwNDcyNVoXDTE2MDQxOTIwNDcyNVowga4xCzAJBgNVBAYTAkRFMREwDwYD
VQQIEwhTYWFybGFuZDEQMA4GA1UEChMHTVBJLVNXUzEiMCAGA1UECxMZRGlzdHJp
YnV0ZWQgU3lzdGVtcyBHcm91cDExMC8GA1UEAxMoMGZjYjQzYmIyZjI5ODhkYmM0
NzUzZTdhMjhmMTIyZjIyY2U2ZjkyMjEjMCEGCSqGSIb3DQEJARYUbm9kZTA2NDlA
b2N0YXJpbmUuZGUwgZ8wDQYJKoZIhvcNAQEBBQADgY0AMIGJAoGBALBf89H4rOCM
eXyIbo/DKIvG9CiLNMuAPLyA5KtTSt70mU5kpk/pScI2hOoFt8101jJnisp+1kLT
NbQ0xqVBM22NVCq8IIZL2WNdz5EZnRoHb9lFeJl/JQ3k2AGkuOAgO4D1oymK7Y9O
L4xLE+RJhByKRxV6aFudyAW+FJ2EvGXpAgMBAAEwDQYJKoZIhvcNAQEEBQADgYEA
m9pgcOdL9xKVt15m5rjptA40nNTEo2Zy8L3pkF90bYKPQQ49Jg/60CwGNnEJsjv4
3B21GXTb47gqcjpUSbL1AarxvEUyQkoE60YpaS8+gQiG7rDpFTCxwyFVDSwY8lEm
a/CiDGAlM2eeBjuFSuBuRHEWCXQO4pXcbZjLrmjlzKs=
-----END CERTIFICATE-----
