Certificate:
    Data:
        Version: 1 (0x0)
        Serial Number:
            9b:27:d7:e8:d1:ba:08:d9
        Signature Algorithm: md5WithRSAEncryption
        Issuer: C=DE, ST=Saarland, O=MPI-SWS, OU=Distributed Systems Group, CN=Andreas Haeberlen/emailAddress=democa@octarine.de
        Validity
            Not Before: Apr 20 20:47:08 2015 GMT
            Not After : Apr 19 20:47:08 2016 GMT
        Subject: C=DE, ST=Saarland, O=MPI-SWS, OU=Distributed Systems Group, CN=890484231bb8d3f9e379c5e59a0175fff04847b5/emailAddress=node0257@octarine.de
        Subject Public Key Info:
            Public Key Algorithm: rsaEncryption
            RSA Public Key: (1024 bit)
                Modulus (1024 bit):
                    00:c5:31:d6:a6:82:9b:f4:ac:61:66:55:2a:0c:6b:
                    f4:18:3e:4d:ec:e8:ea:2d:7a:66:ea:20:17:5d:71:
                    6a:45:e7:9e:f8:9c:46:77:6b:38:7e:ba:21:b3:57:
                    7b:f0:b5:a8:5b:c4:82:eb:8a:44:1c:11:e7:52:1b:
                    73:a2:fe:1c:9e:e6:d8:4a:37:de:1e:f0:6d:89:e2:
                    25:7f:09:0a:06:ce:da:ff:e8:bc:89:30:96:f1:8e:
                    3f:e0:ac:93:70:c1:d8:e9:84:71:57:02:25:f7:3e:
                    15:8a:4e:2f:ef:43:f8:6e:c8:7e:0d:e8:cd:0a:be:
                    4d:b8:52:05:5a:5f:f9:b5:6f
                Exponent: 65537 (0x10001)
    Signature Algorithm: md5WithRSAEncryption
        21:a4:8b:c6:4d:68:7c:1f:e3:8c:af:28:c9:09:34:1e:da:3e:
        26:b7:58:f5:9a:c0:ca:f3:0e:09:35:3b:32:64:6f:25:e2:9b:
        7d:47:4c:00:18:c5:a9:87:29:90:74:ef:6c:b1:5e:30:8f:da:
        07:48:b8:c9:86:c9:92:da:fe:b9:5b:11:50:13:46:be:79:1a:
        03:c0:ef:cb:c4:c4:35:2d:34:ff:7a:40:04:cc:a9:a7:01:ea:
        38:5d:46:36:23:c0:fa:2b:c1:3e:5f:36:0e:e1:8a:a9:2b:e8:
        61:ae:4e:bc:a9:0d:3b:61:62:22:cd:72:07:2c:df:41:2c:76:
        0f:d8
-----BEGIN CERTIFICATE-----
MIICvDCCAiUCCQCbJ9fo0boI2TANBgkqhkiG9w0BAQQFADCBlTELMAkGA1UEBhMC
REUxETAPBgNVBAgTCFNhYXJsYW5kMRAwDgYDVQQKEwdNUEktU1dTMSIwIAYDVQQL
ExlEaXN0cmlidXRlZCBTeXN0ZW1zIEdyb3VwMRowGAYDVQQDExFBbmRyZWFzIEhh
ZWJlcmxlbjEhMB8GCSqGSIb3DQEJARYSZGVtb2NhQG9jdGFyaW5lLmRlMB4XDTE1
MDQyMDIwNDcwOFoXDTE2MDQxOTIwNDcwOFowga4xCzAJBgNVBAYTAkRFMREwDwYD
VQQIEwhTYWFybGFuZDEQMA4GA1UEChMHTVBJLVNXUzEiMCAGA1UECxMZRGlzdHJp
YnV0ZWQgU3lzdGVtcyBHcm91cDExMC8GA1UEAxMoODkwNDg0MjMxYmI4ZDNmOWUz
NzljNWU1OWEwMTc1ZmZmMDQ4NDdiNTEjMCEGCSqGSIb3DQEJARYUbm9kZTAyNTdA
b2N0YXJpbmUuZGUwgZ8wDQYJKoZIhvcNAQEBBQADgY0AMIGJAoGBAMUx1qaCm/Ss
YWZVKgxr9Bg+Tezo6i16ZuogF11xakXnnvicRndrOH66IbNXe/C1qFvEguuKRBwR
51Ibc6L+HJ7m2Eo33h7wbYniJX8JCgbO2v/ovIkwlvGOP+Csk3DB2OmEcVcCJfc+
FYpOL+9D+G7Ifg3ozQq+TbhSBVpf+bVvAgMBAAEwDQYJKoZIhvcNAQEEBQADgYEA
IaSLxk1ofB/jjK8oyQk0Hto+JrdY9ZrAyvMOCTU7MmRvJeKbfUdMABjFqYcpkHTv
bLFeMI/aB0i4yYbJktr+uVsRUBNGvnkaA8Dvy8TENS00/3pABMyppwHqOF1GNiPA
+ivBPl82DuGKqSvoYa5OvKkNO2FiIs1yByzfQSx2D9g=
-----END CERTIFICATE-----
