Certificate:
    Data:
        Version: 1 (0x0)
        Serial Number:
            9b:27:d7:e8:d1:ba:08:3a
        Signature Algorithm: md5WithRSAEncryption
        Issuer: C=DE, ST=Saarland, O=MPI-SWS, OU=Distributed Systems Group, CN=Andreas Haeberlen/emailAddress=democa@octarine.de
        Validity
            Not Before: Apr 20 20:47:01 2015 GMT
            Not After : Apr 19 20:47:01 2016 GMT
        Subject: C=DE, ST=Saarland, O=MPI-SWS, OU=Distributed Systems Group, CN=878508e1b541453cd0f518cbc809d9660eb16922/emailAddress=node0098@octarine.de
        Subject Public Key Info:
            Public Key Algorithm: rsaEncryption
            RSA Public Key: (1024 bit)
                Modulus (1024 bit):
                    00:ef:17:9c:23:73:5e:a1:d4:55:e1:58:57:ce:b3:
                    2d:48:f0:d4:e6:0c:ed:4a:65:a5:90:c4:5e:f2:9d:
                    69:64:1b:6b:29:4d:ff:a1:86:14:88:ad:43:80:bf:
                    81:e2:08:98:58:d6:c3:fe:e1:0a:fc:3e:05:f5:65:
                    63:03:ba:92:35:8d:83:33:5b:dc:67:80:f5:1d:87:
                    67:9e:65:bb:db:59:a4:e1:af:a9:5b:a7:90:be:7e:
                    48:2a:ff:69:7c:8d:a9:3d:71:dd:02:84:be:5f:81:
                    0c:38:4d:75:8b:1e:1d:4b:a7:9d:fd:a4:db:45:d7:
                    02:34:15:4e:3a:ce:52:e7:1f
                Exponent: 65537 (0x10001)
    Signature Algorithm: md5WithRSAEncryption
        c0:99:40:7f:94:38:32:de:ce:ca:9e:f3:61:95:77:3a:39:87:
        6f:b3:da:0c:58:92:ee:ba:5b:28:35:f3:32:b7:d1:10:e5:0b:
        d5:6d:21:6a:93:45:1a:77:c6:84:1c:74:6e:59:b6:f5:a3:fd:
        2b:a3:75:73:b6:cd:49:ff:6c:a1:65:dd:87:58:1f:84:b7:01:
        40:1e:a5:11:8d:29:05:ee:bb:b7:ce:c8:3b:b0:fa:5c:79:b2:
        74:4c:6a:c0:6a:c2:d9:11:fb:58:0c:38:5e:b2:10:24:20:57:
        a1:b8:91:1b:0a:ef:a4:11:e8:20:b7:75:5f:d0:8a:14:cf:96:
        6b:e4
-----BEGIN CERTIFICATE-----
MIICvDCCAiUCCQCbJ9fo0boIOjANBgkqhkiG9w0BAQQFADCBlTELMAkGA1UEBhMC
REUxETAPBgNVBAgTCFNhYXJsYW5kMRAwDgYDVQQKEwdNUEktU1dTMSIwIAYDVQQL
ExlEaXN0cmlidXRlZCBTeXN0ZW1zIEdyb3VwMRowGAYDVQQDExFBbmRyZWFzIEhh
ZWJlcmxlbjEhMB8GCSqGSIb3DQEJARYSZGVtb2NhQG9jdGFyaW5lLmRlMB4XDTE1
MDQyMDIwNDcwMVoXDTE2MDQxOTIwNDcwMVowga4xCzAJBgNVBAYTAkRFMREwDwYD
VQQIEwhTYWFybGFuZDEQMA4GA1UEChMHTVBJLVNXUzEiMCAGA1UECxMZRGlzdHJp
YnV0ZWQgU3lzdGVtcyBHcm91cDExMC8GA1UEAxMoODc4NTA4ZTFiNTQxNDUzY2Qw
ZjUxOGNiYzgwOWQ5NjYwZWIxNjkyMjEjMCEGCSqGSIb3DQEJARYUbm9kZTAwOThA
b2N0YXJpbmUuZGUwgZ8wDQYJKoZIhvcNAQEBBQADgY0AMIGJAoGBAO8XnCNzXqHU
VeFYV86zLUjw1OYM7UplpZDEXvKdaWQbaylN/6GGFIitQ4C/geIImFjWw/7hCvw+
BfVlYwO6kjWNgzNb3GeA9R2HZ55lu9tZpOGvqVunkL5+SCr/aXyNqT1x3QKEvl+B
DDhNdYseHUunnf2k20XXAjQVTjrOUucfAgMBAAEwDQYJKoZIhvcNAQEEBQADgYEA
wJlAf5Q4Mt7Oyp7zYZV3OjmHb7PaDFiS7rpbKDXzMrfREOUL1W0hapNFGnfGhBx0
blm29aP9K6N1c7bNSf9soWXdh1gfhLcBQB6lEY0pBe67t87IO7D6XHmydExqwGrC
2RH7WAw4XrIQJCBXobiRGwrvpBHoILd1X9CKFM+Wa+Q=
-----END CERTIFICATE-----
