Certificate:
    Data:
        Version: 1 (0x0)
        Serial Number:
            9b:27:d7:e8:d1:ba:0a:00
        Signature Algorithm: md5WithRSAEncryption
        Issuer: C=DE, ST=Saarland, O=MPI-SWS, OU=Distributed Systems Group, CN=Andreas Haeberlen/emailAddress=democa@octarine.de
        Validity
            Not Before: Apr 20 20:47:21 2015 GMT
            Not After : Apr 19 20:47:21 2016 GMT
        Subject: C=DE, ST=Saarland, O=MPI-SWS, OU=Distributed Systems Group, CN=051f15dd9de38a435dd9d7624d83edef3fe55b2e/emailAddress=node0552@octarine.de
        Subject Public Key Info:
            Public Key Algorithm: rsaEncryption
            RSA Public Key: (1024 bit)
                Modulus (1024 bit):
                    00:bc:7d:20:e6:74:bf:5d:2f:e7:17:ff:72:5e:be:
                    cf:05:50:cd:2f:5c:6e:18:4a:17:c8:ed:33:f2:4f:
                    e1:dc:d4:51:85:60:32:18:30:8c:26:72:d7:d9:ae:
                    e4:f2:33:79:c3:78:b1:fa:9e:dc:1d:99:f0:b0:9f:
                    e2:b1:e3:d2:1a:11:af:d9:db:6d:d7:a8:3b:4a:47:
                    42:74:5a:67:63:a2:f0:7a:84:dc:17:da:3a:13:7b:
                    ab:a4:8d:e9:ec:9f:12:a6:32:b2:06:29:d2:04:3e:
                    4a:d8:33:f3:b3:01:5f:e8:ba:73:94:ca:36:18:15:
                    c4:6a:5c:2f:d8:28:68:67:29
                Exponent: 65537 (0x10001)
    Signature Algorithm: md5WithRSAEncryption
        c9:88:4f:52:62:7f:bf:95:00:0f:78:86:b5:70:cf:7b:8c:c4:
        16:11:6e:cb:2d:60:bc:bd:5b:98:76:18:ce:0c:fb:46:cb:fc:
        6b:47:e1:3d:17:03:67:f7:53:ca:66:74:45:a2:01:4a:d0:34:
        85:76:f2:f9:a0:ba:bb:22:77:3d:c5:31:44:c3:4d:44:5f:63:
        3c:fd:e3:76:f1:be:0c:7a:a1:03:3e:85:0a:bb:b2:7f:e9:bd:
        0c:99:f3:87:70:3c:06:99:8d:45:27:64:51:86:b7:44:6a:9b:
        1b:fd:5a:d7:c0:6c:74:df:29:ed:ff:d6:9a:a8:94:a0:88:07:
        90:9a
-----BEGIN CERTIFICATE-----
MIICvDCCAiUCCQCbJ9fo0boKADANBgkqhkiG9w0BAQQFADCBlTELMAkGA1UEBhMC
REUxETAPBgNVBAgTCFNhYXJsYW5kMRAwDgYDVQQKEwdNUEktU1dTMSIwIAYDVQQL
ExlEaXN0cmlidXRlZCBTeXN0ZW1zIEdyb3VwMRowGAYDVQQDExFBbmRyZWFzIEhh
ZWJlcmxlbjEhMB8GCSqGSIb3DQEJARYSZGVtb2NhQG9jdGFyaW5lLmRlMB4XDTE1
MDQyMDIwNDcyMVoXDTE2MDQxOTIwNDcyMVowga4xCzAJBgNVBAYTAkRFMREwDwYD
VQQIEwhTYWFybGFuZDEQMA4GA1UEChMHTVBJLVNXUzEiMCAGA1UECxMZRGlzdHJp
YnV0ZWQgU3lzdGVtcyBHcm91cDExMC8GA1UEAxMoMDUxZjE1ZGQ5ZGUzOGE0MzVk
ZDlkNzYyNGQ4M2VkZWYzZmU1NWIyZTEjMCEGCSqGSIb3DQEJARYUbm9kZTA1NTJA
b2N0YXJpbmUuZGUwgZ8wDQYJKoZIhvcNAQEBBQADgY0AMIGJAoGBALx9IOZ0v10v
5xf/cl6+zwVQzS9cbhhKF8jtM/JP4dzUUYVgMhgwjCZy19mu5PIzecN4sfqe3B2Z
8LCf4rHj0hoRr9nbbdeoO0pHQnRaZ2Oi8HqE3BfaOhN7q6SN6eyfEqYysgYp0gQ+
Stgz87MBX+i6c5TKNhgVxGpcL9goaGcpAgMBAAEwDQYJKoZIhvcNAQEEBQADgYEA
yYhPUmJ/v5UAD3iGtXDPe4zEFhFuyy1gvL1bmHYYzgz7Rsv8a0fhPRcDZ/dTymZ0
RaIBStA0hXby+aC6uyJ3PcUxRMNNRF9jPP3jdvG+DHqhAz6FCruyf+m9DJnzh3A8
BpmNRSdkUYa3RGqbG/1a18BsdN8p7f/WmqiUoIgHkJo=
-----END CERTIFICATE-----
