Certificate:
    Data:
        Version: 1 (0x0)
        Serial Number:
            9b:27:d7:e8:d1:ba:0a:d3
        Signature Algorithm: md5WithRSAEncryption
        Issuer: C=DE, ST=Saarland, O=MPI-SWS, OU=Distributed Systems Group, CN=Andreas Haeberlen/emailAddress=democa@octarine.de
        Validity
            Not Before: Apr 20 20:47:31 2015 GMT
            Not After : Apr 19 20:47:31 2016 GMT
        Subject: C=DE, ST=Saarland, O=MPI-SWS, OU=Distributed Systems Group, CN=3fcc5fa7eb3066d1b38c3e27475e6a79a46f4062/emailAddress=node0763@octarine.de
        Subject Public Key Info:
            Public Key Algorithm: rsaEncryption
            RSA Public Key: (1024 bit)
                Modulus (1024 bit):
                    00:ae:39:c1:ad:d2:8a:e3:21:2b:94:ed:30:d5:15:
                    c1:5b:02:7e:d6:47:dd:ab:4c:d0:41:86:e6:c4:f0:
                    53:9c:b9:aa:f3:42:f0:7d:24:b4:e1:2a:eb:46:24:
                    20:25:7d:82:f8:55:23:6c:ea:f4:7e:9f:97:b9:61:
                    e4:77:39:10:a8:d3:3b:e0:50:e0:e3:ed:26:dd:d2:
                    b4:5b:ab:05:07:3e:9a:d9:ad:9c:ed:6f:d0:d0:8e:
                    0b:6a:1e:b9:45:a8:19:c6:df:30:90:8b:1b:81:97:
                    a8:0a:34:d6:c2:cc:d6:b3:be:e6:fc:6d:12:ab:37:
                    ec:9e:66:94:e6:63:19:45:e1
                Exponent: 65537 (0x10001)
    Signature Algorithm: md5WithRSAEncryption
        b9:51:0d:05:5f:c9:f3:c4:01:2b:35:c7:b1:35:30:b9:e4:24:
        4c:b5:2b:f0:71:76:f9:28:8a:d8:98:ee:f8:98:2a:f8:16:42:
        ba:57:e9:48:98:37:61:2e:f5:87:7d:bc:43:b8:41:39:e5:1f:
        ef:40:23:ee:4a:c9:e6:83:8e:a5:a0:1f:51:86:a7:cb:9c:a9:
        18:30:e2:23:fe:c8:e5:3b:61:da:fd:f9:59:5b:9f:42:49:a5:
        57:7f:70:e5:eb:da:6a:f2:77:37:85:98:6a:2b:a9:79:c5:c8:
        97:fb:ad:b5:9d:87:ec:ee:b4:8a:bc:ba:82:5c:53:51:ba:12:
        e6:6b
-----BEGIN CERTIFICATE-----
MIICvDCCAiUCCQCbJ9fo0boK0zANBgkqhkiG9w0BAQQFADCBlTELMAkGA1UEBhMC
REUxETAPBgNVBAgTCFNhYXJsYW5kMRAwDgYDVQQKEwdNUEktU1dTMSIwIAYDVQQL
ExlEaXN0cmlidXRlZCBTeXN0ZW1zIEdyb3VwMRowGAYDVQQDExFBbmRyZWFzIEhh
ZWJlcmxlbjEhMB8GCSqGSIb3DQEJARYSZGVtb2NhQG9jdGFyaW5lLmRlMB4XDTE1
MDQyMDIwNDczMVoXDTE2MDQxOTIwNDczMVowga4xCzAJBgNVBAYTAkRFMREwDwYD
VQQIEwhTYWFybGFuZDEQMA4GA1UEChMHTVBJLVNXUzEiMCAGA1UECxMZRGlzdHJp
YnV0ZWQgU3lzdGVtcyBHcm91cDExMC8GA1UEAxMoM2ZjYzVmYTdlYjMwNjZkMWIz
OGMzZTI3NDc1ZTZhNzlhNDZmNDA2MjEjMCEGCSqGSIb3DQEJARYUbm9kZTA3NjNA
b2N0YXJpbmUuZGUwgZ8wDQYJKoZIhvcNAQEBBQADgY0AMIGJAoGBAK45wa3SiuMh
K5TtMNUVwVsCftZH3atM0EGG5sTwU5y5qvNC8H0ktOEq60YkICV9gvhVI2zq9H6f
l7lh5Hc5EKjTO+BQ4OPtJt3StFurBQc+mtmtnO1v0NCOC2oeuUWoGcbfMJCLG4GX
qAo01sLM1rO+5vxtEqs37J5mlOZjGUXhAgMBAAEwDQYJKoZIhvcNAQEEBQADgYEA
uVENBV/J88QBKzXHsTUwueQkTLUr8HF2+SiK2Jju+Jgq+BZCulfpSJg3YS71h328
Q7hBOeUf70Aj7krJ5oOOpaAfUYany5ypGDDiI/7I5Tth2v35WVufQkmlV39w5eva
avJ3N4WYaiupecXIl/uttZ2H7O60iry6glxTUboS5ms=
-----END CERTIFICATE-----
