Certificate:
    Data:
        Version: 1 (0x0)
        Serial Number:
            9b:27:d7:e8:d1:ba:0a:c0
        Signature Algorithm: md5WithRSAEncryption
        Issuer: C=DE, ST=Saarland, O=MPI-SWS, OU=Distributed Systems Group, CN=Andreas Haeberlen/emailAddress=democa@octarine.de
        Validity
            Not Before: Apr 20 20:47:30 2015 GMT
            Not After : Apr 19 20:47:30 2016 GMT
        Subject: C=DE, ST=Saarland, O=MPI-SWS, OU=Distributed Systems Group, CN=09d235e5fc9c6a19edebf30b7df6ae7b75dbbc1a/emailAddress=node0744@octarine.de
        Subject Public Key Info:
            Public Key Algorithm: rsaEncryption
            RSA Public Key: (1024 bit)
                Modulus (1024 bit):
                    00:cf:83:66:d5:cd:f9:54:df:7c:91:5f:17:ed:2a:
                    84:a2:85:3c:be:60:8d:a3:1f:f7:08:c9:2a:af:68:
                    0f:e3:d8:df:d5:72:9d:61:3e:48:76:0d:58:c6:7d:
                    84:cc:34:55:c4:69:8a:ba:42:14:1c:1e:67:5e:6b:
                    e2:5f:0e:ca:43:60:f3:9e:e6:95:1a:7b:4d:e3:73:
                    fe:d8:1e:0f:d9:26:8f:a5:56:c2:34:39:00:7f:83:
                    af:2b:9d:fd:56:58:3f:c8:f7:f6:38:d5:98:d1:7b:
                    d7:7e:07:f1:ca:dd:f1:57:1d:46:f4:af:24:59:4d:
                    b7:bf:75:aa:71:b1:56:db:39
                Exponent: 65537 (0x10001)
    Signature Algorithm: md5WithRSAEncryption
        0c:1d:f6:32:e0:4e:1e:e7:3d:08:34:75:4e:8c:ec:d2:b6:e2:
        c0:fc:8a:98:69:74:ba:00:76:f1:8e:62:bc:94:22:60:a3:0e:
        97:ba:34:2f:96:2b:f5:76:df:13:be:ed:94:12:cc:dd:12:63:
        8f:3e:49:ce:21:49:94:f7:b4:a0:fd:4e:14:6b:ee:55:40:7a:
        83:22:29:18:f7:19:02:7f:a7:38:18:97:02:73:53:05:7f:25:
        aa:88:71:ae:45:2e:f9:4e:55:a4:b7:ad:80:1c:b8:64:d0:c8:
        87:8d:59:a9:04:a8:6a:9f:f0:03:8e:11:86:be:71:f1:ad:9e:
        fd:86
-----BEGIN CERTIFICATE-----
MIICvDCCAiUCCQCbJ9fo0boKwDANBgkqhkiG9w0BAQQFADCBlTELMAkGA1UEBhMC
REUxETAPBgNVBAgTCFNhYXJsYW5kMRAwDgYDVQQKEwdNUEktU1dTMSIwIAYDVQQL
ExlEaXN0cmlidXRlZCBTeXN0ZW1zIEdyb3VwMRowGAYDVQQDExFBbmRyZWFzIEhh
ZWJlcmxlbjEhMB8GCSqGSIb3DQEJARYSZGVtb2NhQG9jdGFyaW5lLmRlMB4XDTE1
MDQyMDIwNDczMFoXDTE2MDQxOTIwNDczMFowga4xCzAJBgNVBAYTAkRFMREwDwYD
VQQIEwhTYWFybGFuZDEQMA4GA1UEChMHTVBJLVNXUzEiMCAGA1UECxMZRGlzdHJp
YnV0ZWQgU3lzdGVtcyBHcm91cDExMC8GA1UEAxMoMDlkMjM1ZTVmYzljNmExOWVk
ZWJmMzBiN2RmNmFlN2I3NWRiYmMxYTEjMCEGCSqGSIb3DQEJARYUbm9kZTA3NDRA
b2N0YXJpbmUuZGUwgZ8wDQYJKoZIhvcNAQEBBQADgY0AMIGJAoGBAM+DZtXN+VTf
fJFfF+0qhKKFPL5gjaMf9wjJKq9oD+PY39VynWE+SHYNWMZ9hMw0VcRpirpCFBwe
Z15r4l8OykNg857mlRp7TeNz/tgeD9kmj6VWwjQ5AH+Dryud/VZYP8j39jjVmNF7
134H8crd8VcdRvSvJFlNt791qnGxVts5AgMBAAEwDQYJKoZIhvcNAQEEBQADgYEA
DB32MuBOHuc9CDR1Tozs0rbiwPyKmGl0ugB28Y5ivJQiYKMOl7o0L5Yr9XbfE77t
lBLM3RJjjz5JziFJlPe0oP1OFGvuVUB6gyIpGPcZAn+nOBiXAnNTBX8lqohxrkUu
+U5VpLetgBy4ZNDIh41ZqQSoap/wA44Rhr5x8a2e/YY=
-----END CERTIFICATE-----
