Certificate:
    Data:
        Version: 1 (0x0)
        Serial Number:
            9b:27:d7:e8:d1:ba:0b:82
        Signature Algorithm: md5WithRSAEncryption
        Issuer: C=DE, ST=Saarland, O=MPI-SWS, OU=Distributed Systems Group, CN=Andreas Haeberlen/emailAddress=democa@octarine.de
        Validity
            Not Before: Apr 20 20:47:38 2015 GMT
            Not After : Apr 19 20:47:38 2016 GMT
        Subject: C=DE, ST=Saarland, O=MPI-SWS, OU=Distributed Systems Group, CN=ba12ec7d91b4ece5fd8ac56b77c9fb9b5bd48521/emailAddress=node0938@octarine.de
        Subject Public Key Info:
            Public Key Algorithm: rsaEncryption
            RSA Public Key: (1024 bit)
                Modulus (1024 bit):
                    00:db:6f:40:2d:ed:48:7a:b3:1f:1f:f3:77:fd:11:
                    00:b3:48:fc:35:4b:28:23:01:60:e0:61:ad:12:3f:
                    1c:5e:f1:3e:3c:fa:d1:c8:23:1f:2f:ad:ff:5f:da:
                    f6:1f:b8:08:cd:75:7c:8c:03:c1:01:ff:35:42:0f:
                    22:08:37:9a:bb:81:6b:06:db:60:b2:ca:48:f0:a2:
                    7c:50:95:a8:79:95:03:f8:10:1d:81:94:f6:f9:0e:
                    f0:38:0f:4e:da:5e:1e:98:21:4c:d1:a3:28:6f:a6:
                    50:2b:c6:36:51:04:b5:e8:c0:f1:76:79:99:f2:98:
                    bd:7b:fe:78:16:50:d2:e7:b1
                Exponent: 65537 (0x10001)
    Signature Algorithm: md5WithRSAEncryption
        26:45:42:ac:63:0c:da:b4:af:7e:c6:60:b1:80:fc:12:4b:99:
        b8:71:17:ba:25:0f:9f:06:ee:72:54:36:e2:20:78:41:e2:33:
        c4:f7:2f:15:51:92:80:d5:51:12:da:9c:98:30:37:69:40:cd:
        71:f3:b7:a3:cf:95:b3:f2:a4:8e:da:96:47:a4:39:77:48:90:
        76:97:66:bd:8c:a4:77:bf:0e:34:ae:7c:13:5b:23:61:1d:66:
        b6:dd:fa:c7:55:59:53:c6:7c:79:cf:1e:73:c5:36:05:05:64:
        5d:8e:ef:c6:d3:4e:48:6a:5e:da:32:5b:81:62:0e:83:c6:38:
        2a:57
-----BEGIN CERTIFICATE-----
MIICvDCCAiUCCQCbJ9fo0boLgjANBgkqhkiG9w0BAQQFADCBlTELMAkGA1UEBhMC
REUxETAPBgNVBAgTCFNhYXJsYW5kMRAwDgYDVQQKEwdNUEktU1dTMSIwIAYDVQQL
ExlEaXN0cmlidXRlZCBTeXN0ZW1zIEdyb3VwMRowGAYDVQQDExFBbmRyZWFzIEhh
ZWJlcmxlbjEhMB8GCSqGSIb3DQEJARYSZGVtb2NhQG9jdGFyaW5lLmRlMB4XDTE1
MDQyMDIwNDczOFoXDTE2MDQxOTIwNDczOFowga4xCzAJBgNVBAYTAkRFMREwDwYD
VQQIEwhTYWFybGFuZDEQMA4GA1UEChMHTVBJLVNXUzEiMCAGA1UECxMZRGlzdHJp
YnV0ZWQgU3lzdGVtcyBHcm91cDExMC8GA1UEAxMoYmExMmVjN2Q5MWI0ZWNlNWZk
OGFjNTZiNzdjOWZiOWI1YmQ0ODUyMTEjMCEGCSqGSIb3DQEJARYUbm9kZTA5MzhA
b2N0YXJpbmUuZGUwgZ8wDQYJKoZIhvcNAQEBBQADgY0AMIGJAoGBANtvQC3tSHqz
Hx/zd/0RALNI/DVLKCMBYOBhrRI/HF7xPjz60cgjHy+t/1/a9h+4CM11fIwDwQH/
NUIPIgg3mruBawbbYLLKSPCifFCVqHmVA/gQHYGU9vkO8DgPTtpeHpghTNGjKG+m
UCvGNlEEtejA8XZ5mfKYvXv+eBZQ0uexAgMBAAEwDQYJKoZIhvcNAQEEBQADgYEA
JkVCrGMM2rSvfsZgsYD8EkuZuHEXuiUPnwbuclQ24iB4QeIzxPcvFVGSgNVREtqc
mDA3aUDNcfO3o8+Vs/KkjtqWR6Q5d0iQdpdmvYykd78ONK58E1sjYR1mtt36x1VZ
U8Z8ec8ec8U2BQVkXY7vxtNOSGpe2jJbgWIOg8Y4Klc=
-----END CERTIFICATE-----
