Certificate:
    Data:
        Version: 1 (0x0)
        Serial Number:
            9b:27:d7:e8:d1:ba:0a:09
        Signature Algorithm: md5WithRSAEncryption
        Issuer: C=DE, ST=Saarland, O=MPI-SWS, OU=Distributed Systems Group, CN=Andreas Haeberlen/emailAddress=democa@octarine.de
        Validity
            Not Before: Apr 20 20:47:21 2015 GMT
            Not After : Apr 19 20:47:21 2016 GMT
        Subject: C=DE, ST=Saarland, O=MPI-SWS, OU=Distributed Systems Group, CN=83272a90c24460148a08a69debd5c23455c7068c/emailAddress=node0561@octarine.de
        Subject Public Key Info:
            Public Key Algorithm: rsaEncryption
            RSA Public Key: (1024 bit)
                Modulus (1024 bit):
                    00:d1:6b:ac:eb:1c:9c:e0:c2:f9:82:04:5c:05:5f:
                    e8:da:ab:af:32:d6:d2:9a:27:6b:cd:f8:17:eb:d3:
                    2b:4d:13:b7:3b:17:80:13:2e:6e:36:10:39:0f:2b:
                    70:e6:c9:03:3d:91:c2:2b:08:3c:97:ae:54:d8:77:
                    53:20:4b:07:00:b5:8b:3c:9c:82:3b:3c:93:9e:78:
                    e4:b0:d0:de:e3:cd:d0:fc:7e:56:61:c4:05:2d:37:
                    fd:ae:6d:05:01:65:b3:6a:17:80:48:55:52:c4:88:
                    65:e2:f7:e7:59:92:dd:fc:8a:63:36:e9:3f:dc:33:
                    5a:49:e3:aa:e5:6f:27:4f:eb
                Exponent: 65537 (0x10001)
    Signature Algorithm: md5WithRSAEncryption
        3a:b8:44:c2:fe:e9:21:99:c4:2a:de:c0:b4:c6:91:bf:79:90:
        9a:03:dc:81:9a:83:d4:63:2b:6a:09:3d:7a:a5:76:6c:a3:91:
        e7:90:13:52:7f:9a:4f:67:06:c3:04:be:36:d7:93:60:d4:d1:
        2b:62:a3:52:5b:7e:30:66:3c:4e:32:9b:c5:72:c8:8a:75:64:
        a2:7c:bb:65:44:0a:7f:03:30:06:42:4e:ab:36:74:d6:2b:46:
        d7:98:4b:8f:c1:ab:07:29:38:34:2a:2e:a7:19:c7:78:5f:9c:
        ae:b2:14:6f:46:a4:f7:7d:80:f8:47:f6:b3:33:6e:6a:82:9f:
        9b:a6
-----BEGIN CERTIFICATE-----
MIICvDCCAiUCCQCbJ9fo0boKCTANBgkqhkiG9w0BAQQFADCBlTELMAkGA1UEBhMC
REUxETAPBgNVBAgTCFNhYXJsYW5kMRAwDgYDVQQKEwdNUEktU1dTMSIwIAYDVQQL
ExlEaXN0cmlidXRlZCBTeXN0ZW1zIEdyb3VwMRowGAYDVQQDExFBbmRyZWFzIEhh
ZWJlcmxlbjEhMB8GCSqGSIb3DQEJARYSZGVtb2NhQG9jdGFyaW5lLmRlMB4XDTE1
MDQyMDIwNDcyMVoXDTE2MDQxOTIwNDcyMVowga4xCzAJBgNVBAYTAkRFMREwDwYD
VQQIEwhTYWFybGFuZDEQMA4GA1UEChMHTVBJLVNXUzEiMCAGA1UECxMZRGlzdHJp
YnV0ZWQgU3lzdGVtcyBHcm91cDExMC8GA1UEAxMoODMyNzJhOTBjMjQ0NjAxNDhh
MDhhNjlkZWJkNWMyMzQ1NWM3MDY4YzEjMCEGCSqGSIb3DQEJARYUbm9kZTA1NjFA
b2N0YXJpbmUuZGUwgZ8wDQYJKoZIhvcNAQEBBQADgY0AMIGJAoGBANFrrOscnODC
+YIEXAVf6NqrrzLW0pona834F+vTK00TtzsXgBMubjYQOQ8rcObJAz2RwisIPJeu
VNh3UyBLBwC1izycgjs8k5545LDQ3uPN0Px+VmHEBS03/a5tBQFls2oXgEhVUsSI
ZeL351mS3fyKYzbpP9wzWknjquVvJ0/rAgMBAAEwDQYJKoZIhvcNAQEEBQADgYEA
OrhEwv7pIZnEKt7AtMaRv3mQmgPcgZqD1GMragk9eqV2bKOR55ATUn+aT2cGwwS+
NteTYNTRK2KjUlt+MGY8TjKbxXLIinVkony7ZUQKfwMwBkJOqzZ01itG15hLj8Gr
Byk4NCoupxnHeF+crrIUb0ak932A+Ef2szNuaoKfm6Y=
-----END CERTIFICATE-----
