Certificate:
    Data:
        Version: 1 (0x0)
        Serial Number:
            9b:27:d7:e8:d1:ba:0a:35
        Signature Algorithm: md5WithRSAEncryption
        Issuer: C=DE, ST=Saarland, O=MPI-SWS, OU=Distributed Systems Group, CN=Andreas Haeberlen/emailAddress=democa@octarine.de
        Validity
            Not Before: Apr 20 20:47:23 2015 GMT
            Not After : Apr 19 20:47:23 2016 GMT
        Subject: C=DE, ST=Saarland, O=MPI-SWS, OU=Distributed Systems Group, CN=a97854b4d793be2371b2b69dbc01d9f72708bbc8/emailAddress=node0605@octarine.de
        Subject Public Key Info:
            Public Key Algorithm: rsaEncryption
            RSA Public Key: (1024 bit)
                Modulus (1024 bit):
                    00:97:71:41:37:36:8c:aa:44:af:a1:4c:ca:eb:c0:
                    4b:13:aa:c8:5c:40:08:58:97:59:8e:77:a8:09:3b:
                    70:21:1a:a2:27:85:e2:07:db:15:89:dd:67:c8:2a:
                    d6:16:c1:f3:e1:e2:69:77:b0:ab:e8:c4:99:9b:72:
                    83:bb:80:6e:1c:8a:73:20:a5:2f:2a:bb:d4:41:21:
                    02:38:50:a1:95:9d:c7:e1:60:87:2f:d9:5c:0e:1b:
                    0f:25:7c:da:79:4a:44:a0:f2:d3:f9:df:3a:29:07:
                    f2:16:73:d6:d5:19:21:15:7c:df:97:e0:2b:70:5b:
                    f7:88:a9:bb:1e:18:f3:8b:7b
                Exponent: 65537 (0x10001)
    Signature Algorithm: md5WithRSAEncryption
        c1:53:9c:09:6e:ec:a6:84:c2:19:83:c1:79:49:fa:34:9e:a2:
        45:b3:a5:7b:77:27:37:43:8b:e4:67:73:2f:cb:a3:07:cb:82:
        34:47:cf:8e:bb:ed:a0:94:65:be:c1:46:9d:99:19:34:72:df:
        e7:fa:71:56:c9:7b:97:e6:c0:f1:e0:0d:03:f1:39:23:d5:e1:
        6a:fd:41:01:51:d4:3c:9a:b7:96:5b:39:2b:15:33:b2:3d:3c:
        f0:8a:12:ac:20:07:e9:c9:bf:f2:8d:71:9a:80:ea:a9:ce:f5:
        9d:9b:25:79:95:c6:5b:58:93:43:84:26:9e:4f:85:e4:8a:64:
        69:60
-----BEGIN CERTIFICATE-----
MIICvDCCAiUCCQCbJ9fo0boKNTANBgkqhkiG9w0BAQQFADCBlTELMAkGA1UEBhMC
REUxETAPBgNVBAgTCFNhYXJsYW5kMRAwDgYDVQQKEwdNUEktU1dTMSIwIAYDVQQL
ExlEaXN0cmlidXRlZCBTeXN0ZW1zIEdyb3VwMRowGAYDVQQDExFBbmRyZWFzIEhh
ZWJlcmxlbjEhMB8GCSqGSIb3DQEJARYSZGVtb2NhQG9jdGFyaW5lLmRlMB4XDTE1
MDQyMDIwNDcyM1oXDTE2MDQxOTIwNDcyM1owga4xCzAJBgNVBAYTAkRFMREwDwYD
VQQIEwhTYWFybGFuZDEQMA4GA1UEChMHTVBJLVNXUzEiMCAGA1UECxMZRGlzdHJp
YnV0ZWQgU3lzdGVtcyBHcm91cDExMC8GA1UEAxMoYTk3ODU0YjRkNzkzYmUyMzcx
YjJiNjlkYmMwMWQ5ZjcyNzA4YmJjODEjMCEGCSqGSIb3DQEJARYUbm9kZTA2MDVA
b2N0YXJpbmUuZGUwgZ8wDQYJKoZIhvcNAQEBBQADgY0AMIGJAoGBAJdxQTc2jKpE
r6FMyuvASxOqyFxACFiXWY53qAk7cCEaoieF4gfbFYndZ8gq1hbB8+HiaXewq+jE
mZtyg7uAbhyKcyClLyq71EEhAjhQoZWdx+Fghy/ZXA4bDyV82nlKRKDy0/nfOikH
8hZz1tUZIRV835fgK3Bb94ipux4Y84t7AgMBAAEwDQYJKoZIhvcNAQEEBQADgYEA
wVOcCW7spoTCGYPBeUn6NJ6iRbOle3cnN0OL5GdzL8ujB8uCNEfPjrvtoJRlvsFG
nZkZNHLf5/pxVsl7l+bA8eANA/E5I9Xhav1BAVHUPJq3lls5KxUzsj088IoSrCAH
6cm/8o1xmoDqqc71nZsleZXGW1iTQ4Qmnk+F5IpkaWA=
-----END CERTIFICATE-----
