Certificate:
    Data:
        Version: 1 (0x0)
        Serial Number:
            9b:27:d7:e8:d1:ba:08:5d
        Signature Algorithm: md5WithRSAEncryption
        Issuer: C=DE, ST=Saarland, O=MPI-SWS, OU=Distributed Systems Group, CN=Andreas Haeberlen/emailAddress=democa@octarine.de
        Validity
            Not Before: Apr 20 20:47:02 2015 GMT
            Not After : Apr 19 20:47:02 2016 GMT
        Subject: C=DE, ST=Saarland, O=MPI-SWS, OU=Distributed Systems Group, CN=4758f1e1c331512d6cc84e9a11c20735e9ddbbe8/emailAddress=node0133@octarine.de
        Subject Public Key Info:
            Public Key Algorithm: rsaEncryption
            RSA Public Key: (1024 bit)
                Modulus (1024 bit):
                    00:b3:9d:b0:a9:86:4d:27:d8:bf:09:78:60:0a:30:
                    f2:ac:2a:d0:f8:8d:06:45:b4:7b:42:19:4b:21:8d:
                    2f:96:d1:71:d8:28:81:ec:b6:ac:2c:92:cb:58:5d:
                    b1:b5:55:7b:9e:08:1c:14:41:98:1f:eb:bb:b9:94:
                    e9:ad:16:26:68:11:56:9a:34:0d:5a:6e:98:13:a1:
                    01:c6:1b:4c:77:f1:f6:f0:1f:38:5e:b4:87:1f:d0:
                    a9:f8:08:6a:c9:1e:2f:a2:f5:f3:76:49:ef:77:af:
                    1d:b3:77:59:50:01:aa:4d:37:72:e4:de:7a:5f:6f:
                    de:4b:f3:28:49:52:38:9d:e5
                Exponent: 65537 (0x10001)
    Signature Algorithm: md5WithRSAEncryption
        a4:cf:03:21:90:fe:ea:de:d2:11:dd:db:f1:ba:db:de:02:3c:
        c7:bb:fb:7a:76:62:eb:b2:ef:3b:23:05:7c:44:5c:d3:be:68:
        37:ce:86:d6:a1:83:12:fc:02:56:9e:e0:b0:17:3e:50:dc:b8:
        69:8c:fb:e3:43:1e:fd:8c:35:2a:d4:50:4e:6d:e1:86:64:b6:
        ee:0b:ca:48:33:f4:5c:7d:7b:32:7d:92:87:58:6d:46:f6:b0:
        b5:3b:0a:56:c6:bd:06:8f:b5:99:a5:b6:b7:b4:af:ed:a9:bc:
        34:43:cf:d5:38:f7:81:1a:ba:07:66:e6:5f:25:e1:8a:80:c8:
        a3:6a
-----BEGIN CERTIFICATE-----
MIICvDCCAiUCCQCbJ9fo0boIXTANBgkqhkiG9w0BAQQFADCBlTELMAkGA1UEBhMC
REUxETAPBgNVBAgTCFNhYXJsYW5kMRAwDgYDVQQKEwdNUEktU1dTMSIwIAYDVQQL
ExlEaXN0cmlidXRlZCBTeXN0ZW1zIEdyb3VwMRowGAYDVQQDExFBbmRyZWFzIEhh
ZWJlcmxlbjEhMB8GCSqGSIb3DQEJARYSZGVtb2NhQG9jdGFyaW5lLmRlMB4XDTE1
MDQyMDIwNDcwMloXDTE2MDQxOTIwNDcwMlowga4xCzAJBgNVBAYTAkRFMREwDwYD
VQQIEwhTYWFybGFuZDEQMA4GA1UEChMHTVBJLVNXUzEiMCAGA1UECxMZRGlzdHJp
YnV0ZWQgU3lzdGVtcyBHcm91cDExMC8GA1UEAxMoNDc1OGYxZTFjMzMxNTEyZDZj
Yzg0ZTlhMTFjMjA3MzVlOWRkYmJlODEjMCEGCSqGSIb3DQEJARYUbm9kZTAxMzNA
b2N0YXJpbmUuZGUwgZ8wDQYJKoZIhvcNAQEBBQADgY0AMIGJAoGBALOdsKmGTSfY
vwl4YAow8qwq0PiNBkW0e0IZSyGNL5bRcdgogey2rCySy1hdsbVVe54IHBRBmB/r
u7mU6a0WJmgRVpo0DVpumBOhAcYbTHfx9vAfOF60hx/QqfgIaskeL6L183ZJ73ev
HbN3WVABqk03cuTeel9v3kvzKElSOJ3lAgMBAAEwDQYJKoZIhvcNAQEEBQADgYEA
pM8DIZD+6t7SEd3b8brb3gI8x7v7enZi67LvOyMFfERc075oN86G1qGDEvwCVp7g
sBc+UNy4aYz740Me/Yw1KtRQTm3hhmS27gvKSDP0XH17Mn2Sh1htRvawtTsKVsa9
Bo+1maW2t7Sv7am8NEPP1Tj3gRq6B2bmXyXhioDIo2o=
-----END CERTIFICATE-----
