Certificate:
    Data:
        Version: 1 (0x0)
        Serial Number:
            9b:27:d7:e8:d1:ba:09:3e
        Signature Algorithm: md5WithRSAEncryption
        Issuer: C=DE, ST=Saarland, O=MPI-SWS, OU=Distributed Systems Group, CN=Andreas Haeberlen/emailAddress=democa@octarine.de
        Validity
            Not Before: Apr 20 20:47:12 2015 GMT
            Not After : Apr 19 20:47:12 2016 GMT
        Subject: C=DE, ST=Saarland, O=MPI-SWS, OU=Distributed Systems Group, CN=9c89960ca371fe0fa33287ebcc61b0e4d6e7cf47/emailAddress=node0358@octarine.de
        Subject Public Key Info:
            Public Key Algorithm: rsaEncryption
            RSA Public Key: (1024 bit)
                Modulus (1024 bit):
                    00:be:81:06:c4:07:f6:22:12:9f:55:ae:22:bf:d1:
                    f1:1c:e2:3c:83:ac:cb:f4:51:9b:03:5a:5e:ee:8f:
                    fc:1d:5c:97:21:ca:16:9c:a2:9c:85:9e:91:ae:56:
                    14:d1:43:09:56:c4:fe:e3:4a:8f:a0:05:e2:7e:31:
                    e6:16:1c:be:5f:47:8e:31:ea:24:1a:ae:2b:5f:95:
                    4d:5e:32:6b:aa:33:94:d5:b5:f1:ab:a3:32:7c:22:
                    83:89:25:6e:53:6e:9e:2d:cd:65:7e:58:3d:ae:d7:
                    a0:8c:31:db:28:ed:c7:94:45:07:6b:42:43:42:4b:
                    af:28:7f:46:5f:cb:97:ca:43
                Exponent: 65537 (0x10001)
    Signature Algorithm: md5WithRSAEncryption
        33:8f:a4:96:37:17:04:88:1b:5a:76:bf:0e:86:be:cb:d0:c8:
        16:bb:35:4b:3d:3c:c8:e3:92:ef:a5:e4:54:62:63:2b:6e:ad:
        b1:28:4e:4f:ac:2c:98:6d:2e:29:c6:48:97:59:b5:7c:4a:db:
        89:ce:25:09:fd:20:46:95:de:40:9d:2e:cb:63:b9:38:28:08:
        31:1a:58:00:f3:ba:fd:72:02:fa:bc:c7:0d:ac:5e:a9:93:73:
        5f:6f:a8:c2:7e:63:56:ad:b1:41:28:51:7c:bb:19:8f:9f:83:
        57:87:7a:4c:51:f9:6e:8e:fb:9e:cd:47:a8:ea:05:03:b6:c6:
        45:5d
-----BEGIN CERTIFICATE-----
MIICvDCCAiUCCQCbJ9fo0boJPjANBgkqhkiG9w0BAQQFADCBlTELMAkGA1UEBhMC
REUxETAPBgNVBAgTCFNhYXJsYW5kMRAwDgYDVQQKEwdNUEktU1dTMSIwIAYDVQQL
ExlEaXN0cmlidXRlZCBTeXN0ZW1zIEdyb3VwMRowGAYDVQQDExFBbmRyZWFzIEhh
ZWJlcmxlbjEhMB8GCSqGSIb3DQEJARYSZGVtb2NhQG9jdGFyaW5lLmRlMB4XDTE1
MDQyMDIwNDcxMloXDTE2MDQxOTIwNDcxMlowga4xCzAJBgNVBAYTAkRFMREwDwYD
VQQIEwhTYWFybGFuZDEQMA4GA1UEChMHTVBJLVNXUzEiMCAGA1UECxMZRGlzdHJp
YnV0ZWQgU3lzdGVtcyBHcm91cDExMC8GA1UEAxMoOWM4OTk2MGNhMzcxZmUwZmEz
MzI4N2ViY2M2MWIwZTRkNmU3Y2Y0NzEjMCEGCSqGSIb3DQEJARYUbm9kZTAzNThA
b2N0YXJpbmUuZGUwgZ8wDQYJKoZIhvcNAQEBBQADgY0AMIGJAoGBAL6BBsQH9iIS
n1WuIr/R8RziPIOsy/RRmwNaXu6P/B1clyHKFpyinIWeka5WFNFDCVbE/uNKj6AF
4n4x5hYcvl9HjjHqJBquK1+VTV4ya6ozlNW18aujMnwig4klblNuni3NZX5YPa7X
oIwx2yjtx5RFB2tCQ0JLryh/Rl/Ll8pDAgMBAAEwDQYJKoZIhvcNAQEEBQADgYEA
M4+kljcXBIgbWna/Doa+y9DIFrs1Sz08yOOS76XkVGJjK26tsShOT6wsmG0uKcZI
l1m1fErbic4lCf0gRpXeQJ0uy2O5OCgIMRpYAPO6/XIC+rzHDaxeqZNzX2+own5j
Vq2xQShRfLsZj5+DV4d6TFH5bo77ns1HqOoFA7bGRV0=
-----END CERTIFICATE-----
