Certificate:
    Data:
        Version: 1 (0x0)
        Serial Number:
            9b:27:d7:e8:d1:ba:09:77
        Signature Algorithm: md5WithRSAEncryption
        Issuer: C=DE, ST=Saarland, O=MPI-SWS, OU=Distributed Systems Group, CN=Andreas Haeberlen/emailAddress=democa@octarine.de
        Validity
            Not Before: Apr 20 20:47:15 2015 GMT
            Not After : Apr 19 20:47:15 2016 GMT
        Subject: C=DE, ST=Saarland, O=MPI-SWS, OU=Distributed Systems Group, CN=a83388acbaeebeefd4fa0ccf9238c467caa5241d/emailAddress=node0415@octarine.de
        Subject Public Key Info:
            Public Key Algorithm: rsaEncryption
            RSA Public Key: (1024 bit)
                Modulus (1024 bit):
                    00:ae:2f:c3:a1:d9:eb:6b:bf:6a:02:dd:9c:c8:f3:
                    83:a6:aa:74:62:fc:25:00:fa:39:ec:51:f3:09:32:
                    e4:21:32:94:dc:02:8a:b3:ea:ab:9d:3f:be:f5:39:
                    ac:14:31:98:eb:e6:64:f8:15:92:e2:bf:11:1e:a8:
                    3f:d7:91:24:50:7f:7b:7a:25:75:c9:ca:8d:7b:a6:
                    6f:b8:dd:e0:04:d6:0a:d1:b4:6e:27:ac:ea:d8:b4:
                    c6:53:22:43:ad:dd:96:21:86:0a:7e:ad:b7:4a:22:
                    2a:fe:a8:c5:58:f7:3c:f8:c3:b8:5b:03:7c:f1:07:
                    fa:ba:77:a7:95:3a:68:cd:27
                Exponent: 65537 (0x10001)
    Signature Algorithm: md5WithRSAEncryption
        c5:fa:c1:63:45:45:1b:9e:55:4c:3a:1f:13:b7:8e:3f:a0:f6:
        45:e0:53:34:e4:aa:ab:a2:30:77:2d:81:aa:1d:6c:9c:0d:87:
        00:ef:dc:11:f9:85:66:ab:33:f5:58:a2:49:90:a9:71:ca:46:
        a3:56:2f:83:4e:bb:0d:90:fe:78:9b:e4:41:97:86:0b:58:20:
        3f:f0:4d:41:e1:0e:63:0a:88:51:b5:38:f5:2b:26:fa:87:39:
        ca:41:f5:0a:48:50:74:c3:ae:97:a2:70:e0:ad:c4:f5:9e:5f:
        75:ee:9a:5b:b1:1f:7b:cf:18:d0:27:68:31:9d:46:0a:22:8d:
        49:97
-----BEGIN CERTIFICATE-----
MIICvDCCAiUCCQCbJ9fo0boJdzANBgkqhkiG9w0BAQQFADCBlTELMAkGA1UEBhMC
REUxETAPBgNVBAgTCFNhYXJsYW5kMRAwDgYDVQQKEwdNUEktU1dTMSIwIAYDVQQL
ExlEaXN0cmlidXRlZCBTeXN0ZW1zIEdyb3VwMRowGAYDVQQDExFBbmRyZWFzIEhh
ZWJlcmxlbjEhMB8GCSqGSIb3DQEJARYSZGVtb2NhQG9jdGFyaW5lLmRlMB4XDTE1
MDQyMDIwNDcxNVoXDTE2MDQxOTIwNDcxNVowga4xCzAJBgNVBAYTAkRFMREwDwYD
VQQIEwhTYWFybGFuZDEQMA4GA1UEChMHTVBJLVNXUzEiMCAGA1UECxMZRGlzdHJp
YnV0ZWQgU3lzdGVtcyBHcm91cDExMC8GA1UEAxMoYTgzMzg4YWNiYWVlYmVlZmQ0
ZmEwY2NmOTIzOGM0NjdjYWE1MjQxZDEjMCEGCSqGSIb3DQEJARYUbm9kZTA0MTVA
b2N0YXJpbmUuZGUwgZ8wDQYJKoZIhvcNAQEBBQADgY0AMIGJAoGBAK4vw6HZ62u/
agLdnMjzg6aqdGL8JQD6OexR8wky5CEylNwCirPqq50/vvU5rBQxmOvmZPgVkuK/
ER6oP9eRJFB/e3oldcnKjXumb7jd4ATWCtG0bies6ti0xlMiQ63dliGGCn6tt0oi
Kv6oxVj3PPjDuFsDfPEH+rp3p5U6aM0nAgMBAAEwDQYJKoZIhvcNAQEEBQADgYEA
xfrBY0VFG55VTDofE7eOP6D2ReBTNOSqq6Iwdy2Bqh1snA2HAO/cEfmFZqsz9Vii
SZCpccpGo1Yvg067DZD+eJvkQZeGC1ggP/BNQeEOYwqIUbU49Ssm+oc5ykH1CkhQ
dMOul6Jw4K3E9Z5fde6aW7Efe88Y0CdoMZ1GCiKNSZc=
-----END CERTIFICATE-----
