Certificate:
    Data:
        Version: 1 (0x0)
        Serial Number:
            9b:27:d7:e8:d1:ba:0a:f4
        Signature Algorithm: md5WithRSAEncryption
        Issuer: C=DE, ST=Saarland, O=MPI-SWS, OU=Distributed Systems Group, CN=Andreas Haeberlen/emailAddress=democa@octarine.de
        Validity
            Not Before: Apr 20 20:47:32 2015 GMT
            Not After : Apr 19 20:47:32 2016 GMT
        Subject: C=DE, ST=Saarland, O=MPI-SWS, OU=Distributed Systems Group, CN=c9ef478b7f894518217a6211ea1a3d9067fbf867/emailAddress=node0796@octarine.de
        Subject Public Key Info:
            Public Key Algorithm: rsaEncryption
            RSA Public Key: (1024 bit)
                Modulus (1024 bit):
                    00:ca:13:27:8e:de:d0:7b:6c:ee:25:6c:ed:c7:af:
                    16:ba:d8:d9:1e:d8:33:80:53:4e:d2:64:3d:b6:df:
                    c4:00:be:48:ba:03:99:0d:08:28:65:c2:71:65:7f:
                    0f:cb:c4:dd:6c:1f:4d:ba:8b:f5:8b:cc:1b:04:be:
                    d7:91:e3:8e:c6:4c:ef:39:09:7d:ba:85:7e:f4:38:
                    03:12:c8:0e:f4:f1:6b:12:2d:53:e6:c2:2d:60:eb:
                    06:35:06:f6:f1:61:72:7d:18:33:d9:d0:03:a0:e0:
                    19:63:aa:3f:15:7a:33:1c:3f:ee:0e:d5:20:b8:8f:
                    18:7e:f7:8a:d9:69:e0:e0:db
                Exponent: 65537 (0x10001)
    Signature Algorithm: md5WithRSAEncryption
        4c:4d:e4:8b:df:55:a3:08:20:fc:72:10:bf:97:34:de:ea:64:
        eb:a1:76:e7:39:61:2d:be:5b:d8:5e:de:04:0e:bc:85:ff:c2:
        13:cf:4d:da:94:d0:1f:ff:ff:4d:17:67:50:69:6d:04:0f:15:
        b3:5d:21:5d:e7:a4:87:0e:19:27:d4:c5:6a:db:0e:a7:f7:df:
        8c:ff:40:53:57:54:90:94:81:6e:b2:0f:c0:e7:2b:45:cf:d6:
        26:f1:00:9a:6b:d4:92:1b:3f:52:35:56:b8:7f:50:32:f2:6e:
        24:18:65:9f:a5:c4:09:7c:f3:14:6d:50:eb:87:00:1e:fb:df:
        89:00
-----BEGIN CERTIFICATE-----
MIICvDCCAiUCCQCbJ9fo0boK9DANBgkqhkiG9w0BAQQFADCBlTELMAkGA1UEBhMC
REUxETAPBgNVBAgTCFNhYXJsYW5kMRAwDgYDVQQKEwdNUEktU1dTMSIwIAYDVQQL
ExlEaXN0cmlidXRlZCBTeXN0ZW1zIEdyb3VwMRowGAYDVQQDExFBbmRyZWFzIEhh
ZWJlcmxlbjEhMB8GCSqGSIb3DQEJARYSZGVtb2NhQG9jdGFyaW5lLmRlMB4XDTE1
MDQyMDIwNDczMloXDTE2MDQxOTIwNDczMlowga4xCzAJBgNVBAYTAkRFMREwDwYD
VQQIEwhTYWFybGFuZDEQMA4GA1UEChMHTVBJLVNXUzEiMCAGA1UECxMZRGlzdHJp
YnV0ZWQgU3lzdGVtcyBHcm91cDExMC8GA1UEAxMoYzllZjQ3OGI3Zjg5NDUxODIx
N2E2MjExZWExYTNkOTA2N2ZiZjg2NzEjMCEGCSqGSIb3DQEJARYUbm9kZTA3OTZA
b2N0YXJpbmUuZGUwgZ8wDQYJKoZIhvcNAQEBBQADgY0AMIGJAoGBAMoTJ47e0Hts
7iVs7cevFrrY2R7YM4BTTtJkPbbfxAC+SLoDmQ0IKGXCcWV/D8vE3WwfTbqL9YvM
GwS+15HjjsZM7zkJfbqFfvQ4AxLIDvTxaxItU+bCLWDrBjUG9vFhcn0YM9nQA6Dg
GWOqPxV6Mxw/7g7VILiPGH73itlp4ODbAgMBAAEwDQYJKoZIhvcNAQEEBQADgYEA
TE3ki99Vowgg/HIQv5c03upk66F25zlhLb5b2F7eBA68hf/CE89N2pTQH///TRdn
UGltBA8Vs10hXeekhw4ZJ9TFatsOp/ffjP9AU1dUkJSBbrIPwOcrRc/WJvEAmmvU
khs/UjVWuH9QMvJuJBhln6XECXzzFG1Q64cAHvvfiQA=
-----END CERTIFICATE-----
