Certificate:
    Data:
        Version: 1 (0x0)
        Serial Number:
            9b:27:d7:e8:d1:ba:09:a8
        Signature Algorithm: md5WithRSAEncryption
        Issuer: C=DE, ST=Saarland, O=MPI-SWS, OU=Distributed Systems Group, CN=Andreas Haeberlen/emailAddress=democa@octarine.de
        Validity
            Not Before: Apr 20 20:47:17 2015 GMT
            Not After : Apr 19 20:47:17 2016 GMT
        Subject: C=DE, ST=Saarland, O=MPI-SWS, OU=Distributed Systems Group, CN=a56a7767e11964c2fdf21867ca0b5c2f29a91000/emailAddress=node0464@octarine.de
        Subject Public Key Info:
            Public Key Algorithm: rsaEncryption
            RSA Public Key: (1024 bit)
                Modulus (1024 bit):
                    00:d3:2d:e5:43:ac:70:a3:98:49:da:46:6a:4b:96:
                    a9:12:68:b9:42:e3:30:26:f1:f9:9a:79:25:f6:15:
                    bd:af:56:de:0f:e2:ac:02:95:66:af:8a:48:33:5f:
                    b9:8b:47:32:29:59:5b:e8:92:24:e3:6f:cf:92:ef:
                    89:6f:b3:28:e0:e0:b4:ba:f8:c7:c3:d7:c1:8c:6b:
                    46:3b:9c:8c:e0:d5:dd:d5:d9:b8:da:93:28:29:7f:
                    c0:0c:51:86:4c:c0:32:7f:f9:c8:3d:de:42:33:1f:
                    62:4b:8c:53:2c:53:6b:42:e0:19:d1:c2:b9:4a:6a:
                    79:ac:8d:69:5d:96:26:0f:ff
                Exponent: 65537 (0x10001)
    Signature Algorithm: md5WithRSAEncryption
        71:6c:4f:4f:88:2f:d4:fd:8c:27:07:13:18:77:7e:25:98:c1:
        39:95:89:3b:a3:31:71:2c:b2:03:bd:ab:89:14:03:ac:6b:dd:
        2e:ae:f4:c0:cd:50:8e:86:dc:48:5a:31:c9:80:01:c1:92:c4:
        cd:b1:ff:f6:77:4d:1a:47:17:1d:de:98:2b:81:e5:a6:43:e8:
        5c:83:c7:58:78:5d:a4:3d:4b:a8:bf:1e:97:2d:38:4a:10:65:
        f3:90:d6:59:50:7c:21:5d:f1:2f:c9:15:af:17:c2:f5:b0:cd:
        72:f2:0d:19:07:2a:ec:7b:c0:e7:a8:79:d8:88:8a:2d:99:06:
        db:a9
-----BEGIN CERTIFICATE-----
MIICvDCCAiUCCQCbJ9fo0boJqDANBgkqhkiG9w0BAQQFADCBlTELMAkGA1UEBhMC
REUxETAPBgNVBAgTCFNhYXJsYW5kMRAwDgYDVQQKEwdNUEktU1dTMSIwIAYDVQQL
ExlEaXN0cmlidXRlZCBTeXN0ZW1zIEdyb3VwMRowGAYDVQQDExFBbmRyZWFzIEhh
ZWJlcmxlbjEhMB8GCSqGSIb3DQEJARYSZGVtb2NhQG9jdGFyaW5lLmRlMB4XDTE1
MDQyMDIwNDcxN1oXDTE2MDQxOTIwNDcxN1owga4xCzAJBgNVBAYTAkRFMREwDwYD
VQQIEwhTYWFybGFuZDEQMA4GA1UEChMHTVBJLVNXUzEiMCAGA1UECxMZRGlzdHJp
YnV0ZWQgU3lzdGVtcyBHcm91cDExMC8GA1UEAxMoYTU2YTc3NjdlMTE5NjRjMmZk
ZjIxODY3Y2EwYjVjMmYyOWE5MTAwMDEjMCEGCSqGSIb3DQEJARYUbm9kZTA0NjRA
b2N0YXJpbmUuZGUwgZ8wDQYJKoZIhvcNAQEBBQADgY0AMIGJAoGBANMt5UOscKOY
SdpGakuWqRJouULjMCbx+Zp5JfYVva9W3g/irAKVZq+KSDNfuYtHMilZW+iSJONv
z5LviW+zKODgtLr4x8PXwYxrRjucjODV3dXZuNqTKCl/wAxRhkzAMn/5yD3eQjMf
YkuMUyxTa0LgGdHCuUpqeayNaV2WJg//AgMBAAEwDQYJKoZIhvcNAQEEBQADgYEA
cWxPT4gv1P2MJwcTGHd+JZjBOZWJO6MxcSyyA72riRQDrGvdLq70wM1QjobcSFox
yYABwZLEzbH/9ndNGkcXHd6YK4HlpkPoXIPHWHhdpD1LqL8ely04ShBl85DWWVB8
IV3xL8kVrxfC9bDNcvINGQcq7HvA56h52IiKLZkG26k=
-----END CERTIFICATE-----
