Certificate:
    Data:
        Version: 1 (0x0)
        Serial Number:
            9b:27:d7:e8:d1:ba:0a:1b
        Signature Algorithm: md5WithRSAEncryption
        Issuer: C=DE, ST=Saarland, O=MPI-SWS, OU=Distributed Systems Group, CN=Andreas Haeberlen/emailAddress=democa@octarine.de
        Validity
            Not Before: Apr 20 20:47:22 2015 GMT
            Not After : Apr 19 20:47:22 2016 GMT
        Subject: C=DE, ST=Saarland, O=MPI-SWS, OU=Distributed Systems Group, CN=274b0d4b1aa03151f4f5fc83247aee706bc6911b/emailAddress=node0579@octarine.de
        Subject Public Key Info:
            Public Key Algorithm: rsaEncryption
            RSA Public Key: (1024 bit)
                Modulus (1024 bit):
                    00:db:9e:e4:23:66:84:02:7e:c3:55:7a:a4:26:0d:
                    89:8a:fe:4f:cb:e6:63:52:03:f8:91:6f:f4:1b:36:
                    fe:f3:58:23:2c:14:44:4d:47:51:b2:d8:eb:d6:a2:
                    8d:03:3c:d1:8b:79:38:5f:26:62:a6:f9:06:7d:4d:
                    66:15:ea:06:49:16:c5:b8:82:23:3e:6a:15:5f:70:
                    d6:c5:83:e6:58:a2:a9:e5:99:0e:b8:75:91:f5:dd:
                    e6:ed:50:bb:5c:ac:46:28:b6:d7:48:1b:0b:68:cf:
                    52:3c:2e:b1:3d:52:2d:dd:f0:6b:fe:a9:f4:5e:2c:
                    f1:90:6b:1d:ac:ef:94:98:ab
                Exponent: 65537 (0x10001)
    Signature Algorithm: md5WithRSAEncryption
        09:0b:b6:29:05:c2:54:d5:d5:38:a5:f6:56:ad:74:50:dd:b7:
        44:40:3c:29:af:1b:65:24:2e:c5:e5:80:0a:80:6e:3b:5d:83:
        2e:5a:30:93:52:cb:aa:71:c4:0c:07:69:f4:27:f6:28:e0:ef:
        01:71:36:4f:d6:cb:ea:16:00:9c:54:8e:f5:e8:41:aa:39:92:
        3e:4d:3c:8a:c1:4b:a7:5e:a4:43:2b:e1:31:39:8f:0f:42:31:
        92:2b:a6:f3:d6:f5:3a:d9:7c:d8:e2:49:2f:28:25:1c:7e:94:
        9d:f9:6e:cc:2a:64:f0:be:3f:0e:59:ea:d0:84:31:cc:d8:70:
        b1:3b
-----BEGIN CERTIFICATE-----
MIICvDCCAiUCCQCbJ9fo0boKGzANBgkqhkiG9w0BAQQFADCBlTELMAkGA1UEBhMC
REUxETAPBgNVBAgTCFNhYXJsYW5kMRAwDgYDVQQKEwdNUEktU1dTMSIwIAYDVQQL
ExlEaXN0cmlidXRlZCBTeXN0ZW1zIEdyb3VwMRowGAYDVQQDExFBbmRyZWFzIEhh
ZWJlcmxlbjEhMB8GCSqGSIb3DQEJARYSZGVtb2NhQG9jdGFyaW5lLmRlMB4XDTE1
MDQyMDIwNDcyMloXDTE2MDQxOTIwNDcyMlowga4xCzAJBgNVBAYTAkRFMREwDwYD
VQQIEwhTYWFybGFuZDEQMA4GA1UEChMHTVBJLVNXUzEiMCAGA1UECxMZRGlzdHJp
YnV0ZWQgU3lzdGVtcyBHcm91cDExMC8GA1UEAxMoMjc0YjBkNGIxYWEwMzE1MWY0
ZjVmYzgzMjQ3YWVlNzA2YmM2OTExYjEjMCEGCSqGSIb3DQEJARYUbm9kZTA1NzlA
b2N0YXJpbmUuZGUwgZ8wDQYJKoZIhvcNAQEBBQADgY0AMIGJAoGBANue5CNmhAJ+
w1V6pCYNiYr+T8vmY1ID+JFv9Bs2/vNYIywURE1HUbLY69aijQM80Yt5OF8mYqb5
Bn1NZhXqBkkWxbiCIz5qFV9w1sWD5liiqeWZDrh1kfXd5u1Qu1ysRii210gbC2jP
UjwusT1SLd3wa/6p9F4s8ZBrHazvlJirAgMBAAEwDQYJKoZIhvcNAQEEBQADgYEA
CQu2KQXCVNXVOKX2Vq10UN23REA8Ka8bZSQuxeWACoBuO12DLlowk1LLqnHEDAdp
9Cf2KODvAXE2T9bL6hYAnFSO9ehBqjmSPk08isFLp16kQyvhMTmPD0Ixkium89b1
Otl82OJJLyglHH6UnfluzCpk8L4/Dlnq0IQxzNhwsTs=
-----END CERTIFICATE-----
