Certificate:
    Data:
        Version: 1 (0x0)
        Serial Number:
            9b:27:d7:e8:d1:ba:08:41
        Signature Algorithm: md5WithRSAEncryption
        Issuer: C=DE, ST=Saarland, O=MPI-SWS, OU=Distributed Systems Group, CN=Andreas Haeberlen/emailAddress=democa@octarine.de
        Validity
            Not Before: Apr 20 20:47:01 2015 GMT
            Not After : Apr 19 20:47:01 2016 GMT
        Subject: C=DE, ST=Saarland, O=MPI-SWS, OU=Distributed Systems Group, CN=b73011cc4085ad5af373eee2a94498e5015131d7/emailAddress=node0105@octarine.de
        Subject Public Key Info:
            Public Key Algorithm: rsaEncryption
            RSA Public Key: (1024 bit)
                Modulus (1024 bit):
                    00:ea:35:d2:75:56:83:07:4c:a4:72:2e:e6:c1:95:
                    f0:d7:50:f3:1f:25:ff:4a:48:2d:0d:bf:a7:26:53:
                    43:ef:cf:b1:3c:bd:32:69:89:11:e7:e4:bf:50:25:
                    93:e4:56:c0:2d:8c:d8:d3:53:f2:a5:91:d0:d2:12:
                    99:6f:45:4f:f1:6b:65:8f:ec:43:de:ab:cf:2e:51:
                    5c:7e:e7:02:c8:46:d4:01:c8:ac:ae:4b:5a:5b:fc:
                    04:64:7f:b3:ea:2d:f3:cc:75:2e:5f:54:88:f2:0d:
                    b2:ab:9e:ec:ae:f7:0d:81:6f:9d:d4:f5:cd:2d:c7:
                    5e:6a:2f:72:b9:20:23:cd:ff
                Exponent: 65537 (0x10001)
    Signature Algorithm: md5WithRSAEncryption
        2c:67:c6:74:cd:85:97:bd:49:32:5a:ab:e0:12:f9:7e:41:0d:
        44:a3:5c:47:a3:c7:5c:3b:d2:92:16:e1:21:f1:7f:4a:ca:2a:
        1f:51:bc:16:56:88:a9:90:a3:8f:71:0a:c6:7d:62:29:65:e6:
        dc:d8:94:7c:6c:f4:fe:92:f5:20:92:45:d0:bc:b0:f0:e4:d6:
        63:13:e3:06:01:61:5c:3e:05:32:8e:57:1a:de:d2:2a:54:d8:
        d3:59:15:1c:c4:3a:1f:b4:85:ba:06:7c:10:05:7b:1c:6f:bd:
        46:99:9a:cc:4d:3c:b8:17:39:db:59:f4:a4:f8:8b:5b:4b:54:
        4e:59
-----BEGIN CERTIFICATE-----
MIICvDCCAiUCCQCbJ9fo0boIQTANBgkqhkiG9w0BAQQFADCBlTELMAkGA1UEBhMC
REUxETAPBgNVBAgTCFNhYXJsYW5kMRAwDgYDVQQKEwdNUEktU1dTMSIwIAYDVQQL
ExlEaXN0cmlidXRlZCBTeXN0ZW1zIEdyb3VwMRowGAYDVQQDExFBbmRyZWFzIEhh
ZWJlcmxlbjEhMB8GCSqGSIb3DQEJARYSZGVtb2NhQG9jdGFyaW5lLmRlMB4XDTE1
MDQyMDIwNDcwMVoXDTE2MDQxOTIwNDcwMVowga4xCzAJBgNVBAYTAkRFMREwDwYD
VQQIEwhTYWFybGFuZDEQMA4GA1UEChMHTVBJLVNXUzEiMCAGA1UECxMZRGlzdHJp
YnV0ZWQgU3lzdGVtcyBHcm91cDExMC8GA1UEAxMoYjczMDExY2M0MDg1YWQ1YWYz
NzNlZWUyYTk0NDk4ZTUwMTUxMzFkNzEjMCEGCSqGSIb3DQEJARYUbm9kZTAxMDVA
b2N0YXJpbmUuZGUwgZ8wDQYJKoZIhvcNAQEBBQADgY0AMIGJAoGBAOo10nVWgwdM
pHIu5sGV8NdQ8x8l/0pILQ2/pyZTQ+/PsTy9MmmJEefkv1Alk+RWwC2M2NNT8qWR
0NISmW9FT/FrZY/sQ96rzy5RXH7nAshG1AHIrK5LWlv8BGR/s+ot88x1Ll9UiPIN
sque7K73DYFvndT1zS3HXmovcrkgI83/AgMBAAEwDQYJKoZIhvcNAQEEBQADgYEA
LGfGdM2Fl71JMlqr4BL5fkENRKNcR6PHXDvSkhbhIfF/SsoqH1G8FlaIqZCjj3EK
xn1iKWXm3NiUfGz0/pL1IJJF0Lyw8OTWYxPjBgFhXD4FMo5XGt7SKlTY01kVHMQ6
H7SFugZ8EAV7HG+9RpmazE08uBc521n0pPiLW0tUTlk=
-----END CERTIFICATE-----
