Certificate:
    Data:
        Version: 1 (0x0)
        Serial Number:
            9b:27:d7:e8:d1:ba:09:df
        Signature Algorithm: md5WithRSAEncryption
        Issuer: C=DE, ST=Saarland, O=MPI-SWS, OU=Distributed Systems Group, CN=Andreas Haeberlen/emailAddress=democa@octarine.de
        Validity
            Not Before: Apr 20 20:47:19 2015 GMT
            Not After : Apr 19 20:47:19 2016 GMT
        Subject: C=DE, ST=Saarland, O=MPI-SWS, OU=Distributed Systems Group, CN=afa761b836b340e97138121e85b5e08902063cf7/emailAddress=node0519@octarine.de
        Subject Public Key Info:
            Public Key Algorithm: rsaEncryption
            RSA Public Key: (1024 bit)
                Modulus (1024 bit):
                    00:9e:d0:2a:e7:e3:2e:6e:cf:2e:42:11:f1:c5:58:
                    e1:d8:96:74:70:9f:79:8a:0c:9f:8c:1f:dc:7b:57:
                    a4:51:0e:18:77:a9:62:de:6a:d0:8f:0f:e1:f4:11:
                    58:b1:10:78:1b:5d:c2:74:ff:9d:80:8a:d5:81:29:
                    c4:69:88:20:84:c8:91:87:75:1f:7a:2f:ef:dc:a3:
                    db:cd:c0:f3:17:4d:f9:f4:36:66:5c:42:e9:d8:7a:
                    9d:55:0e:fa:54:96:ef:6b:1e:89:c9:28:16:71:46:
                    69:69:c9:8b:f6:36:d6:10:53:8a:cd:03:64:3b:53:
                    4e:a3:71:80:80:54:66:3e:7f
                Exponent: 65537 (0x10001)
    Signature Algorithm: md5WithRSAEncryption
        04:31:ff:53:e4:20:75:8f:b0:ca:70:d9:00:ce:19:bf:45:d2:
        39:21:b3:b8:5a:61:66:25:7f:ff:9c:2e:24:31:48:6e:2d:0c:
        bc:86:4c:de:83:fe:80:34:80:c5:03:00:cc:87:c4:0f:d8:99:
        51:07:1f:72:70:79:e1:55:0f:2f:fa:f1:b3:04:01:25:e4:7b:
        1f:dc:df:ef:f3:17:ed:2b:c1:e3:7e:71:f3:97:bf:17:8c:2e:
        16:e5:85:55:57:bf:5c:18:1b:6e:0d:0d:8a:fd:35:b3:ab:0e:
        4d:f7:49:d5:59:f2:9e:d5:8e:c5:e8:b8:95:50:e8:45:13:9d:
        aa:7a
-----BEGIN CERTIFICATE-----
MIICvDCCAiUCCQCbJ9fo0boJ3zANBgkqhkiG9w0BAQQFADCBlTELMAkGA1UEBhMC
REUxETAPBgNVBAgTCFNhYXJsYW5kMRAwDgYDVQQKEwdNUEktU1dTMSIwIAYDVQQL
ExlEaXN0cmlidXRlZCBTeXN0ZW1zIEdyb3VwMRowGAYDVQQDExFBbmRyZWFzIEhh
ZWJlcmxlbjEhMB8GCSqGSIb3DQEJARYSZGVtb2NhQG9jdGFyaW5lLmRlMB4XDTE1
MDQyMDIwNDcxOVoXDTE2MDQxOTIwNDcxOVowga4xCzAJBgNVBAYTAkRFMREwDwYD
VQQIEwhTYWFybGFuZDEQMA4GA1UEChMHTVBJLVNXUzEiMCAGA1UECxMZRGlzdHJp
YnV0ZWQgU3lzdGVtcyBHcm91cDExMC8GA1UEAxMoYWZhNzYxYjgzNmIzNDBlOTcx
MzgxMjFlODViNWUwODkwMjA2M2NmNzEjMCEGCSqGSIb3DQEJARYUbm9kZTA1MTlA
b2N0YXJpbmUuZGUwgZ8wDQYJKoZIhvcNAQEBBQADgY0AMIGJAoGBAJ7QKufjLm7P
LkIR8cVY4diWdHCfeYoMn4wf3HtXpFEOGHepYt5q0I8P4fQRWLEQeBtdwnT/nYCK
1YEpxGmIIITIkYd1H3ov79yj283A8xdN+fQ2ZlxC6dh6nVUO+lSW72seickoFnFG
aWnJi/Y21hBTis0DZDtTTqNxgIBUZj5/AgMBAAEwDQYJKoZIhvcNAQEEBQADgYEA
BDH/U+QgdY+wynDZAM4Zv0XSOSGzuFphZiV//5wuJDFIbi0MvIZM3oP+gDSAxQMA
zIfED9iZUQcfcnB54VUPL/rxswQBJeR7H9zf7/MX7SvB435x85e/F4wuFuWFVVe/
XBgbbg0Niv01s6sOTfdJ1VnyntWOxei4lVDoRROdqno=
-----END CERTIFICATE-----
