Certificate:
    Data:
        Version: 1 (0x0)
        Serial Number:
            9b:27:d7:e8:d1:ba:0b:b1
        Signature Algorithm: md5WithRSAEncryption
        Issuer: C=DE, ST=Saarland, O=MPI-SWS, OU=Distributed Systems Group, CN=Andreas Haeberlen/emailAddress=democa@octarine.de
        Validity
            Not Before: Apr 20 20:47:41 2015 GMT
            Not After : Apr 19 20:47:41 2016 GMT
        Subject: C=DE, ST=Saarland, O=MPI-SWS, OU=Distributed Systems Group, CN=0da58d9a7482108c57ef9917912858d667be549c/emailAddress=node0985@octarine.de
        Subject Public Key Info:
            Public Key Algorithm: rsaEncryption
            RSA Public Key: (1024 bit)
                Modulus (1024 bit):
                    00:b9:f2:75:a4:1b:77:33:b7:0f:9d:89:41:59:1d:
                    c3:be:46:e7:95:d5:d4:64:ca:96:bf:5d:66:82:52:
                    37:a2:b9:89:41:19:a4:37:9e:c6:5e:c3:2b:09:6c:
                    bc:1a:e9:5c:c2:79:fc:22:26:c2:5c:12:43:1a:e4:
                    92:69:15:1a:d2:f1:1e:73:c4:ee:fd:ac:a9:46:88:
                    72:5d:3f:dd:f5:f8:0d:a5:4b:32:d9:c4:6d:1a:63:
                    6f:52:8d:67:6e:64:ff:a1:f2:55:1d:30:12:f5:37:
                    9c:80:41:61:53:77:7e:6b:a6:99:d3:cf:a6:ba:d7:
                    6c:5f:34:d8:d6:25:c6:7f:a9
                Exponent: 65537 (0x10001)
    Signature Algorithm: md5WithRSAEncryption
        7b:83:9e:76:4e:c0:58:b5:30:c0:06:8b:69:b9:f1:af:e5:c7:
        2e:fb:c1:bb:81:99:b7:1f:64:c1:e1:af:b5:61:49:c8:45:27:
        01:81:2d:75:10:81:a0:ff:b3:32:c1:0b:f6:ab:68:1e:d7:08:
        f1:f9:f4:bc:39:f4:ed:bf:84:f4:ad:83:a5:f5:d1:e1:b4:31:
        23:40:b3:a3:94:08:ae:af:36:3c:8f:54:1a:d4:07:8d:bb:44:
        7c:fb:01:53:d0:2e:14:75:46:03:7d:52:70:a5:29:54:f3:b7:
        c9:ec:1f:a5:30:94:af:31:2f:b9:19:5a:6c:06:87:39:aa:d2:
        67:bb
-----BEGIN CERTIFICATE-----
MIICvDCCAiUCCQCbJ9fo0boLsTANBgkqhkiG9w0BAQQFADCBlTELMAkGA1UEBhMC
REUxETAPBgNVBAgTCFNhYXJsYW5kMRAwDgYDVQQKEwdNUEktU1dTMSIwIAYDVQQL
ExlEaXN0cmlidXRlZCBTeXN0ZW1zIEdyb3VwMRowGAYDVQQDExFBbmRyZWFzIEhh
ZWJlcmxlbjEhMB8GCSqGSIb3DQEJARYSZGVtb2NhQG9jdGFyaW5lLmRlMB4XDTE1
MDQyMDIwNDc0MVoXDTE2MDQxOTIwNDc0MVowga4xCzAJBgNVBAYTAkRFMREwDwYD
VQQIEwhTYWFybGFuZDEQMA4GA1UEChMHTVBJLVNXUzEiMCAGA1UECxMZRGlzdHJp
YnV0ZWQgU3lzdGVtcyBHcm91cDExMC8GA1UEAxMoMGRhNThkOWE3NDgyMTA4YzU3
ZWY5OTE3OTEyODU4ZDY2N2JlNTQ5YzEjMCEGCSqGSIb3DQEJARYUbm9kZTA5ODVA
b2N0YXJpbmUuZGUwgZ8wDQYJKoZIhvcNAQEBBQADgY0AMIGJAoGBALnydaQbdzO3
D52JQVkdw75G55XV1GTKlr9dZoJSN6K5iUEZpDeexl7DKwlsvBrpXMJ5/CImwlwS
QxrkkmkVGtLxHnPE7v2sqUaIcl0/3fX4DaVLMtnEbRpjb1KNZ25k/6HyVR0wEvU3
nIBBYVN3fmummdPPprrXbF802NYlxn+pAgMBAAEwDQYJKoZIhvcNAQEEBQADgYEA
e4Oedk7AWLUwwAaLabnxr+XHLvvBu4GZtx9kweGvtWFJyEUnAYEtdRCBoP+zMsEL
9qtoHtcI8fn0vDn07b+E9K2DpfXR4bQxI0Czo5QIrq82PI9UGtQHjbtEfPsBU9Au
FHVGA31ScKUpVPO3yewfpTCUrzEvuRlabAaHOarSZ7s=
-----END CERTIFICATE-----
