Certificate:
    Data:
        Version: 1 (0x0)
        Serial Number:
            9b:27:d7:e8:d1:ba:08:8d
        Signature Algorithm: md5WithRSAEncryption
        Issuer: C=DE, ST=Saarland, O=MPI-SWS, OU=Distributed Systems Group, CN=Andreas Haeberlen/emailAddress=democa@octarine.de
        Validity
            Not Before: Apr 20 20:47:05 2015 GMT
            Not After : Apr 19 20:47:05 2016 GMT
        Subject: C=DE, ST=Saarland, O=MPI-SWS, OU=Distributed Systems Group, CN=e65abb4bc6cc6a315c680a7d8a40fade129cee8b/emailAddress=node0181@octarine.de
        Subject Public Key Info:
            Public Key Algorithm: rsaEncryption
            RSA Public Key: (1024 bit)
                Modulus (1024 bit):
                    00:ae:e0:a3:e5:86:26:14:3e:2f:44:6d:83:9c:95:
                    6b:0e:46:85:09:b8:3f:ac:d6:1f:8f:74:53:e3:9b:
                    14:c9:ae:0e:9f:91:58:a0:6b:50:07:1e:f8:53:02:
                    01:6d:f7:f3:63:05:83:53:c9:0c:3c:62:f0:e8:bd:
                    85:a8:05:6b:76:0f:75:ef:14:93:59:17:d8:5c:29:
                    d5:5c:8a:f6:dc:56:52:6f:1f:2f:9d:7c:ec:8a:71:
                    10:5a:a3:3f:9f:b0:3c:de:06:27:b9:6d:06:d0:7a:
                    94:83:f9:8a:ed:f7:16:5b:14:ab:9a:d0:45:f1:f2:
                    de:24:23:fe:3f:dc:95:3d:cd
                Exponent: 65537 (0x10001)
    Signature Algorithm: md5WithRSAEncryption
        7b:7e:4c:f4:10:2c:51:1e:19:cb:d6:1d:00:3e:56:64:ba:81:
        4a:1c:b4:47:1f:8c:d0:26:2d:c8:d8:8f:df:0e:b0:4f:47:63:
        6b:59:01:1f:b7:be:1b:b8:23:1d:3c:0b:04:f0:42:f0:ab:2e:
        0c:55:6d:1e:06:b1:16:dd:26:67:9f:3f:1e:cf:cf:38:c5:d3:
        d8:ab:55:4d:7b:1a:d6:76:79:a0:5c:6e:5e:bd:e8:b0:34:ee:
        1d:7c:b6:53:08:5f:d4:54:d3:95:cf:5f:24:c7:e3:7a:5a:0b:
        b0:db:38:f7:b8:a0:73:9a:43:f0:36:47:9f:46:8a:da:cc:6b:
        c6:92
-----BEGIN CERTIFICATE-----
MIICvDCCAiUCCQCbJ9fo0boIjTANBgkqhkiG9w0BAQQFADCBlTELMAkGA1UEBhMC
REUxETAPBgNVBAgTCFNhYXJsYW5kMRAwDgYDVQQKEwdNUEktU1dTMSIwIAYDVQQL
ExlEaXN0cmlidXRlZCBTeXN0ZW1zIEdyb3VwMRowGAYDVQQDExFBbmRyZWFzIEhh
ZWJlcmxlbjEhMB8GCSqGSIb3DQEJARYSZGVtb2NhQG9jdGFyaW5lLmRlMB4XDTE1
MDQyMDIwNDcwNVoXDTE2MDQxOTIwNDcwNVowga4xCzAJBgNVBAYTAkRFMREwDwYD
VQQIEwhTYWFybGFuZDEQMA4GA1UEChMHTVBJLVNXUzEiMCAGA1UECxMZRGlzdHJp
YnV0ZWQgU3lzdGVtcyBHcm91cDExMC8GA1UEAxMoZTY1YWJiNGJjNmNjNmEzMTVj
NjgwYTdkOGE0MGZhZGUxMjljZWU4YjEjMCEGCSqGSIb3DQEJARYUbm9kZTAxODFA
b2N0YXJpbmUuZGUwgZ8wDQYJKoZIhvcNAQEBBQADgY0AMIGJAoGBAK7go+WGJhQ+
L0Rtg5yVaw5GhQm4P6zWH490U+ObFMmuDp+RWKBrUAce+FMCAW3382MFg1PJDDxi
8Oi9hagFa3YPde8Uk1kX2Fwp1VyK9txWUm8fL5187IpxEFqjP5+wPN4GJ7ltBtB6
lIP5iu33FlsUq5rQRfHy3iQj/j/clT3NAgMBAAEwDQYJKoZIhvcNAQEEBQADgYEA
e35M9BAsUR4Zy9YdAD5WZLqBShy0Rx+M0CYtyNiP3w6wT0dja1kBH7e+G7gjHTwL
BPBC8KsuDFVtHgaxFt0mZ58/Hs/POMXT2KtVTXsa1nZ5oFxuXr3osDTuHXy2Uwhf
1FTTlc9fJMfjeloLsNs497igc5pD8DZHn0aK2sxrxpI=
-----END CERTIFICATE-----
