Certificate:
    Data:
        Version: 1 (0x0)
        Serial Number:
            9b:27:d7:e8:d1:ba:09:9a
        Signature Algorithm: md5WithRSAEncryption
        Issuer: C=DE, ST=Saarland, O=MPI-SWS, OU=Distributed Systems Group, CN=Andreas Haeberlen/emailAddress=democa@octarine.de
        Validity
            Not Before: Apr 20 20:47:16 2015 GMT
            Not After : Apr 19 20:47:16 2016 GMT
        Subject: C=DE, ST=Saarland, O=MPI-SWS, OU=Distributed Systems Group, CN=b9c236fb5fe54fbf5a14dd09844cde188ebb5a7a/emailAddress=node0450@octarine.de
        Subject Public Key Info:
            Public Key Algorithm: rsaEncryption
            RSA Public Key: (1024 bit)
                Modulus (1024 bit):
                    00:d7:6b:52:83:d5:bf:7e:5b:36:44:04:2f:3f:34:
                    fd:b5:30:59:64:c6:61:75:60:ce:26:09:85:dd:23:
                    5a:dc:31:b4:8f:b8:0d:2b:8b:99:21:91:04:84:a4:
                    5f:c3:07:3a:16:19:92:61:3c:5b:22:c0:7d:fa:98:
                    24:30:58:06:ec:c2:27:cf:90:59:da:07:15:32:86:
                    6f:5a:66:fe:03:1f:f2:b2:64:00:45:b5:f5:bb:3e:
                    ef:1c:6d:91:62:2a:7c:70:90:db:1e:1d:a1:af:68:
                    07:b7:ce:52:24:55:39:8f:79:ed:b2:9c:3b:87:db:
                    14:06:b4:97:72:04:40:02:61
                Exponent: 65537 (0x10001)
    Signature Algorithm: md5WithRSAEncryption
        a6:73:8b:29:0c:0b:6b:f1:49:b0:5b:42:3c:31:a3:59:01:5e:
        32:60:e0:c1:c6:80:74:5e:4c:64:1c:c3:6a:a5:12:4a:b0:9a:
        66:f3:f9:65:b0:21:e0:1a:92:7f:49:8d:64:d4:c6:e2:44:4b:
        3b:1f:35:10:e2:9a:f7:92:0b:b6:b1:75:06:ba:fb:7a:15:85:
        0c:08:9b:99:15:ee:1d:a1:fd:95:6b:53:d6:d6:26:2c:42:78:
        91:f6:59:1b:06:74:33:2c:b6:c0:6b:8e:00:2b:56:bd:00:d8:
        40:3a:73:a9:e2:3a:3d:16:75:78:a8:ea:03:69:85:01:11:2d:
        80:46
-----BEGIN CERTIFICATE-----
MIICvDCCAiUCCQCbJ9fo0boJmjANBgkqhkiG9w0BAQQFADCBlTELMAkGA1UEBhMC
REUxETAPBgNVBAgTCFNhYXJsYW5kMRAwDgYDVQQKEwdNUEktU1dTMSIwIAYDVQQL
ExlEaXN0cmlidXRlZCBTeXN0ZW1zIEdyb3VwMRowGAYDVQQDExFBbmRyZWFzIEhh
ZWJlcmxlbjEhMB8GCSqGSIb3DQEJARYSZGVtb2NhQG9jdGFyaW5lLmRlMB4XDTE1
MDQyMDIwNDcxNloXDTE2MDQxOTIwNDcxNlowga4xCzAJBgNVBAYTAkRFMREwDwYD
VQQIEwhTYWFybGFuZDEQMA4GA1UEChMHTVBJLVNXUzEiMCAGA1UECxMZRGlzdHJp
YnV0ZWQgU3lzdGVtcyBHcm91cDExMC8GA1UEAxMoYjljMjM2ZmI1ZmU1NGZiZjVh
MTRkZDA5ODQ0Y2RlMTg4ZWJiNWE3YTEjMCEGCSqGSIb3DQEJARYUbm9kZTA0NTBA
b2N0YXJpbmUuZGUwgZ8wDQYJKoZIhvcNAQEBBQADgY0AMIGJAoGBANdrUoPVv35b
NkQELz80/bUwWWTGYXVgziYJhd0jWtwxtI+4DSuLmSGRBISkX8MHOhYZkmE8WyLA
ffqYJDBYBuzCJ8+QWdoHFTKGb1pm/gMf8rJkAEW19bs+7xxtkWIqfHCQ2x4doa9o
B7fOUiRVOY957bKcO4fbFAa0l3IEQAJhAgMBAAEwDQYJKoZIhvcNAQEEBQADgYEA
pnOLKQwLa/FJsFtCPDGjWQFeMmDgwcaAdF5MZBzDaqUSSrCaZvP5ZbAh4BqSf0mN
ZNTG4kRLOx81EOKa95ILtrF1Brr7ehWFDAibmRXuHaH9lWtT1tYmLEJ4kfZZGwZ0
Myy2wGuOACtWvQDYQDpzqeI6PRZ1eKjqA2mFAREtgEY=
-----END CERTIFICATE-----
