Certificate:
    Data:
        Version: 1 (0x0)
        Serial Number:
            9b:27:d7:e8:d1:ba:09:c5
        Signature Algorithm: md5WithRSAEncryption
        Issuer: C=DE, ST=Saarland, O=MPI-SWS, OU=Distributed Systems Group, CN=Andreas Haeberlen/emailAddress=democa@octarine.de
        Validity
            Not Before: Apr 20 20:47:18 2015 GMT
            Not After : Apr 19 20:47:18 2016 GMT
        Subject: C=DE, ST=Saarland, O=MPI-SWS, OU=Distributed Systems Group, CN=693c826fb9b13655837e57014a32ac815bedd4d9/emailAddress=node0493@octarine.de
        Subject Public Key Info:
            Public Key Algorithm: rsaEncryption
            RSA Public Key: (1024 bit)
                Modulus (1024 bit):
                    00:b7:5e:6a:d6:e9:57:0d:c3:b3:b2:29:9b:fb:9e:
                    ae:35:fa:7b:95:72:7c:e7:07:35:d9:35:cd:9d:cc:
                    c0:de:9c:48:b0:ab:82:70:87:3e:3f:78:c5:f4:db:
                    31:09:c9:d5:f8:1a:34:34:da:35:1d:5f:98:6c:88:
                    92:c1:ef:1f:fa:80:31:c1:c4:b0:17:19:e5:95:62:
                    8f:92:7f:64:ae:d7:99:7a:79:69:12:d5:2b:c3:83:
                    d2:f5:af:88:1f:ba:94:91:2b:0c:f2:07:2d:59:46:
                    51:32:57:fb:90:c8:e8:50:83:a6:ed:f5:41:74:bd:
                    ab:bb:75:2c:e5:40:71:8f:79
                Exponent: 65537 (0x10001)
    Signature Algorithm: md5WithRSAEncryption
        b3:d7:a6:ab:87:76:8d:1a:86:f4:7d:1f:85:f1:8e:45:ea:36:
        80:74:f5:db:a4:ba:26:30:66:27:7c:2e:c9:35:55:d4:2b:1e:
        25:32:32:c9:b0:53:29:b4:3d:e9:a2:ed:8d:3b:d4:67:3f:0a:
        b6:b5:26:17:0b:94:51:5c:f0:56:66:d8:d2:13:bb:05:50:fd:
        7d:9b:97:f5:be:9b:52:32:d8:26:ea:1d:82:a5:1f:66:58:68:
        33:a1:85:79:b4:dd:d5:73:9f:9f:68:2d:ee:6c:e7:43:ae:7c:
        f6:87:da:aa:9b:2a:1e:34:7e:69:9c:d9:05:fc:6a:cf:2c:1e:
        ea:e1
-----BEGIN CERTIFICATE-----
MIICvDCCAiUCCQCbJ9fo0boJxTANBgkqhkiG9w0BAQQFADCBlTELMAkGA1UEBhMC
REUxETAPBgNVBAgTCFNhYXJsYW5kMRAwDgYDVQQKEwdNUEktU1dTMSIwIAYDVQQL
ExlEaXN0cmlidXRlZCBTeXN0ZW1zIEdyb3VwMRowGAYDVQQDExFBbmRyZWFzIEhh
ZWJlcmxlbjEhMB8GCSqGSIb3DQEJARYSZGVtb2NhQG9jdGFyaW5lLmRlMB4XDTE1
MDQyMDIwNDcxOFoXDTE2MDQxOTIwNDcxOFowga4xCzAJBgNVBAYTAkRFMREwDwYD
VQQIEwhTYWFybGFuZDEQMA4GA1UEChMHTVBJLVNXUzEiMCAGA1UECxMZRGlzdHJp
YnV0ZWQgU3lzdGVtcyBHcm91cDExMC8GA1UEAxMoNjkzYzgyNmZiOWIxMzY1NTgz
N2U1NzAxNGEzMmFjODE1YmVkZDRkOTEjMCEGCSqGSIb3DQEJARYUbm9kZTA0OTNA
b2N0YXJpbmUuZGUwgZ8wDQYJKoZIhvcNAQEBBQADgY0AMIGJAoGBALdeatbpVw3D
s7Ipm/uerjX6e5VyfOcHNdk1zZ3MwN6cSLCrgnCHPj94xfTbMQnJ1fgaNDTaNR1f
mGyIksHvH/qAMcHEsBcZ5ZVij5J/ZK7XmXp5aRLVK8OD0vWviB+6lJErDPIHLVlG
UTJX+5DI6FCDpu31QXS9q7t1LOVAcY95AgMBAAEwDQYJKoZIhvcNAQEEBQADgYEA
s9emq4d2jRqG9H0fhfGOReo2gHT126S6JjBmJ3wuyTVV1CseJTIyybBTKbQ96aLt
jTvUZz8KtrUmFwuUUVzwVmbY0hO7BVD9fZuX9b6bUjLYJuodgqUfZlhoM6GFebTd
1XOfn2gt7mznQ6589ofaqpsqHjR+aZzZBfxqzywe6uE=
-----END CERTIFICATE-----
