Certificate:
    Data:
        Version: 1 (0x0)
        Serial Number:
            9b:27:d7:e8:d1:ba:0a:d9
        Signature Algorithm: md5WithRSAEncryption
        Issuer: C=DE, ST=Saarland, O=MPI-SWS, OU=Distributed Systems Group, CN=Andreas Haeberlen/emailAddress=democa@octarine.de
        Validity
            Not Before: Apr 20 20:47:31 2015 GMT
            Not After : Apr 19 20:47:31 2016 GMT
        Subject: C=DE, ST=Saarland, O=MPI-SWS, OU=Distributed Systems Group, CN=b129de11c17b148608ee7bdc39e77c33e5cb4dd1/emailAddress=node0769@octarine.de
        Subject Public Key Info:
            Public Key Algorithm: rsaEncryption
            RSA Public Key: (1024 bit)
                Modulus (1024 bit):
                    00:a8:ea:4b:df:53:e3:90:82:a4:f6:87:35:ba:ed:
                    ce:af:4d:4a:1f:94:39:3f:da:6c:a8:d4:38:f9:c2:
                    e3:3c:5a:ec:bf:59:7f:41:70:9b:06:ea:fa:82:2f:
                    4d:3f:28:c0:d6:76:59:db:1f:09:f3:71:bb:bb:70:
                    7b:cf:34:67:7f:bd:9b:69:0a:37:b4:9c:14:27:81:
                    47:9b:31:36:98:45:ae:b9:2f:dd:89:1e:b6:b0:62:
                    ce:21:bb:25:44:fc:31:74:ae:9e:01:e2:3f:7c:94:
                    ad:45:49:15:a8:48:4d:d3:54:c9:61:90:d0:b0:08:
                    6c:e9:fa:6f:c2:88:7a:83:e9
                Exponent: 65537 (0x10001)
    Signature Algorithm: md5WithRSAEncryption
        3f:bb:6e:37:90:17:9f:e3:58:23:9f:d6:f2:d1:ce:82:69:e0:
        62:db:9d:18:2f:e8:24:29:9b:af:b7:57:e8:5e:3d:ba:99:08:
        97:b9:ab:21:7e:00:89:cf:95:8b:1e:82:4b:e9:ce:7c:b6:46:
        e3:b2:0e:62:99:b2:31:19:5e:bc:cb:cd:1c:11:6c:8a:48:ae:
        61:75:48:24:02:87:87:0e:6f:22:bc:df:e7:03:ac:58:16:60:
        cf:de:01:4d:df:50:19:88:d5:de:f5:57:fb:f3:e0:aa:e0:32:
        be:0c:27:0b:a2:00:de:40:26:ed:b7:88:5b:51:67:40:f6:b0:
        d1:56
-----BEGIN CERTIFICATE-----
MIICvDCCAiUCCQCbJ9fo0boK2TANBgkqhkiG9w0BAQQFADCBlTELMAkGA1UEBhMC
REUxETAPBgNVBAgTCFNhYXJsYW5kMRAwDgYDVQQKEwdNUEktU1dTMSIwIAYDVQQL
ExlEaXN0cmlidXRlZCBTeXN0ZW1zIEdyb3VwMRowGAYDVQQDExFBbmRyZWFzIEhh
ZWJlcmxlbjEhMB8GCSqGSIb3DQEJARYSZGVtb2NhQG9jdGFyaW5lLmRlMB4XDTE1
MDQyMDIwNDczMVoXDTE2MDQxOTIwNDczMVowga4xCzAJBgNVBAYTAkRFMREwDwYD
VQQIEwhTYWFybGFuZDEQMA4GA1UEChMHTVBJLVNXUzEiMCAGA1UECxMZRGlzdHJp
YnV0ZWQgU3lzdGVtcyBHcm91cDExMC8GA1UEAxMoYjEyOWRlMTFjMTdiMTQ4NjA4
ZWU3YmRjMzllNzdjMzNlNWNiNGRkMTEjMCEGCSqGSIb3DQEJARYUbm9kZTA3NjlA
b2N0YXJpbmUuZGUwgZ8wDQYJKoZIhvcNAQEBBQADgY0AMIGJAoGBAKjqS99T45CC
pPaHNbrtzq9NSh+UOT/abKjUOPnC4zxa7L9Zf0Fwmwbq+oIvTT8owNZ2WdsfCfNx
u7twe880Z3+9m2kKN7ScFCeBR5sxNphFrrkv3YketrBiziG7JUT8MXSungHiP3yU
rUVJFahITdNUyWGQ0LAIbOn6b8KIeoPpAgMBAAEwDQYJKoZIhvcNAQEEBQADgYEA
P7tuN5AXn+NYI5/W8tHOgmngYtudGC/oJCmbr7dX6F49upkIl7mrIX4Aic+Vix6C
S+nOfLZG47IOYpmyMRlevMvNHBFsikiuYXVIJAKHhw5vIrzf5wOsWBZgz94BTd9Q
GYjV3vVX+/PgquAyvgwnC6IA3kAm7beIW1FnQPaw0VY=
-----END CERTIFICATE-----
