Certificate:
    Data:
        Version: 1 (0x0)
        Serial Number:
            9b:27:d7:e8:d1:ba:0b:bf
        Signature Algorithm: md5WithRSAEncryption
        Issuer: C=DE, ST=Saarland, O=MPI-SWS, OU=Distributed Systems Group, CN=Andreas Haeberlen/emailAddress=democa@octarine.de
        Validity
            Not Before: Apr 20 20:47:41 2015 GMT
            Not After : Apr 19 20:47:41 2016 GMT
        Subject: C=DE, ST=Saarland, O=MPI-SWS, OU=Distributed Systems Group, CN=62cf62591264070a25be46e764a7e6f48c4ff980/emailAddress=node0999@octarine.de
        Subject Public Key Info:
            Public Key Algorithm: rsaEncryption
            RSA Public Key: (1024 bit)
                Modulus (1024 bit):
                    00:c9:80:8a:aa:69:a8:31:21:1c:92:77:f7:62:75:
                    2b:e1:e2:a6:76:ee:19:9c:7b:32:2c:14:c1:1f:1f:
                    98:d4:6c:e3:d5:ea:d3:9d:03:01:10:c4:b8:24:e8:
                    21:2f:3b:23:77:78:45:94:22:d0:ab:59:57:f5:e8:
                    88:fb:dd:c2:9f:72:03:43:d7:12:0f:4f:62:19:35:
                    87:2f:51:42:95:fd:3a:71:18:d1:3b:d7:7d:55:33:
                    1e:9f:e2:63:61:ee:fc:85:95:48:c3:1a:e2:47:57:
                    e4:00:e6:96:77:23:24:64:39:df:66:bd:47:ac:0b:
                    41:af:b1:b3:fa:e5:53:cc:6d
                Exponent: 65537 (0x10001)
    Signature Algorithm: md5WithRSAEncryption
        73:74:e8:72:33:52:5a:d0:59:89:8f:a7:ce:a6:57:4e:b1:85:
        e1:04:1e:bc:a8:0a:98:2a:a1:5a:29:15:33:32:22:16:f9:1f:
        7c:19:e9:a1:e4:93:3e:72:85:49:d6:11:d6:76:e3:b8:a4:26:
        99:36:a5:87:bb:bf:20:f4:f4:ba:3e:ca:e5:0f:45:c9:98:cb:
        68:fa:b5:63:8b:18:72:e6:68:71:cd:44:03:9d:4e:c1:86:10:
        1c:90:80:0f:54:23:5e:7d:3c:df:0a:74:0b:25:68:a6:f6:f7:
        9f:5e:7b:cb:c7:06:66:93:6c:35:f4:7e:4d:8b:f1:71:01:c3:
        77:db
-----BEGIN CERTIFICATE-----
MIICvDCCAiUCCQCbJ9fo0boLvzANBgkqhkiG9w0BAQQFADCBlTELMAkGA1UEBhMC
REUxETAPBgNVBAgTCFNhYXJsYW5kMRAwDgYDVQQKEwdNUEktU1dTMSIwIAYDVQQL
ExlEaXN0cmlidXRlZCBTeXN0ZW1zIEdyb3VwMRowGAYDVQQDExFBbmRyZWFzIEhh
ZWJlcmxlbjEhMB8GCSqGSIb3DQEJARYSZGVtb2NhQG9jdGFyaW5lLmRlMB4XDTE1
MDQyMDIwNDc0MVoXDTE2MDQxOTIwNDc0MVowga4xCzAJBgNVBAYTAkRFMREwDwYD
VQQIEwhTYWFybGFuZDEQMA4GA1UEChMHTVBJLVNXUzEiMCAGA1UECxMZRGlzdHJp
YnV0ZWQgU3lzdGVtcyBHcm91cDExMC8GA1UEAxMoNjJjZjYyNTkxMjY0MDcwYTI1
YmU0NmU3NjRhN2U2ZjQ4YzRmZjk4MDEjMCEGCSqGSIb3DQEJARYUbm9kZTA5OTlA
b2N0YXJpbmUuZGUwgZ8wDQYJKoZIhvcNAQEBBQADgY0AMIGJAoGBAMmAiqppqDEh
HJJ392J1K+HipnbuGZx7MiwUwR8fmNRs49Xq050DARDEuCToIS87I3d4RZQi0KtZ
V/XoiPvdwp9yA0PXEg9PYhk1hy9RQpX9OnEY0TvXfVUzHp/iY2Hu/IWVSMMa4kdX
5ADmlncjJGQ532a9R6wLQa+xs/rlU8xtAgMBAAEwDQYJKoZIhvcNAQEEBQADgYEA
c3TocjNSWtBZiY+nzqZXTrGF4QQevKgKmCqhWikVMzIiFvkffBnpoeSTPnKFSdYR
1nbjuKQmmTalh7u/IPT0uj7K5Q9FyZjLaPq1Y4sYcuZocc1EA51OwYYQHJCAD1Qj
Xn083wp0CyVopvb3n157y8cGZpNsNfR+TYvxcQHDd9s=
-----END CERTIFICATE-----
