Certificate:
    Data:
        Version: 1 (0x0)
        Serial Number:
            9b:27:d7:e8:d1:ba:09:1c
        Signature Algorithm: md5WithRSAEncryption
        Issuer: C=DE, ST=Saarland, O=MPI-SWS, OU=Distributed Systems Group, CN=Andreas Haeberlen/emailAddress=democa@octarine.de
        Validity
            Not Before: Apr 20 20:47:11 2015 GMT
            Not After : Apr 19 20:47:11 2016 GMT
        Subject: C=DE, ST=Saarland, O=MPI-SWS, OU=Distributed Systems Group, CN=a0a5214facebe85b82e58bf8247c10fb0913a524/emailAddress=node0324@octarine.de
        Subject Public Key Info:
            Public Key Algorithm: rsaEncryption
            RSA Public Key: (1024 bit)
                Modulus (1024 bit):
                    00:b3:1d:c0:e0:b9:d5:8e:a5:af:3a:2c:ff:4e:cd:
                    dd:e0:e7:3c:11:03:79:db:22:8e:8e:84:22:14:d4:
                    25:30:55:66:0b:9e:86:a7:8d:ee:09:7c:1c:84:5c:
                    42:df:29:7a:f9:c0:eb:e9:64:c2:78:13:94:e4:7a:
                    15:ef:37:d9:77:f4:0f:7f:45:f5:f9:a8:f7:03:3c:
                    6c:14:fd:62:6b:15:3f:8a:e4:d4:18:dc:db:4b:2c:
                    b9:91:bc:1e:4d:28:57:21:11:51:e7:65:81:32:40:
                    f4:8b:20:b3:b9:c8:1b:6e:ab:ef:b1:9c:78:20:f3:
                    a1:43:4b:8c:1a:b5:b4:6d:a1
                Exponent: 65537 (0x10001)
    Signature Algorithm: md5WithRSAEncryption
        24:16:a0:84:c4:51:b4:a7:00:cf:dd:3e:03:ee:2d:93:24:43:
        a8:e3:4f:09:d3:e0:71:a6:21:cc:c0:13:a3:55:f9:65:b1:4e:
        8c:ac:60:6e:98:e5:72:a6:88:89:f9:37:0b:26:99:2b:28:f6:
        b7:b4:00:37:98:40:78:de:9b:b0:9d:d3:3b:04:0c:9a:4e:44:
        a5:bb:05:88:7d:9b:48:68:c7:67:6e:a6:15:01:65:a7:0c:87:
        09:3a:92:d1:9d:52:b6:26:1a:0a:19:82:64:18:98:4e:e7:00:
        f5:0b:1e:0e:8a:e3:8a:9f:5a:78:58:bd:62:83:d0:fb:30:12:
        2a:4e
-----BEGIN CERTIFICATE-----
MIICvDCCAiUCCQCbJ9fo0boJHDANBgkqhkiG9w0BAQQFADCBlTELMAkGA1UEBhMC
REUxETAPBgNVBAgTCFNhYXJsYW5kMRAwDgYDVQQKEwdNUEktU1dTMSIwIAYDVQQL
ExlEaXN0cmlidXRlZCBTeXN0ZW1zIEdyb3VwMRowGAYDVQQDExFBbmRyZWFzIEhh
ZWJlcmxlbjEhMB8GCSqGSIb3DQEJARYSZGVtb2NhQG9jdGFyaW5lLmRlMB4XDTE1
MDQyMDIwNDcxMVoXDTE2MDQxOTIwNDcxMVowga4xCzAJBgNVBAYTAkRFMREwDwYD
VQQIEwhTYWFybGFuZDEQMA4GA1UEChMHTVBJLVNXUzEiMCAGA1UECxMZRGlzdHJp
YnV0ZWQgU3lzdGVtcyBHcm91cDExMC8GA1UEAxMoYTBhNTIxNGZhY2ViZTg1Yjgy
ZTU4YmY4MjQ3YzEwZmIwOTEzYTUyNDEjMCEGCSqGSIb3DQEJARYUbm9kZTAzMjRA
b2N0YXJpbmUuZGUwgZ8wDQYJKoZIhvcNAQEBBQADgY0AMIGJAoGBALMdwOC51Y6l
rzos/07N3eDnPBEDedsijo6EIhTUJTBVZguehqeN7gl8HIRcQt8pevnA6+lkwngT
lOR6Fe832Xf0D39F9fmo9wM8bBT9YmsVP4rk1Bjc20ssuZG8Hk0oVyERUedlgTJA
9Isgs7nIG26r77GceCDzoUNLjBq1tG2hAgMBAAEwDQYJKoZIhvcNAQEEBQADgYEA
JBaghMRRtKcAz90+A+4tkyRDqONPCdPgcaYhzMATo1X5ZbFOjKxgbpjlcqaIifk3
CyaZKyj2t7QAN5hAeN6bsJ3TOwQMmk5EpbsFiH2bSGjHZ26mFQFlpwyHCTqS0Z1S
tiYaChmCZBiYTucA9QseDorjip9aeFi9YoPQ+zASKk4=
-----END CERTIFICATE-----
