Certificate:
    Data:
        Version: 1 (0x0)
        Serial Number:
            9b:27:d7:e8:d1:ba:08:74
        Signature Algorithm: md5WithRSAEncryption
        Issuer: C=DE, ST=Saarland, O=MPI-SWS, OU=Distributed Systems Group, CN=Andreas Haeberlen/emailAddress=democa@octarine.de
        Validity
            Not Before: Apr 20 20:47:03 2015 GMT
            Not After : Apr 19 20:47:03 2016 GMT
        Subject: C=DE, ST=Saarland, O=MPI-SWS, OU=Distributed Systems Group, CN=e26537d21a43f70c56bb760ea29630412a661482/emailAddress=node0156@octarine.de
        Subject Public Key Info:
            Public Key Algorithm: rsaEncryption
            RSA Public Key: (1024 bit)
                Modulus (1024 bit):
                    00:bd:71:90:2d:2b:2e:19:c7:18:e7:23:37:f2:73:
                    7d:ff:76:55:06:cf:36:9a:52:d4:75:e5:59:c1:a7:
                    7c:94:2c:81:94:5b:8d:9f:85:59:5e:06:22:62:69:
                    1b:da:b0:ed:9e:73:b7:2d:99:49:d6:00:40:63:eb:
                    be:ff:47:33:23:c8:45:18:a6:7f:af:51:f6:4d:38:
                    f8:7b:74:64:02:3d:a4:9c:1b:df:67:6e:9a:f4:df:
                    a2:a7:77:f9:eb:73:79:d2:f1:01:8e:86:63:7c:23:
                    21:17:dd:b2:80:b3:10:cc:fe:ae:41:e4:be:9a:4e:
                    99:3e:2c:0e:a9:77:b7:c7:71
                Exponent: 65537 (0x10001)
    Signature Algorithm: md5WithRSAEncryption
        31:3d:fa:9c:e8:07:d3:03:c0:c1:45:ff:0e:4a:e5:e8:d8:77:
        44:8d:91:01:31:20:66:51:51:ab:d6:ed:23:da:3c:e4:32:ad:
        0d:18:d0:47:2c:72:4e:a2:3e:88:0a:0b:f7:ed:97:90:c1:82:
        67:37:2c:f5:ac:c8:6b:3d:05:ab:30:7d:8b:f0:f7:22:0e:2d:
        0c:cb:9a:1d:65:74:ff:04:f4:22:1e:06:5c:3e:9f:a6:e9:5a:
        61:0d:bd:20:d5:d3:6b:62:ed:03:be:77:54:8d:66:2b:a2:f4:
        c1:e0:83:ac:0a:99:bd:c1:23:05:6d:db:9b:0a:0c:09:d9:a2:
        d6:0f
-----BEGIN CERTIFICATE-----
MIICvDCCAiUCCQCbJ9fo0boIdDANBgkqhkiG9w0BAQQFADCBlTELMAkGA1UEBhMC
REUxETAPBgNVBAgTCFNhYXJsYW5kMRAwDgYDVQQKEwdNUEktU1dTMSIwIAYDVQQL
ExlEaXN0cmlidXRlZCBTeXN0ZW1zIEdyb3VwMRowGAYDVQQDExFBbmRyZWFzIEhh
ZWJlcmxlbjEhMB8GCSqGSIb3DQEJARYSZGVtb2NhQG9jdGFyaW5lLmRlMB4XDTE1
MDQyMDIwNDcwM1oXDTE2MDQxOTIwNDcwM1owga4xCzAJBgNVBAYTAkRFMREwDwYD
VQQIEwhTYWFybGFuZDEQMA4GA1UEChMHTVBJLVNXUzEiMCAGA1UECxMZRGlzdHJp
YnV0ZWQgU3lzdGVtcyBHcm91cDExMC8GA1UEAxMoZTI2NTM3ZDIxYTQzZjcwYzU2
YmI3NjBlYTI5NjMwNDEyYTY2MTQ4MjEjMCEGCSqGSIb3DQEJARYUbm9kZTAxNTZA
b2N0YXJpbmUuZGUwgZ8wDQYJKoZIhvcNAQEBBQADgY0AMIGJAoGBAL1xkC0rLhnH
GOcjN/Jzff92VQbPNppS1HXlWcGnfJQsgZRbjZ+FWV4GImJpG9qw7Z5zty2ZSdYA
QGPrvv9HMyPIRRimf69R9k04+Ht0ZAI9pJwb32dumvTfoqd3+etzedLxAY6GY3wj
IRfdsoCzEMz+rkHkvppOmT4sDql3t8dxAgMBAAEwDQYJKoZIhvcNAQEEBQADgYEA
MT36nOgH0wPAwUX/Dkrl6Nh3RI2RATEgZlFRq9btI9o85DKtDRjQRyxyTqI+iAoL
9+2XkMGCZzcs9azIaz0FqzB9i/D3Ig4tDMuaHWV0/wT0Ih4GXD6fpulaYQ29INXT
a2LtA753VI1mK6L0weCDrAqZvcEjBW3bmwoMCdmi1g8=
-----END CERTIFICATE-----
