Certificate:
    Data:
        Version: 1 (0x0)
        Serial Number:
            9b:27:d7:e8:d1:ba:09:23
        Signature Algorithm: md5WithRSAEncryption
        Issuer: C=DE, ST=Saarland, O=MPI-SWS, OU=Distributed Systems Group, CN=Andreas Haeberlen/emailAddress=democa@octarine.de
        Validity
            Not Before: Apr 20 20:47:11 2015 GMT
            Not After : Apr 19 20:47:11 2016 GMT
        Subject: C=DE, ST=Saarland, O=MPI-SWS, OU=Distributed Systems Group, CN=1a04c7860370095ce3f4994295efdfcead364bd5/emailAddress=node0331@octarine.de
        Subject Public Key Info:
            Public Key Algorithm: rsaEncryption
            RSA Public Key: (1024 bit)
                Modulus (1024 bit):
                    00:de:ec:4b:90:6b:78:9b:75:f6:3b:d1:83:5c:9c:
                    74:cf:a8:de:03:79:de:4a:b2:01:b8:05:aa:38:ab:
                    42:2e:b3:b2:67:c8:95:11:f9:19:7d:34:4c:bb:38:
                    f1:20:ea:54:b2:e0:9b:58:c8:aa:53:73:92:da:fe:
                    8c:d9:e9:3e:4b:3a:32:c9:2c:54:5a:07:b5:1e:e1:
                    64:e7:64:98:ee:c1:7d:ef:c2:e3:83:ad:04:77:59:
                    b1:4f:57:0a:3e:90:3d:36:72:50:15:13:8d:93:75:
                    ad:bd:e5:a4:db:0c:c0:cb:b3:c5:31:c5:ef:79:c1:
                    a4:87:84:7c:15:df:c4:2d:59
                Exponent: 65537 (0x10001)
    Signature Algorithm: md5WithRSAEncryption
        1f:f9:9b:47:26:ea:97:86:99:84:25:3f:71:c7:df:41:ca:04:
        d0:a1:c3:40:0d:38:a5:c5:cd:9e:0e:63:29:62:c7:3f:29:3c:
        3f:e4:38:67:b9:e8:24:fe:ae:f9:d1:d6:c1:fd:40:ce:81:63:
        7b:11:61:1f:8a:a7:47:06:a3:6d:bc:7b:9f:8c:c1:99:6a:a7:
        74:40:5d:1f:82:6d:c2:24:6f:cd:8a:0d:cf:ac:26:ce:0b:4c:
        52:8d:c1:e5:cb:82:64:fd:fe:dc:e4:9a:8e:6b:af:6d:81:9e:
        e5:64:13:61:a9:2d:42:d2:76:9c:f3:fe:18:49:60:01:9a:88:
        bf:0c
-----BEGIN CERTIFICATE-----
MIICvDCCAiUCCQCbJ9fo0boJIzANBgkqhkiG9w0BAQQFADCBlTELMAkGA1UEBhMC
REUxETAPBgNVBAgTCFNhYXJsYW5kMRAwDgYDVQQKEwdNUEktU1dTMSIwIAYDVQQL
ExlEaXN0cmlidXRlZCBTeXN0ZW1zIEdyb3VwMRowGAYDVQQDExFBbmRyZWFzIEhh
ZWJlcmxlbjEhMB8GCSqGSIb3DQEJARYSZGVtb2NhQG9jdGFyaW5lLmRlMB4XDTE1
MDQyMDIwNDcxMVoXDTE2MDQxOTIwNDcxMVowga4xCzAJBgNVBAYTAkRFMREwDwYD
VQQIEwhTYWFybGFuZDEQMA4GA1UEChMHTVBJLVNXUzEiMCAGA1UECxMZRGlzdHJp
YnV0ZWQgU3lzdGVtcyBHcm91cDExMC8GA1UEAxMoMWEwNGM3ODYwMzcwMDk1Y2Uz
ZjQ5OTQyOTVlZmRmY2VhZDM2NGJkNTEjMCEGCSqGSIb3DQEJARYUbm9kZTAzMzFA
b2N0YXJpbmUuZGUwgZ8wDQYJKoZIhvcNAQEBBQADgY0AMIGJAoGBAN7sS5BreJt1
9jvRg1ycdM+o3gN53kqyAbgFqjirQi6zsmfIlRH5GX00TLs48SDqVLLgm1jIqlNz
ktr+jNnpPks6MsksVFoHtR7hZOdkmO7Bfe/C44OtBHdZsU9XCj6QPTZyUBUTjZN1
rb3lpNsMwMuzxTHF73nBpIeEfBXfxC1ZAgMBAAEwDQYJKoZIhvcNAQEEBQADgYEA
H/mbRybql4aZhCU/ccffQcoE0KHDQA04pcXNng5jKWLHPyk8P+Q4Z7noJP6u+dHW
wf1AzoFjexFhH4qnRwajbbx7n4zBmWqndEBdH4JtwiRvzYoNz6wmzgtMUo3B5cuC
ZP3+3OSajmuvbYGe5WQTYaktQtJ2nPP+GElgAZqIvww=
-----END CERTIFICATE-----
