Certificate:
    Data:
        Version: 1 (0x0)
        Serial Number:
            9b:27:d7:e8:d1:ba:0a:c5
        Signature Algorithm: md5WithRSAEncryption
        Issuer: C=DE, ST=Saarland, O=MPI-SWS, OU=Distributed Systems Group, CN=Andreas Haeberlen/emailAddress=democa@octarine.de
        Validity
            Not Before: Apr 20 20:47:30 2015 GMT
            Not After : Apr 19 20:47:30 2016 GMT
        Subject: C=DE, ST=Saarland, O=MPI-SWS, OU=Distributed Systems Group, CN=8a7ca9a5690cce6111b0208e3ab3b0c4b415dbb4/emailAddress=node0749@octarine.de
        Subject Public Key Info:
            Public Key Algorithm: rsaEncryption
            RSA Public Key: (1024 bit)
                Modulus (1024 bit):
                    00:ce:4f:bb:83:cb:c6:80:7d:6d:26:17:fe:08:0c:
                    c9:63:05:bb:aa:97:f4:bb:0c:9c:5f:84:24:20:fe:
                    4f:72:af:bf:f3:8c:fd:47:e2:ba:d1:86:0d:51:b4:
                    0f:aa:51:bf:7e:23:89:7a:d6:3c:9c:e2:4c:14:18:
                    78:14:ec:c9:72:e1:84:b5:b3:d9:a9:53:66:e2:4e:
                    4c:35:0f:b6:e4:07:a2:b9:1b:fb:8f:5a:23:34:4a:
                    ed:01:49:09:53:0f:6d:18:fe:6c:05:5e:18:49:ad:
                    50:fe:14:a4:7d:bc:91:82:0a:18:9f:4f:02:2e:51:
                    95:ce:de:67:30:41:45:0d:65
                Exponent: 65537 (0x10001)
    Signature Algorithm: md5WithRSAEncryption
        aa:d5:14:4b:c4:30:16:d3:e2:6a:2f:20:8d:97:d1:ba:39:6f:
        f4:c5:c8:f6:9d:6f:74:12:aa:02:cb:52:0e:8c:a0:c7:30:fa:
        06:d8:9b:d4:b5:6f:c5:ff:ab:7e:ac:ba:cb:93:c5:4d:0b:00:
        c4:9f:84:f8:bf:4d:17:a8:3e:08:74:b9:83:2e:c7:a7:1d:fc:
        b0:2c:85:39:aa:06:88:d7:c5:dd:0f:2a:8e:e1:0c:79:9c:cf:
        12:13:ae:a7:10:3b:0c:b8:30:c4:c9:a3:e8:c9:b3:5e:00:f6:
        cd:b3:8b:85:ad:5f:34:86:4b:88:f1:20:65:b5:47:d2:3f:06:
        f9:5b
-----BEGIN CERTIFICATE-----
MIICvDCCAiUCCQCbJ9fo0boKxTANBgkqhkiG9w0BAQQFADCBlTELMAkGA1UEBhMC
REUxETAPBgNVBAgTCFNhYXJsYW5kMRAwDgYDVQQKEwdNUEktU1dTMSIwIAYDVQQL
ExlEaXN0cmlidXRlZCBTeXN0ZW1zIEdyb3VwMRowGAYDVQQDExFBbmRyZWFzIEhh
ZWJlcmxlbjEhMB8GCSqGSIb3DQEJARYSZGVtb2NhQG9jdGFyaW5lLmRlMB4XDTE1
MDQyMDIwNDczMFoXDTE2MDQxOTIwNDczMFowga4xCzAJBgNVBAYTAkRFMREwDwYD
VQQIEwhTYWFybGFuZDEQMA4GA1UEChMHTVBJLVNXUzEiMCAGA1UECxMZRGlzdHJp
YnV0ZWQgU3lzdGVtcyBHcm91cDExMC8GA1UEAxMoOGE3Y2E5YTU2OTBjY2U2MTEx
YjAyMDhlM2FiM2IwYzRiNDE1ZGJiNDEjMCEGCSqGSIb3DQEJARYUbm9kZTA3NDlA
b2N0YXJpbmUuZGUwgZ8wDQYJKoZIhvcNAQEBBQADgY0AMIGJAoGBAM5Pu4PLxoB9
bSYX/ggMyWMFu6qX9LsMnF+EJCD+T3Kvv/OM/UfiutGGDVG0D6pRv34jiXrWPJzi
TBQYeBTsyXLhhLWz2alTZuJOTDUPtuQHorkb+49aIzRK7QFJCVMPbRj+bAVeGEmt
UP4UpH28kYIKGJ9PAi5Rlc7eZzBBRQ1lAgMBAAEwDQYJKoZIhvcNAQEEBQADgYEA
qtUUS8QwFtPiai8gjZfRujlv9MXI9p1vdBKqAstSDoygxzD6Btib1LVvxf+rfqy6
y5PFTQsAxJ+E+L9NF6g+CHS5gy7Hpx38sCyFOaoGiNfF3Q8qjuEMeZzPEhOupxA7
DLgwxMmj6MmzXgD2zbOLha1fNIZLiPEgZbVH0j8G+Vs=
-----END CERTIFICATE-----
