Certificate:
    Data:
        Version: 1 (0x0)
        Serial Number:
            9b:27:d7:e8:d1:ba:08:70
        Signature Algorithm: md5WithRSAEncryption
        Issuer: C=DE, ST=Saarland, O=MPI-SWS, OU=Distributed Systems Group, CN=Andreas Haeberlen/emailAddress=democa@octarine.de
        Validity
            Not Before: Apr 20 20:47:03 2015 GMT
            Not After : Apr 19 20:47:03 2016 GMT
        Subject: C=DE, ST=Saarland, O=MPI-SWS, OU=Distributed Systems Group, CN=c2743df4a707dd70ed81f5ed714296369aad7a11/emailAddress=node0152@octarine.de
        Subject Public Key Info:
            Public Key Algorithm: rsaEncryption
            RSA Public Key: (1024 bit)
                Modulus (1024 bit):
                    00:c5:8e:38:46:37:8f:50:b5:f9:b7:82:19:c3:09:
                    fc:aa:8d:54:e8:73:95:eb:fb:d5:28:34:96:38:37:
                    40:df:08:5c:1a:63:c7:49:a5:23:1c:27:70:eb:84:
                    99:05:e8:0e:ea:ea:dc:2d:4d:44:3d:6f:b1:a1:88:
                    0d:cc:22:b4:54:d1:37:b4:d4:51:ac:1e:e8:21:09:
                    5b:b6:0f:1c:26:6b:f9:bc:1f:88:63:1b:64:ec:91:
                    5c:41:a7:61:19:1c:06:37:58:58:50:cf:8e:43:b8:
                    8f:81:de:72:ef:bf:94:c4:f1:72:57:f4:9f:a3:51:
                    0b:22:c8:b7:36:f4:4c:08:e9
                Exponent: 65537 (0x10001)
    Signature Algorithm: md5WithRSAEncryption
        89:ad:6f:00:d0:ba:ab:c3:57:67:d7:3c:06:ad:70:ca:6f:11:
        ae:eb:20:b3:50:dd:3a:3f:79:6a:de:2f:16:ce:af:14:45:89:
        8f:d3:d9:a3:37:2e:78:ac:98:d5:3e:de:1e:3a:54:bf:48:35:
        64:0a:8d:eb:a3:20:32:31:16:dd:48:e8:a7:8d:e6:17:4c:e5:
        20:f9:51:70:b7:e7:be:49:f6:b7:92:52:38:c7:8a:6d:13:ba:
        02:47:ce:fa:b6:92:db:a9:40:e8:b4:b1:2c:b0:b4:37:a3:71:
        ed:a7:bf:cd:6d:f4:c9:62:5f:0f:5c:bc:b8:39:d7:bc:f5:1c:
        e4:28
-----BEGIN CERTIFICATE-----
MIICvDCCAiUCCQCbJ9fo0boIcDANBgkqhkiG9w0BAQQFADCBlTELMAkGA1UEBhMC
REUxETAPBgNVBAgTCFNhYXJsYW5kMRAwDgYDVQQKEwdNUEktU1dTMSIwIAYDVQQL
ExlEaXN0cmlidXRlZCBTeXN0ZW1zIEdyb3VwMRowGAYDVQQDExFBbmRyZWFzIEhh
ZWJlcmxlbjEhMB8GCSqGSIb3DQEJARYSZGVtb2NhQG9jdGFyaW5lLmRlMB4XDTE1
MDQyMDIwNDcwM1oXDTE2MDQxOTIwNDcwM1owga4xCzAJBgNVBAYTAkRFMREwDwYD
VQQIEwhTYWFybGFuZDEQMA4GA1UEChMHTVBJLVNXUzEiMCAGA1UECxMZRGlzdHJp
YnV0ZWQgU3lzdGVtcyBHcm91cDExMC8GA1UEAxMoYzI3NDNkZjRhNzA3ZGQ3MGVk
ODFmNWVkNzE0Mjk2MzY5YWFkN2ExMTEjMCEGCSqGSIb3DQEJARYUbm9kZTAxNTJA
b2N0YXJpbmUuZGUwgZ8wDQYJKoZIhvcNAQEBBQADgY0AMIGJAoGBAMWOOEY3j1C1
+beCGcMJ/KqNVOhzlev71Sg0ljg3QN8IXBpjx0mlIxwncOuEmQXoDurq3C1NRD1v
saGIDcwitFTRN7TUUawe6CEJW7YPHCZr+bwfiGMbZOyRXEGnYRkcBjdYWFDPjkO4
j4Hecu+/lMTxclf0n6NRCyLItzb0TAjpAgMBAAEwDQYJKoZIhvcNAQEEBQADgYEA
ia1vANC6q8NXZ9c8Bq1wym8Rrusgs1DdOj95at4vFs6vFEWJj9PZozcueKyY1T7e
HjpUv0g1ZAqN66MgMjEW3Ujop43mF0zlIPlRcLfnvkn2t5JSOMeKbRO6AkfO+raS
26lA6LSxLLC0N6Nx7ae/zW30yWJfD1y8uDnXvPUc5Cg=
-----END CERTIFICATE-----
