Certificate:
    Data:
        Version: 1 (0x0)
        Serial Number:
            9b:27:d7:e8:d1:ba:08:8f
        Signature Algorithm: md5WithRSAEncryption
        Issuer: C=DE, ST=Saarland, O=MPI-SWS, OU=Distributed Systems Group, CN=Andreas Haeberlen/emailAddress=democa@octarine.de
        Validity
            Not Before: Apr 20 20:47:05 2015 GMT
            Not After : Apr 19 20:47:05 2016 GMT
        Subject: C=DE, ST=Saarland, O=MPI-SWS, OU=Distributed Systems Group, CN=2f4f4a535c2a0f1755d90e2076fb71691b955e9b/emailAddress=node0183@octarine.de
        Subject Public Key Info:
            Public Key Algorithm: rsaEncryption
            RSA Public Key: (1024 bit)
                Modulus (1024 bit):
                    00:b5:a4:27:dd:53:6b:20:79:b2:75:85:29:a2:be:
                    11:1b:02:55:c1:f0:62:34:e2:83:0f:1a:fc:61:46:
                    9a:eb:af:2f:ba:aa:90:38:33:7e:0d:c7:d4:dc:62:
                    3e:59:7d:8e:92:5e:7e:a1:53:30:f9:9a:55:a1:f4:
                    12:ea:54:80:70:d1:eb:cd:65:56:af:51:cc:6a:e2:
                    fd:fe:f4:94:ba:b6:66:69:74:9b:6c:06:28:0c:81:
                    9c:ef:69:c6:63:b8:fb:b1:4a:3c:b7:50:b4:9b:01:
                    5e:e4:71:d9:60:e9:f0:ef:cc:d1:8c:2d:a8:40:e1:
                    d1:60:24:ee:75:fa:53:72:ef
                Exponent: 65537 (0x10001)
    Signature Algorithm: md5WithRSAEncryption
        9e:fa:c0:64:86:2d:ec:74:2d:a5:c8:fa:a7:7f:be:f0:b8:e3:
        dc:53:1f:81:b4:fc:64:87:de:e9:7c:29:3b:50:67:34:d6:ba:
        26:4a:2d:97:63:cb:f7:f4:4a:59:31:7e:ad:4c:a3:b8:b8:e3:
        3f:3c:b5:51:29:b9:1c:18:36:89:4f:cf:94:59:bd:4e:23:68:
        ad:80:8e:ca:75:24:34:b9:63:ff:15:f9:50:ec:7f:bf:1e:9e:
        75:3b:e2:79:06:00:56:ce:e8:dc:b4:26:08:4c:de:26:6d:81:
        69:00:28:8a:a7:d6:ba:cc:52:1c:81:68:89:ed:ad:36:61:cb:
        35:14
-----BEGIN CERTIFICATE-----
MIICvDCCAiUCCQCbJ9fo0boIjzANBgkqhkiG9w0BAQQFADCBlTELMAkGA1UEBhMC
REUxETAPBgNVBAgTCFNhYXJsYW5kMRAwDgYDVQQKEwdNUEktU1dTMSIwIAYDVQQL
ExlEaXN0cmlidXRlZCBTeXN0ZW1zIEdyb3VwMRowGAYDVQQDExFBbmRyZWFzIEhh
ZWJlcmxlbjEhMB8GCSqGSIb3DQEJARYSZGVtb2NhQG9jdGFyaW5lLmRlMB4XDTE1
MDQyMDIwNDcwNVoXDTE2MDQxOTIwNDcwNVowga4xCzAJBgNVBAYTAkRFMREwDwYD
VQQIEwhTYWFybGFuZDEQMA4GA1UEChMHTVBJLVNXUzEiMCAGA1UECxMZRGlzdHJp
YnV0ZWQgU3lzdGVtcyBHcm91cDExMC8GA1UEAxMoMmY0ZjRhNTM1YzJhMGYxNzU1
ZDkwZTIwNzZmYjcxNjkxYjk1NWU5YjEjMCEGCSqGSIb3DQEJARYUbm9kZTAxODNA
b2N0YXJpbmUuZGUwgZ8wDQYJKoZIhvcNAQEBBQADgY0AMIGJAoGBALWkJ91TayB5
snWFKaK+ERsCVcHwYjTigw8a/GFGmuuvL7qqkDgzfg3H1NxiPll9jpJefqFTMPma
VaH0EupUgHDR681lVq9RzGri/f70lLq2Zml0m2wGKAyBnO9pxmO4+7FKPLdQtJsB
XuRx2WDp8O/M0YwtqEDh0WAk7nX6U3LvAgMBAAEwDQYJKoZIhvcNAQEEBQADgYEA
nvrAZIYt7HQtpcj6p3++8Ljj3FMfgbT8ZIfe6XwpO1BnNNa6Jkotl2PL9/RKWTF+
rUyjuLjjPzy1USm5HBg2iU/PlFm9TiNorYCOynUkNLlj/xX5UOx/vx6edTvieQYA
Vs7o3LQmCEzeJm2BaQAoiqfWusxSHIFoie2tNmHLNRQ=
-----END CERTIFICATE-----
