Certificate:
    Data:
        Version: 1 (0x0)
        Serial Number:
            9b:27:d7:e8:d1:ba:09:7a
        Signature Algorithm: md5WithRSAEncryption
        Issuer: C=DE, ST=Saarland, O=MPI-SWS, OU=Distributed Systems Group, CN=Andreas Haeberlen/emailAddress=democa@octarine.de
        Validity
            Not Before: Apr 20 20:47:15 2015 GMT
            Not After : Apr 19 20:47:15 2016 GMT
        Subject: C=DE, ST=Saarland, O=MPI-SWS, OU=Distributed Systems Group, CN=1371c2a85fc3c7af382a84514a53a82bc9d9c822/emailAddress=node0418@octarine.de
        Subject Public Key Info:
            Public Key Algorithm: rsaEncryption
            RSA Public Key: (1024 bit)
                Modulus (1024 bit):
                    00:c8:36:ac:c9:38:a7:95:6a:3c:9f:74:a5:41:32:
                    f0:ac:5d:f4:b3:7f:1e:92:a3:fb:bf:c5:b7:4d:18:
                    93:9c:95:a6:09:8b:4c:7e:28:86:f3:6d:db:46:be:
                    e4:25:07:93:18:5d:36:d9:14:54:b4:3a:60:c9:4a:
                    82:19:ff:4e:17:6a:e2:ef:2e:41:54:75:38:da:eb:
                    e3:4c:b2:cb:2e:f4:07:63:8f:c9:4e:ea:bb:4a:c4:
                    12:a9:5a:33:3e:3b:2b:fe:33:50:62:84:3b:ef:fb:
                    55:07:11:b4:f8:7e:74:0a:10:30:77:b2:6c:cc:2a:
                    f3:9e:57:42:aa:bc:e6:6d:ef
                Exponent: 65537 (0x10001)
    Signature Algorithm: md5WithRSAEncryption
        65:ea:76:da:dd:82:4c:41:1e:01:ba:e1:20:87:e7:26:7d:35:
        b1:80:96:0d:1b:02:a0:bf:e4:94:22:98:4e:f2:b0:c3:06:35:
        49:8c:83:0f:62:4d:2a:b7:ff:f0:d1:a6:c1:5b:1b:32:57:82:
        0f:06:3a:8d:e7:36:36:c1:38:8d:c2:60:9e:c9:a7:b8:37:71:
        57:00:42:7d:b5:be:89:09:e2:c7:cb:c9:b9:1a:c8:18:57:32:
        b4:74:1a:7d:49:20:6f:06:50:df:da:3c:ae:63:2d:85:47:01:
        b0:a7:93:9e:b0:ad:8c:ff:25:ae:91:f8:ef:85:04:b6:9b:93:
        ce:8f
-----BEGIN CERTIFICATE-----
MIICvDCCAiUCCQCbJ9fo0boJejANBgkqhkiG9w0BAQQFADCBlTELMAkGA1UEBhMC
REUxETAPBgNVBAgTCFNhYXJsYW5kMRAwDgYDVQQKEwdNUEktU1dTMSIwIAYDVQQL
ExlEaXN0cmlidXRlZCBTeXN0ZW1zIEdyb3VwMRowGAYDVQQDExFBbmRyZWFzIEhh
ZWJlcmxlbjEhMB8GCSqGSIb3DQEJARYSZGVtb2NhQG9jdGFyaW5lLmRlMB4XDTE1
MDQyMDIwNDcxNVoXDTE2MDQxOTIwNDcxNVowga4xCzAJBgNVBAYTAkRFMREwDwYD
VQQIEwhTYWFybGFuZDEQMA4GA1UEChMHTVBJLVNXUzEiMCAGA1UECxMZRGlzdHJp
YnV0ZWQgU3lzdGVtcyBHcm91cDExMC8GA1UEAxMoMTM3MWMyYTg1ZmMzYzdhZjM4
MmE4NDUxNGE1M2E4MmJjOWQ5YzgyMjEjMCEGCSqGSIb3DQEJARYUbm9kZTA0MThA
b2N0YXJpbmUuZGUwgZ8wDQYJKoZIhvcNAQEBBQADgY0AMIGJAoGBAMg2rMk4p5Vq
PJ90pUEy8Kxd9LN/HpKj+7/Ft00Yk5yVpgmLTH4ohvNt20a+5CUHkxhdNtkUVLQ6
YMlKghn/Thdq4u8uQVR1ONrr40yyyy70B2OPyU7qu0rEEqlaMz47K/4zUGKEO+/7
VQcRtPh+dAoQMHeybMwq855XQqq85m3vAgMBAAEwDQYJKoZIhvcNAQEEBQADgYEA
Zep22t2CTEEeAbrhIIfnJn01sYCWDRsCoL/klCKYTvKwwwY1SYyDD2JNKrf/8NGm
wVsbMleCDwY6jec2NsE4jcJgnsmnuDdxVwBCfbW+iQnix8vJuRrIGFcytHQafUkg
bwZQ39o8rmMthUcBsKeTnrCtjP8lrpH474UEtpuTzo8=
-----END CERTIFICATE-----
