Certificate:
    Data:
        Version: 1 (0x0)
        Serial Number:
            9b:27:d7:e8:d1:ba:0b:11
        Signature Algorithm: md5WithRSAEncryption
        Issuer: C=DE, ST=Saarland, O=MPI-SWS, OU=Distributed Systems Group, CN=Andreas Haeberlen/emailAddress=democa@octarine.de
        Validity
            Not Before: Apr 20 20:47:33 2015 GMT
            Not After : Apr 19 20:47:33 2016 GMT
        Subject: C=DE, ST=Saarland, O=MPI-SWS, OU=Distributed Systems Group, CN=c543e2547626770e9b2d91f1d4f560326864bc82/emailAddress=node0825@octarine.de
        Subject Public Key Info:
            Public Key Algorithm: rsaEncryption
            RSA Public Key: (1024 bit)
                Modulus (1024 bit):
                    00:bc:a4:cf:d6:2c:6d:14:94:62:11:5e:ac:5d:6b:
                    3e:8f:75:50:d3:99:72:10:b5:46:d2:f6:af:60:f7:
                    67:69:d7:19:ff:e2:e3:9d:83:c3:c6:a7:96:87:89:
                    df:62:c1:2b:51:86:10:99:4e:34:98:50:c1:db:8e:
                    dc:30:8a:97:18:34:73:ac:ae:21:e3:10:ab:59:3b:
                    5c:2d:53:0b:fe:8b:14:80:0d:7b:f4:08:bb:0d:80:
                    3f:65:3f:fb:0e:ba:93:b8:be:55:bd:2d:8e:98:0c:
                    4e:0b:5c:64:ff:7e:5d:c3:11:f7:c6:85:a9:22:24:
                    a5:af:95:6f:54:d6:fa:f1:23
                Exponent: 65537 (0x10001)
    Signature Algorithm: md5WithRSAEncryption
        8e:df:f2:49:00:4f:b0:b4:c9:48:f4:48:1f:f1:f9:4c:ff:cc:
        91:8c:b6:54:79:0a:69:bc:07:93:73:9e:c9:c3:c8:0c:72:f1:
        cd:b4:be:11:2f:8e:cd:2f:84:40:32:fd:02:73:8e:98:61:e7:
        43:21:d3:e6:1e:ee:8a:af:16:e9:0d:ad:2f:92:4e:64:52:52:
        ec:ed:87:de:41:5d:89:49:eb:2e:4b:3d:63:eb:f9:c4:a2:dd:
        7d:a8:53:74:c8:8e:fe:7a:26:92:61:82:d4:ee:b4:74:5c:6c:
        df:2b:3e:d9:2a:ac:b1:13:aa:21:6a:5c:4b:01:bf:ae:46:5f:
        55:f2
-----BEGIN CERTIFICATE-----
MIICvDCCAiUCCQCbJ9fo0boLETANBgkqhkiG9w0BAQQFADCBlTELMAkGA1UEBhMC
REUxETAPBgNVBAgTCFNhYXJsYW5kMRAwDgYDVQQKEwdNUEktU1dTMSIwIAYDVQQL
ExlEaXN0cmlidXRlZCBTeXN0ZW1zIEdyb3VwMRowGAYDVQQDExFBbmRyZWFzIEhh
ZWJlcmxlbjEhMB8GCSqGSIb3DQEJARYSZGVtb2NhQG9jdGFyaW5lLmRlMB4XDTE1
MDQyMDIwNDczM1oXDTE2MDQxOTIwNDczM1owga4xCzAJBgNVBAYTAkRFMREwDwYD
VQQIEwhTYWFybGFuZDEQMA4GA1UEChMHTVBJLVNXUzEiMCAGA1UECxMZRGlzdHJp
YnV0ZWQgU3lzdGVtcyBHcm91cDExMC8GA1UEAxMoYzU0M2UyNTQ3NjI2NzcwZTli
MmQ5MWYxZDRmNTYwMzI2ODY0YmM4MjEjMCEGCSqGSIb3DQEJARYUbm9kZTA4MjVA
b2N0YXJpbmUuZGUwgZ8wDQYJKoZIhvcNAQEBBQADgY0AMIGJAoGBALykz9YsbRSU
YhFerF1rPo91UNOZchC1RtL2r2D3Z2nXGf/i452Dw8anloeJ32LBK1GGEJlONJhQ
wduO3DCKlxg0c6yuIeMQq1k7XC1TC/6LFIANe/QIuw2AP2U/+w66k7i+Vb0tjpgM
TgtcZP9+XcMR98aFqSIkpa+Vb1TW+vEjAgMBAAEwDQYJKoZIhvcNAQEEBQADgYEA
jt/ySQBPsLTJSPRIH/H5TP/MkYy2VHkKabwHk3OeycPIDHLxzbS+ES+OzS+EQDL9
AnOOmGHnQyHT5h7uiq8W6Q2tL5JOZFJS7O2H3kFdiUnrLks9Y+v5xKLdfahTdMiO
/nomkmGC1O60dFxs3ys+2SqssROqIWpcSwG/rkZfVfI=
-----END CERTIFICATE-----
