Certificate:
    Data:
        Version: 1 (0x0)
        Serial Number:
            9b:27:d7:e8:d1:ba:09:99
        Signature Algorithm: md5WithRSAEncryption
        Issuer: C=DE, ST=Saarland, O=MPI-SWS, OU=Distributed Systems Group, CN=Andreas Haeberlen/emailAddress=democa@octarine.de
        Validity
            Not Before: Apr 20 20:47:16 2015 GMT
            Not After : Apr 19 20:47:16 2016 GMT
        Subject: C=DE, ST=Saarland, O=MPI-SWS, OU=Distributed Systems Group, CN=b9f8e85f0208799c8f02f516b5f1f2cbcb3a4894/emailAddress=node0449@octarine.de
        Subject Public Key Info:
            Public Key Algorithm: rsaEncryption
            RSA Public Key: (1024 bit)
                Modulus (1024 bit):
                    00:a1:c3:82:20:14:c0:ea:39:48:ac:eb:c2:ae:37:
                    33:4a:ba:58:21:4b:0b:0c:fd:84:93:7e:6f:63:60:
                    f9:6b:56:54:c1:2a:3e:15:8a:cd:b9:8d:b7:99:cf:
                    cb:75:b2:b1:f6:c1:3d:fd:07:55:b5:ff:4d:5a:5d:
                    ef:65:16:4a:28:e5:55:3f:50:66:f1:ca:37:41:3c:
                    a0:b3:3c:4a:c5:ca:f0:8f:e3:ab:79:c6:5e:c7:05:
                    a4:ba:76:ba:64:b4:f8:62:22:a7:d2:c4:cc:a3:7d:
                    a4:87:32:c7:e6:c9:dd:05:8f:a3:32:a8:d0:52:0d:
                    55:de:25:44:e7:35:60:a4:27
                Exponent: 65537 (0x10001)
    Signature Algorithm: md5WithRSAEncryption
        45:84:1e:1e:37:40:d1:e0:37:3f:83:11:2d:6a:73:b0:4b:33:
        3e:10:40:bc:f8:bf:61:f1:fb:76:80:17:5a:f8:76:66:2b:77:
        3e:d4:9a:78:60:79:44:0f:64:5b:91:af:f6:54:49:52:ed:d9:
        b1:4c:b1:69:a6:e6:1e:ca:c5:cb:02:d5:80:ee:06:4f:ac:89:
        5c:77:3c:d1:1f:37:ee:35:bb:17:c0:96:98:ee:9a:f2:28:f7:
        59:27:15:fc:66:bf:83:ec:81:e4:09:d9:de:b5:a2:39:2f:20:
        f7:b7:a3:e8:ee:80:a5:37:9d:5d:ef:2f:bd:ed:a4:77:71:d7:
        e4:65
-----BEGIN CERTIFICATE-----
MIICvDCCAiUCCQCbJ9fo0boJmTANBgkqhkiG9w0BAQQFADCBlTELMAkGA1UEBhMC
REUxETAPBgNVBAgTCFNhYXJsYW5kMRAwDgYDVQQKEwdNUEktU1dTMSIwIAYDVQQL
ExlEaXN0cmlidXRlZCBTeXN0ZW1zIEdyb3VwMRowGAYDVQQDExFBbmRyZWFzIEhh
ZWJlcmxlbjEhMB8GCSqGSIb3DQEJARYSZGVtb2NhQG9jdGFyaW5lLmRlMB4XDTE1
MDQyMDIwNDcxNloXDTE2MDQxOTIwNDcxNlowga4xCzAJBgNVBAYTAkRFMREwDwYD
VQQIEwhTYWFybGFuZDEQMA4GA1UEChMHTVBJLVNXUzEiMCAGA1UECxMZRGlzdHJp
YnV0ZWQgU3lzdGVtcyBHcm91cDExMC8GA1UEAxMoYjlmOGU4NWYwMjA4Nzk5Yzhm
MDJmNTE2YjVmMWYyY2JjYjNhNDg5NDEjMCEGCSqGSIb3DQEJARYUbm9kZTA0NDlA
b2N0YXJpbmUuZGUwgZ8wDQYJKoZIhvcNAQEBBQADgY0AMIGJAoGBAKHDgiAUwOo5
SKzrwq43M0q6WCFLCwz9hJN+b2Ng+WtWVMEqPhWKzbmNt5nPy3WysfbBPf0HVbX/
TVpd72UWSijlVT9QZvHKN0E8oLM8SsXK8I/jq3nGXscFpLp2umS0+GIip9LEzKN9
pIcyx+bJ3QWPozKo0FINVd4lROc1YKQnAgMBAAEwDQYJKoZIhvcNAQEEBQADgYEA
RYQeHjdA0eA3P4MRLWpzsEszPhBAvPi/YfH7doAXWvh2Zit3PtSaeGB5RA9kW5Gv
9lRJUu3ZsUyxaabmHsrFywLVgO4GT6yJXHc80R837jW7F8CWmO6a8ij3WScV/Ga/
g+yB5AnZ3rWiOS8g97ej6O6ApTedXe8vve2kd3HX5GU=
-----END CERTIFICATE-----
