Certificate:
    Data:
        Version: 1 (0x0)
        Serial Number:
            9b:27:d7:e8:d1:ba:0b:2b
        Signature Algorithm: md5WithRSAEncryption
        Issuer: C=DE, ST=Saarland, O=MPI-SWS, OU=Distributed Systems Group, CN=Andreas Haeberlen/emailAddress=democa@octarine.de
        Validity
            Not Before: Apr 20 20:47:34 2015 GMT
            Not After : Apr 19 20:47:34 2016 GMT
        Subject: C=DE, ST=Saarland, O=MPI-SWS, OU=Distributed Systems Group, CN=e0ace63cc33605051cdc16a968fb04bf45b2bef7/emailAddress=node0851@octarine.de
        Subject Public Key Info:
            Public Key Algorithm: rsaEncryption
            RSA Public Key: (1024 bit)
                Modulus (1024 bit):
                    00:ac:69:34:1d:e8:0b:52:d0:f5:29:ca:86:28:d8:
                    9c:c7:68:b4:0d:f9:12:f0:46:c3:7b:fb:6a:66:40:
                    d2:79:9d:a4:dc:e4:59:13:63:02:32:a7:d7:6f:43:
                    cc:56:61:a3:4f:8b:23:10:74:f9:a1:4e:ed:29:81:
                    8a:4a:d1:98:9e:5c:08:75:1f:4f:ec:77:87:f3:15:
                    fe:7b:e2:44:e7:21:5a:ae:7e:3d:a5:11:14:9d:c1:
                    de:60:8c:a6:fd:6f:3a:05:eb:cb:7b:b4:ca:7b:8b:
                    06:e2:20:bf:aa:5b:7a:61:ba:91:01:a6:99:c2:64:
                    68:4f:ec:de:bd:a2:8f:ba:8d
                Exponent: 65537 (0x10001)
    Signature Algorithm: md5WithRSAEncryption
        2d:40:f1:b6:28:3f:55:40:9d:22:db:d1:42:94:e1:df:a5:ab:
        48:03:94:55:37:7f:61:d1:0a:6e:bd:5b:3b:b3:99:aa:fb:92:
        b9:53:a6:2f:b7:6b:25:0d:cb:14:e6:80:23:02:5f:82:2e:a3:
        42:df:fe:46:6f:7b:22:cc:85:53:68:51:95:e7:f0:7e:08:ad:
        2a:d3:c4:29:fa:a3:0d:cb:b0:46:eb:80:d0:a1:13:11:ef:36:
        53:0b:26:9f:4d:a8:0a:dd:70:d4:c1:12:57:74:55:f6:9f:4a:
        83:e2:2f:82:fb:44:88:c9:db:c6:59:7a:d6:c5:04:03:5e:ad:
        61:f4
-----BEGIN CERTIFICATE-----
MIICvDCCAiUCCQCbJ9fo0boLKzANBgkqhkiG9w0BAQQFADCBlTELMAkGA1UEBhMC
REUxETAPBgNVBAgTCFNhYXJsYW5kMRAwDgYDVQQKEwdNUEktU1dTMSIwIAYDVQQL
ExlEaXN0cmlidXRlZCBTeXN0ZW1zIEdyb3VwMRowGAYDVQQDExFBbmRyZWFzIEhh
ZWJlcmxlbjEhMB8GCSqGSIb3DQEJARYSZGVtb2NhQG9jdGFyaW5lLmRlMB4XDTE1
MDQyMDIwNDczNFoXDTE2MDQxOTIwNDczNFowga4xCzAJBgNVBAYTAkRFMREwDwYD
VQQIEwhTYWFybGFuZDEQMA4GA1UEChMHTVBJLVNXUzEiMCAGA1UECxMZRGlzdHJp
YnV0ZWQgU3lzdGVtcyBHcm91cDExMC8GA1UEAxMoZTBhY2U2M2NjMzM2MDUwNTFj
ZGMxNmE5NjhmYjA0YmY0NWIyYmVmNzEjMCEGCSqGSIb3DQEJARYUbm9kZTA4NTFA
b2N0YXJpbmUuZGUwgZ8wDQYJKoZIhvcNAQEBBQADgY0AMIGJAoGBAKxpNB3oC1LQ
9SnKhijYnMdotA35EvBGw3v7amZA0nmdpNzkWRNjAjKn129DzFZho0+LIxB0+aFO
7SmBikrRmJ5cCHUfT+x3h/MV/nviROchWq5+PaURFJ3B3mCMpv1vOgXry3u0ynuL
BuIgv6pbemG6kQGmmcJkaE/s3r2ij7qNAgMBAAEwDQYJKoZIhvcNAQEEBQADgYEA
LUDxtig/VUCdItvRQpTh36WrSAOUVTd/YdEKbr1bO7OZqvuSuVOmL7drJQ3LFOaA
IwJfgi6jQt/+Rm97IsyFU2hRlefwfgitKtPEKfqjDcuwRuuA0KETEe82Uwsmn02o
Ct1w1MESV3RV9p9Kg+IvgvtEiMnbxll61sUEA16tYfQ=
-----END CERTIFICATE-----
