Certificate:
    Data:
        Version: 1 (0x0)
        Serial Number:
            9b:27:d7:e8:d1:ba:0b:95
        Signature Algorithm: md5WithRSAEncryption
        Issuer: C=DE, ST=Saarland, O=MPI-SWS, OU=Distributed Systems Group, CN=Andreas Haeberlen/emailAddress=democa@octarine.de
        Validity
            Not Before: Apr 20 20:47:39 2015 GMT
            Not After : Apr 19 20:47:39 2016 GMT
        Subject: C=DE, ST=Saarland, O=MPI-SWS, OU=Distributed Systems Group, CN=d61c75aea1790a8fa2634faf49a4de1a436c91b3/emailAddress=node0957@octarine.de
        Subject Public Key Info:
            Public Key Algorithm: rsaEncryption
            RSA Public Key: (1024 bit)
                Modulus (1024 bit):
                    00:dd:8f:47:51:41:0f:f2:38:6b:21:58:ec:ca:0b:
                    c9:c5:a0:03:51:8f:4a:18:68:ba:12:0c:b3:24:21:
                    6e:61:dd:f1:25:b7:0d:2b:d2:b9:3e:f7:1e:30:df:
                    bb:38:c8:db:3d:e5:3f:05:a1:e6:d0:6f:e2:63:82:
                    c9:0e:4f:a9:12:0f:e3:68:85:1a:c9:bf:82:f0:6b:
                    86:1d:f5:75:a1:3c:d9:4f:d1:3c:07:24:9f:31:b4:
                    7b:c0:c0:27:99:a2:18:f8:2a:30:bc:79:36:28:91:
                    76:b4:96:88:19:94:bb:b1:9a:65:41:c6:38:7d:2f:
                    2a:e4:a3:fd:d6:25:2d:35:f9
                Exponent: 65537 (0x10001)
    Signature Algorithm: md5WithRSAEncryption
        3d:22:14:a1:05:14:7d:96:59:b9:48:53:a6:1f:02:8f:0b:34:
        ab:27:58:0a:3a:9c:bc:49:ce:fc:03:df:f9:92:e5:03:2d:34:
        27:d2:54:e4:6c:df:0c:77:14:b5:71:28:d0:db:be:32:af:6c:
        51:3f:33:b6:24:e6:3b:ce:5a:b1:5b:60:a4:5a:fa:50:24:da:
        08:2a:49:8a:64:51:4d:ce:25:df:29:33:fc:bb:f8:4c:b4:55:
        a8:b7:65:cb:25:7d:c0:f3:fd:d2:44:39:40:5c:15:da:56:67:
        92:b5:7a:fc:2f:8f:02:84:cc:5d:fd:0d:fe:6b:a4:5e:c5:4e:
        cc:98
-----BEGIN CERTIFICATE-----
MIICvDCCAiUCCQCbJ9fo0boLlTANBgkqhkiG9w0BAQQFADCBlTELMAkGA1UEBhMC
REUxETAPBgNVBAgTCFNhYXJsYW5kMRAwDgYDVQQKEwdNUEktU1dTMSIwIAYDVQQL
ExlEaXN0cmlidXRlZCBTeXN0ZW1zIEdyb3VwMRowGAYDVQQDExFBbmRyZWFzIEhh
ZWJlcmxlbjEhMB8GCSqGSIb3DQEJARYSZGVtb2NhQG9jdGFyaW5lLmRlMB4XDTE1
MDQyMDIwNDczOVoXDTE2MDQxOTIwNDczOVowga4xCzAJBgNVBAYTAkRFMREwDwYD
VQQIEwhTYWFybGFuZDEQMA4GA1UEChMHTVBJLVNXUzEiMCAGA1UECxMZRGlzdHJp
YnV0ZWQgU3lzdGVtcyBHcm91cDExMC8GA1UEAxMoZDYxYzc1YWVhMTc5MGE4ZmEy
NjM0ZmFmNDlhNGRlMWE0MzZjOTFiMzEjMCEGCSqGSIb3DQEJARYUbm9kZTA5NTdA
b2N0YXJpbmUuZGUwgZ8wDQYJKoZIhvcNAQEBBQADgY0AMIGJAoGBAN2PR1FBD/I4
ayFY7MoLycWgA1GPShhouhIMsyQhbmHd8SW3DSvSuT73HjDfuzjI2z3lPwWh5tBv
4mOCyQ5PqRIP42iFGsm/gvBrhh31daE82U/RPAcknzG0e8DAJ5miGPgqMLx5NiiR
drSWiBmUu7GaZUHGOH0vKuSj/dYlLTX5AgMBAAEwDQYJKoZIhvcNAQEEBQADgYEA
PSIUoQUUfZZZuUhTph8Cjws0qydYCjqcvEnO/APf+ZLlAy00J9JU5GzfDHcUtXEo
0Nu+Mq9sUT8ztiTmO85asVtgpFr6UCTaCCpJimRRTc4l3ykz/Lv4TLRVqLdlyyV9
wPP90kQ5QFwV2lZnkrV6/C+PAoTMXf0N/mukXsVOzJg=
-----END CERTIFICATE-----
