Certificate:
    Data:
        Version: 1 (0x0)
        Serial Number:
            9b:27:d7:e8:d1:ba:0a:3b
        Signature Algorithm: md5WithRSAEncryption
        Issuer: C=DE, ST=Saarland, O=MPI-SWS, OU=Distributed Systems Group, CN=Andreas Haeberlen/emailAddress=democa@octarine.de
        Validity
            Not Before: Apr 20 20:47:24 2015 GMT
            Not After : Apr 19 20:47:24 2016 GMT
        Subject: C=DE, ST=Saarland, O=MPI-SWS, OU=Distributed Systems Group, CN=c63ef18e13d69efd6d9aea73745f2e5e49d3b51c/emailAddress=node0611@octarine.de
        Subject Public Key Info:
            Public Key Algorithm: rsaEncryption
            RSA Public Key: (1024 bit)
                Modulus (1024 bit):
                    00:d0:49:70:71:2b:21:a8:de:1b:38:1f:80:b1:07:
                    83:35:4a:08:bb:85:b1:4d:bb:fc:f8:4c:63:10:64:
                    44:96:68:3b:03:fa:f8:16:4b:8e:70:e3:87:20:31:
                    08:30:97:5e:2a:6e:fc:65:a9:26:2e:32:2e:f8:bd:
                    bc:cd:8a:09:36:2a:04:ed:22:d7:6b:c0:70:26:ca:
                    db:b9:a0:b8:6a:ee:c1:10:71:62:30:bd:6c:35:26:
                    66:7d:58:80:7f:d2:f4:82:66:f0:6b:c6:6c:6a:4a:
                    0f:63:9d:c5:08:a9:c5:f8:b3:da:b7:4e:af:a9:7b:
                    7f:86:b2:81:2b:07:1a:e3:55
                Exponent: 65537 (0x10001)
    Signature Algorithm: md5WithRSAEncryption
        51:7d:4f:48:44:4a:3d:da:1b:f5:e7:69:5b:1c:ee:f5:d2:3b:
        15:83:e3:8d:9d:0a:28:28:96:a2:66:7b:f3:3c:7b:b2:b9:bb:
        50:54:87:0c:53:47:21:a7:b1:d7:f9:26:fc:d3:1b:4c:5f:0c:
        58:19:c2:78:32:ad:61:03:cb:db:31:52:32:bb:28:d7:ea:dd:
        85:76:f3:63:ae:c0:0a:e4:1c:10:5f:ea:4f:9f:e6:9f:bc:24:
        ac:04:e5:1f:e0:3d:51:94:22:98:03:92:65:4c:2f:79:1b:0c:
        91:cf:a0:52:39:2b:cd:8b:83:41:db:1d:06:cc:00:c5:85:07:
        3f:f2
-----BEGIN CERTIFICATE-----
MIICvDCCAiUCCQCbJ9fo0boKOzANBgkqhkiG9w0BAQQFADCBlTELMAkGA1UEBhMC
REUxETAPBgNVBAgTCFNhYXJsYW5kMRAwDgYDVQQKEwdNUEktU1dTMSIwIAYDVQQL
ExlEaXN0cmlidXRlZCBTeXN0ZW1zIEdyb3VwMRowGAYDVQQDExFBbmRyZWFzIEhh
ZWJlcmxlbjEhMB8GCSqGSIb3DQEJARYSZGVtb2NhQG9jdGFyaW5lLmRlMB4XDTE1
MDQyMDIwNDcyNFoXDTE2MDQxOTIwNDcyNFowga4xCzAJBgNVBAYTAkRFMREwDwYD
VQQIEwhTYWFybGFuZDEQMA4GA1UEChMHTVBJLVNXUzEiMCAGA1UECxMZRGlzdHJp
YnV0ZWQgU3lzdGVtcyBHcm91cDExMC8GA1UEAxMoYzYzZWYxOGUxM2Q2OWVmZDZk
OWFlYTczNzQ1ZjJlNWU0OWQzYjUxYzEjMCEGCSqGSIb3DQEJARYUbm9kZTA2MTFA
b2N0YXJpbmUuZGUwgZ8wDQYJKoZIhvcNAQEBBQADgY0AMIGJAoGBANBJcHErIaje
GzgfgLEHgzVKCLuFsU27/PhMYxBkRJZoOwP6+BZLjnDjhyAxCDCXXipu/GWpJi4y
Lvi9vM2KCTYqBO0i12vAcCbK27mguGruwRBxYjC9bDUmZn1YgH/S9IJm8GvGbGpK
D2OdxQipxfiz2rdOr6l7f4aygSsHGuNVAgMBAAEwDQYJKoZIhvcNAQEEBQADgYEA
UX1PSERKPdob9edpWxzu9dI7FYPjjZ0KKCiWomZ78zx7srm7UFSHDFNHIaex1/km
/NMbTF8MWBnCeDKtYQPL2zFSMrso1+rdhXbzY67ACuQcEF/qT5/mn7wkrATlH+A9
UZQimAOSZUwveRsMkc+gUjkrzYuDQdsdBswAxYUHP/I=
-----END CERTIFICATE-----
