Certificate:
    Data:
        Version: 1 (0x0)
        Serial Number:
            9b:27:d7:e8:d1:ba:0a:d4
        Signature Algorithm: md5WithRSAEncryption
        Issuer: C=DE, ST=Saarland, O=MPI-SWS, OU=Distributed Systems Group, CN=Andreas Haeberlen/emailAddress=democa@octarine.de
        Validity
            Not Before: Apr 20 20:47:31 2015 GMT
            Not After : Apr 19 20:47:31 2016 GMT
        Subject: C=DE, ST=Saarland, O=MPI-SWS, OU=Distributed Systems Group, CN=ca22104d4d97bce044eaf649aa8ebf17939b4e88/emailAddress=node0764@octarine.de
        Subject Public Key Info:
            Public Key Algorithm: rsaEncryption
            RSA Public Key: (1024 bit)
                Modulus (1024 bit):
                    00:a3:c6:c9:96:09:01:da:e8:19:17:40:d4:2b:91:
                    35:14:86:df:45:f9:15:a1:5d:f3:d0:40:19:97:54:
                    56:5f:2f:5e:d9:9f:03:0a:01:2d:a1:11:70:f1:fd:
                    cc:82:9a:bf:64:86:0c:97:dd:41:72:db:fb:b1:5c:
                    a4:5d:d8:80:ae:6d:30:56:eb:cb:e1:05:ba:32:ff:
                    89:f2:1d:d7:d9:3c:eb:5e:ea:03:82:2b:cb:56:07:
                    1d:85:65:9f:45:b7:a6:7e:de:e2:f3:c5:bc:86:35:
                    b6:16:02:6c:f0:b3:0c:87:72:b4:74:98:b4:76:cb:
                    15:ab:98:94:39:08:b6:b9:eb
                Exponent: 65537 (0x10001)
    Signature Algorithm: md5WithRSAEncryption
        8e:61:b5:4e:a8:40:10:88:a1:c8:f1:45:30:4e:26:e2:25:f4:
        ae:1b:71:8f:41:a5:e7:8c:59:b0:c1:ad:f4:86:bb:19:49:28:
        11:50:10:e1:5b:99:7a:bb:e8:f9:02:90:58:dd:72:a0:2c:13:
        60:1f:97:56:1b:3e:95:25:a6:4c:51:70:11:99:b4:86:fd:a6:
        77:d9:b8:ff:4b:88:f2:7c:9b:15:ea:17:8b:ec:c5:f6:9f:97:
        a4:03:db:d4:3b:30:d9:5b:66:38:22:5a:fc:c8:8c:c5:31:76:
        cb:d8:8c:4f:9f:e8:ee:0d:5d:56:8f:5a:35:33:6f:07:46:48:
        8f:f0
-----BEGIN CERTIFICATE-----
MIICvDCCAiUCCQCbJ9fo0boK1DANBgkqhkiG9w0BAQQFADCBlTELMAkGA1UEBhMC
REUxETAPBgNVBAgTCFNhYXJsYW5kMRAwDgYDVQQKEwdNUEktU1dTMSIwIAYDVQQL
ExlEaXN0cmlidXRlZCBTeXN0ZW1zIEdyb3VwMRowGAYDVQQDExFBbmRyZWFzIEhh
ZWJlcmxlbjEhMB8GCSqGSIb3DQEJARYSZGVtb2NhQG9jdGFyaW5lLmRlMB4XDTE1
MDQyMDIwNDczMVoXDTE2MDQxOTIwNDczMVowga4xCzAJBgNVBAYTAkRFMREwDwYD
VQQIEwhTYWFybGFuZDEQMA4GA1UEChMHTVBJLVNXUzEiMCAGA1UECxMZRGlzdHJp
YnV0ZWQgU3lzdGVtcyBHcm91cDExMC8GA1UEAxMoY2EyMjEwNGQ0ZDk3YmNlMDQ0
ZWFmNjQ5YWE4ZWJmMTc5MzliNGU4ODEjMCEGCSqGSIb3DQEJARYUbm9kZTA3NjRA
b2N0YXJpbmUuZGUwgZ8wDQYJKoZIhvcNAQEBBQADgY0AMIGJAoGBAKPGyZYJAdro
GRdA1CuRNRSG30X5FaFd89BAGZdUVl8vXtmfAwoBLaERcPH9zIKav2SGDJfdQXLb
+7FcpF3YgK5tMFbry+EFujL/ifId19k8617qA4Iry1YHHYVln0W3pn7e4vPFvIY1
thYCbPCzDIdytHSYtHbLFauYlDkItrnrAgMBAAEwDQYJKoZIhvcNAQEEBQADgYEA
jmG1TqhAEIihyPFFME4m4iX0rhtxj0Gl54xZsMGt9Ia7GUkoEVAQ4VuZervo+QKQ
WN1yoCwTYB+XVhs+lSWmTFFwEZm0hv2md9m4/0uI8nybFeoXi+zF9p+XpAPb1Dsw
2VtmOCJa/MiMxTF2y9iMT5/o7g1dVo9aNTNvB0ZIj/A=
-----END CERTIFICATE-----
