Certificate:
    Data:
        Version: 1 (0x0)
        Serial Number:
            9b:27:d7:e8:d1:ba:0a:05
        Signature Algorithm: md5WithRSAEncryption
        Issuer: C=DE, ST=Saarland, O=MPI-SWS, OU=Distributed Systems Group, CN=Andreas Haeberlen/emailAddress=democa@octarine.de
        Validity
            Not Before: Apr 20 20:47:21 2015 GMT
            Not After : Apr 19 20:47:21 2016 GMT
        Subject: C=DE, ST=Saarland, O=MPI-SWS, OU=Distributed Systems Group, CN=1f7ab9a090d4e6d7f6b2eff1e3d7ecc0b3b7c576/emailAddress=node0557@octarine.de
        Subject Public Key Info:
            Public Key Algorithm: rsaEncryption
            RSA Public Key: (1024 bit)
                Modulus (1024 bit):
                    00:db:e8:7b:1b:cb:a5:41:28:2a:62:95:f3:98:c7:
                    ae:82:68:76:4a:d4:05:57:77:2a:da:1f:aa:33:b6:
                    3c:bf:db:ac:ed:53:93:4e:d7:eb:82:cd:20:cd:ff:
                    c1:c6:0e:e1:67:ad:a8:6a:0d:88:8c:9e:e1:50:0d:
                    aa:60:03:13:e9:f8:2b:e6:85:fd:39:f0:05:ba:ed:
                    a8:96:2d:e1:a2:4c:ff:b5:ca:ea:b9:74:5e:2f:89:
                    13:a6:07:43:3d:04:b3:7a:6c:59:39:3c:75:0d:4c:
                    11:db:9d:20:65:56:ea:59:b4:28:f2:87:d9:5d:28:
                    89:14:e4:a1:f8:32:19:49:f1
                Exponent: 65537 (0x10001)
    Signature Algorithm: md5WithRSAEncryption
        0a:f7:85:9e:d0:a3:4b:11:10:44:15:af:85:9b:bf:b0:89:e9:
        c8:ad:34:2f:ff:da:3e:40:48:e1:9f:1f:8e:61:ef:f1:cc:fa:
        2c:1d:bd:ec:14:2f:8e:6c:52:ed:b0:d9:36:da:e6:2c:b0:bd:
        c6:6a:61:6b:76:f0:2a:26:cc:81:05:14:32:1b:0b:32:58:54:
        60:12:3c:02:6a:27:03:1d:a4:30:c6:09:2a:5d:f2:73:cb:1c:
        f0:44:03:81:e2:1a:69:3d:60:c0:c5:87:2c:19:3c:36:42:62:
        46:b3:06:b4:59:25:a9:c1:a1:56:ff:d0:1a:a0:bf:6e:70:d7:
        4f:70
-----BEGIN CERTIFICATE-----
MIICvDCCAiUCCQCbJ9fo0boKBTANBgkqhkiG9w0BAQQFADCBlTELMAkGA1UEBhMC
REUxETAPBgNVBAgTCFNhYXJsYW5kMRAwDgYDVQQKEwdNUEktU1dTMSIwIAYDVQQL
ExlEaXN0cmlidXRlZCBTeXN0ZW1zIEdyb3VwMRowGAYDVQQDExFBbmRyZWFzIEhh
ZWJlcmxlbjEhMB8GCSqGSIb3DQEJARYSZGVtb2NhQG9jdGFyaW5lLmRlMB4XDTE1
MDQyMDIwNDcyMVoXDTE2MDQxOTIwNDcyMVowga4xCzAJBgNVBAYTAkRFMREwDwYD
VQQIEwhTYWFybGFuZDEQMA4GA1UEChMHTVBJLVNXUzEiMCAGA1UECxMZRGlzdHJp
YnV0ZWQgU3lzdGVtcyBHcm91cDExMC8GA1UEAxMoMWY3YWI5YTA5MGQ0ZTZkN2Y2
YjJlZmYxZTNkN2VjYzBiM2I3YzU3NjEjMCEGCSqGSIb3DQEJARYUbm9kZTA1NTdA
b2N0YXJpbmUuZGUwgZ8wDQYJKoZIhvcNAQEBBQADgY0AMIGJAoGBANvoexvLpUEo
KmKV85jHroJodkrUBVd3KtofqjO2PL/brO1Tk07X64LNIM3/wcYO4WetqGoNiIye
4VANqmADE+n4K+aF/TnwBbrtqJYt4aJM/7XK6rl0Xi+JE6YHQz0Es3psWTk8dQ1M
EdudIGVW6lm0KPKH2V0oiRTkofgyGUnxAgMBAAEwDQYJKoZIhvcNAQEEBQADgYEA
CveFntCjSxEQRBWvhZu/sInpyK00L//aPkBI4Z8fjmHv8cz6LB297BQvjmxS7bDZ
NtrmLLC9xmpha3bwKibMgQUUMhsLMlhUYBI8AmonAx2kMMYJKl3yc8sc8EQDgeIa
aT1gwMWHLBk8NkJiRrMGtFklqcGhVv/QGqC/bnDXT3A=
-----END CERTIFICATE-----
