Certificate:
    Data:
        Version: 1 (0x0)
        Serial Number:
            9b:27:d7:e8:d1:ba:08:2c
        Signature Algorithm: md5WithRSAEncryption
        Issuer: C=DE, ST=Saarland, O=MPI-SWS, OU=Distributed Systems Group, CN=Andreas Haeberlen/emailAddress=democa@octarine.de
        Validity
            Not Before: Apr 20 20:47:00 2015 GMT
            Not After : Apr 19 20:47:00 2016 GMT
        Subject: C=DE, ST=Saarland, O=MPI-SWS, OU=Distributed Systems Group, CN=0bc341b22e3c9b48c5ae61718d0e8ea8a7cf871b/emailAddress=node0084@octarine.de
        Subject Public Key Info:
            Public Key Algorithm: rsaEncryption
            RSA Public Key: (1024 bit)
                Modulus (1024 bit):
                    00:cc:7e:9e:85:35:73:b3:59:0d:cd:a3:cb:13:2e:
                    f9:79:0f:c8:21:14:53:bc:fb:c8:87:cb:bd:2b:c2:
                    f7:f6:27:c4:2b:e2:fd:3b:8c:a8:40:f6:6f:31:6c:
                    37:18:ca:65:b4:f9:97:74:b5:35:24:78:5d:db:07:
                    e3:cb:25:63:5d:7f:f6:80:a1:6a:23:59:90:20:cb:
                    b4:0e:a2:07:82:8c:0f:9e:86:39:8b:79:ce:04:c8:
                    4f:e0:f9:24:a5:fe:7d:39:67:13:f0:6d:35:0c:cd:
                    1b:8f:c2:7c:31:08:bb:e6:4a:0a:c1:51:0b:27:6b:
                    dd:88:b3:d4:51:19:e8:14:1b
                Exponent: 65537 (0x10001)
    Signature Algorithm: md5WithRSAEncryption
        46:d4:73:48:af:55:a1:cf:c9:51:f8:3a:52:c7:1e:a6:7a:42:
        cf:6d:1c:39:cd:81:97:04:81:1f:dc:42:7b:cd:c8:3a:e3:25:
        39:57:dd:9c:c4:85:0e:a2:4f:c8:56:23:a8:27:ce:a9:95:7e:
        5a:41:41:bc:57:77:de:b4:35:96:5f:5a:19:40:b4:2c:c4:36:
        e8:19:66:10:63:fc:eb:8e:2d:97:be:99:84:f1:51:f0:65:4e:
        fc:45:58:77:0a:bf:f7:66:e6:7a:86:07:f8:e9:81:68:47:05:
        9f:76:41:6e:3b:3c:24:ea:de:3f:1d:b3:0d:bd:7d:6e:c1:3d:
        d9:13
-----BEGIN CERTIFICATE-----
MIICvDCCAiUCCQCbJ9fo0boILDANBgkqhkiG9w0BAQQFADCBlTELMAkGA1UEBhMC
REUxETAPBgNVBAgTCFNhYXJsYW5kMRAwDgYDVQQKEwdNUEktU1dTMSIwIAYDVQQL
ExlEaXN0cmlidXRlZCBTeXN0ZW1zIEdyb3VwMRowGAYDVQQDExFBbmRyZWFzIEhh
ZWJlcmxlbjEhMB8GCSqGSIb3DQEJARYSZGVtb2NhQG9jdGFyaW5lLmRlMB4XDTE1
MDQyMDIwNDcwMFoXDTE2MDQxOTIwNDcwMFowga4xCzAJBgNVBAYTAkRFMREwDwYD
VQQIEwhTYWFybGFuZDEQMA4GA1UEChMHTVBJLVNXUzEiMCAGA1UECxMZRGlzdHJp
YnV0ZWQgU3lzdGVtcyBHcm91cDExMC8GA1UEAxMoMGJjMzQxYjIyZTNjOWI0OGM1
YWU2MTcxOGQwZThlYThhN2NmODcxYjEjMCEGCSqGSIb3DQEJARYUbm9kZTAwODRA
b2N0YXJpbmUuZGUwgZ8wDQYJKoZIhvcNAQEBBQADgY0AMIGJAoGBAMx+noU1c7NZ
Dc2jyxMu+XkPyCEUU7z7yIfLvSvC9/YnxCvi/TuMqED2bzFsNxjKZbT5l3S1NSR4
XdsH48slY11/9oChaiNZkCDLtA6iB4KMD56GOYt5zgTIT+D5JKX+fTlnE/BtNQzN
G4/CfDEIu+ZKCsFRCydr3Yiz1FEZ6BQbAgMBAAEwDQYJKoZIhvcNAQEEBQADgYEA
RtRzSK9Voc/JUfg6UscepnpCz20cOc2BlwSBH9xCe83IOuMlOVfdnMSFDqJPyFYj
qCfOqZV+WkFBvFd33rQ1ll9aGUC0LMQ26BlmEGP8644tl76ZhPFR8GVO/EVYdwq/
92bmeoYH+OmBaEcFn3ZBbjs8JOrePx2zDb19bsE92RM=
-----END CERTIFICATE-----
