Certificate:
    Data:
        Version: 1 (0x0)
        Serial Number:
            9b:27:d7:e8:d1:ba:0b:0c
        Signature Algorithm: md5WithRSAEncryption
        Issuer: C=DE, ST=Saarland, O=MPI-SWS, OU=Distributed Systems Group, CN=Andreas Haeberlen/emailAddress=democa@octarine.de
        Validity
            Not Before: Apr 20 20:47:33 2015 GMT
            Not After : Apr 19 20:47:33 2016 GMT
        Subject: C=DE, ST=Saarland, O=MPI-SWS, OU=Distributed Systems Group, CN=e4ff0a2ef484d2ab884b225e426d92477467e86d/emailAddress=node0820@octarine.de
        Subject Public Key Info:
            Public Key Algorithm: rsaEncryption
            RSA Public Key: (1024 bit)
                Modulus (1024 bit):
                    00:d6:fc:9b:fd:93:e9:3b:11:34:bd:47:40:47:a2:
                    f0:57:2c:fe:86:5a:ee:e6:5f:d9:44:0e:c0:f3:69:
                    e7:38:ef:28:04:a4:cf:1c:89:4e:af:d0:ea:17:ed:
                    ac:9b:21:7a:87:aa:d7:6f:5f:74:51:3b:ea:15:7f:
                    4c:bc:58:b4:8a:72:aa:1b:a9:93:71:eb:69:07:0b:
                    26:02:88:61:9b:b7:49:1a:8f:ad:33:f6:eb:44:35:
                    26:6a:d8:ef:99:b0:ee:5f:48:1f:8c:e0:a1:bc:ae:
                    18:d3:18:2c:61:d3:b0:20:9b:91:9c:b6:f6:a0:77:
                    65:7a:2e:b1:9a:16:9c:69:db
                Exponent: 65537 (0x10001)
    Signature Algorithm: md5WithRSAEncryption
        1d:9a:04:f7:38:58:b1:46:9d:36:18:ad:99:28:88:10:64:6e:
        70:12:08:12:d9:d6:8c:5a:b1:48:9e:af:2e:df:ee:f9:a3:78:
        79:bf:1a:75:e5:3a:44:10:ac:b4:d2:a3:6e:d0:57:4b:db:70:
        12:bb:9d:ea:be:0d:4d:47:d7:f8:dd:1b:08:1e:0b:9e:04:3c:
        46:e7:fc:9a:42:96:0d:66:fb:64:43:99:08:d9:f7:e5:a3:7d:
        16:52:18:7d:56:9f:0e:65:64:a7:66:34:a9:21:74:08:34:b3:
        f4:a6:20:08:27:a9:8b:9d:3b:2d:7a:23:25:74:79:73:f8:1b:
        20:24
-----BEGIN CERTIFICATE-----
MIICvDCCAiUCCQCbJ9fo0boLDDANBgkqhkiG9w0BAQQFADCBlTELMAkGA1UEBhMC
REUxETAPBgNVBAgTCFNhYXJsYW5kMRAwDgYDVQQKEwdNUEktU1dTMSIwIAYDVQQL
ExlEaXN0cmlidXRlZCBTeXN0ZW1zIEdyb3VwMRowGAYDVQQDExFBbmRyZWFzIEhh
ZWJlcmxlbjEhMB8GCSqGSIb3DQEJARYSZGVtb2NhQG9jdGFyaW5lLmRlMB4XDTE1
MDQyMDIwNDczM1oXDTE2MDQxOTIwNDczM1owga4xCzAJBgNVBAYTAkRFMREwDwYD
VQQIEwhTYWFybGFuZDEQMA4GA1UEChMHTVBJLVNXUzEiMCAGA1UECxMZRGlzdHJp
YnV0ZWQgU3lzdGVtcyBHcm91cDExMC8GA1UEAxMoZTRmZjBhMmVmNDg0ZDJhYjg4
NGIyMjVlNDI2ZDkyNDc3NDY3ZTg2ZDEjMCEGCSqGSIb3DQEJARYUbm9kZTA4MjBA
b2N0YXJpbmUuZGUwgZ8wDQYJKoZIhvcNAQEBBQADgY0AMIGJAoGBANb8m/2T6TsR
NL1HQEei8Fcs/oZa7uZf2UQOwPNp5zjvKASkzxyJTq/Q6hftrJsheoeq129fdFE7
6hV/TLxYtIpyqhupk3HraQcLJgKIYZu3SRqPrTP260Q1JmrY75mw7l9IH4zgobyu
GNMYLGHTsCCbkZy29qB3ZXousZoWnGnbAgMBAAEwDQYJKoZIhvcNAQEEBQADgYEA
HZoE9zhYsUadNhitmSiIEGRucBIIEtnWjFqxSJ6vLt/u+aN4eb8adeU6RBCstNKj
btBXS9twErud6r4NTUfX+N0bCB4LngQ8Ruf8mkKWDWb7ZEOZCNn35aN9FlIYfVaf
DmVkp2Y0qSF0CDSz9KYgCCepi507LXojJXR5c/gbICQ=
-----END CERTIFICATE-----
