Certificate:
    Data:
        Version: 1 (0x0)
        Serial Number:
            9b:27:d7:e8:d1:ba:0b:38
        Signature Algorithm: md5WithRSAEncryption
        Issuer: C=DE, ST=Saarland, O=MPI-SWS, OU=Distributed Systems Group, CN=Andreas Haeberlen/emailAddress=democa@octarine.de
        Validity
            Not Before: Apr 20 20:47:35 2015 GMT
            Not After : Apr 19 20:47:35 2016 GMT
        Subject: C=DE, ST=Saarland, O=MPI-SWS, OU=Distributed Systems Group, CN=80ca34c4f46938bb1a613328ffaef677631a8ee7/emailAddress=node0864@octarine.de
        Subject Public Key Info:
            Public Key Algorithm: rsaEncryption
            RSA Public Key: (1024 bit)
                Modulus (1024 bit):
                    00:d5:f5:f0:69:12:11:c3:8c:d5:9a:2f:c3:b5:b1:
                    af:3b:60:0c:02:4e:8d:a3:38:80:53:08:6e:4f:97:
                    23:cc:64:18:b0:3b:b7:30:8d:20:c7:03:80:42:68:
                    49:c6:24:6f:38:d2:34:39:04:7c:26:cb:e5:90:08:
                    8d:2b:96:c2:35:ff:95:79:98:9d:e5:70:05:5e:3c:
                    31:33:d7:81:f8:78:99:7e:68:7c:db:37:3c:16:6a:
                    99:aa:d5:93:65:49:54:df:95:f5:fa:b5:1e:a2:c2:
                    67:5e:ef:bf:3e:1b:42:0f:e9:01:67:2c:ed:50:73:
                    cb:49:06:38:4f:e2:99:69:79
                Exponent: 65537 (0x10001)
    Signature Algorithm: md5WithRSAEncryption
        82:55:20:fa:d7:25:b6:59:3e:d0:67:a7:5c:f4:dd:63:5e:27:
        c6:92:60:27:f8:c3:ec:e3:77:b3:2e:3f:70:ae:af:92:f5:fa:
        e4:fc:10:bd:5d:f3:71:e5:59:94:be:0f:a8:08:37:e7:20:cf:
        f6:b5:46:ab:93:0e:0e:9d:71:ac:70:ef:b6:77:24:aa:ae:c4:
        7e:7a:9c:20:57:b7:54:6f:bb:f1:07:72:5a:9b:67:9f:00:49:
        e5:94:5c:e4:97:e3:b3:e8:e0:7c:4b:66:83:15:9d:b4:5d:69:
        f5:58:1e:06:58:1a:b4:be:9e:7c:ef:0c:e3:96:c5:fc:e7:48:
        11:ec
-----BEGIN CERTIFICATE-----
MIICvDCCAiUCCQCbJ9fo0boLODANBgkqhkiG9w0BAQQFADCBlTELMAkGA1UEBhMC
REUxETAPBgNVBAgTCFNhYXJsYW5kMRAwDgYDVQQKEwdNUEktU1dTMSIwIAYDVQQL
ExlEaXN0cmlidXRlZCBTeXN0ZW1zIEdyb3VwMRowGAYDVQQDExFBbmRyZWFzIEhh
ZWJlcmxlbjEhMB8GCSqGSIb3DQEJARYSZGVtb2NhQG9jdGFyaW5lLmRlMB4XDTE1
MDQyMDIwNDczNVoXDTE2MDQxOTIwNDczNVowga4xCzAJBgNVBAYTAkRFMREwDwYD
VQQIEwhTYWFybGFuZDEQMA4GA1UEChMHTVBJLVNXUzEiMCAGA1UECxMZRGlzdHJp
YnV0ZWQgU3lzdGVtcyBHcm91cDExMC8GA1UEAxMoODBjYTM0YzRmNDY5MzhiYjFh
NjEzMzI4ZmZhZWY2Nzc2MzFhOGVlNzEjMCEGCSqGSIb3DQEJARYUbm9kZTA4NjRA
b2N0YXJpbmUuZGUwgZ8wDQYJKoZIhvcNAQEBBQADgY0AMIGJAoGBANX18GkSEcOM
1Zovw7WxrztgDAJOjaM4gFMIbk+XI8xkGLA7tzCNIMcDgEJoScYkbzjSNDkEfCbL
5ZAIjSuWwjX/lXmYneVwBV48MTPXgfh4mX5ofNs3PBZqmarVk2VJVN+V9fq1HqLC
Z17vvz4bQg/pAWcs7VBzy0kGOE/imWl5AgMBAAEwDQYJKoZIhvcNAQEEBQADgYEA
glUg+tcltlk+0GenXPTdY14nxpJgJ/jD7ON3sy4/cK6vkvX65PwQvV3zceVZlL4P
qAg35yDP9rVGq5MODp1xrHDvtnckqq7EfnqcIFe3VG+78QdyWptnnwBJ5ZRc5Jfj
s+jgfEtmgxWdtF1p9VgeBlgatL6efO8M45bF/OdIEew=
-----END CERTIFICATE-----
