Certificate:
    Data:
        Version: 1 (0x0)
        Serial Number:
            9b:27:d7:e8:d1:ba:0a:06
        Signature Algorithm: md5WithRSAEncryption
        Issuer: C=DE, ST=Saarland, O=MPI-SWS, OU=Distributed Systems Group, CN=Andreas Haeberlen/emailAddress=democa@octarine.de
        Validity
            Not Before: Apr 20 20:47:21 2015 GMT
            Not After : Apr 19 20:47:21 2016 GMT
        Subject: C=DE, ST=Saarland, O=MPI-SWS, OU=Distributed Systems Group, CN=64b4b8baf7dd6df51dd09905cbc913088bc338e3/emailAddress=node0558@octarine.de
        Subject Public Key Info:
            Public Key Algorithm: rsaEncryption
            RSA Public Key: (1024 bit)
                Modulus (1024 bit):
                    00:c7:50:30:91:cd:21:6c:11:90:43:b6:6b:ce:31:
                    43:d7:a8:82:58:f5:4c:51:d3:95:a2:d6:d8:d6:73:
                    f4:c2:46:bd:e3:82:82:5b:9c:4a:6e:f5:e7:47:0d:
                    57:9b:1f:51:da:e5:bd:a3:3b:51:64:ae:61:ad:55:
                    85:5c:01:48:23:3c:7f:d7:f5:45:75:13:c6:30:eb:
                    b7:c6:08:d1:05:86:44:af:1a:8f:65:48:99:ba:6c:
                    16:55:4e:3c:c3:b5:af:22:dd:7a:ff:9e:f8:ad:cf:
                    d9:57:60:24:e2:6e:82:78:fb:56:c1:ea:51:80:28:
                    14:aa:97:67:85:38:2d:e8:61
                Exponent: 65537 (0x10001)
    Signature Algorithm: md5WithRSAEncryption
        64:ce:92:c9:b3:5d:9c:22:73:23:3d:c8:d9:e9:ca:4b:a0:ec:
        a0:4d:ee:ba:3f:34:60:7a:5e:ff:55:19:98:a9:d1:57:50:85:
        27:38:c1:04:be:bf:18:d6:35:2e:9d:1e:18:0d:85:f6:6e:b7:
        fd:ab:39:f4:db:bd:71:bd:14:be:f5:25:32:04:1b:43:f2:aa:
        8a:d1:0d:1f:92:a9:68:1e:3b:a2:79:eb:e7:e7:69:fa:ca:3f:
        c8:13:20:12:af:01:71:b6:e6:d7:70:6a:78:2c:8b:8b:2c:90:
        25:20:d5:05:a0:e2:1a:50:01:27:b1:a9:0f:8a:4e:a2:a3:4a:
        40:60
-----BEGIN CERTIFICATE-----
MIICvDCCAiUCCQCbJ9fo0boKBjANBgkqhkiG9w0BAQQFADCBlTELMAkGA1UEBhMC
REUxETAPBgNVBAgTCFNhYXJsYW5kMRAwDgYDVQQKEwdNUEktU1dTMSIwIAYDVQQL
ExlEaXN0cmlidXRlZCBTeXN0ZW1zIEdyb3VwMRowGAYDVQQDExFBbmRyZWFzIEhh
ZWJlcmxlbjEhMB8GCSqGSIb3DQEJARYSZGVtb2NhQG9jdGFyaW5lLmRlMB4XDTE1
MDQyMDIwNDcyMVoXDTE2MDQxOTIwNDcyMVowga4xCzAJBgNVBAYTAkRFMREwDwYD
VQQIEwhTYWFybGFuZDEQMA4GA1UEChMHTVBJLVNXUzEiMCAGA1UECxMZRGlzdHJp
YnV0ZWQgU3lzdGVtcyBHcm91cDExMC8GA1UEAxMoNjRiNGI4YmFmN2RkNmRmNTFk
ZDA5OTA1Y2JjOTEzMDg4YmMzMzhlMzEjMCEGCSqGSIb3DQEJARYUbm9kZTA1NThA
b2N0YXJpbmUuZGUwgZ8wDQYJKoZIhvcNAQEBBQADgY0AMIGJAoGBAMdQMJHNIWwR
kEO2a84xQ9eoglj1TFHTlaLW2NZz9MJGveOCglucSm7150cNV5sfUdrlvaM7UWSu
Ya1VhVwBSCM8f9f1RXUTxjDrt8YI0QWGRK8aj2VImbpsFlVOPMO1ryLdev+e+K3P
2VdgJOJugnj7VsHqUYAoFKqXZ4U4LehhAgMBAAEwDQYJKoZIhvcNAQEEBQADgYEA
ZM6SybNdnCJzIz3I2enKS6DsoE3uuj80YHpe/1UZmKnRV1CFJzjBBL6/GNY1Lp0e
GA2F9m63/as59Nu9cb0UvvUlMgQbQ/KqitENH5KpaB47onnr5+dp+so/yBMgEq8B
cbbm13BqeCyLiyyQJSDVBaDiGlABJ7GpD4pOoqNKQGA=
-----END CERTIFICATE-----
