Certificate:
    Data:
        Version: 1 (0x0)
        Serial Number:
            9b:27:d7:e8:d1:ba:0a:8e
        Signature Algorithm: md5WithRSAEncryption
        Issuer: C=DE, ST=Saarland, O=MPI-SWS, OU=Distributed Systems Group, CN=Andreas Haeberlen/emailAddress=democa@octarine.de
        Validity
            Not Before: Apr 20 20:47:27 2015 GMT
            Not After : Apr 19 20:47:27 2016 GMT
        Subject: C=DE, ST=Saarland, O=MPI-SWS, OU=Distributed Systems Group, CN=0a0efbb1b1b29a032ccff4a1b7ea8529f28fe309/emailAddress=node0694@octarine.de
        Subject Public Key Info:
            Public Key Algorithm: rsaEncryption
            RSA Public Key: (1024 bit)
                Modulus (1024 bit):
                    00:97:9c:69:4c:a8:40:1a:35:e8:dd:63:13:80:06:
                    fc:b0:41:76:1a:6b:8a:92:fb:ac:4a:bc:4d:ef:13:
                    c3:ec:81:b3:d5:5e:5a:6d:8f:af:da:56:5b:45:52:
                    4b:b9:5c:5e:bb:cf:91:53:dd:13:d2:70:be:48:22:
                    3f:1b:01:08:f2:d0:f5:02:a4:71:f2:49:cc:3f:92:
                    70:12:d9:d6:be:14:6f:b1:b2:6d:37:f3:3b:2e:e5:
                    08:1d:c5:38:c9:fd:85:1a:75:48:c4:be:d3:61:7b:
                    ce:03:43:8c:f1:91:0c:36:ab:58:b7:1c:b4:23:86:
                    4b:6a:dd:78:22:e5:25:0e:3d
                Exponent: 65537 (0x10001)
    Signature Algorithm: md5WithRSAEncryption
        00:c5:3e:8b:81:f5:78:1a:63:ef:50:a4:0c:cb:6a:3d:73:ce:
        70:ef:68:49:f4:dd:20:7e:d2:9e:b1:da:33:2f:6b:6c:72:87:
        36:06:41:65:12:44:43:55:28:01:82:87:6d:d4:23:c4:d8:46:
        8d:eb:f5:3e:9d:59:ea:cc:81:71:8e:d0:4c:25:d9:17:ba:23:
        dc:65:67:4e:11:b0:37:2e:dc:fa:b2:a1:76:25:92:30:cc:09:
        ec:8e:3a:f6:2e:62:80:53:60:78:87:e2:d1:90:ff:db:ac:c4:
        20:a4:82:ea:76:c8:0f:38:16:f7:f7:9b:0e:a5:4b:5a:83:77:
        b0:3a
-----BEGIN CERTIFICATE-----
MIICvDCCAiUCCQCbJ9fo0boKjjANBgkqhkiG9w0BAQQFADCBlTELMAkGA1UEBhMC
REUxETAPBgNVBAgTCFNhYXJsYW5kMRAwDgYDVQQKEwdNUEktU1dTMSIwIAYDVQQL
ExlEaXN0cmlidXRlZCBTeXN0ZW1zIEdyb3VwMRowGAYDVQQDExFBbmRyZWFzIEhh
ZWJlcmxlbjEhMB8GCSqGSIb3DQEJARYSZGVtb2NhQG9jdGFyaW5lLmRlMB4XDTE1
MDQyMDIwNDcyN1oXDTE2MDQxOTIwNDcyN1owga4xCzAJBgNVBAYTAkRFMREwDwYD
VQQIEwhTYWFybGFuZDEQMA4GA1UEChMHTVBJLVNXUzEiMCAGA1UECxMZRGlzdHJp
YnV0ZWQgU3lzdGVtcyBHcm91cDExMC8GA1UEAxMoMGEwZWZiYjFiMWIyOWEwMzJj
Y2ZmNGExYjdlYTg1MjlmMjhmZTMwOTEjMCEGCSqGSIb3DQEJARYUbm9kZTA2OTRA
b2N0YXJpbmUuZGUwgZ8wDQYJKoZIhvcNAQEBBQADgY0AMIGJAoGBAJecaUyoQBo1
6N1jE4AG/LBBdhpripL7rEq8Te8Tw+yBs9VeWm2Pr9pWW0VSS7lcXrvPkVPdE9Jw
vkgiPxsBCPLQ9QKkcfJJzD+ScBLZ1r4Ub7GybTfzOy7lCB3FOMn9hRp1SMS+02F7
zgNDjPGRDDarWLcctCOGS2rdeCLlJQ49AgMBAAEwDQYJKoZIhvcNAQEEBQADgYEA
AMU+i4H1eBpj71CkDMtqPXPOcO9oSfTdIH7SnrHaMy9rbHKHNgZBZRJEQ1UoAYKH
bdQjxNhGjev1Pp1Z6syBcY7QTCXZF7oj3GVnThGwNy7c+rKhdiWSMMwJ7I469i5i
gFNgeIfi0ZD/26zEIKSC6nbIDzgW9/ebDqVLWoN3sDo=
-----END CERTIFICATE-----
