Certificate:
    Data:
        Version: 1 (0x0)
        Serial Number:
            9b:27:d7:e8:d1:ba:07:e2
        Signature Algorithm: md5WithRSAEncryption
        Issuer: C=DE, ST=Saarland, O=MPI-SWS, OU=Distributed Systems Group, CN=Andreas Haeberlen/emailAddress=democa@octarine.de
        Validity
            Not Before: Apr 20 20:46:57 2015 GMT
            Not After : Apr 19 20:46:57 2016 GMT
        Subject: C=DE, ST=Saarland, O=MPI-SWS, OU=Distributed Systems Group, CN=528eb4ac89c6178477e2c8015e577a4ddcc90659/emailAddress=node0010@octarine.de
        Subject Public Key Info:
            Public Key Algorithm: rsaEncryption
            RSA Public Key: (1024 bit)
                Modulus (1024 bit):
                    00:9e:0e:ae:3b:94:44:65:05:c9:46:4d:31:c4:b2:
                    60:27:53:ad:04:25:36:1c:99:ef:d7:63:3b:34:10:
                    cb:6d:85:12:b4:01:8f:4e:64:9a:73:59:61:69:e0:
                    06:76:f3:8f:d9:57:38:d3:b5:4e:28:3d:88:60:aa:
                    72:64:2c:64:b3:b7:b4:18:6c:a4:25:c3:c5:c9:8b:
                    a0:bc:3e:16:6f:01:73:a6:60:b2:e8:a4:da:b0:ae:
                    4d:61:48:d3:00:f6:c1:98:30:b6:68:42:ae:9b:73:
                    31:48:d9:f0:b4:e4:2a:70:24:d4:78:11:53:c4:c6:
                    5f:e7:27:82:fc:85:f0:5e:97
                Exponent: 65537 (0x10001)
    Signature Algorithm: md5WithRSAEncryption
        36:ee:27:06:0d:37:79:aa:d2:19:cf:df:40:8a:a8:16:30:d5:
        a9:3b:26:be:36:40:8a:dc:b2:6e:5b:77:65:9a:3e:5c:20:2f:
        11:bb:a8:25:2e:fd:52:b6:e3:27:f6:be:74:d3:4d:5b:08:1d:
        73:2a:eb:88:c6:7c:48:42:c1:ce:cd:3f:35:a1:c4:4b:bb:22:
        2b:83:77:86:0e:20:3f:fe:16:2a:a5:10:56:8a:a6:f8:2c:33:
        29:70:24:f7:03:f9:2f:e9:a0:2f:31:3c:1b:ea:88:0b:6f:bf:
        7c:88:72:1c:f8:97:80:2e:ae:f4:83:1d:12:83:c9:f7:52:f4:
        33:b5
-----BEGIN CERTIFICATE-----
MIICvDCCAiUCCQCbJ9fo0boH4jANBgkqhkiG9w0BAQQFADCBlTELMAkGA1UEBhMC
REUxETAPBgNVBAgTCFNhYXJsYW5kMRAwDgYDVQQKEwdNUEktU1dTMSIwIAYDVQQL
ExlEaXN0cmlidXRlZCBTeXN0ZW1zIEdyb3VwMRowGAYDVQQDExFBbmRyZWFzIEhh
ZWJlcmxlbjEhMB8GCSqGSIb3DQEJARYSZGVtb2NhQG9jdGFyaW5lLmRlMB4XDTE1
MDQyMDIwNDY1N1oXDTE2MDQxOTIwNDY1N1owga4xCzAJBgNVBAYTAkRFMREwDwYD
VQQIEwhTYWFybGFuZDEQMA4GA1UEChMHTVBJLVNXUzEiMCAGA1UECxMZRGlzdHJp
YnV0ZWQgU3lzdGVtcyBHcm91cDExMC8GA1UEAxMoNTI4ZWI0YWM4OWM2MTc4NDc3
ZTJjODAxNWU1NzdhNGRkY2M5MDY1OTEjMCEGCSqGSIb3DQEJARYUbm9kZTAwMTBA
b2N0YXJpbmUuZGUwgZ8wDQYJKoZIhvcNAQEBBQADgY0AMIGJAoGBAJ4OrjuURGUF
yUZNMcSyYCdTrQQlNhyZ79djOzQQy22FErQBj05kmnNZYWngBnbzj9lXONO1Tig9
iGCqcmQsZLO3tBhspCXDxcmLoLw+Fm8Bc6Zgsuik2rCuTWFI0wD2wZgwtmhCrptz
MUjZ8LTkKnAk1HgRU8TGX+cngvyF8F6XAgMBAAEwDQYJKoZIhvcNAQEEBQADgYEA
Nu4nBg03earSGc/fQIqoFjDVqTsmvjZAityyblt3ZZo+XCAvEbuoJS79UrbjJ/a+
dNNNWwgdcyrriMZ8SELBzs0/NaHES7siK4N3hg4gP/4WKqUQVoqm+CwzKXAk9wP5
L+mgLzE8G+qIC2+/fIhyHPiXgC6u9IMdEoPJ91L0M7U=
-----END CERTIFICATE-----
