Certificate:
    Data:
        Version: 1 (0x0)
        Serial Number:
            9b:27:d7:e8:d1:ba:0a:36
        Signature Algorithm: md5WithRSAEncryption
        Issuer: C=DE, ST=Saarland, O=MPI-SWS, OU=Distributed Systems Group, CN=Andreas Haeberlen/emailAddress=democa@octarine.de
        Validity
            Not Before: Apr 20 20:47:23 2015 GMT
            Not After : Apr 19 20:47:23 2016 GMT
        Subject: C=DE, ST=Saarland, O=MPI-SWS, OU=Distributed Systems Group, CN=36be4e2c0dec479f491231a68ae36aca08857a18/emailAddress=node0606@octarine.de
        Subject Public Key Info:
            Public Key Algorithm: rsaEncryption
            RSA Public Key: (1024 bit)
                Modulus (1024 bit):
                    00:ad:7d:f7:9b:2b:ee:08:95:ce:1a:52:59:51:f3:
                    94:f3:87:ef:ce:f7:d6:12:00:6a:c8:48:fd:5c:86:
                    1c:6a:48:72:e6:81:f1:eb:ee:9e:a3:0d:cc:2f:5c:
                    cf:3d:dd:d1:3d:56:9e:fd:8a:7d:32:9f:13:b9:c3:
                    3d:c2:fd:ce:8e:00:ea:e2:c9:c0:1c:83:27:b3:41:
                    2b:97:eb:3b:bd:93:1a:29:7d:f4:5d:4e:6b:7e:0f:
                    59:e6:c9:a0:01:fa:5f:8e:17:72:97:20:51:cb:52:
                    a1:be:62:97:98:5f:37:24:2c:0b:22:bd:3b:4e:1f:
                    cc:a8:a0:84:85:d0:09:19:55
                Exponent: 65537 (0x10001)
    Signature Algorithm: md5WithRSAEncryption
        50:d7:62:d9:54:75:45:15:83:1a:37:ab:d5:fc:a8:fd:f7:11:
        f9:7c:c4:31:bd:b5:27:7d:b1:c6:0e:5a:2a:18:d4:37:f7:c3:
        ad:5a:89:6e:ab:20:93:e9:f7:48:45:a4:ce:5f:8e:af:9d:06:
        bc:60:73:ce:b7:ff:4e:72:b3:f5:20:e3:cf:14:ac:2a:55:86:
        a6:4a:e1:3b:a7:1e:86:f9:98:03:a6:be:df:ff:81:87:d5:fe:
        3d:18:db:ac:28:bc:9c:a0:2b:16:4b:70:d6:c4:be:d8:22:15:
        73:ac:4a:b1:ad:ca:6e:49:46:31:72:7e:f9:0a:05:57:01:30:
        21:a6
-----BEGIN CERTIFICATE-----
MIICvDCCAiUCCQCbJ9fo0boKNjANBgkqhkiG9w0BAQQFADCBlTELMAkGA1UEBhMC
REUxETAPBgNVBAgTCFNhYXJsYW5kMRAwDgYDVQQKEwdNUEktU1dTMSIwIAYDVQQL
ExlEaXN0cmlidXRlZCBTeXN0ZW1zIEdyb3VwMRowGAYDVQQDExFBbmRyZWFzIEhh
ZWJlcmxlbjEhMB8GCSqGSIb3DQEJARYSZGVtb2NhQG9jdGFyaW5lLmRlMB4XDTE1
MDQyMDIwNDcyM1oXDTE2MDQxOTIwNDcyM1owga4xCzAJBgNVBAYTAkRFMREwDwYD
VQQIEwhTYWFybGFuZDEQMA4GA1UEChMHTVBJLVNXUzEiMCAGA1UECxMZRGlzdHJp
YnV0ZWQgU3lzdGVtcyBHcm91cDExMC8GA1UEAxMoMzZiZTRlMmMwZGVjNDc5ZjQ5
MTIzMWE2OGFlMzZhY2EwODg1N2ExODEjMCEGCSqGSIb3DQEJARYUbm9kZTA2MDZA
b2N0YXJpbmUuZGUwgZ8wDQYJKoZIhvcNAQEBBQADgY0AMIGJAoGBAK1995sr7giV
zhpSWVHzlPOH78731hIAashI/VyGHGpIcuaB8evunqMNzC9czz3d0T1Wnv2KfTKf
E7nDPcL9zo4A6uLJwByDJ7NBK5frO72TGil99F1Oa34PWebJoAH6X44XcpcgUctS
ob5il5hfNyQsCyK9O04fzKighIXQCRlVAgMBAAEwDQYJKoZIhvcNAQEEBQADgYEA
UNdi2VR1RRWDGjer1fyo/fcR+XzEMb21J32xxg5aKhjUN/fDrVqJbqsgk+n3SEWk
zl+Or50GvGBzzrf/TnKz9SDjzxSsKlWGpkrhO6cehvmYA6a+3/+Bh9X+PRjbrCi8
nKArFktw1sS+2CIVc6xKsa3KbklGMXJ++QoFVwEwIaY=
-----END CERTIFICATE-----
