Certificate:
    Data:
        Version: 1 (0x0)
        Serial Number:
            9b:27:d7:e8:d1:ba:0a:6e
        Signature Algorithm: md5WithRSAEncryption
        Issuer: C=DE, ST=Saarland, O=MPI-SWS, OU=Distributed Systems Group, CN=Andreas Haeberlen/emailAddress=democa@octarine.de
        Validity
            Not Before: Apr 20 20:47:26 2015 GMT
            Not After : Apr 19 20:47:26 2016 GMT
        Subject: C=DE, ST=Saarland, O=MPI-SWS, OU=Distributed Systems Group, CN=40f0bd19275391bf5c79afd6a374cd00e00ad230/emailAddress=node0662@octarine.de
        Subject Public Key Info:
            Public Key Algorithm: rsaEncryption
            RSA Public Key: (1024 bit)
                Modulus (1024 bit):
                    00:db:b2:22:bd:b8:9d:bc:5c:cf:7d:90:af:f1:85:
                    5c:09:0c:01:a1:b9:f5:30:8c:cd:ad:2c:1f:e7:7a:
                    6d:47:a1:11:61:ec:a3:7b:dd:7e:eb:09:54:a9:5f:
                    25:c9:91:50:76:ff:c5:38:ee:86:7b:a0:a2:6b:5c:
                    98:9d:71:bc:82:7a:1e:1b:21:67:28:e8:69:a4:54:
                    43:f8:7b:06:4e:f9:2c:0a:0c:75:5c:5d:93:91:c5:
                    8b:b6:36:82:ad:79:b7:dc:9b:aa:85:d9:8a:33:0c:
                    42:74:a6:49:98:10:43:30:5a:b6:85:a1:31:3d:c4:
                    80:72:8f:20:7b:62:6a:c3:2f
                Exponent: 65537 (0x10001)
    Signature Algorithm: md5WithRSAEncryption
        65:ea:cd:c3:13:3c:33:dc:2b:30:ce:cc:c0:6e:89:db:61:a1:
        85:12:35:d6:4f:9b:8f:49:8a:71:33:81:9a:21:59:fd:6f:b5:
        e9:5c:fa:18:c3:83:e4:59:08:10:39:aa:b3:00:ac:2c:fd:e6:
        eb:41:48:c9:1c:d4:1d:74:b0:9e:87:2f:49:13:79:a6:03:af:
        54:36:00:74:e1:39:0b:54:c3:d1:9b:89:ea:fb:f0:83:0c:8d:
        ea:75:04:4e:fc:8c:79:16:5b:6a:3d:5a:1d:5f:14:c6:9f:61:
        ee:40:ef:fb:4d:01:6a:7e:d1:c5:e2:1f:7c:9d:49:fe:93:db:
        15:3d
-----BEGIN CERTIFICATE-----
MIICvDCCAiUCCQCbJ9fo0boKbjANBgkqhkiG9w0BAQQFADCBlTELMAkGA1UEBhMC
REUxETAPBgNVBAgTCFNhYXJsYW5kMRAwDgYDVQQKEwdNUEktU1dTMSIwIAYDVQQL
ExlEaXN0cmlidXRlZCBTeXN0ZW1zIEdyb3VwMRowGAYDVQQDExFBbmRyZWFzIEhh
ZWJlcmxlbjEhMB8GCSqGSIb3DQEJARYSZGVtb2NhQG9jdGFyaW5lLmRlMB4XDTE1
MDQyMDIwNDcyNloXDTE2MDQxOTIwNDcyNlowga4xCzAJBgNVBAYTAkRFMREwDwYD
VQQIEwhTYWFybGFuZDEQMA4GA1UEChMHTVBJLVNXUzEiMCAGA1UECxMZRGlzdHJp
YnV0ZWQgU3lzdGVtcyBHcm91cDExMC8GA1UEAxMoNDBmMGJkMTkyNzUzOTFiZjVj
NzlhZmQ2YTM3NGNkMDBlMDBhZDIzMDEjMCEGCSqGSIb3DQEJARYUbm9kZTA2NjJA
b2N0YXJpbmUuZGUwgZ8wDQYJKoZIhvcNAQEBBQADgY0AMIGJAoGBANuyIr24nbxc
z32Qr/GFXAkMAaG59TCMza0sH+d6bUehEWHso3vdfusJVKlfJcmRUHb/xTjuhnug
omtcmJ1xvIJ6HhshZyjoaaRUQ/h7Bk75LAoMdVxdk5HFi7Y2gq15t9ybqoXZijMM
QnSmSZgQQzBatoWhMT3EgHKPIHtiasMvAgMBAAEwDQYJKoZIhvcNAQEEBQADgYEA
ZerNwxM8M9wrMM7MwG6J22GhhRI11k+bj0mKcTOBmiFZ/W+16Vz6GMOD5FkIEDmq
swCsLP3m60FIyRzUHXSwnocvSRN5pgOvVDYAdOE5C1TD0ZuJ6vvwgwyN6nUETvyM
eRZbaj1aHV8Uxp9h7kDv+00Ban7RxeIffJ1J/pPbFT0=
-----END CERTIFICATE-----
