Certificate:
    Data:
        Version: 1 (0x0)
        Serial Number:
            9b:27:d7:e8:d1:ba:0a:7a
        Signature Algorithm: md5WithRSAEncryption
        Issuer: C=DE, ST=Saarland, O=MPI-SWS, OU=Distributed Systems Group, CN=Andreas Haeberlen/emailAddress=democa@octarine.de
        Validity
            Not Before: Apr 20 20:47:26 2015 GMT
            Not After : Apr 19 20:47:26 2016 GMT
        Subject: C=DE, ST=Saarland, O=MPI-SWS, OU=Distributed Systems Group, CN=932c173e8a07b46817e3631d7bbb3f3c3694dc25/emailAddress=node0674@octarine.de
        Subject Public Key Info:
            Public Key Algorithm: rsaEncryption
            RSA Public Key: (1024 bit)
                Modulus (1024 bit):
                    00:ce:a4:8a:d4:a3:50:1c:86:a2:87:0a:f2:98:26:
                    b1:7b:c4:5e:bd:62:4f:33:72:3b:63:0a:5a:81:32:
                    ed:a7:b4:e1:fd:1f:fb:ff:4b:b8:2f:3e:f0:00:0e:
                    55:1e:4c:4a:8c:93:48:13:28:6c:84:90:ed:e1:09:
                    02:9f:eb:b9:bf:4d:c2:c7:b1:6f:91:49:13:d2:99:
                    10:54:b4:0e:d4:73:f4:74:f8:19:64:a2:0f:f4:3f:
                    4d:d7:df:20:11:30:55:7a:c8:7e:6c:27:04:e2:ff:
                    2d:9c:dc:c3:20:79:05:1f:95:dc:00:34:b0:c8:0b:
                    40:13:68:3e:86:e3:68:8a:21
                Exponent: 65537 (0x10001)
    Signature Algorithm: md5WithRSAEncryption
        bf:28:97:b6:15:df:93:52:18:02:14:1e:22:ac:8e:aa:19:0e:
        2c:91:f0:01:0a:a0:23:97:67:b8:7c:67:bd:8c:bc:e5:18:b5:
        ae:99:56:5c:13:33:d3:36:fc:c2:24:b8:b6:5b:77:7c:ef:01:
        43:e2:a4:2f:7f:50:1a:3b:12:b3:c9:67:ec:12:48:ac:8b:38:
        fa:8d:7e:b1:4e:ee:db:93:c6:ed:ea:d1:7a:73:22:11:54:86:
        e2:1d:61:8c:79:5e:75:57:59:23:53:a1:d5:0d:d8:71:85:41:
        87:21:ef:7c:b9:8f:20:78:42:9f:da:28:4b:c6:7a:f8:be:d7:
        76:92
-----BEGIN CERTIFICATE-----
MIICvDCCAiUCCQCbJ9fo0boKejANBgkqhkiG9w0BAQQFADCBlTELMAkGA1UEBhMC
REUxETAPBgNVBAgTCFNhYXJsYW5kMRAwDgYDVQQKEwdNUEktU1dTMSIwIAYDVQQL
ExlEaXN0cmlidXRlZCBTeXN0ZW1zIEdyb3VwMRowGAYDVQQDExFBbmRyZWFzIEhh
ZWJlcmxlbjEhMB8GCSqGSIb3DQEJARYSZGVtb2NhQG9jdGFyaW5lLmRlMB4XDTE1
MDQyMDIwNDcyNloXDTE2MDQxOTIwNDcyNlowga4xCzAJBgNVBAYTAkRFMREwDwYD
VQQIEwhTYWFybGFuZDEQMA4GA1UEChMHTVBJLVNXUzEiMCAGA1UECxMZRGlzdHJp
YnV0ZWQgU3lzdGVtcyBHcm91cDExMC8GA1UEAxMoOTMyYzE3M2U4YTA3YjQ2ODE3
ZTM2MzFkN2JiYjNmM2MzNjk0ZGMyNTEjMCEGCSqGSIb3DQEJARYUbm9kZTA2NzRA
b2N0YXJpbmUuZGUwgZ8wDQYJKoZIhvcNAQEBBQADgY0AMIGJAoGBAM6kitSjUByG
oocK8pgmsXvEXr1iTzNyO2MKWoEy7ae04f0f+/9LuC8+8AAOVR5MSoyTSBMobISQ
7eEJAp/rub9Nwsexb5FJE9KZEFS0DtRz9HT4GWSiD/Q/TdffIBEwVXrIfmwnBOL/
LZzcwyB5BR+V3AA0sMgLQBNoPobjaIohAgMBAAEwDQYJKoZIhvcNAQEEBQADgYEA
vyiXthXfk1IYAhQeIqyOqhkOLJHwAQqgI5dnuHxnvYy85Ri1rplWXBMz0zb8wiS4
tlt3fO8BQ+KkL39QGjsSs8ln7BJIrIs4+o1+sU7u25PG7erRenMiEVSG4h1hjHle
dVdZI1Oh1Q3YcYVBhyHvfLmPIHhCn9ooS8Z6+L7XdpI=
-----END CERTIFICATE-----
