Certificate:
    Data:
        Version: 1 (0x0)
        Serial Number:
            9b:27:d7:e8:d1:ba:09:36
        Signature Algorithm: md5WithRSAEncryption
        Issuer: C=DE, ST=Saarland, O=MPI-SWS, OU=Distributed Systems Group, CN=Andreas Haeberlen/emailAddress=democa@octarine.de
        Validity
            Not Before: Apr 20 20:47:12 2015 GMT
            Not After : Apr 19 20:47:12 2016 GMT
        Subject: C=DE, ST=Saarland, O=MPI-SWS, OU=Distributed Systems Group, CN=242583b68e01399a667b2534b336207559bdc745/emailAddress=node0350@octarine.de
        Subject Public Key Info:
            Public Key Algorithm: rsaEncryption
            RSA Public Key: (1024 bit)
                Modulus (1024 bit):
                    00:a7:d6:a5:96:98:9f:5d:7d:c1:ce:24:08:28:ce:
                    4a:62:91:2c:82:ac:be:78:62:45:5a:88:e6:d1:f6:
                    cd:9a:81:35:46:fb:cc:d6:6d:06:b4:7a:bf:15:bd:
                    93:96:56:7a:0d:d7:04:02:00:62:6d:70:fb:73:0c:
                    1b:91:38:5e:e6:90:78:10:f7:ff:1d:7d:99:c4:b1:
                    9f:ea:2b:0f:2c:f5:ae:b4:54:3f:0e:59:15:1b:d7:
                    0d:ad:36:c4:60:df:19:88:45:b7:2c:ac:73:1f:e8:
                    52:41:3d:4c:19:90:ca:c8:01:1b:16:fd:ec:c3:01:
                    dc:88:1f:38:de:c5:45:dc:17
                Exponent: 65537 (0x10001)
    Signature Algorithm: md5WithRSAEncryption
        04:97:02:c7:6d:34:2c:f8:1c:ad:b2:0d:6d:c1:6e:a6:9b:ce:
        21:89:02:cb:4d:8b:89:4d:7c:c6:34:06:21:0c:e1:6d:9e:35:
        77:b0:9b:71:68:a0:ba:cc:60:62:f3:1c:01:d0:db:5c:2e:e2:
        aa:0b:e7:4e:bf:80:2c:32:be:f6:78:34:95:a3:f2:b8:00:97:
        71:15:35:2a:0f:6a:8c:9d:f0:62:7a:9e:bd:f6:c7:5e:8f:2e:
        fb:fe:f5:ac:f9:ce:ec:1e:de:d7:d9:53:3f:6f:9f:8d:bd:c9:
        28:7d:c6:2c:e0:7e:35:c6:95:b9:bd:51:e1:26:41:58:64:61:
        5d:5f
-----BEGIN CERTIFICATE-----
MIICvDCCAiUCCQCbJ9fo0boJNjANBgkqhkiG9w0BAQQFADCBlTELMAkGA1UEBhMC
REUxETAPBgNVBAgTCFNhYXJsYW5kMRAwDgYDVQQKEwdNUEktU1dTMSIwIAYDVQQL
ExlEaXN0cmlidXRlZCBTeXN0ZW1zIEdyb3VwMRowGAYDVQQDExFBbmRyZWFzIEhh
ZWJlcmxlbjEhMB8GCSqGSIb3DQEJARYSZGVtb2NhQG9jdGFyaW5lLmRlMB4XDTE1
MDQyMDIwNDcxMloXDTE2MDQxOTIwNDcxMlowga4xCzAJBgNVBAYTAkRFMREwDwYD
VQQIEwhTYWFybGFuZDEQMA4GA1UEChMHTVBJLVNXUzEiMCAGA1UECxMZRGlzdHJp
YnV0ZWQgU3lzdGVtcyBHcm91cDExMC8GA1UEAxMoMjQyNTgzYjY4ZTAxMzk5YTY2
N2IyNTM0YjMzNjIwNzU1OWJkYzc0NTEjMCEGCSqGSIb3DQEJARYUbm9kZTAzNTBA
b2N0YXJpbmUuZGUwgZ8wDQYJKoZIhvcNAQEBBQADgY0AMIGJAoGBAKfWpZaYn119
wc4kCCjOSmKRLIKsvnhiRVqI5tH2zZqBNUb7zNZtBrR6vxW9k5ZWeg3XBAIAYm1w
+3MMG5E4XuaQeBD3/x19mcSxn+orDyz1rrRUPw5ZFRvXDa02xGDfGYhFtyyscx/o
UkE9TBmQysgBGxb97MMB3IgfON7FRdwXAgMBAAEwDQYJKoZIhvcNAQEEBQADgYEA
BJcCx200LPgcrbINbcFuppvOIYkCy02LiU18xjQGIQzhbZ41d7CbcWigusxgYvMc
AdDbXC7iqgvnTr+ALDK+9ng0laPyuACXcRU1Kg9qjJ3wYnqevfbHXo8u+/71rPnO
7B7e19lTP2+fjb3JKH3GLOB+NcaVub1R4SZBWGRhXV8=
-----END CERTIFICATE-----
