Certificate:
    Data:
        Version: 1 (0x0)
        Serial Number:
            9b:27:d7:e8:d1:ba:09:48
        Signature Algorithm: md5WithRSAEncryption
        Issuer: C=DE, ST=Saarland, O=MPI-SWS, OU=Distributed Systems Group, CN=Andreas Haeberlen/emailAddress=democa@octarine.de
        Validity
            Not Before: Apr 20 20:47:12 2015 GMT
            Not After : Apr 19 20:47:12 2016 GMT
        Subject: C=DE, ST=Saarland, O=MPI-SWS, OU=Distributed Systems Group, CN=4c043d9d6bf3ae2e3f1fd4e92caf38b84bd8865f/emailAddress=node0368@octarine.de
        Subject Public Key Info:
            Public Key Algorithm: rsaEncryption
            RSA Public Key: (1024 bit)
                Modulus (1024 bit):
                    00:a9:f6:30:69:c7:72:b5:54:66:6b:43:9b:ef:95:
                    5b:c5:03:25:0c:2e:72:73:45:e0:6f:3d:f8:86:17:
                    ba:b8:90:8f:c5:1a:c8:3f:0b:e6:0a:ff:1d:e8:0b:
                    dd:dd:25:1e:8a:61:cf:48:03:47:26:e0:71:f4:23:
                    0f:50:55:7e:7c:27:4e:48:59:1f:89:6a:63:39:d1:
                    79:4e:48:bf:04:b2:b4:de:13:53:57:8e:15:b1:4c:
                    67:44:b2:73:33:82:88:8b:77:e6:8b:ec:6c:be:49:
                    6f:2d:b1:c8:b8:f4:04:d5:9d:df:64:0c:27:3a:a2:
                    5f:ba:bd:c7:18:5e:78:fd:e9
                Exponent: 65537 (0x10001)
    Signature Algorithm: md5WithRSAEncryption
        0c:bf:0f:da:95:f5:43:3a:1a:93:3f:8b:0f:c1:d5:18:54:87:
        52:2d:9b:eb:30:12:1d:a4:4b:12:c0:65:bd:60:39:95:22:2e:
        ae:94:a9:84:46:0a:c8:06:fc:8e:04:73:ee:a7:68:66:9e:e5:
        6f:c2:e6:d2:fc:9a:14:e0:f7:2f:3c:9b:75:f8:74:2c:17:4c:
        ea:c9:9c:2b:ad:89:d1:92:61:26:b8:05:8c:98:bc:07:12:e6:
        61:f1:35:e3:0b:51:cc:11:58:6a:80:03:3a:3b:7a:18:a6:a5:
        cf:a4:18:1e:34:81:10:3b:94:84:2f:fa:ec:f5:96:d9:e2:cb:
        21:8b
-----BEGIN CERTIFICATE-----
MIICvDCCAiUCCQCbJ9fo0boJSDANBgkqhkiG9w0BAQQFADCBlTELMAkGA1UEBhMC
REUxETAPBgNVBAgTCFNhYXJsYW5kMRAwDgYDVQQKEwdNUEktU1dTMSIwIAYDVQQL
ExlEaXN0cmlidXRlZCBTeXN0ZW1zIEdyb3VwMRowGAYDVQQDExFBbmRyZWFzIEhh
ZWJlcmxlbjEhMB8GCSqGSIb3DQEJARYSZGVtb2NhQG9jdGFyaW5lLmRlMB4XDTE1
MDQyMDIwNDcxMloXDTE2MDQxOTIwNDcxMlowga4xCzAJBgNVBAYTAkRFMREwDwYD
VQQIEwhTYWFybGFuZDEQMA4GA1UEChMHTVBJLVNXUzEiMCAGA1UECxMZRGlzdHJp
YnV0ZWQgU3lzdGVtcyBHcm91cDExMC8GA1UEAxMoNGMwNDNkOWQ2YmYzYWUyZTNm
MWZkNGU5MmNhZjM4Yjg0YmQ4ODY1ZjEjMCEGCSqGSIb3DQEJARYUbm9kZTAzNjhA
b2N0YXJpbmUuZGUwgZ8wDQYJKoZIhvcNAQEBBQADgY0AMIGJAoGBAKn2MGnHcrVU
ZmtDm++VW8UDJQwucnNF4G89+IYXuriQj8UayD8L5gr/HegL3d0lHophz0gDRybg
cfQjD1BVfnwnTkhZH4lqYznReU5IvwSytN4TU1eOFbFMZ0SyczOCiIt35ovsbL5J
by2xyLj0BNWd32QMJzqiX7q9xxheeP3pAgMBAAEwDQYJKoZIhvcNAQEEBQADgYEA
DL8P2pX1Qzoakz+LD8HVGFSHUi2b6zASHaRLEsBlvWA5lSIurpSphEYKyAb8jgRz
7qdoZp7lb8Lm0vyaFOD3Lzybdfh0LBdM6smcK62J0ZJhJrgFjJi8BxLmYfE14wtR
zBFYaoADOjt6GKalz6QYHjSBEDuUhC/67PWW2eLLIYs=
-----END CERTIFICATE-----
