Certificate:
    Data:
        Version: 1 (0x0)
        Serial Number:
            9b:27:d7:e8:d1:ba:08:7f
        Signature Algorithm: md5WithRSAEncryption
        Issuer: C=DE, ST=Saarland, O=MPI-SWS, OU=Distributed Systems Group, CN=Andreas Haeberlen/emailAddress=democa@octarine.de
        Validity
            Not Before: Apr 20 20:47:04 2015 GMT
            Not After : Apr 19 20:47:04 2016 GMT
        Subject: C=DE, ST=Saarland, O=MPI-SWS, OU=Distributed Systems Group, CN=89ec27bceb946ed22b509bc7e087c9853615ec1d/emailAddress=node0167@octarine.de
        Subject Public Key Info:
            Public Key Algorithm: rsaEncryption
            RSA Public Key: (1024 bit)
                Modulus (1024 bit):
                    00:ce:c0:5e:76:4e:e7:82:af:56:81:5b:b6:2c:c4:
                    57:da:49:0a:28:fe:da:50:7c:25:6e:1f:ec:59:38:
                    36:03:9f:46:bc:a7:9f:c9:85:df:a1:73:b6:13:5d:
                    67:c1:c1:6d:1c:d5:0d:6e:2d:e1:1d:ad:9a:8a:be:
                    23:50:dd:11:5c:c9:a1:f1:4a:45:5b:ae:62:2d:c9:
                    89:df:af:6d:0c:fe:ab:ec:95:8d:d6:0a:21:c6:2b:
                    9b:ae:37:4a:dd:28:4c:7f:57:b2:4d:9c:d8:02:38:
                    d8:81:73:b3:7e:23:45:bd:78:f2:af:ce:bd:ac:42:
                    17:db:93:49:97:b4:4e:26:df
                Exponent: 65537 (0x10001)
    Signature Algorithm: md5WithRSAEncryption
        3b:e3:96:b4:21:a8:d4:ed:0c:58:96:9f:d3:04:5d:82:80:39:
        b6:36:85:99:6c:22:72:fe:32:1e:0f:91:4f:cd:40:27:02:da:
        a9:85:59:81:d9:68:2a:93:3f:6a:db:32:ad:50:af:9b:8f:93:
        ca:64:22:84:58:d3:01:d6:48:c8:79:a8:e4:91:3a:54:94:c4:
        5f:62:0e:ea:02:36:c2:5e:8c:f4:ef:0f:89:8f:a7:a9:75:07:
        32:a5:31:67:ff:65:72:8a:94:4c:9d:c3:15:e5:0d:7f:a5:d9:
        b3:7e:04:9e:cb:22:33:76:52:86:7f:5a:7c:be:63:e9:cc:f0:
        13:fd
-----BEGIN CERTIFICATE-----
MIICvDCCAiUCCQCbJ9fo0boIfzANBgkqhkiG9w0BAQQFADCBlTELMAkGA1UEBhMC
REUxETAPBgNVBAgTCFNhYXJsYW5kMRAwDgYDVQQKEwdNUEktU1dTMSIwIAYDVQQL
ExlEaXN0cmlidXRlZCBTeXN0ZW1zIEdyb3VwMRowGAYDVQQDExFBbmRyZWFzIEhh
ZWJlcmxlbjEhMB8GCSqGSIb3DQEJARYSZGVtb2NhQG9jdGFyaW5lLmRlMB4XDTE1
MDQyMDIwNDcwNFoXDTE2MDQxOTIwNDcwNFowga4xCzAJBgNVBAYTAkRFMREwDwYD
VQQIEwhTYWFybGFuZDEQMA4GA1UEChMHTVBJLVNXUzEiMCAGA1UECxMZRGlzdHJp
YnV0ZWQgU3lzdGVtcyBHcm91cDExMC8GA1UEAxMoODllYzI3YmNlYjk0NmVkMjJi
NTA5YmM3ZTA4N2M5ODUzNjE1ZWMxZDEjMCEGCSqGSIb3DQEJARYUbm9kZTAxNjdA
b2N0YXJpbmUuZGUwgZ8wDQYJKoZIhvcNAQEBBQADgY0AMIGJAoGBAM7AXnZO54Kv
VoFbtizEV9pJCij+2lB8JW4f7Fk4NgOfRrynn8mF36FzthNdZ8HBbRzVDW4t4R2t
moq+I1DdEVzJofFKRVuuYi3Jid+vbQz+q+yVjdYKIcYrm643St0oTH9Xsk2c2AI4
2IFzs34jRb148q/OvaxCF9uTSZe0TibfAgMBAAEwDQYJKoZIhvcNAQEEBQADgYEA
O+OWtCGo1O0MWJaf0wRdgoA5tjaFmWwicv4yHg+RT81AJwLaqYVZgdloKpM/atsy
rVCvm4+TymQihFjTAdZIyHmo5JE6VJTEX2IO6gI2wl6M9O8PiY+nqXUHMqUxZ/9l
coqUTJ3DFeUNf6XZs34EnssiM3ZShn9afL5j6czwE/0=
-----END CERTIFICATE-----
