Certificate:
    Data:
        Version: 1 (0x0)
        Serial Number:
            9b:27:d7:e8:d1:ba:09:83
        Signature Algorithm: md5WithRSAEncryption
        Issuer: C=DE, ST=Saarland, O=MPI-SWS, OU=Distributed Systems Group, CN=Andreas Haeberlen/emailAddress=democa@octarine.de
        Validity
            Not Before: Apr 20 20:47:15 2015 GMT
            Not After : Apr 19 20:47:15 2016 GMT
        Subject: C=DE, ST=Saarland, O=MPI-SWS, OU=Distributed Systems Group, CN=caa49eada6415a7fafe98b8b411ac128bcd5b735/emailAddress=node0427@octarine.de
        Subject Public Key Info:
            Public Key Algorithm: rsaEncryption
            RSA Public Key: (1024 bit)
                Modulus (1024 bit):
                    00:a1:55:06:33:c4:1c:08:80:c9:b7:36:ab:c7:6d:
                    86:66:d7:60:99:c9:d8:46:fa:7c:a7:2b:c6:29:fc:
                    ea:af:a4:53:29:ae:3e:23:e9:39:28:b0:af:41:46:
                    34:d6:f2:51:37:47:6a:dc:69:b1:76:a1:ea:03:64:
                    b5:49:65:1a:73:2f:c5:e1:f4:fe:30:9d:38:ec:03:
                    ca:e7:e8:24:bd:e6:35:1b:52:1b:4f:5c:4b:00:76:
                    df:76:7d:4f:bf:f3:61:af:2e:83:c7:d4:b7:53:92:
                    f7:f9:69:54:d1:c4:7c:33:df:eb:32:b5:0b:fc:16:
                    ae:9f:53:b9:6a:c6:e5:90:d5
                Exponent: 65537 (0x10001)
    Signature Algorithm: md5WithRSAEncryption
        0e:c7:ce:84:ba:9c:2f:4f:87:3d:60:c5:18:00:ef:eb:62:40:
        c6:c4:db:cd:ce:13:e2:96:fc:f2:a9:17:9b:df:8f:d3:d4:0d:
        df:d3:09:9f:8f:68:74:cf:2a:96:4e:17:08:e9:c7:c6:26:01:
        38:f9:67:91:15:02:0e:76:5d:32:6e:1d:59:78:cf:77:8e:8a:
        79:6d:9b:e1:a7:45:41:1f:1e:33:fd:ec:de:18:74:4f:94:98:
        d6:05:9d:56:22:71:f9:92:bc:bd:19:06:39:86:2a:f1:75:63:
        39:a0:31:2e:7e:57:28:a1:ca:23:28:19:c9:ed:dc:41:e7:f5:
        76:67
-----BEGIN CERTIFICATE-----
MIICvDCCAiUCCQCbJ9fo0boJgzANBgkqhkiG9w0BAQQFADCBlTELMAkGA1UEBhMC
REUxETAPBgNVBAgTCFNhYXJsYW5kMRAwDgYDVQQKEwdNUEktU1dTMSIwIAYDVQQL
ExlEaXN0cmlidXRlZCBTeXN0ZW1zIEdyb3VwMRowGAYDVQQDExFBbmRyZWFzIEhh
ZWJlcmxlbjEhMB8GCSqGSIb3DQEJARYSZGVtb2NhQG9jdGFyaW5lLmRlMB4XDTE1
MDQyMDIwNDcxNVoXDTE2MDQxOTIwNDcxNVowga4xCzAJBgNVBAYTAkRFMREwDwYD
VQQIEwhTYWFybGFuZDEQMA4GA1UEChMHTVBJLVNXUzEiMCAGA1UECxMZRGlzdHJp
YnV0ZWQgU3lzdGVtcyBHcm91cDExMC8GA1UEAxMoY2FhNDllYWRhNjQxNWE3ZmFm
ZTk4YjhiNDExYWMxMjhiY2Q1YjczNTEjMCEGCSqGSIb3DQEJARYUbm9kZTA0MjdA
b2N0YXJpbmUuZGUwgZ8wDQYJKoZIhvcNAQEBBQADgY0AMIGJAoGBAKFVBjPEHAiA
ybc2q8dthmbXYJnJ2Eb6fKcrxin86q+kUymuPiPpOSiwr0FGNNbyUTdHatxpsXah
6gNktUllGnMvxeH0/jCdOOwDyufoJL3mNRtSG09cSwB233Z9T7/zYa8ug8fUt1OS
9/lpVNHEfDPf6zK1C/wWrp9TuWrG5ZDVAgMBAAEwDQYJKoZIhvcNAQEEBQADgYEA
DsfOhLqcL0+HPWDFGADv62JAxsTbzc4T4pb88qkXm9+P09QN39MJn49odM8qlk4X
COnHxiYBOPlnkRUCDnZdMm4dWXjPd46KeW2b4adFQR8eM/3s3hh0T5SY1gWdViJx
+ZK8vRkGOYYq8XVjOaAxLn5XKKHKIygZye3cQef1dmc=
-----END CERTIFICATE-----
