Certificate:
    Data:
        Version: 1 (0x0)
        Serial Number:
            9b:27:d7:e8:d1:ba:07:e3
        Signature Algorithm: md5WithRSAEncryption
        Issuer: C=DE, ST=Saarland, O=MPI-SWS, OU=Distributed Systems Group, CN=Andreas Haeberlen/emailAddress=democa@octarine.de
        Validity
            Not Before: Apr 20 20:46:57 2015 GMT
            Not After : Apr 19 20:46:57 2016 GMT
        Subject: C=DE, ST=Saarland, O=MPI-SWS, OU=Distributed Systems Group, CN=0201a961154dd4f224aafe7ca46bab5ae5c8f290/emailAddress=node0011@octarine.de
        Subject Public Key Info:
            Public Key Algorithm: rsaEncryption
            RSA Public Key: (1024 bit)
                Modulus (1024 bit):
                    00:b3:00:3a:a6:dc:a3:25:58:ae:91:ba:ff:d4:f1:
                    01:bb:e5:06:9a:a7:79:45:4e:36:4c:aa:c0:7f:3e:
                    e1:8b:e9:e0:eb:0c:64:7f:ed:fc:73:ac:04:df:ce:
                    1e:b3:50:f3:2d:51:87:d6:d0:77:36:a8:8d:d6:6d:
                    12:d8:13:04:9c:94:10:d0:54:45:1b:b5:15:dd:d9:
                    92:ed:f6:6e:87:96:e4:3f:e8:a3:24:74:6e:a7:7f:
                    c6:ad:ca:ba:de:d2:a0:2f:6b:74:38:ea:1d:28:0e:
                    74:a6:c1:b7:89:54:11:12:c6:db:49:b2:d8:96:a0:
                    d6:43:f5:c9:60:74:ec:27:29
                Exponent: 65537 (0x10001)
    Signature Algorithm: md5WithRSAEncryption
        03:3f:fe:ec:5d:75:9c:74:94:fb:8f:96:48:56:44:46:72:f2:
        11:a7:5b:3f:15:cf:2b:42:97:f6:65:83:87:4b:6f:93:71:57:
        32:a2:9f:75:09:e8:10:7d:c0:cf:bb:6e:6c:d4:10:c7:09:ad:
        aa:8e:81:80:96:1c:2c:fe:93:f5:bb:62:8c:87:dc:c7:51:20:
        d1:8e:b3:17:1c:45:f9:5a:50:d2:6c:ca:15:86:48:15:01:3d:
        69:eb:77:29:10:60:27:00:3f:cf:46:09:fe:2b:37:fc:68:19:
        5f:87:e0:6c:17:73:83:11:28:de:2a:f0:8b:da:14:01:9b:44:
        a8:46
-----BEGIN CERTIFICATE-----
MIICvDCCAiUCCQCbJ9fo0boH4zANBgkqhkiG9w0BAQQFADCBlTELMAkGA1UEBhMC
REUxETAPBgNVBAgTCFNhYXJsYW5kMRAwDgYDVQQKEwdNUEktU1dTMSIwIAYDVQQL
ExlEaXN0cmlidXRlZCBTeXN0ZW1zIEdyb3VwMRowGAYDVQQDExFBbmRyZWFzIEhh
ZWJlcmxlbjEhMB8GCSqGSIb3DQEJARYSZGVtb2NhQG9jdGFyaW5lLmRlMB4XDTE1
MDQyMDIwNDY1N1oXDTE2MDQxOTIwNDY1N1owga4xCzAJBgNVBAYTAkRFMREwDwYD
VQQIEwhTYWFybGFuZDEQMA4GA1UEChMHTVBJLVNXUzEiMCAGA1UECxMZRGlzdHJp
YnV0ZWQgU3lzdGVtcyBHcm91cDExMC8GA1UEAxMoMDIwMWE5NjExNTRkZDRmMjI0
YWFmZTdjYTQ2YmFiNWFlNWM4ZjI5MDEjMCEGCSqGSIb3DQEJARYUbm9kZTAwMTFA
b2N0YXJpbmUuZGUwgZ8wDQYJKoZIhvcNAQEBBQADgY0AMIGJAoGBALMAOqbcoyVY
rpG6/9TxAbvlBpqneUVONkyqwH8+4Yvp4OsMZH/t/HOsBN/OHrNQ8y1Rh9bQdzao
jdZtEtgTBJyUENBURRu1Fd3Zku32boeW5D/ooyR0bqd/xq3Kut7SoC9rdDjqHSgO
dKbBt4lUERLG20my2Jag1kP1yWB07CcpAgMBAAEwDQYJKoZIhvcNAQEEBQADgYEA
Az/+7F11nHSU+4+WSFZERnLyEadbPxXPK0KX9mWDh0tvk3FXMqKfdQnoEH3Az7tu
bNQQxwmtqo6BgJYcLP6T9btijIfcx1Eg0Y6zFxxF+VpQ0mzKFYZIFQE9aet3KRBg
JwA/z0YJ/is3/GgZX4fgbBdzgxEo3irwi9oUAZtEqEY=
-----END CERTIFICATE-----
