Certificate:
    Data:
        Version: 1 (0x0)
        Serial Number:
            9b:27:d7:e8:d1:ba:0a:c9
        Signature Algorithm: md5WithRSAEncryption
        Issuer: C=DE, ST=Saarland, O=MPI-SWS, OU=Distributed Systems Group, CN=Andreas Haeberlen/emailAddress=democa@octarine.de
        Validity
            Not Before: Apr 20 20:47:30 2015 GMT
            Not After : Apr 19 20:47:30 2016 GMT
        Subject: C=DE, ST=Saarland, O=MPI-SWS, OU=Distributed Systems Group, CN=aaf829b9c33c807def1f64641e226680178304dd/emailAddress=node0753@octarine.de
        Subject Public Key Info:
            Public Key Algorithm: rsaEncryption
            RSA Public Key: (1024 bit)
                Modulus (1024 bit):
                    00:92:ae:51:95:52:3b:e7:91:b6:03:08:5b:cc:81:
                    e1:50:55:49:9e:52:05:0d:eb:c7:5d:8d:e3:4b:e9:
                    fa:9d:31:8d:f2:8a:2b:bd:d3:ce:ef:46:71:cb:a2:
                    1e:41:76:30:11:f6:a9:2c:c5:bc:86:5e:87:c0:13:
                    11:ce:dc:d0:f3:fe:e8:dc:ec:d5:79:fc:0a:25:d8:
                    7e:10:57:f4:41:32:40:20:64:6f:21:0d:90:44:89:
                    7c:b7:35:a9:96:c8:b3:99:b8:42:49:a5:20:d5:99:
                    2a:f1:17:60:07:8f:00:b5:2e:ba:32:5f:4a:2d:6c:
                    89:40:9c:f0:95:20:f4:dc:a9
                Exponent: 65537 (0x10001)
    Signature Algorithm: md5WithRSAEncryption
        19:32:f6:59:62:bf:d4:6b:b3:22:37:32:9f:d9:93:39:73:dc:
        65:06:83:f9:5a:23:ee:e6:99:2f:ff:4f:71:59:ec:8f:c2:d1:
        02:0c:ec:3c:cc:a4:cf:df:e3:0b:da:3c:26:af:f5:22:a0:6f:
        bd:50:4e:11:96:e2:aa:40:05:95:fa:0b:b4:d9:00:7b:98:f0:
        f3:87:fb:73:54:93:f0:bd:0b:93:b2:52:8c:80:86:04:51:ce:
        59:04:bc:b6:d7:c4:a4:99:fb:54:3e:7f:f3:5c:41:58:85:2d:
        80:ee:0a:91:ac:f9:2f:09:ad:6d:40:f3:da:c6:20:5e:8e:0a:
        59:dc
-----BEGIN CERTIFICATE-----
MIICvDCCAiUCCQCbJ9fo0boKyTANBgkqhkiG9w0BAQQFADCBlTELMAkGA1UEBhMC
REUxETAPBgNVBAgTCFNhYXJsYW5kMRAwDgYDVQQKEwdNUEktU1dTMSIwIAYDVQQL
ExlEaXN0cmlidXRlZCBTeXN0ZW1zIEdyb3VwMRowGAYDVQQDExFBbmRyZWFzIEhh
ZWJlcmxlbjEhMB8GCSqGSIb3DQEJARYSZGVtb2NhQG9jdGFyaW5lLmRlMB4XDTE1
MDQyMDIwNDczMFoXDTE2MDQxOTIwNDczMFowga4xCzAJBgNVBAYTAkRFMREwDwYD
VQQIEwhTYWFybGFuZDEQMA4GA1UEChMHTVBJLVNXUzEiMCAGA1UECxMZRGlzdHJp
YnV0ZWQgU3lzdGVtcyBHcm91cDExMC8GA1UEAxMoYWFmODI5YjljMzNjODA3ZGVm
MWY2NDY0MWUyMjY2ODAxNzgzMDRkZDEjMCEGCSqGSIb3DQEJARYUbm9kZTA3NTNA
b2N0YXJpbmUuZGUwgZ8wDQYJKoZIhvcNAQEBBQADgY0AMIGJAoGBAJKuUZVSO+eR
tgMIW8yB4VBVSZ5SBQ3rx12N40vp+p0xjfKKK73Tzu9GccuiHkF2MBH2qSzFvIZe
h8ATEc7c0PP+6Nzs1Xn8CiXYfhBX9EEyQCBkbyENkESJfLc1qZbIs5m4QkmlINWZ
KvEXYAePALUuujJfSi1siUCc8JUg9NypAgMBAAEwDQYJKoZIhvcNAQEEBQADgYEA
GTL2WWK/1GuzIjcyn9mTOXPcZQaD+Voj7uaZL/9PcVnsj8LRAgzsPMykz9/jC9o8
Jq/1IqBvvVBOEZbiqkAFlfoLtNkAe5jw84f7c1ST8L0Lk7JSjICGBFHOWQS8ttfE
pJn7VD5/81xBWIUtgO4Kkaz5LwmtbUDz2sYgXo4KWdw=
-----END CERTIFICATE-----
