Certificate:
    Data:
        Version: 1 (0x0)
        Serial Number:
            9b:27:d7:e8:d1:ba:08:9a
        Signature Algorithm: md5WithRSAEncryption
        Issuer: C=DE, ST=Saarland, O=MPI-SWS, OU=Distributed Systems Group, CN=Andreas Haeberlen/emailAddress=democa@octarine.de
        Validity
            Not Before: Apr 20 20:47:05 2015 GMT
            Not After : Apr 19 20:47:05 2016 GMT
        Subject: C=DE, ST=Saarland, O=MPI-SWS, OU=Distributed Systems Group, CN=275ef7282046e59e16de69d13aef60998f776909/emailAddress=node0194@octarine.de
        Subject Public Key Info:
            Public Key Algorithm: rsaEncryption
            RSA Public Key: (1024 bit)
                Modulus (1024 bit):
                    00:99:58:e4:dd:15:9a:f8:53:7d:c8:7d:55:25:d8:
                    c5:34:26:cb:b7:88:18:14:61:5c:42:75:6d:55:2a:
                    12:f6:4e:10:a4:2f:05:f9:58:f1:6b:35:14:1e:0e:
                    2f:05:6b:b0:0a:f1:dd:ce:08:5d:96:af:e4:6f:83:
                    3e:77:54:6c:66:eb:b2:42:2c:9a:47:e9:e4:85:70:
                    bd:88:8c:bf:ce:ee:07:5f:80:6a:02:58:49:05:af:
                    e3:c1:68:c0:ce:a0:96:9a:5e:a0:e2:a3:93:c1:10:
                    9f:74:fe:5e:a1:04:89:75:37:68:66:a2:54:b2:2f:
                    51:ce:04:6b:53:5c:73:f9:bb
                Exponent: 65537 (0x10001)
    Signature Algorithm: md5WithRSAEncryption
        bc:9c:ef:10:ae:9c:34:20:da:80:0d:14:a8:46:cf:39:8b:3e:
        b7:63:fb:42:b6:06:d3:c4:29:d8:3d:d2:40:22:ca:25:4a:a1:
        2d:e0:c2:3e:2c:d5:c4:15:59:26:cc:cd:8f:78:2f:4b:a7:4b:
        55:5f:9b:db:2a:01:9f:cf:ac:8f:b2:4a:b2:3e:02:3c:b8:eb:
        15:6d:61:06:88:cb:48:30:33:c0:99:23:b4:d6:c5:94:93:a4:
        fa:15:48:b6:70:61:6e:0f:56:d9:5b:67:bb:18:e6:7f:03:f5:
        60:80:0e:7f:d4:b1:26:7c:79:36:48:90:1b:76:98:a0:3b:97:
        73:49
-----BEGIN CERTIFICATE-----
MIICvDCCAiUCCQCbJ9fo0boImjANBgkqhkiG9w0BAQQFADCBlTELMAkGA1UEBhMC
REUxETAPBgNVBAgTCFNhYXJsYW5kMRAwDgYDVQQKEwdNUEktU1dTMSIwIAYDVQQL
ExlEaXN0cmlidXRlZCBTeXN0ZW1zIEdyb3VwMRowGAYDVQQDExFBbmRyZWFzIEhh
ZWJlcmxlbjEhMB8GCSqGSIb3DQEJARYSZGVtb2NhQG9jdGFyaW5lLmRlMB4XDTE1
MDQyMDIwNDcwNVoXDTE2MDQxOTIwNDcwNVowga4xCzAJBgNVBAYTAkRFMREwDwYD
VQQIEwhTYWFybGFuZDEQMA4GA1UEChMHTVBJLVNXUzEiMCAGA1UECxMZRGlzdHJp
YnV0ZWQgU3lzdGVtcyBHcm91cDExMC8GA1UEAxMoMjc1ZWY3MjgyMDQ2ZTU5ZTE2
ZGU2OWQxM2FlZjYwOTk4Zjc3NjkwOTEjMCEGCSqGSIb3DQEJARYUbm9kZTAxOTRA
b2N0YXJpbmUuZGUwgZ8wDQYJKoZIhvcNAQEBBQADgY0AMIGJAoGBAJlY5N0VmvhT
fch9VSXYxTQmy7eIGBRhXEJ1bVUqEvZOEKQvBflY8Ws1FB4OLwVrsArx3c4IXZav
5G+DPndUbGbrskIsmkfp5IVwvYiMv87uB1+AagJYSQWv48FowM6glppeoOKjk8EQ
n3T+XqEEiXU3aGaiVLIvUc4Ea1Ncc/m7AgMBAAEwDQYJKoZIhvcNAQEEBQADgYEA
vJzvEK6cNCDagA0UqEbPOYs+t2P7QrYG08Qp2D3SQCLKJUqhLeDCPizVxBVZJszN
j3gvS6dLVV+b2yoBn8+sj7JKsj4CPLjrFW1hBojLSDAzwJkjtNbFlJOk+hVItnBh
bg9W2VtnuxjmfwP1YIAOf9SxJnx5NkiQG3aYoDuXc0k=
-----END CERTIFICATE-----
