Certificate:
    Data:
        Version: 1 (0x0)
        Serial Number:
            9b:27:d7:e8:d1:ba:0a:92
        Signature Algorithm: md5WithRSAEncryption
        Issuer: C=DE, ST=Saarland, O=MPI-SWS, OU=Distributed Systems Group, CN=Andreas Haeberlen/emailAddress=democa@octarine.de
        Validity
            Not Before: Apr 20 20:47:27 2015 GMT
            Not After : Apr 19 20:47:27 2016 GMT
        Subject: C=DE, ST=Saarland, O=MPI-SWS, OU=Distributed Systems Group, CN=f831ef665d0dd797bc7c62f6c8b96495cd7ade12/emailAddress=node0698@octarine.de
        Subject Public Key Info:
            Public Key Algorithm: rsaEncryption
            RSA Public Key: (1024 bit)
                Modulus (1024 bit):
                    00:d6:61:09:86:f3:ff:df:24:55:b0:b2:8a:15:9b:
                    ac:ed:5c:f0:66:42:a4:71:70:0e:e9:56:fc:8b:c3:
                    87:e6:0e:d8:f6:70:b7:6c:dc:9d:fa:7b:f2:5c:31:
                    b1:f8:1b:37:8a:bf:3e:b8:31:9a:b3:08:6f:f8:02:
                    e9:37:b5:1b:91:f5:7c:a5:97:04:be:66:27:6c:03:
                    e2:af:af:67:38:d2:88:c5:7e:7b:37:26:a0:8c:f8:
                    06:a9:1c:71:ce:f9:ce:b0:a4:1b:aa:a1:f8:ae:11:
                    d7:0f:1b:25:e0:4a:0b:b6:b8:19:40:ab:b8:3c:68:
                    0d:43:79:1b:be:de:0a:74:6d
                Exponent: 65537 (0x10001)
    Signature Algorithm: md5WithRSAEncryption
        a4:47:65:ca:34:ea:c3:43:c4:7a:65:fd:65:61:b9:3f:6d:84:
        9f:f6:c9:5d:98:ee:c4:e5:0d:77:25:94:54:07:e2:a6:a5:c1:
        fa:9c:dc:1d:26:c0:dd:48:11:f9:ed:f0:dc:8a:10:d2:5d:ea:
        ca:eb:26:9e:cd:19:68:3c:02:8c:9c:ba:db:47:8e:bc:06:9f:
        27:75:6a:39:b5:22:d6:ea:ee:b5:51:30:1a:8c:e0:c8:4e:2c:
        f4:91:0c:7b:6b:99:4e:cf:b2:3e:42:0c:f2:83:92:b9:ae:05:
        a7:49:23:07:31:c0:3c:dd:9e:e7:fb:8a:a4:0c:35:d5:b9:ad:
        64:99
-----BEGIN CERTIFICATE-----
MIICvDCCAiUCCQCbJ9fo0boKkjANBgkqhkiG9w0BAQQFADCBlTELMAkGA1UEBhMC
REUxETAPBgNVBAgTCFNhYXJsYW5kMRAwDgYDVQQKEwdNUEktU1dTMSIwIAYDVQQL
ExlEaXN0cmlidXRlZCBTeXN0ZW1zIEdyb3VwMRowGAYDVQQDExFBbmRyZWFzIEhh
ZWJlcmxlbjEhMB8GCSqGSIb3DQEJARYSZGVtb2NhQG9jdGFyaW5lLmRlMB4XDTE1
MDQyMDIwNDcyN1oXDTE2MDQxOTIwNDcyN1owga4xCzAJBgNVBAYTAkRFMREwDwYD
VQQIEwhTYWFybGFuZDEQMA4GA1UEChMHTVBJLVNXUzEiMCAGA1UECxMZRGlzdHJp
YnV0ZWQgU3lzdGVtcyBHcm91cDExMC8GA1UEAxMoZjgzMWVmNjY1ZDBkZDc5N2Jj
N2M2MmY2YzhiOTY0OTVjZDdhZGUxMjEjMCEGCSqGSIb3DQEJARYUbm9kZTA2OThA
b2N0YXJpbmUuZGUwgZ8wDQYJKoZIhvcNAQEBBQADgY0AMIGJAoGBANZhCYbz/98k
VbCyihWbrO1c8GZCpHFwDulW/IvDh+YO2PZwt2zcnfp78lwxsfgbN4q/PrgxmrMI
b/gC6Te1G5H1fKWXBL5mJ2wD4q+vZzjSiMV+ezcmoIz4Bqkccc75zrCkG6qh+K4R
1w8bJeBKC7a4GUCruDxoDUN5G77eCnRtAgMBAAEwDQYJKoZIhvcNAQEEBQADgYEA
pEdlyjTqw0PEemX9ZWG5P22En/bJXZjuxOUNdyWUVAfipqXB+pzcHSbA3UgR+e3w
3IoQ0l3qyusmns0ZaDwCjJy620eOvAafJ3VqObUi1urutVEwGozgyE4s9JEMe2uZ
Ts+yPkIM8oOSua4Fp0kjBzHAPN2e5/uKpAw11bmtZJk=
-----END CERTIFICATE-----
