Certificate:
    Data:
        Version: 1 (0x0)
        Serial Number:
            9b:27:d7:e8:d1:ba:0a:0b
        Signature Algorithm: md5WithRSAEncryption
        Issuer: C=DE, ST=Saarland, O=MPI-SWS, OU=Distributed Systems Group, CN=Andreas Haeberlen/emailAddress=democa@octarine.de
        Validity
            Not Before: Apr 20 20:47:22 2015 GMT
            Not After : Apr 19 20:47:22 2016 GMT
        Subject: C=DE, ST=Saarland, O=MPI-SWS, OU=Distributed Systems Group, CN=99b310c52a57ba12b393dd54258aa3e4ca8ea44d/emailAddress=node0563@octarine.de
        Subject Public Key Info:
            Public Key Algorithm: rsaEncryption
            RSA Public Key: (1024 bit)
                Modulus (1024 bit):
                    00:fd:e8:2f:60:32:a5:e9:2b:18:bf:03:47:b1:5a:
                    19:fb:91:20:7b:61:f2:21:e2:af:c3:92:7b:fe:10:
                    3e:14:3c:49:d0:35:1f:fa:e3:84:bf:a5:a9:6f:34:
                    62:5c:db:76:37:75:94:dd:f8:0d:1b:a2:18:16:b5:
                    1c:fa:bf:88:5c:86:ac:f3:0b:2b:30:a2:b8:2b:be:
                    4c:31:c8:66:ad:d7:b8:6c:d8:4c:6a:b4:36:4f:2b:
                    e6:90:19:4d:a7:10:3a:08:bb:e7:fa:ea:95:1c:17:
                    04:a8:e0:6e:4d:3a:59:0d:65:59:f1:4d:c4:35:4a:
                    27:fe:ee:28:9b:b8:84:ec:0d
                Exponent: 65537 (0x10001)
    Signature Algorithm: md5WithRSAEncryption
        92:60:32:bf:77:c0:9f:40:d7:e2:e6:2f:56:79:3b:75:68:f9:
        ef:49:eb:3a:65:c9:da:1f:8c:80:98:99:73:4a:2d:3c:00:79:
        ce:f3:02:26:e2:17:ba:b1:90:60:fb:9e:71:b8:c8:70:2d:e8:
        76:96:44:46:ba:18:91:b0:52:66:2e:57:56:15:d3:be:70:1a:
        b3:53:56:2b:f1:bf:78:b2:73:a0:e3:11:71:d9:73:00:3c:2c:
        39:d2:16:f7:0a:65:bd:e9:89:f2:3d:42:1f:64:12:af:cd:e6:
        01:ff:ab:a0:e9:1f:9a:58:7e:1a:48:1a:3a:b0:09:70:62:f4:
        73:05
-----BEGIN CERTIFICATE-----
MIICvDCCAiUCCQCbJ9fo0boKCzANBgkqhkiG9w0BAQQFADCBlTELMAkGA1UEBhMC
REUxETAPBgNVBAgTCFNhYXJsYW5kMRAwDgYDVQQKEwdNUEktU1dTMSIwIAYDVQQL
ExlEaXN0cmlidXRlZCBTeXN0ZW1zIEdyb3VwMRowGAYDVQQDExFBbmRyZWFzIEhh
ZWJlcmxlbjEhMB8GCSqGSIb3DQEJARYSZGVtb2NhQG9jdGFyaW5lLmRlMB4XDTE1
MDQyMDIwNDcyMloXDTE2MDQxOTIwNDcyMlowga4xCzAJBgNVBAYTAkRFMREwDwYD
VQQIEwhTYWFybGFuZDEQMA4GA1UEChMHTVBJLVNXUzEiMCAGA1UECxMZRGlzdHJp
YnV0ZWQgU3lzdGVtcyBHcm91cDExMC8GA1UEAxMoOTliMzEwYzUyYTU3YmExMmIz
OTNkZDU0MjU4YWEzZTRjYThlYTQ0ZDEjMCEGCSqGSIb3DQEJARYUbm9kZTA1NjNA
b2N0YXJpbmUuZGUwgZ8wDQYJKoZIhvcNAQEBBQADgY0AMIGJAoGBAP3oL2Aypekr
GL8DR7FaGfuRIHth8iHir8OSe/4QPhQ8SdA1H/rjhL+lqW80Ylzbdjd1lN34DRui
GBa1HPq/iFyGrPMLKzCiuCu+TDHIZq3XuGzYTGq0Nk8r5pAZTacQOgi75/rqlRwX
BKjgbk06WQ1lWfFNxDVKJ/7uKJu4hOwNAgMBAAEwDQYJKoZIhvcNAQEEBQADgYEA
kmAyv3fAn0DX4uYvVnk7dWj570nrOmXJ2h+MgJiZc0otPAB5zvMCJuIXurGQYPue
cbjIcC3odpZERroYkbBSZi5XVhXTvnAas1NWK/G/eLJzoOMRcdlzADwsOdIW9wpl
vemJ8j1CH2QSr83mAf+roOkfmlh+GkgaOrAJcGL0cwU=
-----END CERTIFICATE-----
