Certificate:
    Data:
        Version: 1 (0x0)
        Serial Number:
            9b:27:d7:e8:d1:ba:0a:0c
        Signature Algorithm: md5WithRSAEncryption
        Issuer: C=DE, ST=Saarland, O=MPI-SWS, OU=Distributed Systems Group, CN=Andreas Haeberlen/emailAddress=democa@octarine.de
        Validity
            Not Before: Apr 20 20:47:22 2015 GMT
            Not After : Apr 19 20:47:22 2016 GMT
        Subject: C=DE, ST=Saarland, O=MPI-SWS, OU=Distributed Systems Group, CN=f95b36df973648b7e3196fd39524a629f753e338/emailAddress=node0564@octarine.de
        Subject Public Key Info:
            Public Key Algorithm: rsaEncryption
            RSA Public Key: (1024 bit)
                Modulus (1024 bit):
                    00:d5:85:09:a9:3e:f3:78:1b:dc:9b:ab:63:ca:5c:
                    be:35:71:3f:45:cf:b1:ad:b8:d0:5a:43:60:8e:e6:
                    19:2d:67:ef:c0:49:d8:e4:7f:82:61:a7:e8:b0:a3:
                    0e:ac:ef:ae:2a:9e:73:0d:3c:b5:6c:48:f0:07:00:
                    9f:e8:b5:f2:18:31:ff:07:52:b0:1b:d9:d8:26:92:
                    f4:ce:0d:0a:9c:8b:f5:29:71:45:73:66:70:e0:8e:
                    54:67:33:fd:6a:67:5b:66:d0:b2:77:29:04:4a:ef:
                    66:67:6f:a0:79:99:23:65:cf:9a:33:19:80:4e:03:
                    5b:03:86:83:c3:06:61:13:35
                Exponent: 65537 (0x10001)
    Signature Algorithm: md5WithRSAEncryption
        09:a8:16:b5:49:28:c7:1e:2b:6a:37:79:ee:2d:de:3d:90:d6:
        75:f3:de:78:47:af:f6:81:5f:63:a1:39:35:25:0c:40:e0:bf:
        c7:e1:6e:e1:0d:28:0e:32:7f:93:2e:db:b4:e2:17:15:cc:b3:
        93:d4:7f:b2:50:d9:15:eb:d8:dd:e5:42:fb:81:94:09:08:a3:
        9d:60:ef:ca:c1:ff:05:9a:c0:1d:dd:ff:a5:d8:7d:7e:a4:df:
        90:bd:01:36:eb:47:73:ca:3f:81:c2:a4:d3:51:ea:63:26:3a:
        a0:f8:c0:ee:6b:b0:6e:24:1e:77:3c:f3:ab:83:6d:c0:eb:fb:
        54:ed
-----BEGIN CERTIFICATE-----
MIICvDCCAiUCCQCbJ9fo0boKDDANBgkqhkiG9w0BAQQFADCBlTELMAkGA1UEBhMC
REUxETAPBgNVBAgTCFNhYXJsYW5kMRAwDgYDVQQKEwdNUEktU1dTMSIwIAYDVQQL
ExlEaXN0cmlidXRlZCBTeXN0ZW1zIEdyb3VwMRowGAYDVQQDExFBbmRyZWFzIEhh
ZWJlcmxlbjEhMB8GCSqGSIb3DQEJARYSZGVtb2NhQG9jdGFyaW5lLmRlMB4XDTE1
MDQyMDIwNDcyMloXDTE2MDQxOTIwNDcyMlowga4xCzAJBgNVBAYTAkRFMREwDwYD
VQQIEwhTYWFybGFuZDEQMA4GA1UEChMHTVBJLVNXUzEiMCAGA1UECxMZRGlzdHJp
YnV0ZWQgU3lzdGVtcyBHcm91cDExMC8GA1UEAxMoZjk1YjM2ZGY5NzM2NDhiN2Uz
MTk2ZmQzOTUyNGE2MjlmNzUzZTMzODEjMCEGCSqGSIb3DQEJARYUbm9kZTA1NjRA
b2N0YXJpbmUuZGUwgZ8wDQYJKoZIhvcNAQEBBQADgY0AMIGJAoGBANWFCak+83gb
3JurY8pcvjVxP0XPsa240FpDYI7mGS1n78BJ2OR/gmGn6LCjDqzvriqecw08tWxI
8AcAn+i18hgx/wdSsBvZ2CaS9M4NCpyL9SlxRXNmcOCOVGcz/WpnW2bQsncpBErv
ZmdvoHmZI2XPmjMZgE4DWwOGg8MGYRM1AgMBAAEwDQYJKoZIhvcNAQEEBQADgYEA
CagWtUkoxx4rajd57i3ePZDWdfPeeEev9oFfY6E5NSUMQOC/x+Fu4Q0oDjJ/ky7b
tOIXFcyzk9R/slDZFevY3eVC+4GUCQijnWDvysH/BZrAHd3/pdh9fqTfkL0BNutH
c8o/gcKk01HqYyY6oPjA7muwbiQedzzzq4NtwOv7VO0=
-----END CERTIFICATE-----
