Certificate:
    Data:
        Version: 1 (0x0)
        Serial Number:
            9b:27:d7:e8:d1:ba:0a:31
        Signature Algorithm: md5WithRSAEncryption
        Issuer: C=DE, ST=Saarland, O=MPI-SWS, OU=Distributed Systems Group, CN=Andreas Haeberlen/emailAddress=democa@octarine.de
        Validity
            Not Before: Apr 20 20:47:23 2015 GMT
            Not After : Apr 19 20:47:23 2016 GMT
        Subject: C=DE, ST=Saarland, O=MPI-SWS, OU=Distributed Systems Group, CN=9afe52e81f5ae1cc0476869aded3d8a62948b30d/emailAddress=node0601@octarine.de
        Subject Public Key Info:
            Public Key Algorithm: rsaEncryption
            RSA Public Key: (1024 bit)
                Modulus (1024 bit):
                    00:da:7f:f2:ab:80:74:1c:34:63:89:1c:b5:0c:e5:
                    e1:0b:39:47:34:85:84:fe:dd:93:98:40:59:60:eb:
                    8c:64:27:7c:41:59:1d:36:d9:75:8d:61:bc:ef:d8:
                    8d:ba:f1:e1:7f:34:2f:00:bd:32:6c:16:09:28:07:
                    4c:00:cc:c0:eb:62:c3:70:aa:7b:bb:02:a7:6a:8a:
                    c7:b7:2c:dd:b4:13:ac:7e:2b:2f:3d:e1:1c:e3:45:
                    8f:cf:4d:81:32:4a:0b:58:12:ff:b9:8c:1e:2a:7e:
                    9b:f8:05:3a:7b:7e:fa:3b:65:dd:cb:b3:99:f8:b3:
                    82:04:d4:88:43:32:d9:20:7b
                Exponent: 65537 (0x10001)
    Signature Algorithm: md5WithRSAEncryption
        63:fd:78:36:57:83:db:c6:3b:06:22:7e:7d:91:d2:8f:7c:01:
        96:2d:78:ab:71:cd:2e:56:23:f6:0c:aa:12:57:d2:ce:19:02:
        05:25:9c:a2:30:8f:00:09:01:84:cf:f9:21:be:32:06:17:1d:
        6e:e1:78:5b:12:5c:b4:4f:e9:04:4e:b8:59:0f:b6:99:67:56:
        0a:70:ce:34:35:95:79:30:2f:28:d3:74:44:83:67:10:cf:53:
        50:3a:6e:dc:9a:aa:0f:5e:24:bd:fc:87:d9:54:2c:52:10:36:
        38:da:98:e5:a7:17:de:1f:8b:d1:b6:02:f8:67:a7:36:e4:bb:
        68:20
-----BEGIN CERTIFICATE-----
MIICvDCCAiUCCQCbJ9fo0boKMTANBgkqhkiG9w0BAQQFADCBlTELMAkGA1UEBhMC
REUxETAPBgNVBAgTCFNhYXJsYW5kMRAwDgYDVQQKEwdNUEktU1dTMSIwIAYDVQQL
ExlEaXN0cmlidXRlZCBTeXN0ZW1zIEdyb3VwMRowGAYDVQQDExFBbmRyZWFzIEhh
ZWJlcmxlbjEhMB8GCSqGSIb3DQEJARYSZGVtb2NhQG9jdGFyaW5lLmRlMB4XDTE1
MDQyMDIwNDcyM1oXDTE2MDQxOTIwNDcyM1owga4xCzAJBgNVBAYTAkRFMREwDwYD
VQQIEwhTYWFybGFuZDEQMA4GA1UEChMHTVBJLVNXUzEiMCAGA1UECxMZRGlzdHJp
YnV0ZWQgU3lzdGVtcyBHcm91cDExMC8GA1UEAxMoOWFmZTUyZTgxZjVhZTFjYzA0
NzY4NjlhZGVkM2Q4YTYyOTQ4YjMwZDEjMCEGCSqGSIb3DQEJARYUbm9kZTA2MDFA
b2N0YXJpbmUuZGUwgZ8wDQYJKoZIhvcNAQEBBQADgY0AMIGJAoGBANp/8quAdBw0
Y4kctQzl4Qs5RzSFhP7dk5hAWWDrjGQnfEFZHTbZdY1hvO/Yjbrx4X80LwC9MmwW
CSgHTADMwOtiw3Cqe7sCp2qKx7cs3bQTrH4rLz3hHONFj89NgTJKC1gS/7mMHip+
m/gFOnt++jtl3cuzmfizggTUiEMy2SB7AgMBAAEwDQYJKoZIhvcNAQEEBQADgYEA
Y/14NleD28Y7BiJ+fZHSj3wBli14q3HNLlYj9gyqElfSzhkCBSWcojCPAAkBhM/5
Ib4yBhcdbuF4WxJctE/pBE64WQ+2mWdWCnDONDWVeTAvKNN0RINnEM9TUDpu3Jqq
D14kvfyH2VQsUhA2ONqY5acX3h+L0bYC+GenNuS7aCA=
-----END CERTIFICATE-----
