Certificate:
    Data:
        Version: 1 (0x0)
        Serial Number:
            9b:27:d7:e8:d1:ba:08:b2
        Signature Algorithm: md5WithRSAEncryption
        Issuer: C=DE, ST=Saarland, O=MPI-SWS, OU=Distributed Systems Group, CN=Andreas Haeberlen/emailAddress=democa@octarine.de
        Validity
            Not Before: Apr 20 20:47:06 2015 GMT
            Not After : Apr 19 20:47:06 2016 GMT
        Subject: C=DE, ST=Saarland, O=MPI-SWS, OU=Distributed Systems Group, CN=a999eeddd1c0fbbc9b6350881996148bd15c039d/emailAddress=node0218@octarine.de
        Subject Public Key Info:
            Public Key Algorithm: rsaEncryption
            RSA Public Key: (1024 bit)
                Modulus (1024 bit):
                    00:c4:d1:03:a9:ce:4d:9f:dc:a0:aa:96:57:c9:48:
                    a8:8f:ef:1c:de:bf:bf:c5:c9:cf:5d:80:1e:c7:f9:
                    78:4e:3a:30:2f:93:38:bd:ce:86:d1:40:4a:b9:96:
                    01:77:81:43:f8:93:9d:e3:40:14:07:4e:a1:f8:4f:
                    c1:b1:17:16:7a:35:29:35:6f:59:87:f7:e6:b0:f7:
                    68:8c:a1:0b:1d:75:20:1b:50:33:86:12:79:a6:94:
                    07:91:3c:7a:8e:ba:16:bb:46:b3:45:e1:dc:95:a8:
                    15:40:03:10:2b:1d:03:9b:85:be:67:9a:8e:4f:ff:
                    46:5a:d5:dc:a7:7f:f1:a9:55
                Exponent: 65537 (0x10001)
    Signature Algorithm: md5WithRSAEncryption
        81:3e:16:d2:17:a9:2e:44:3b:5f:c1:23:b2:71:92:82:f7:62:
        93:a0:d6:75:be:96:8d:bb:a1:e5:0e:b8:c1:c3:03:7a:11:e4:
        77:27:f3:80:95:aa:63:50:19:ff:ad:5a:d4:5d:0c:cd:ba:af:
        7a:70:9a:bd:ba:e5:49:9c:da:92:3e:e5:40:19:dc:44:34:67:
        96:7c:1d:92:13:d7:fe:5d:7e:b1:c7:ef:15:2f:c2:01:9e:90:
        e3:27:2c:be:0c:be:14:a3:a3:15:f1:e7:d1:69:ff:1a:4d:2b:
        1b:89:77:bd:a7:14:1b:83:f6:89:8c:1c:4c:75:d5:5a:dc:c0:
        f1:1a
-----BEGIN CERTIFICATE-----
MIICvDCCAiUCCQCbJ9fo0boIsjANBgkqhkiG9w0BAQQFADCBlTELMAkGA1UEBhMC
REUxETAPBgNVBAgTCFNhYXJsYW5kMRAwDgYDVQQKEwdNUEktU1dTMSIwIAYDVQQL
ExlEaXN0cmlidXRlZCBTeXN0ZW1zIEdyb3VwMRowGAYDVQQDExFBbmRyZWFzIEhh
ZWJlcmxlbjEhMB8GCSqGSIb3DQEJARYSZGVtb2NhQG9jdGFyaW5lLmRlMB4XDTE1
MDQyMDIwNDcwNloXDTE2MDQxOTIwNDcwNlowga4xCzAJBgNVBAYTAkRFMREwDwYD
VQQIEwhTYWFybGFuZDEQMA4GA1UEChMHTVBJLVNXUzEiMCAGA1UECxMZRGlzdHJp
YnV0ZWQgU3lzdGVtcyBHcm91cDExMC8GA1UEAxMoYTk5OWVlZGRkMWMwZmJiYzli
NjM1MDg4MTk5NjE0OGJkMTVjMDM5ZDEjMCEGCSqGSIb3DQEJARYUbm9kZTAyMThA
b2N0YXJpbmUuZGUwgZ8wDQYJKoZIhvcNAQEBBQADgY0AMIGJAoGBAMTRA6nOTZ/c
oKqWV8lIqI/vHN6/v8XJz12AHsf5eE46MC+TOL3OhtFASrmWAXeBQ/iTneNAFAdO
ofhPwbEXFno1KTVvWYf35rD3aIyhCx11IBtQM4YSeaaUB5E8eo66FrtGs0Xh3JWo
FUADECsdA5uFvmeajk//RlrV3Kd/8alVAgMBAAEwDQYJKoZIhvcNAQEEBQADgYEA
gT4W0hepLkQ7X8EjsnGSgvdik6DWdb6Wjbuh5Q64wcMDehHkdyfzgJWqY1AZ/61a
1F0MzbqvenCavbrlSZzakj7lQBncRDRnlnwdkhPX/l1+scfvFS/CAZ6Q4ycsvgy+
FKOjFfHn0Wn/Gk0rG4l3vacUG4P2iYwcTHXVWtzA8Ro=
-----END CERTIFICATE-----
