Certificate:
    Data:
        Version: 1 (0x0)
        Serial Number:
            9b:27:d7:e8:d1:ba:0a:22
        Signature Algorithm: md5WithRSAEncryption
        Issuer: C=DE, ST=Saarland, O=MPI-SWS, OU=Distributed Systems Group, CN=Andreas Haeberlen/emailAddress=democa@octarine.de
        Validity
            Not Before: Apr 20 20:47:23 2015 GMT
            Not After : Apr 19 20:47:23 2016 GMT
        Subject: C=DE, ST=Saarland, O=MPI-SWS, OU=Distributed Systems Group, CN=1123d9ae1cf16bf572780a1896d9236358722104/emailAddress=node0586@octarine.de
        Subject Public Key Info:
            Public Key Algorithm: rsaEncryption
            RSA Public Key: (1024 bit)
                Modulus (1024 bit):
                    00:ae:c1:51:ed:67:48:88:e5:22:f7:83:f3:19:2e:
                    ef:f5:10:e6:ea:19:8c:3c:c3:80:48:d4:40:d5:ad:
                    16:02:bf:32:05:07:df:81:58:85:59:d5:01:a2:6d:
                    30:42:b8:95:09:a6:a8:62:27:62:f9:a3:bf:26:db:
                    d5:3e:2d:20:cf:f4:ee:06:35:3b:e2:2b:37:fe:3a:
                    68:23:45:66:59:3b:d1:80:2f:b2:6f:2e:29:35:31:
                    d2:25:2e:b2:b7:12:e0:bd:fb:6b:9b:79:fb:0a:7d:
                    25:6e:65:11:36:97:d4:fe:88:63:c6:e8:ad:2a:4d:
                    0a:00:73:cd:f8:16:97:75:81
                Exponent: 65537 (0x10001)
    Signature Algorithm: md5WithRSAEncryption
        69:83:28:d5:fa:4a:49:d4:66:7b:eb:16:6d:c7:ca:23:dc:01:
        54:94:33:8d:a1:7e:57:ea:13:58:dc:db:f4:35:33:41:69:92:
        11:c4:f4:85:f0:81:5c:28:36:9f:b1:ac:d9:4d:48:fd:e3:e8:
        0b:29:b3:ba:3b:05:f2:7b:37:43:a5:d6:23:49:83:29:61:fc:
        1e:15:b1:82:68:ab:bd:e8:02:61:d7:56:6a:b8:96:7f:9e:ef:
        76:0f:91:4f:4f:9d:26:80:b0:9d:b7:00:96:0a:cb:e5:9e:46:
        52:61:03:96:15:08:c0:ee:36:25:e3:63:eb:b9:da:bf:78:d4:
        96:5d
-----BEGIN CERTIFICATE-----
MIICvDCCAiUCCQCbJ9fo0boKIjANBgkqhkiG9w0BAQQFADCBlTELMAkGA1UEBhMC
REUxETAPBgNVBAgTCFNhYXJsYW5kMRAwDgYDVQQKEwdNUEktU1dTMSIwIAYDVQQL
ExlEaXN0cmlidXRlZCBTeXN0ZW1zIEdyb3VwMRowGAYDVQQDExFBbmRyZWFzIEhh
ZWJlcmxlbjEhMB8GCSqGSIb3DQEJARYSZGVtb2NhQG9jdGFyaW5lLmRlMB4XDTE1
MDQyMDIwNDcyM1oXDTE2MDQxOTIwNDcyM1owga4xCzAJBgNVBAYTAkRFMREwDwYD
VQQIEwhTYWFybGFuZDEQMA4GA1UEChMHTVBJLVNXUzEiMCAGA1UECxMZRGlzdHJp
YnV0ZWQgU3lzdGVtcyBHcm91cDExMC8GA1UEAxMoMTEyM2Q5YWUxY2YxNmJmNTcy
NzgwYTE4OTZkOTIzNjM1ODcyMjEwNDEjMCEGCSqGSIb3DQEJARYUbm9kZTA1ODZA
b2N0YXJpbmUuZGUwgZ8wDQYJKoZIhvcNAQEBBQADgY0AMIGJAoGBAK7BUe1nSIjl
IveD8xku7/UQ5uoZjDzDgEjUQNWtFgK/MgUH34FYhVnVAaJtMEK4lQmmqGInYvmj
vybb1T4tIM/07gY1O+IrN/46aCNFZlk70YAvsm8uKTUx0iUusrcS4L37a5t5+wp9
JW5lETaX1P6IY8borSpNCgBzzfgWl3WBAgMBAAEwDQYJKoZIhvcNAQEEBQADgYEA
aYMo1fpKSdRme+sWbcfKI9wBVJQzjaF+V+oTWNzb9DUzQWmSEcT0hfCBXCg2n7Gs
2U1I/ePoCymzujsF8ns3Q6XWI0mDKWH8HhWxgmirvegCYddWariWf57vdg+RT0+d
JoCwnbcAlgrL5Z5GUmEDlhUIwO42JeNj67nav3jUll0=
-----END CERTIFICATE-----
