Certificate:
    Data:
        Version: 1 (0x0)
        Serial Number:
            9b:27:d7:e8:d1:ba:09:52
        Signature Algorithm: md5WithRSAEncryption
        Issuer: C=DE, ST=Saarland, O=MPI-SWS, OU=Distributed Systems Group, CN=Andreas Haeberlen/emailAddress=democa@octarine.de
        Validity
            Not Before: Apr 20 20:47:13 2015 GMT
            Not After : Apr 19 20:47:13 2016 GMT
        Subject: C=DE, ST=Saarland, O=MPI-SWS, OU=Distributed Systems Group, CN=279a526197ae4eba6aaebed9c7e26f09693cb9d5/emailAddress=node0378@octarine.de
        Subject Public Key Info:
            Public Key Algorithm: rsaEncryption
            RSA Public Key: (1024 bit)
                Modulus (1024 bit):
                    00:e8:db:e3:fc:74:08:13:e0:81:e2:c4:55:ea:66:
                    9c:a1:36:5f:e7:29:41:e0:5f:7f:f0:ee:c1:b3:1b:
                    e8:43:dc:38:d5:ee:53:bf:30:a7:2e:2d:b7:2f:bc:
                    c4:83:eb:e4:25:94:67:35:9c:1d:5d:7d:c5:28:d9:
                    7c:fb:4d:40:d0:d6:9d:10:4a:b9:88:3c:53:09:04:
                    47:4d:ee:eb:c3:73:88:bc:de:77:f2:a3:88:e9:32:
                    5f:fe:ad:e9:a7:de:bf:cb:fb:53:46:eb:95:a7:46:
                    b4:11:f1:cb:19:ac:03:b5:0d:84:ae:b3:42:45:22:
                    03:b6:eb:c6:1b:ad:fe:83:99
                Exponent: 65537 (0x10001)
    Signature Algorithm: md5WithRSAEncryption
        1d:87:9b:c9:1a:e7:03:76:1c:d5:0d:1a:8c:d3:19:63:d9:b9:
        1e:0e:bc:0d:dc:dc:27:22:7b:5f:6d:ce:e8:17:3f:23:ad:9c:
        e9:07:64:b5:45:80:a0:ee:53:9b:27:41:61:1c:23:bc:2c:0d:
        f4:9d:68:32:ba:f8:61:be:df:09:d1:27:06:92:4d:6b:44:db:
        91:27:88:e6:2a:bc:c7:13:90:1b:e9:32:21:f6:5a:d3:6c:c3:
        ed:f2:90:cd:97:19:b0:37:65:98:2f:93:b9:93:05:e1:8e:30:
        ca:92:ea:3a:bb:68:e2:3c:10:a0:19:6b:36:4c:9c:ad:29:ba:
        68:47
-----BEGIN CERTIFICATE-----
MIICvDCCAiUCCQCbJ9fo0boJUjANBgkqhkiG9w0BAQQFADCBlTELMAkGA1UEBhMC
REUxETAPBgNVBAgTCFNhYXJsYW5kMRAwDgYDVQQKEwdNUEktU1dTMSIwIAYDVQQL
ExlEaXN0cmlidXRlZCBTeXN0ZW1zIEdyb3VwMRowGAYDVQQDExFBbmRyZWFzIEhh
ZWJlcmxlbjEhMB8GCSqGSIb3DQEJARYSZGVtb2NhQG9jdGFyaW5lLmRlMB4XDTE1
MDQyMDIwNDcxM1oXDTE2MDQxOTIwNDcxM1owga4xCzAJBgNVBAYTAkRFMREwDwYD
VQQIEwhTYWFybGFuZDEQMA4GA1UEChMHTVBJLVNXUzEiMCAGA1UECxMZRGlzdHJp
YnV0ZWQgU3lzdGVtcyBHcm91cDExMC8GA1UEAxMoMjc5YTUyNjE5N2FlNGViYTZh
YWViZWQ5YzdlMjZmMDk2OTNjYjlkNTEjMCEGCSqGSIb3DQEJARYUbm9kZTAzNzhA
b2N0YXJpbmUuZGUwgZ8wDQYJKoZIhvcNAQEBBQADgY0AMIGJAoGBAOjb4/x0CBPg
geLEVepmnKE2X+cpQeBff/DuwbMb6EPcONXuU78wpy4tty+8xIPr5CWUZzWcHV19
xSjZfPtNQNDWnRBKuYg8UwkER03u68NziLzed/KjiOkyX/6t6afev8v7U0brladG
tBHxyxmsA7UNhK6zQkUiA7brxhut/oOZAgMBAAEwDQYJKoZIhvcNAQEEBQADgYEA
HYebyRrnA3Yc1Q0ajNMZY9m5Hg68DdzcJyJ7X23O6Bc/I62c6QdktUWAoO5TmydB
YRwjvCwN9J1oMrr4Yb7fCdEnBpJNa0TbkSeI5iq8xxOQG+kyIfZa02zD7fKQzZcZ
sDdlmC+TuZMF4Y4wypLqOrto4jwQoBlrNkycrSm6aEc=
-----END CERTIFICATE-----
