Certificate:
    Data:
        Version: 1 (0x0)
        Serial Number:
            9b:27:d7:e8:d1:ba:08:12
        Signature Algorithm: md5WithRSAEncryption
        Issuer: C=DE, ST=Saarland, O=MPI-SWS, OU=Distributed Systems Group, CN=Andreas Haeberlen/emailAddress=democa@octarine.de
        Validity
            Not Before: Apr 20 20:46:59 2015 GMT
            Not After : Apr 19 20:46:59 2016 GMT
        Subject: C=DE, ST=Saarland, O=MPI-SWS, OU=Distributed Systems Group, CN=3509a0424b776c92d74367864e862cd61efce4f2/emailAddress=node0058@octarine.de
        Subject Public Key Info:
            Public Key Algorithm: rsaEncryption
            RSA Public Key: (1024 bit)
                Modulus (1024 bit):
                    00:da:ec:2b:33:11:d2:32:b1:43:ce:18:9e:8c:21:
                    92:39:7e:e1:de:22:2d:7e:e7:08:18:ff:b5:72:52:
                    af:b0:23:f3:b9:fd:ce:a1:25:85:6b:7b:8a:2d:03:
                    aa:e8:a7:87:97:55:04:5d:39:b5:f7:d0:14:b2:b3:
                    e0:a2:08:4a:db:fb:1c:19:5a:2a:b8:eb:b9:01:66:
                    a4:5a:45:9f:36:3c:a2:a2:b3:02:45:53:f4:3a:b0:
                    80:1c:c7:08:ca:a4:49:bd:bc:3a:0a:d5:b4:2b:ee:
                    ae:6a:fd:b5:ba:36:23:12:97:c2:4a:cb:27:fe:ba:
                    bd:ce:e3:46:36:64:dd:56:23
                Exponent: 65537 (0x10001)
    Signature Algorithm: md5WithRSAEncryption
        cd:59:92:52:9d:52:ff:57:0a:1a:ea:35:9c:24:4f:b4:a3:cc:
        1f:58:3c:e9:20:64:07:f4:9d:e1:10:20:03:91:ed:57:e3:65:
        4f:04:da:bb:a8:42:8e:28:06:8c:7c:d5:c0:a9:fb:43:7b:eb:
        76:bd:0b:c3:54:46:e8:94:dc:a9:04:66:a2:af:fc:97:89:57:
        1c:67:02:c6:7d:1c:4a:b6:9d:44:37:b0:6a:10:9e:49:8b:d4:
        c3:22:3d:22:bb:ab:3b:54:02:ca:9e:93:af:3c:3b:c2:c0:b9:
        a8:66:2d:f8:ab:39:6e:a3:a6:36:40:83:29:22:70:c9:88:86:
        d6:a4
-----BEGIN CERTIFICATE-----
MIICvDCCAiUCCQCbJ9fo0boIEjANBgkqhkiG9w0BAQQFADCBlTELMAkGA1UEBhMC
REUxETAPBgNVBAgTCFNhYXJsYW5kMRAwDgYDVQQKEwdNUEktU1dTMSIwIAYDVQQL
ExlEaXN0cmlidXRlZCBTeXN0ZW1zIEdyb3VwMRowGAYDVQQDExFBbmRyZWFzIEhh
ZWJlcmxlbjEhMB8GCSqGSIb3DQEJARYSZGVtb2NhQG9jdGFyaW5lLmRlMB4XDTE1
MDQyMDIwNDY1OVoXDTE2MDQxOTIwNDY1OVowga4xCzAJBgNVBAYTAkRFMREwDwYD
VQQIEwhTYWFybGFuZDEQMA4GA1UEChMHTVBJLVNXUzEiMCAGA1UECxMZRGlzdHJp
YnV0ZWQgU3lzdGVtcyBHcm91cDExMC8GA1UEAxMoMzUwOWEwNDI0Yjc3NmM5MmQ3
NDM2Nzg2NGU4NjJjZDYxZWZjZTRmMjEjMCEGCSqGSIb3DQEJARYUbm9kZTAwNThA
b2N0YXJpbmUuZGUwgZ8wDQYJKoZIhvcNAQEBBQADgY0AMIGJAoGBANrsKzMR0jKx
Q84Ynowhkjl+4d4iLX7nCBj/tXJSr7Aj87n9zqElhWt7ii0Dquinh5dVBF05tffQ
FLKz4KIIStv7HBlaKrjruQFmpFpFnzY8oqKzAkVT9DqwgBzHCMqkSb28OgrVtCvu
rmr9tbo2IxKXwkrLJ/66vc7jRjZk3VYjAgMBAAEwDQYJKoZIhvcNAQEEBQADgYEA
zVmSUp1S/1cKGuo1nCRPtKPMH1g86SBkB/Sd4RAgA5HtV+NlTwTau6hCjigGjHzV
wKn7Q3vrdr0Lw1RG6JTcqQRmoq/8l4lXHGcCxn0cSradRDewahCeSYvUwyI9Irur
O1QCyp6Trzw7wsC5qGYt+Ks5bqOmNkCDKSJwyYiG1qQ=
-----END CERTIFICATE-----
