Certificate:
    Data:
        Version: 1 (0x0)
        Serial Number:
            9b:27:d7:e8:d1:ba:09:63
        Signature Algorithm: md5WithRSAEncryption
        Issuer: C=DE, ST=Saarland, O=MPI-SWS, OU=Distributed Systems Group, CN=Andreas Haeberlen/emailAddress=democa@octarine.de
        Validity
            Not Before: Apr 20 20:47:14 2015 GMT
            Not After : Apr 19 20:47:14 2016 GMT
        Subject: C=DE, ST=Saarland, O=MPI-SWS, OU=Distributed Systems Group, CN=99fc949105994587711e2f275a58afa39a02f94f/emailAddress=node0395@octarine.de
        Subject Public Key Info:
            Public Key Algorithm: rsaEncryption
            RSA Public Key: (1024 bit)
                Modulus (1024 bit):
                    00:db:a5:00:8f:71:f9:f2:75:5f:4b:d4:90:13:cb:
                    5e:84:99:11:cb:7f:a5:a5:c7:cb:e1:42:d0:09:15:
                    3c:09:49:84:d5:25:2e:82:5b:2f:c9:3a:bd:ec:b3:
                    02:1d:de:fb:28:78:44:33:7a:9d:5b:33:65:b1:1b:
                    1f:0b:c8:fd:df:78:3f:12:77:b3:39:c8:ee:4b:57:
                    59:98:a2:ec:4e:89:c5:cd:2a:9c:f5:0a:dd:13:2a:
                    67:76:b2:0c:cf:95:7d:ce:68:28:10:1f:8c:b1:d9:
                    04:36:f7:1a:1a:c6:d0:d3:70:e6:c2:1d:aa:d1:12:
                    ca:e1:36:e7:c7:b9:11:a3:3f
                Exponent: 65537 (0x10001)
    Signature Algorithm: md5WithRSAEncryption
        1e:99:59:b5:11:94:b4:8f:6f:7e:b1:9f:e2:a9:e0:33:ee:47:
        f9:30:35:38:b4:ed:dc:59:74:c5:12:95:10:96:53:94:2c:42:
        ab:f8:c3:c2:75:1e:6d:93:f7:b1:83:3a:db:2b:59:df:a0:98:
        78:33:89:f6:b1:b3:3f:5d:c2:85:f4:2d:d1:54:c0:12:99:87:
        4e:85:a8:42:07:7c:29:2c:ac:4a:35:85:ac:d2:03:a9:84:18:
        f8:7b:64:11:a2:04:f8:87:97:cc:1e:19:af:a6:80:b1:53:4d:
        21:47:d1:7a:6b:2c:18:16:88:a2:08:d7:57:e2:c7:5e:a4:ff:
        0f:3a
-----BEGIN CERTIFICATE-----
MIICvDCCAiUCCQCbJ9fo0boJYzANBgkqhkiG9w0BAQQFADCBlTELMAkGA1UEBhMC
REUxETAPBgNVBAgTCFNhYXJsYW5kMRAwDgYDVQQKEwdNUEktU1dTMSIwIAYDVQQL
ExlEaXN0cmlidXRlZCBTeXN0ZW1zIEdyb3VwMRowGAYDVQQDExFBbmRyZWFzIEhh
ZWJlcmxlbjEhMB8GCSqGSIb3DQEJARYSZGVtb2NhQG9jdGFyaW5lLmRlMB4XDTE1
MDQyMDIwNDcxNFoXDTE2MDQxOTIwNDcxNFowga4xCzAJBgNVBAYTAkRFMREwDwYD
VQQIEwhTYWFybGFuZDEQMA4GA1UEChMHTVBJLVNXUzEiMCAGA1UECxMZRGlzdHJp
YnV0ZWQgU3lzdGVtcyBHcm91cDExMC8GA1UEAxMoOTlmYzk0OTEwNTk5NDU4Nzcx
MWUyZjI3NWE1OGFmYTM5YTAyZjk0ZjEjMCEGCSqGSIb3DQEJARYUbm9kZTAzOTVA
b2N0YXJpbmUuZGUwgZ8wDQYJKoZIhvcNAQEBBQADgY0AMIGJAoGBANulAI9x+fJ1
X0vUkBPLXoSZEct/paXHy+FC0AkVPAlJhNUlLoJbL8k6veyzAh3e+yh4RDN6nVsz
ZbEbHwvI/d94PxJ3sznI7ktXWZii7E6Jxc0qnPUK3RMqZ3ayDM+Vfc5oKBAfjLHZ
BDb3GhrG0NNw5sIdqtESyuE258e5EaM/AgMBAAEwDQYJKoZIhvcNAQEEBQADgYEA
HplZtRGUtI9vfrGf4qngM+5H+TA1OLTt3Fl0xRKVEJZTlCxCq/jDwnUebZP3sYM6
2ytZ36CYeDOJ9rGzP13ChfQt0VTAEpmHToWoQgd8KSysSjWFrNIDqYQY+HtkEaIE
+IeXzB4Zr6aAsVNNIUfRemssGBaIogjXV+LHXqT/Dzo=
-----END CERTIFICATE-----
