Certificate:
    Data:
        Version: 1 (0x0)
        Serial Number:
            9b:27:d7:e8:d1:ba:0a:89
        Signature Algorithm: md5WithRSAEncryption
        Issuer: C=DE, ST=Saarland, O=MPI-SWS, OU=Distributed Systems Group, CN=Andreas Haeberlen/emailAddress=democa@octarine.de
        Validity
            Not Before: Apr 20 20:47:27 2015 GMT
            Not After : Apr 19 20:47:27 2016 GMT
        Subject: C=DE, ST=Saarland, O=MPI-SWS, OU=Distributed Systems Group, CN=bfe01221f786e00e2e3418c5b575330f2e041260/emailAddress=node0689@octarine.de
        Subject Public Key Info:
            Public Key Algorithm: rsaEncryption
            RSA Public Key: (1024 bit)
                Modulus (1024 bit):
                    00:c0:81:5c:b5:8c:e6:11:02:45:ef:b4:02:dd:df:
                    67:b3:79:0f:c8:75:f3:fe:20:d9:24:f4:ae:5d:e9:
                    65:3d:97:11:21:c2:f6:09:9a:79:0b:5e:9b:7e:b3:
                    5e:11:92:ea:ef:f6:6a:2f:22:f1:17:c9:b3:97:83:
                    2c:64:70:ba:4b:8b:d1:32:b4:4f:62:29:54:b0:91:
                    e9:fa:12:bd:e6:05:2c:67:b4:55:d7:65:7b:e1:d0:
                    5d:55:8a:77:f5:d0:70:9e:46:eb:77:66:6b:c3:29:
                    c5:25:fa:45:3c:b9:de:7a:c7:e9:52:64:6e:86:df:
                    ae:f2:3c:a7:53:5f:77:06:7d
                Exponent: 65537 (0x10001)
    Signature Algorithm: md5WithRSAEncryption
        45:9a:c8:78:45:ab:07:56:f8:fd:c3:ec:b8:aa:39:cf:fa:b9:
        6a:db:50:67:de:68:92:84:8e:fe:4f:32:ba:3e:48:88:09:d2:
        63:72:2e:70:27:94:b6:81:3e:e6:15:16:a0:48:5f:0d:2a:58:
        d6:e8:fc:2b:ab:20:27:a8:02:00:9f:42:85:e6:3b:0f:17:bf:
        ee:12:50:da:70:91:79:30:25:f9:61:88:6a:1d:73:00:87:62:
        50:7b:38:f4:fa:86:7f:02:26:29:ef:dc:0e:ee:d4:aa:07:15:
        26:eb:a7:45:82:ee:e8:a0:ac:ae:57:8f:c6:d4:7b:45:99:cd:
        fe:4f
-----BEGIN CERTIFICATE-----
MIICvDCCAiUCCQCbJ9fo0boKiTANBgkqhkiG9w0BAQQFADCBlTELMAkGA1UEBhMC
REUxETAPBgNVBAgTCFNhYXJsYW5kMRAwDgYDVQQKEwdNUEktU1dTMSIwIAYDVQQL
ExlEaXN0cmlidXRlZCBTeXN0ZW1zIEdyb3VwMRowGAYDVQQDExFBbmRyZWFzIEhh
ZWJlcmxlbjEhMB8GCSqGSIb3DQEJARYSZGVtb2NhQG9jdGFyaW5lLmRlMB4XDTE1
MDQyMDIwNDcyN1oXDTE2MDQxOTIwNDcyN1owga4xCzAJBgNVBAYTAkRFMREwDwYD
VQQIEwhTYWFybGFuZDEQMA4GA1UEChMHTVBJLVNXUzEiMCAGA1UECxMZRGlzdHJp
YnV0ZWQgU3lzdGVtcyBHcm91cDExMC8GA1UEAxMoYmZlMDEyMjFmNzg2ZTAwZTJl
MzQxOGM1YjU3NTMzMGYyZTA0MTI2MDEjMCEGCSqGSIb3DQEJARYUbm9kZTA2ODlA
b2N0YXJpbmUuZGUwgZ8wDQYJKoZIhvcNAQEBBQADgY0AMIGJAoGBAMCBXLWM5hEC
Re+0At3fZ7N5D8h18/4g2ST0rl3pZT2XESHC9gmaeQtem36zXhGS6u/2ai8i8RfJ
s5eDLGRwukuL0TK0T2IpVLCR6foSveYFLGe0Vddle+HQXVWKd/XQcJ5G63dma8Mp
xSX6RTy53nrH6VJkbobfrvI8p1NfdwZ9AgMBAAEwDQYJKoZIhvcNAQEEBQADgYEA
RZrIeEWrB1b4/cPsuKo5z/q5attQZ95okoSO/k8yuj5IiAnSY3IucCeUtoE+5hUW
oEhfDSpY1uj8K6sgJ6gCAJ9CheY7Dxe/7hJQ2nCReTAl+WGIah1zAIdiUHs49PqG
fwImKe/cDu7UqgcVJuunRYLu6KCsrlePxtR7RZnN/k8=
-----END CERTIFICATE-----
