Certificate:
    Data:
        Version: 1 (0x0)
        Serial Number:
            9b:27:d7:e8:d1:ba:08:d6
        Signature Algorithm: md5WithRSAEncryption
        Issuer: C=DE, ST=Saarland, O=MPI-SWS, OU=Distributed Systems Group, CN=Andreas Haeberlen/emailAddress=democa@octarine.de
        Validity
            Not Before: Apr 20 20:47:08 2015 GMT
            Not After : Apr 19 20:47:08 2016 GMT
        Subject: C=DE, ST=Saarland, O=MPI-SWS, OU=Distributed Systems Group, CN=e7817af542610678b7025f79f63e1b702f1990fe/emailAddress=node0254@octarine.de
        Subject Public Key Info:
            Public Key Algorithm: rsaEncryption
            RSA Public Key: (1024 bit)
                Modulus (1024 bit):
                    00:d2:ba:3d:d5:9c:8f:65:be:71:ce:c2:e4:42:23:
                    39:84:b9:66:ce:7f:53:27:9d:0f:48:a1:a8:5c:2a:
                    60:80:c6:f7:9b:e5:bc:e1:b5:be:ce:5f:e2:be:f7:
                    13:e9:cb:4f:53:6b:86:da:2e:f0:f7:93:19:c0:fa:
                    18:fe:da:65:db:53:3d:88:bb:5a:90:d1:cb:c6:91:
                    bf:06:29:fd:d8:d8:97:07:9e:f4:4e:f9:40:ca:df:
                    49:50:d3:35:64:18:4f:3c:59:ff:72:b6:f9:ea:65:
                    89:df:5f:cf:5b:dd:e4:96:83:a2:2e:7b:52:eb:03:
                    94:7c:ae:b4:fd:3a:99:ec:7f
                Exponent: 65537 (0x10001)
    Signature Algorithm: md5WithRSAEncryption
        79:2b:16:62:9c:b1:5a:f4:45:c4:c6:04:69:a9:52:ff:5f:0d:
        d1:dc:53:02:6e:1c:ad:d1:9f:ee:f5:7b:49:fc:e3:f0:46:27:
        82:d7:7a:cf:c4:8a:23:9e:98:28:4c:86:45:2a:bb:e3:7e:60:
        f7:6a:0b:4b:a7:8f:ef:a3:0a:4c:4e:3e:94:fa:b1:32:af:32:
        2b:c1:d6:8e:12:56:cc:c8:8a:fe:62:3d:54:e5:d9:33:ef:ad:
        d3:1b:b4:19:94:7a:e9:08:c1:1d:ab:25:ba:c9:77:49:b5:40:
        b9:7e:c0:5d:40:e0:46:a8:3c:4c:f0:9a:3a:af:20:db:a9:7f:
        c2:f9
-----BEGIN CERTIFICATE-----
MIICvDCCAiUCCQCbJ9fo0boI1jANBgkqhkiG9w0BAQQFADCBlTELMAkGA1UEBhMC
REUxETAPBgNVBAgTCFNhYXJsYW5kMRAwDgYDVQQKEwdNUEktU1dTMSIwIAYDVQQL
ExlEaXN0cmlidXRlZCBTeXN0ZW1zIEdyb3VwMRowGAYDVQQDExFBbmRyZWFzIEhh
ZWJlcmxlbjEhMB8GCSqGSIb3DQEJARYSZGVtb2NhQG9jdGFyaW5lLmRlMB4XDTE1
MDQyMDIwNDcwOFoXDTE2MDQxOTIwNDcwOFowga4xCzAJBgNVBAYTAkRFMREwDwYD
VQQIEwhTYWFybGFuZDEQMA4GA1UEChMHTVBJLVNXUzEiMCAGA1UECxMZRGlzdHJp
YnV0ZWQgU3lzdGVtcyBHcm91cDExMC8GA1UEAxMoZTc4MTdhZjU0MjYxMDY3OGI3
MDI1Zjc5ZjYzZTFiNzAyZjE5OTBmZTEjMCEGCSqGSIb3DQEJARYUbm9kZTAyNTRA
b2N0YXJpbmUuZGUwgZ8wDQYJKoZIhvcNAQEBBQADgY0AMIGJAoGBANK6PdWcj2W+
cc7C5EIjOYS5Zs5/UyedD0ihqFwqYIDG95vlvOG1vs5f4r73E+nLT1Nrhtou8PeT
GcD6GP7aZdtTPYi7WpDRy8aRvwYp/djYlwee9E75QMrfSVDTNWQYTzxZ/3K2+epl
id9fz1vd5JaDoi57UusDlHyutP06mex/AgMBAAEwDQYJKoZIhvcNAQEEBQADgYEA
eSsWYpyxWvRFxMYEaalS/18N0dxTAm4crdGf7vV7Sfzj8EYngtd6z8SKI56YKEyG
RSq7435g92oLS6eP76MKTE4+lPqxMq8yK8HWjhJWzMiK/mI9VOXZM++t0xu0GZR6
6QjBHaslusl3SbVAuX7AXUDgRqg8TPCaOq8g26l/wvk=
-----END CERTIFICATE-----
