Certificate:
    Data:
        Version: 1 (0x0)
        Serial Number:
            9b:27:d7:e8:d1:ba:0b:2c
        Signature Algorithm: md5WithRSAEncryption
        Issuer: C=DE, ST=Saarland, O=MPI-SWS, OU=Distributed Systems Group, CN=Andreas Haeberlen/emailAddress=democa@octarine.de
        Validity
            Not Before: Apr 20 20:47:34 2015 GMT
            Not After : Apr 19 20:47:34 2016 GMT
        Subject: C=DE, ST=Saarland, O=MPI-SWS, OU=Distributed Systems Group, CN=13e28e7aa56cb05294d9888dd40920043e6cde67/emailAddress=node0852@octarine.de
        Subject Public Key Info:
            Public Key Algorithm: rsaEncryption
            RSA Public Key: (1024 bit)
                Modulus (1024 bit):
                    00:c8:56:81:49:d6:74:e0:3a:77:3c:6b:ef:d2:72:
                    06:7b:a6:21:61:bf:a5:9e:7c:6d:97:3d:23:35:cb:
                    3e:e7:33:cd:a7:e7:54:1b:2c:ad:04:48:e8:cd:fe:
                    db:4f:36:80:5a:0e:07:ce:b6:da:49:d5:1b:65:79:
                    1e:8a:e0:ee:ea:a0:b8:5c:f5:53:af:32:ec:a9:f1:
                    9d:f5:69:45:a1:ff:71:6d:ab:87:ef:25:cd:2f:11:
                    26:2e:2c:5d:b0:37:75:07:6b:d6:a9:f8:12:7d:c9:
                    34:e7:09:d9:64:71:04:46:e4:f6:8d:ea:47:ff:c4:
                    c8:46:da:be:44:70:91:be:b5
                Exponent: 65537 (0x10001)
    Signature Algorithm: md5WithRSAEncryption
        41:83:de:73:72:b4:af:f9:11:a1:ac:48:6b:a1:52:f0:d3:d8:
        1a:44:78:a1:ba:20:ef:50:8b:07:a9:ab:26:7a:ee:33:42:b1:
        ed:d2:79:29:99:b6:8e:79:76:9b:40:16:af:2a:68:38:3a:65:
        7f:c0:37:ab:70:9a:0b:ac:75:7f:e2:92:e1:77:29:9c:e4:01:
        c4:f8:ed:ea:95:28:4c:76:4b:c9:a2:99:7a:76:3b:b7:ec:db:
        75:65:08:2e:c3:35:1a:43:b2:d2:95:b1:82:f9:98:19:e7:34:
        e2:73:ec:ba:cd:9f:47:e6:78:04:d0:c3:5d:31:b2:8e:2f:60:
        eb:e1
-----BEGIN CERTIFICATE-----
MIICvDCCAiUCCQCbJ9fo0boLLDANBgkqhkiG9w0BAQQFADCBlTELMAkGA1UEBhMC
REUxETAPBgNVBAgTCFNhYXJsYW5kMRAwDgYDVQQKEwdNUEktU1dTMSIwIAYDVQQL
ExlEaXN0cmlidXRlZCBTeXN0ZW1zIEdyb3VwMRowGAYDVQQDExFBbmRyZWFzIEhh
ZWJlcmxlbjEhMB8GCSqGSIb3DQEJARYSZGVtb2NhQG9jdGFyaW5lLmRlMB4XDTE1
MDQyMDIwNDczNFoXDTE2MDQxOTIwNDczNFowga4xCzAJBgNVBAYTAkRFMREwDwYD
VQQIEwhTYWFybGFuZDEQMA4GA1UEChMHTVBJLVNXUzEiMCAGA1UECxMZRGlzdHJp
YnV0ZWQgU3lzdGVtcyBHcm91cDExMC8GA1UEAxMoMTNlMjhlN2FhNTZjYjA1Mjk0
ZDk4ODhkZDQwOTIwMDQzZTZjZGU2NzEjMCEGCSqGSIb3DQEJARYUbm9kZTA4NTJA
b2N0YXJpbmUuZGUwgZ8wDQYJKoZIhvcNAQEBBQADgY0AMIGJAoGBAMhWgUnWdOA6
dzxr79JyBnumIWG/pZ58bZc9IzXLPuczzafnVBssrQRI6M3+2082gFoOB8622knV
G2V5Horg7uqguFz1U68y7KnxnfVpRaH/cW2rh+8lzS8RJi4sXbA3dQdr1qn4En3J
NOcJ2WRxBEbk9o3qR//EyEbavkRwkb61AgMBAAEwDQYJKoZIhvcNAQEEBQADgYEA
QYPec3K0r/kRoaxIa6FS8NPYGkR4obog71CLB6mrJnruM0Kx7dJ5KZm2jnl2m0AW
rypoODplf8A3q3CaC6x1f+KS4XcpnOQBxPjt6pUoTHZLyaKZenY7t+zbdWUILsM1
GkOy0pWxgvmYGec04nPsus2fR+Z4BNDDXTGyji9g6+E=
-----END CERTIFICATE-----
