Certificate:
    Data:
        Version: 1 (0x0)
        Serial Number:
            9b:27:d7:e8:d1:ba:0a:45
        Signature Algorithm: md5WithRSAEncryption
        Issuer: C=DE, ST=Saarland, O=MPI-SWS, OU=Distributed Systems Group, CN=Andreas Haeberlen/emailAddress=democa@octarine.de
        Validity
            Not Before: Apr 20 20:47:24 2015 GMT
            Not After : Apr 19 20:47:24 2016 GMT
        Subject: C=DE, ST=Saarland, O=MPI-SWS, OU=Distributed Systems Group, CN=1db31b2e413f0b493983ef4e6daeec40a03bb6af/emailAddress=node0621@octarine.de
        Subject Public Key Info:
            Public Key Algorithm: rsaEncryption
            RSA Public Key: (1024 bit)
                Modulus (1024 bit):
                    00:e4:2f:6c:a2:2d:74:a1:cd:cc:1f:9d:c9:60:32:
                    e0:c3:31:22:ff:ec:36:08:56:58:f5:4a:88:aa:2b:
                    6f:3f:c3:18:48:30:ec:d6:44:1e:6f:32:a8:72:81:
                    7c:7d:22:ab:2c:eb:de:a4:5c:1b:b5:6c:ca:8f:32:
                    74:84:b9:d3:57:91:55:3c:c0:2c:e8:17:95:65:50:
                    6c:1f:e6:80:d6:14:66:c1:d1:ef:dc:35:d1:e7:ec:
                    be:f9:0b:e6:63:f8:e2:af:f7:29:56:06:5b:e9:c3:
                    76:62:b6:bb:16:48:8c:48:9c:56:ba:c4:46:b8:9e:
                    74:a9:16:0d:76:c6:61:87:79
                Exponent: 65537 (0x10001)
    Signature Algorithm: md5WithRSAEncryption
        39:c2:17:d0:e7:ec:86:0e:35:98:51:c6:e9:01:89:f5:fc:8b:
        ae:f0:95:9c:f6:75:d8:1b:29:73:29:6e:cf:13:48:57:92:ce:
        8a:5f:5d:12:83:58:12:40:78:92:65:cd:80:e2:fa:d2:ef:a4:
        61:e0:8e:9e:82:09:c5:b1:24:9d:11:71:bf:27:ce:1c:55:c9:
        b0:e7:a5:8b:28:4a:bb:e7:39:71:ce:5e:5e:82:1c:0d:63:55:
        e4:a3:0b:af:d9:96:d9:e1:3d:03:91:b2:39:73:b6:df:88:ef:
        8a:64:4d:ed:5a:d4:9b:57:4f:d8:0a:99:75:97:a6:c2:96:b2:
        50:18
-----BEGIN CERTIFICATE-----
MIICvDCCAiUCCQCbJ9fo0boKRTANBgkqhkiG9w0BAQQFADCBlTELMAkGA1UEBhMC
REUxETAPBgNVBAgTCFNhYXJsYW5kMRAwDgYDVQQKEwdNUEktU1dTMSIwIAYDVQQL
ExlEaXN0cmlidXRlZCBTeXN0ZW1zIEdyb3VwMRowGAYDVQQDExFBbmRyZWFzIEhh
ZWJlcmxlbjEhMB8GCSqGSIb3DQEJARYSZGVtb2NhQG9jdGFyaW5lLmRlMB4XDTE1
MDQyMDIwNDcyNFoXDTE2MDQxOTIwNDcyNFowga4xCzAJBgNVBAYTAkRFMREwDwYD
VQQIEwhTYWFybGFuZDEQMA4GA1UEChMHTVBJLVNXUzEiMCAGA1UECxMZRGlzdHJp
YnV0ZWQgU3lzdGVtcyBHcm91cDExMC8GA1UEAxMoMWRiMzFiMmU0MTNmMGI0OTM5
ODNlZjRlNmRhZWVjNDBhMDNiYjZhZjEjMCEGCSqGSIb3DQEJARYUbm9kZTA2MjFA
b2N0YXJpbmUuZGUwgZ8wDQYJKoZIhvcNAQEBBQADgY0AMIGJAoGBAOQvbKItdKHN
zB+dyWAy4MMxIv/sNghWWPVKiKorbz/DGEgw7NZEHm8yqHKBfH0iqyzr3qRcG7Vs
yo8ydIS501eRVTzALOgXlWVQbB/mgNYUZsHR79w10efsvvkL5mP44q/3KVYGW+nD
dmK2uxZIjEicVrrERriedKkWDXbGYYd5AgMBAAEwDQYJKoZIhvcNAQEEBQADgYEA
OcIX0Ofshg41mFHG6QGJ9fyLrvCVnPZ12BspcyluzxNIV5LOil9dEoNYEkB4kmXN
gOL60u+kYeCOnoIJxbEknRFxvyfOHFXJsOeliyhKu+c5cc5eXoIcDWNV5KMLr9mW
2eE9A5GyOXO234jvimRN7VrUm1dP2AqZdZemwpayUBg=
-----END CERTIFICATE-----
