Certificate:
    Data:
        Version: 1 (0x0)
        Serial Number:
            9b:27:d7:e8:d1:ba:09:33
        Signature Algorithm: md5WithRSAEncryption
        Issuer: C=DE, ST=Saarland, O=MPI-SWS, OU=Distributed Systems Group, CN=Andreas Haeberlen/emailAddress=democa@octarine.de
        Validity
            Not Before: Apr 20 20:47:12 2015 GMT
            Not After : Apr 19 20:47:12 2016 GMT
        Subject: C=DE, ST=Saarland, O=MPI-SWS, OU=Distributed Systems Group, CN=c38c6508c5dae72f9788e8124b4b6db203f69fe5/emailAddress=node0347@octarine.de
        Subject Public Key Info:
            Public Key Algorithm: rsaEncryption
            RSA Public Key: (1024 bit)
                Modulus (1024 bit):
                    00:b4:92:ff:9e:b6:89:51:aa:cf:7a:67:f6:0b:3c:
                    9d:c3:8b:30:d8:bf:76:4e:ab:a3:5c:80:f4:f9:e4:
                    0c:a4:de:7a:9e:c0:1a:f9:dc:86:15:5d:3c:83:13:
                    e7:be:82:ae:fc:97:19:3a:60:6e:2a:9d:81:da:1e:
                    21:1f:e3:13:22:c5:b4:c3:00:53:17:bb:0d:c6:6f:
                    a9:e2:f8:5a:9a:e7:24:3e:be:2e:12:b2:8d:c4:75:
                    40:40:fc:f8:03:0a:3b:4a:41:aa:34:78:54:84:8e:
                    33:79:0c:f9:f6:60:1c:a1:55:ac:0e:bc:5f:f8:7e:
                    9d:ef:03:97:65:bb:59:c2:67
                Exponent: 65537 (0x10001)
    Signature Algorithm: md5WithRSAEncryption
        45:a4:9d:e3:4c:59:8d:a3:81:f4:fd:17:43:ff:fd:9f:57:60:
        4b:4b:29:31:99:1b:e8:52:16:78:d5:bc:77:1f:f5:60:6b:87:
        08:ba:19:48:39:25:e4:3a:ed:9d:5a:1d:2a:4c:f1:05:2b:dd:
        ab:3d:61:8a:5a:f8:38:0b:e2:14:c5:b2:01:71:1a:3f:72:d1:
        7a:63:dc:dd:1a:03:a3:0f:c9:18:6e:88:85:12:8e:02:80:ff:
        6e:89:da:35:d4:b0:bc:fe:7e:89:94:5e:20:05:1e:f5:71:e5:
        58:27:72:7d:6a:8e:58:d8:93:57:5e:3d:4d:6b:eb:44:be:13:
        83:31
-----BEGIN CERTIFICATE-----
MIICvDCCAiUCCQCbJ9fo0boJMzANBgkqhkiG9w0BAQQFADCBlTELMAkGA1UEBhMC
REUxETAPBgNVBAgTCFNhYXJsYW5kMRAwDgYDVQQKEwdNUEktU1dTMSIwIAYDVQQL
ExlEaXN0cmlidXRlZCBTeXN0ZW1zIEdyb3VwMRowGAYDVQQDExFBbmRyZWFzIEhh
ZWJlcmxlbjEhMB8GCSqGSIb3DQEJARYSZGVtb2NhQG9jdGFyaW5lLmRlMB4XDTE1
MDQyMDIwNDcxMloXDTE2MDQxOTIwNDcxMlowga4xCzAJBgNVBAYTAkRFMREwDwYD
VQQIEwhTYWFybGFuZDEQMA4GA1UEChMHTVBJLVNXUzEiMCAGA1UECxMZRGlzdHJp
YnV0ZWQgU3lzdGVtcyBHcm91cDExMC8GA1UEAxMoYzM4YzY1MDhjNWRhZTcyZjk3
ODhlODEyNGI0YjZkYjIwM2Y2OWZlNTEjMCEGCSqGSIb3DQEJARYUbm9kZTAzNDdA
b2N0YXJpbmUuZGUwgZ8wDQYJKoZIhvcNAQEBBQADgY0AMIGJAoGBALSS/562iVGq
z3pn9gs8ncOLMNi/dk6ro1yA9PnkDKTeep7AGvnchhVdPIMT576CrvyXGTpgbiqd
gdoeIR/jEyLFtMMAUxe7DcZvqeL4WprnJD6+LhKyjcR1QED8+AMKO0pBqjR4VISO
M3kM+fZgHKFVrA68X/h+ne8Dl2W7WcJnAgMBAAEwDQYJKoZIhvcNAQEEBQADgYEA
RaSd40xZjaOB9P0XQ//9n1dgS0spMZkb6FIWeNW8dx/1YGuHCLoZSDkl5DrtnVod
KkzxBSvdqz1hilr4OAviFMWyAXEaP3LRemPc3RoDow/JGG6IhRKOAoD/bonaNdSw
vP5+iZReIAUe9XHlWCdyfWqOWNiTV149TWvrRL4TgzE=
-----END CERTIFICATE-----
