Certificate:
    Data:
        Version: 1 (0x0)
        Serial Number:
            9b:27:d7:e8:d1:ba:09:bb
        Signature Algorithm: md5WithRSAEncryption
        Issuer: C=DE, ST=Saarland, O=MPI-SWS, OU=Distributed Systems Group, CN=Andreas Haeberlen/emailAddress=democa@octarine.de
        Validity
            Not Before: Apr 20 20:47:18 2015 GMT
            Not After : Apr 19 20:47:18 2016 GMT
        Subject: C=DE, ST=Saarland, O=MPI-SWS, OU=Distributed Systems Group, CN=2018d994f2afb7f8b9a2ef96829eb4ed5063af89/emailAddress=node0483@octarine.de
        Subject Public Key Info:
            Public Key Algorithm: rsaEncryption
            RSA Public Key: (1024 bit)
                Modulus (1024 bit):
                    00:c4:bc:e8:93:be:85:ec:a8:86:6a:37:eb:cc:7e:
                    2a:79:68:09:67:24:50:e5:bc:58:1b:eb:94:4a:ec:
                    45:2c:19:28:e7:bc:03:35:16:47:8c:8c:b3:fc:6c:
                    d9:67:4a:96:35:e3:9e:b0:db:99:b4:13:5e:80:bd:
                    38:dc:11:7f:92:b4:ba:51:70:0c:45:1e:1c:45:c7:
                    ea:a3:3e:10:89:f9:70:96:c2:3c:42:89:bb:1c:36:
                    41:82:8f:a6:4b:32:81:25:55:62:ab:3f:50:97:3a:
                    0e:53:8c:7f:03:c3:f2:21:66:c8:b2:3c:93:e1:70:
                    dd:61:47:61:b0:86:a3:1a:17
                Exponent: 65537 (0x10001)
    Signature Algorithm: md5WithRSAEncryption
        ca:b0:45:18:ef:79:aa:e9:ed:4d:c3:ab:c9:e4:c7:35:80:0a:
        18:01:45:14:3c:ea:43:3f:fc:07:93:27:35:99:c0:bc:40:55:
        51:01:91:d6:9f:b6:66:7a:52:4c:1a:55:28:8c:6b:e7:cc:43:
        bc:e9:ae:3a:de:b0:bd:b8:d6:09:20:db:bf:2a:a9:01:cd:64:
        c4:f3:0f:a0:b7:0c:a8:66:15:fa:c7:8e:0c:8e:db:24:43:70:
        36:a2:46:60:a6:db:69:64:1f:21:b4:c7:b8:20:2f:3b:54:ee:
        26:ed:d0:15:a2:46:ab:30:fc:ae:a0:b4:5d:ed:42:92:6e:5b:
        83:d2
-----BEGIN CERTIFICATE-----
MIICvDCCAiUCCQCbJ9fo0boJuzANBgkqhkiG9w0BAQQFADCBlTELMAkGA1UEBhMC
REUxETAPBgNVBAgTCFNhYXJsYW5kMRAwDgYDVQQKEwdNUEktU1dTMSIwIAYDVQQL
ExlEaXN0cmlidXRlZCBTeXN0ZW1zIEdyb3VwMRowGAYDVQQDExFBbmRyZWFzIEhh
ZWJlcmxlbjEhMB8GCSqGSIb3DQEJARYSZGVtb2NhQG9jdGFyaW5lLmRlMB4XDTE1
MDQyMDIwNDcxOFoXDTE2MDQxOTIwNDcxOFowga4xCzAJBgNVBAYTAkRFMREwDwYD
VQQIEwhTYWFybGFuZDEQMA4GA1UEChMHTVBJLVNXUzEiMCAGA1UECxMZRGlzdHJp
YnV0ZWQgU3lzdGVtcyBHcm91cDExMC8GA1UEAxMoMjAxOGQ5OTRmMmFmYjdmOGI5
YTJlZjk2ODI5ZWI0ZWQ1MDYzYWY4OTEjMCEGCSqGSIb3DQEJARYUbm9kZTA0ODNA
b2N0YXJpbmUuZGUwgZ8wDQYJKoZIhvcNAQEBBQADgY0AMIGJAoGBAMS86JO+heyo
hmo368x+KnloCWckUOW8WBvrlErsRSwZKOe8AzUWR4yMs/xs2WdKljXjnrDbmbQT
XoC9ONwRf5K0ulFwDEUeHEXH6qM+EIn5cJbCPEKJuxw2QYKPpksygSVVYqs/UJc6
DlOMfwPD8iFmyLI8k+Fw3WFHYbCGoxoXAgMBAAEwDQYJKoZIhvcNAQEEBQADgYEA
yrBFGO95quntTcOryeTHNYAKGAFFFDzqQz/8B5MnNZnAvEBVUQGR1p+2ZnpSTBpV
KIxr58xDvOmuOt6wvbjWCSDbvyqpAc1kxPMPoLcMqGYV+seODI7bJENwNqJGYKbb
aWQfIbTHuCAvO1TuJu3QFaJGqzD8rqC0Xe1Ckm5bg9I=
-----END CERTIFICATE-----
