Certificate:
    Data:
        Version: 1 (0x0)
        Serial Number:
            9b:27:d7:e8:d1:ba:0b:b0
        Signature Algorithm: md5WithRSAEncryption
        Issuer: C=DE, ST=Saarland, O=MPI-SWS, OU=Distributed Systems Group, CN=Andreas Haeberlen/emailAddress=democa@octarine.de
        Validity
            Not Before: Apr 20 20:47:41 2015 GMT
            Not After : Apr 19 20:47:41 2016 GMT
        Subject: C=DE, ST=Saarland, O=MPI-SWS, OU=Distributed Systems Group, CN=8c5dd04a4c664b3429bdbc85b4f291a1dffbf464/emailAddress=node0984@octarine.de
        Subject Public Key Info:
            Public Key Algorithm: rsaEncryption
            RSA Public Key: (1024 bit)
                Modulus (1024 bit):
                    00:bf:ac:3c:b7:dc:be:cb:9a:f8:49:d5:8e:61:bc:
                    f8:fc:8c:af:67:e7:d3:f3:17:b6:bb:38:4e:bb:ab:
                    a9:94:11:1f:4e:63:62:d8:fd:60:0e:10:58:ee:72:
                    0d:41:ca:14:62:23:99:71:85:8f:78:fa:87:ed:4d:
                    98:d4:72:2f:3e:f1:31:79:a4:cc:da:54:18:fc:41:
                    83:43:a2:b2:6d:9b:31:6d:f7:2c:16:94:23:5c:59:
                    af:9d:ec:28:37:1e:a3:f1:95:6b:15:4c:13:d1:d3:
                    84:0a:af:f2:6f:86:90:08:6f:c9:4e:0c:ae:b1:39:
                    81:65:39:26:b0:51:ab:82:75
                Exponent: 65537 (0x10001)
    Signature Algorithm: md5WithRSAEncryption
        67:77:ff:d5:78:98:12:94:f0:12:1b:c8:d3:9f:87:f3:5a:80:
        17:ad:55:3f:a0:bc:9e:a7:db:e3:04:21:3a:87:84:15:ad:fd:
        a5:13:d5:2c:cd:f6:e9:5f:93:9f:4d:62:2d:bb:70:f6:7c:b9:
        f3:29:bf:8f:e4:47:27:0c:e6:09:81:31:30:34:1d:21:b9:42:
        2b:cc:7c:76:1b:9a:a6:52:57:a8:1b:7a:ba:36:5c:3d:85:2d:
        a2:8f:c5:da:4d:79:3c:e4:33:26:f3:4e:68:3c:b7:e2:13:d2:
        50:74:7c:ae:a0:c6:b3:17:ee:b8:1f:5c:fd:1e:d8:a4:0b:33:
        0c:97
-----BEGIN CERTIFICATE-----
MIICvDCCAiUCCQCbJ9fo0boLsDANBgkqhkiG9w0BAQQFADCBlTELMAkGA1UEBhMC
REUxETAPBgNVBAgTCFNhYXJsYW5kMRAwDgYDVQQKEwdNUEktU1dTMSIwIAYDVQQL
ExlEaXN0cmlidXRlZCBTeXN0ZW1zIEdyb3VwMRowGAYDVQQDExFBbmRyZWFzIEhh
ZWJlcmxlbjEhMB8GCSqGSIb3DQEJARYSZGVtb2NhQG9jdGFyaW5lLmRlMB4XDTE1
MDQyMDIwNDc0MVoXDTE2MDQxOTIwNDc0MVowga4xCzAJBgNVBAYTAkRFMREwDwYD
VQQIEwhTYWFybGFuZDEQMA4GA1UEChMHTVBJLVNXUzEiMCAGA1UECxMZRGlzdHJp
YnV0ZWQgU3lzdGVtcyBHcm91cDExMC8GA1UEAxMoOGM1ZGQwNGE0YzY2NGIzNDI5
YmRiYzg1YjRmMjkxYTFkZmZiZjQ2NDEjMCEGCSqGSIb3DQEJARYUbm9kZTA5ODRA
b2N0YXJpbmUuZGUwgZ8wDQYJKoZIhvcNAQEBBQADgY0AMIGJAoGBAL+sPLfcvsua
+EnVjmG8+PyMr2fn0/MXtrs4TrurqZQRH05jYtj9YA4QWO5yDUHKFGIjmXGFj3j6
h+1NmNRyLz7xMXmkzNpUGPxBg0Oism2bMW33LBaUI1xZr53sKDceo/GVaxVME9HT
hAqv8m+GkAhvyU4MrrE5gWU5JrBRq4J1AgMBAAEwDQYJKoZIhvcNAQEEBQADgYEA
Z3f/1XiYEpTwEhvI05+H81qAF61VP6C8nqfb4wQhOoeEFa39pRPVLM326V+Tn01i
Lbtw9ny58ym/j+RHJwzmCYExMDQdIblCK8x8dhuaplJXqBt6ujZcPYUtoo/F2k15
POQzJvNOaDy34hPSUHR8rqDGsxfuuB9c/R7YpAszDJc=
-----END CERTIFICATE-----
