Certificate:
    Data:
        Version: 1 (0x0)
        Serial Number:
            9b:27:d7:e8:d1:ba:09:85
        Signature Algorithm: md5WithRSAEncryption
        Issuer: C=DE, ST=Saarland, O=MPI-SWS, OU=Distributed Systems Group, CN=Andreas Haeberlen/emailAddress=democa@octarine.de
        Validity
            Not Before: Apr 20 20:47:15 2015 GMT
            Not After : Apr 19 20:47:15 2016 GMT
        Subject: C=DE, ST=Saarland, O=MPI-SWS, OU=Distributed Systems Group, CN=269f6b18ee63dc4a0a2c3f63546956c7d57309bf/emailAddress=node0429@octarine.de
        Subject Public Key Info:
            Public Key Algorithm: rsaEncryption
            RSA Public Key: (1024 bit)
                Modulus (1024 bit):
                    00:a4:e4:23:35:24:1d:e9:71:aa:82:64:fc:a0:a4:
                    0c:4a:e2:fe:6e:4a:dd:11:56:d1:a5:ef:9c:cd:6a:
                    00:d4:38:f7:c8:ff:85:d5:21:b8:73:fa:ab:40:3f:
                    c1:91:5f:74:e1:15:9c:34:f1:d6:3f:89:94:6c:93:
                    69:99:69:f0:41:fc:85:7a:e8:e7:a1:31:99:98:c3:
                    5a:ad:a2:3e:59:90:3b:cd:30:59:9b:90:e5:11:a9:
                    8d:d9:ca:ae:55:51:ec:ec:cc:85:7f:33:49:ad:38:
                    0e:8d:77:55:1f:63:69:2b:4d:ec:b6:d9:fe:d6:43:
                    2c:7e:8b:fc:b9:dd:a4:5c:5b
                Exponent: 65537 (0x10001)
    Signature Algorithm: md5WithRSAEncryption
        62:49:32:d6:46:11:98:78:eb:53:3f:8b:01:4b:30:82:60:61:
        eb:85:e5:8f:8d:cb:22:b9:cd:43:fc:72:7e:02:3c:95:3f:6f:
        2b:16:92:2b:f3:fd:81:44:35:ad:f0:96:20:63:07:b6:79:58:
        b0:af:02:62:b4:f7:d6:e2:c5:1a:66:ff:e3:fe:b9:cf:37:f1:
        d6:d8:c3:3c:db:34:18:b2:0a:1b:e4:9d:b7:b9:bb:57:62:fa:
        8b:a0:3d:0c:af:7c:f1:38:f7:74:3b:61:58:c3:36:d1:11:73:
        be:fe:32:a7:9d:a7:87:6f:d8:f4:16:1f:a7:33:97:bd:48:1e:
        7a:cd
-----BEGIN CERTIFICATE-----
MIICvDCCAiUCCQCbJ9fo0boJhTANBgkqhkiG9w0BAQQFADCBlTELMAkGA1UEBhMC
REUxETAPBgNVBAgTCFNhYXJsYW5kMRAwDgYDVQQKEwdNUEktU1dTMSIwIAYDVQQL
ExlEaXN0cmlidXRlZCBTeXN0ZW1zIEdyb3VwMRowGAYDVQQDExFBbmRyZWFzIEhh
ZWJlcmxlbjEhMB8GCSqGSIb3DQEJARYSZGVtb2NhQG9jdGFyaW5lLmRlMB4XDTE1
MDQyMDIwNDcxNVoXDTE2MDQxOTIwNDcxNVowga4xCzAJBgNVBAYTAkRFMREwDwYD
VQQIEwhTYWFybGFuZDEQMA4GA1UEChMHTVBJLVNXUzEiMCAGA1UECxMZRGlzdHJp
YnV0ZWQgU3lzdGVtcyBHcm91cDExMC8GA1UEAxMoMjY5ZjZiMThlZTYzZGM0YTBh
MmMzZjYzNTQ2OTU2YzdkNTczMDliZjEjMCEGCSqGSIb3DQEJARYUbm9kZTA0MjlA
b2N0YXJpbmUuZGUwgZ8wDQYJKoZIhvcNAQEBBQADgY0AMIGJAoGBAKTkIzUkHelx
qoJk/KCkDEri/m5K3RFW0aXvnM1qANQ498j/hdUhuHP6q0A/wZFfdOEVnDTx1j+J
lGyTaZlp8EH8hXro56ExmZjDWq2iPlmQO80wWZuQ5RGpjdnKrlVR7OzMhX8zSa04
Do13VR9jaStN7LbZ/tZDLH6L/LndpFxbAgMBAAEwDQYJKoZIhvcNAQEEBQADgYEA
Ykky1kYRmHjrUz+LAUswgmBh64Xlj43LIrnNQ/xyfgI8lT9vKxaSK/P9gUQ1rfCW
IGMHtnlYsK8CYrT31uLFGmb/4/65zzfx1tjDPNs0GLIKG+Sdt7m7V2L6i6A9DK98
8Tj3dDthWMM20RFzvv4yp52nh2/Y9BYfpzOXvUgees0=
-----END CERTIFICATE-----
