Certificate:
    Data:
        Version: 1 (0x0)
        Serial Number:
            9b:27:d7:e8:d1:ba:0a:28
        Signature Algorithm: md5WithRSAEncryption
        Issuer: C=DE, ST=Saarland, O=MPI-SWS, OU=Distributed Systems Group, CN=Andreas Haeberlen/emailAddress=democa@octarine.de
        Validity
            Not Before: Apr 20 20:47:23 2015 GMT
            Not After : Apr 19 20:47:23 2016 GMT
        Subject: C=DE, ST=Saarland, O=MPI-SWS, OU=Distributed Systems Group, CN=9f5dc188e3cca1eedd050b5ca65cb3f5253f6b75/emailAddress=node0592@octarine.de
        Subject Public Key Info:
            Public Key Algorithm: rsaEncryption
            RSA Public Key: (1024 bit)
                Modulus (1024 bit):
                    00:c1:3a:35:9f:7c:de:c9:af:d4:0f:69:e6:52:b8:
                    eb:61:67:fe:64:0b:54:c9:c8:fb:c4:1c:1d:8d:67:
                    09:59:ff:04:f9:49:05:92:37:1f:56:47:4c:6c:ea:
                    3c:31:37:40:55:8f:be:22:25:b0:45:2f:5f:d3:a7:
                    42:72:61:ba:dc:0c:a0:c9:d7:3b:82:02:86:b2:c6:
                    7e:9c:c6:cf:15:27:af:e8:e6:6b:0f:dd:dc:03:bb:
                    a9:57:18:e2:01:95:9e:2a:85:c3:16:23:32:02:c8:
                    54:42:1c:72:3c:45:38:ad:97:97:e0:a8:36:bd:fd:
                    64:ed:6f:62:49:a7:7e:cd:65
                Exponent: 65537 (0x10001)
    Signature Algorithm: md5WithRSAEncryption
        70:05:31:db:10:9f:7b:1b:a4:02:02:c6:1d:ec:ce:d7:91:3d:
        5d:46:cc:fb:88:57:98:8b:b4:33:bc:e7:ec:60:44:e0:24:fb:
        fb:78:cb:d3:da:7e:65:6e:25:2e:3c:ec:11:c7:61:ad:08:fe:
        5b:88:ad:80:5b:b3:6d:6b:7d:e5:b6:bc:4d:64:55:20:a9:a5:
        80:43:26:13:6e:82:cf:55:d8:33:fb:65:03:29:b4:b3:e0:79:
        11:c7:41:c9:1c:16:5b:57:d8:44:62:77:30:3c:52:89:b2:ab:
        fa:af:eb:00:dc:a4:f1:29:51:72:d1:5f:4e:b7:b8:a8:0d:fd:
        02:e5
-----BEGIN CERTIFICATE-----
MIICvDCCAiUCCQCbJ9fo0boKKDANBgkqhkiG9w0BAQQFADCBlTELMAkGA1UEBhMC
REUxETAPBgNVBAgTCFNhYXJsYW5kMRAwDgYDVQQKEwdNUEktU1dTMSIwIAYDVQQL
ExlEaXN0cmlidXRlZCBTeXN0ZW1zIEdyb3VwMRowGAYDVQQDExFBbmRyZWFzIEhh
ZWJlcmxlbjEhMB8GCSqGSIb3DQEJARYSZGVtb2NhQG9jdGFyaW5lLmRlMB4XDTE1
MDQyMDIwNDcyM1oXDTE2MDQxOTIwNDcyM1owga4xCzAJBgNVBAYTAkRFMREwDwYD
VQQIEwhTYWFybGFuZDEQMA4GA1UEChMHTVBJLVNXUzEiMCAGA1UECxMZRGlzdHJp
YnV0ZWQgU3lzdGVtcyBHcm91cDExMC8GA1UEAxMoOWY1ZGMxODhlM2NjYTFlZWRk
MDUwYjVjYTY1Y2IzZjUyNTNmNmI3NTEjMCEGCSqGSIb3DQEJARYUbm9kZTA1OTJA
b2N0YXJpbmUuZGUwgZ8wDQYJKoZIhvcNAQEBBQADgY0AMIGJAoGBAME6NZ983smv
1A9p5lK462Fn/mQLVMnI+8QcHY1nCVn/BPlJBZI3H1ZHTGzqPDE3QFWPviIlsEUv
X9OnQnJhutwMoMnXO4IChrLGfpzGzxUnr+jmaw/d3AO7qVcY4gGVniqFwxYjMgLI
VEIccjxFOK2Xl+CoNr39ZO1vYkmnfs1lAgMBAAEwDQYJKoZIhvcNAQEEBQADgYEA
cAUx2xCfexukAgLGHezO15E9XUbM+4hXmIu0M7zn7GBE4CT7+3jL09p+ZW4lLjzs
EcdhrQj+W4itgFuzbWt95ba8TWRVIKmlgEMmE26Cz1XYM/tlAym0s+B5EcdByRwW
W1fYRGJ3MDxSibKr+q/rANyk8SlRctFfTre4qA39AuU=
-----END CERTIFICATE-----
