Certificate:
    Data:
        Version: 1 (0x0)
        Serial Number:
            9b:27:d7:e8:d1:ba:08:ce
        Signature Algorithm: md5WithRSAEncryption
        Issuer: C=DE, ST=Saarland, O=MPI-SWS, OU=Distributed Systems Group, CN=Andreas Haeberlen/emailAddress=democa@octarine.de
        Validity
            Not Before: Apr 20 20:47:07 2015 GMT
            Not After : Apr 19 20:47:07 2016 GMT
        Subject: C=DE, ST=Saarland, O=MPI-SWS, OU=Distributed Systems Group, CN=6357963abc798b18f8b5280fd2db494ad927061b/emailAddress=node0246@octarine.de
        Subject Public Key Info:
            Public Key Algorithm: rsaEncryption
            RSA Public Key: (1024 bit)
                Modulus (1024 bit):
                    00:dd:1a:32:32:06:c2:af:c7:ac:ea:b2:43:b4:2c:
                    99:1f:62:8f:3c:cd:5f:7a:1b:e9:e8:fa:65:94:3b:
                    f2:46:e5:bb:02:d4:1f:3e:38:9c:be:3d:d2:27:12:
                    89:83:54:c0:9b:fd:e2:74:10:b3:96:6e:37:14:71:
                    21:a3:63:31:4b:fb:8a:48:3d:40:e0:2b:a2:60:6e:
                    c4:7d:dc:2f:b2:2c:0e:62:9d:c7:69:0c:c5:7f:87:
                    c5:bb:72:58:e7:ff:6b:62:48:c5:13:ae:bb:38:32:
                    3a:bf:49:3d:7b:c1:25:b9:5d:5e:fa:70:76:33:1f:
                    a6:47:91:fb:87:36:9d:df:63
                Exponent: 65537 (0x10001)
    Signature Algorithm: md5WithRSAEncryption
        19:0a:ed:69:68:9d:89:30:71:72:84:1d:b4:91:b2:8b:84:1d:
        99:c5:ac:f4:9c:d0:25:98:36:13:c8:d9:41:44:15:3e:8b:f5:
        37:3a:4e:0e:a0:e5:2c:d7:09:30:13:77:a5:1c:ea:52:36:c3:
        c7:4b:14:ee:e1:c7:83:54:96:45:c4:74:a6:ea:b5:03:44:e3:
        7f:63:09:8b:84:ea:cb:ac:81:6b:b1:16:05:87:06:2b:03:4f:
        48:2f:d8:81:3b:0a:d2:75:24:b6:d6:14:0c:4d:7c:e0:7f:4f:
        1e:58:bc:28:8d:bf:cb:cf:e6:62:1c:ba:5d:55:a3:a5:79:c8:
        75:5b
-----BEGIN CERTIFICATE-----
MIICvDCCAiUCCQCbJ9fo0boIzjANBgkqhkiG9w0BAQQFADCBlTELMAkGA1UEBhMC
REUxETAPBgNVBAgTCFNhYXJsYW5kMRAwDgYDVQQKEwdNUEktU1dTMSIwIAYDVQQL
ExlEaXN0cmlidXRlZCBTeXN0ZW1zIEdyb3VwMRowGAYDVQQDExFBbmRyZWFzIEhh
ZWJlcmxlbjEhMB8GCSqGSIb3DQEJARYSZGVtb2NhQG9jdGFyaW5lLmRlMB4XDTE1
MDQyMDIwNDcwN1oXDTE2MDQxOTIwNDcwN1owga4xCzAJBgNVBAYTAkRFMREwDwYD
VQQIEwhTYWFybGFuZDEQMA4GA1UEChMHTVBJLVNXUzEiMCAGA1UECxMZRGlzdHJp
YnV0ZWQgU3lzdGVtcyBHcm91cDExMC8GA1UEAxMoNjM1Nzk2M2FiYzc5OGIxOGY4
YjUyODBmZDJkYjQ5NGFkOTI3MDYxYjEjMCEGCSqGSIb3DQEJARYUbm9kZTAyNDZA
b2N0YXJpbmUuZGUwgZ8wDQYJKoZIhvcNAQEBBQADgY0AMIGJAoGBAN0aMjIGwq/H
rOqyQ7QsmR9ijzzNX3ob6ej6ZZQ78kbluwLUHz44nL490icSiYNUwJv94nQQs5Zu
NxRxIaNjMUv7ikg9QOAromBuxH3cL7IsDmKdx2kMxX+HxbtyWOf/a2JIxROuuzgy
Or9JPXvBJbldXvpwdjMfpkeR+4c2nd9jAgMBAAEwDQYJKoZIhvcNAQEEBQADgYEA
GQrtaWidiTBxcoQdtJGyi4QdmcWs9JzQJZg2E8jZQUQVPov1NzpODqDlLNcJMBN3
pRzqUjbDx0sU7uHHg1SWRcR0puq1A0Tjf2MJi4Tqy6yBa7EWBYcGKwNPSC/YgTsK
0nUkttYUDE184H9PHli8KI2/y8/mYhy6XVWjpXnIdVs=
-----END CERTIFICATE-----
