Certificate:
    Data:
        Version: 1 (0x0)
        Serial Number:
            9b:27:d7:e8:d1:ba:0b:18
        Signature Algorithm: md5WithRSAEncryption
        Issuer: C=DE, ST=Saarland, O=MPI-SWS, OU=Distributed Systems Group, CN=Andreas Haeberlen/emailAddress=democa@octarine.de
        Validity
            Not Before: Apr 20 20:47:34 2015 GMT
            Not After : Apr 19 20:47:34 2016 GMT
        Subject: C=DE, ST=Saarland, O=MPI-SWS, OU=Distributed Systems Group, CN=bd9f6f147ea9b54b2cf0cdd131e954c1151842cc/emailAddress=node0832@octarine.de
        Subject Public Key Info:
            Public Key Algorithm: rsaEncryption
            RSA Public Key: (1024 bit)
                Modulus (1024 bit):
                    00:e5:5d:bc:6c:db:d8:3e:41:2e:9f:84:1d:a1:6a:
                    77:2c:a6:68:ff:a5:44:b1:93:0f:6d:83:5a:4a:f0:
                    8f:41:68:5a:ed:2f:2f:28:52:e1:5d:22:04:06:c0:
                    ab:78:ec:7e:20:c6:de:43:78:8e:77:6e:39:48:f2:
                    32:ee:17:ea:e0:3a:51:d3:54:49:26:e5:64:02:d3:
                    d7:55:e5:48:63:d6:38:0b:db:90:f3:44:ba:74:28:
                    ef:c9:f5:fa:08:d9:13:8a:d3:fc:ff:3e:20:f1:92:
                    f7:44:7d:84:f8:bd:39:83:15:fa:5e:ab:eb:0e:8d:
                    ba:ae:8c:b2:50:6b:32:9b:e5
                Exponent: 65537 (0x10001)
    Signature Algorithm: md5WithRSAEncryption
        0a:9d:8a:52:bd:01:27:49:a0:42:ed:91:c9:c2:da:ad:71:2d:
        e6:a4:88:f2:af:69:29:34:89:c1:f3:c1:4f:ba:58:9b:01:c3:
        6a:4d:04:ac:33:3b:8c:3d:01:45:2a:e2:71:36:bc:c4:b8:42:
        4c:f1:ae:ce:48:e6:4b:c8:c2:5a:55:cb:33:5d:cd:a5:14:30:
        06:29:14:02:16:db:1f:66:00:7d:43:f6:6e:6c:6d:5a:41:da:
        26:a8:9c:b3:00:e3:70:89:9d:61:7e:ad:88:10:a5:81:44:ce:
        50:dc:f7:61:12:90:df:77:1f:25:af:7c:38:f9:a9:94:77:a5:
        00:9d
-----BEGIN CERTIFICATE-----
MIICvDCCAiUCCQCbJ9fo0boLGDANBgkqhkiG9w0BAQQFADCBlTELMAkGA1UEBhMC
REUxETAPBgNVBAgTCFNhYXJsYW5kMRAwDgYDVQQKEwdNUEktU1dTMSIwIAYDVQQL
ExlEaXN0cmlidXRlZCBTeXN0ZW1zIEdyb3VwMRowGAYDVQQDExFBbmRyZWFzIEhh
ZWJlcmxlbjEhMB8GCSqGSIb3DQEJARYSZGVtb2NhQG9jdGFyaW5lLmRlMB4XDTE1
MDQyMDIwNDczNFoXDTE2MDQxOTIwNDczNFowga4xCzAJBgNVBAYTAkRFMREwDwYD
VQQIEwhTYWFybGFuZDEQMA4GA1UEChMHTVBJLVNXUzEiMCAGA1UECxMZRGlzdHJp
YnV0ZWQgU3lzdGVtcyBHcm91cDExMC8GA1UEAxMoYmQ5ZjZmMTQ3ZWE5YjU0YjJj
ZjBjZGQxMzFlOTU0YzExNTE4NDJjYzEjMCEGCSqGSIb3DQEJARYUbm9kZTA4MzJA
b2N0YXJpbmUuZGUwgZ8wDQYJKoZIhvcNAQEBBQADgY0AMIGJAoGBAOVdvGzb2D5B
Lp+EHaFqdyymaP+lRLGTD22DWkrwj0FoWu0vLyhS4V0iBAbAq3jsfiDG3kN4jndu
OUjyMu4X6uA6UdNUSSblZALT11XlSGPWOAvbkPNEunQo78n1+gjZE4rT/P8+IPGS
90R9hPi9OYMV+l6r6w6Nuq6MslBrMpvlAgMBAAEwDQYJKoZIhvcNAQEEBQADgYEA
Cp2KUr0BJ0mgQu2RycLarXEt5qSI8q9pKTSJwfPBT7pYmwHDak0ErDM7jD0BRSri
cTa8xLhCTPGuzkjmS8jCWlXLM13NpRQwBikUAhbbH2YAfUP2bmxtWkHaJqicswDj
cImdYX6tiBClgUTOUNz3YRKQ33cfJa98OPmplHelAJ0=
-----END CERTIFICATE-----
