Certificate:
    Data:
        Version: 1 (0x0)
        Serial Number:
            9b:27:d7:e8:d1:ba:08:c6
        Signature Algorithm: md5WithRSAEncryption
        Issuer: C=DE, ST=Saarland, O=MPI-SWS, OU=Distributed Systems Group, CN=Andreas Haeberlen/emailAddress=democa@octarine.de
        Validity
            Not Before: Apr 20 20:47:07 2015 GMT
            Not After : Apr 19 20:47:07 2016 GMT
        Subject: C=DE, ST=Saarland, O=MPI-SWS, OU=Distributed Systems Group, CN=5e72c09032b816bac43c147852a40e36ca88b19f/emailAddress=node0238@octarine.de
        Subject Public Key Info:
            Public Key Algorithm: rsaEncryption
            RSA Public Key: (1024 bit)
                Modulus (1024 bit):
                    00:ce:da:a3:5d:4e:56:81:39:4a:fa:a2:b6:04:e7:
                    e6:f9:37:ff:88:bd:ff:be:9b:0a:75:1a:b1:24:73:
                    b1:db:e2:29:62:a6:ec:4e:57:dd:5b:92:57:40:eb:
                    13:1e:a2:06:6e:67:ee:e7:5c:c7:5b:17:23:04:b9:
                    9d:49:7f:82:5f:03:22:63:f3:d6:97:95:d0:a7:aa:
                    e9:6d:bc:9b:66:5d:59:74:ad:7a:8e:67:50:d8:13:
                    1f:d8:13:c4:b2:e4:71:a1:b5:77:60:5d:39:e2:15:
                    c5:82:07:61:05:bc:ed:8b:f9:32:42:af:bd:01:3b:
                    a6:3e:4d:35:b7:5e:f5:37:c3
                Exponent: 65537 (0x10001)
    Signature Algorithm: md5WithRSAEncryption
        8a:86:75:73:79:4a:ce:58:05:aa:e2:21:d6:f9:0a:0f:32:96:
        8d:5a:a8:c0:a3:ff:ea:8e:4f:c4:9a:60:d6:21:03:fe:53:36:
        c6:e2:27:f4:ac:d0:25:9e:c5:ed:f8:1c:8c:31:00:c9:20:b1:
        32:d4:4b:d4:fa:fa:73:96:39:69:38:0f:60:ac:13:ba:4a:b3:
        f7:44:11:ff:7d:cb:16:18:27:98:46:2e:37:8e:c5:c0:6b:f7:
        f7:83:e2:f6:39:de:3b:40:8b:83:9a:d3:c9:e1:dc:a1:f2:34:
        05:dc:fb:6e:30:6d:cc:cd:52:c5:7a:a1:f0:d1:9e:51:f5:75:
        bc:c5
-----BEGIN CERTIFICATE-----
MIICvDCCAiUCCQCbJ9fo0boIxjANBgkqhkiG9w0BAQQFADCBlTELMAkGA1UEBhMC
REUxETAPBgNVBAgTCFNhYXJsYW5kMRAwDgYDVQQKEwdNUEktU1dTMSIwIAYDVQQL
ExlEaXN0cmlidXRlZCBTeXN0ZW1zIEdyb3VwMRowGAYDVQQDExFBbmRyZWFzIEhh
ZWJlcmxlbjEhMB8GCSqGSIb3DQEJARYSZGVtb2NhQG9jdGFyaW5lLmRlMB4XDTE1
MDQyMDIwNDcwN1oXDTE2MDQxOTIwNDcwN1owga4xCzAJBgNVBAYTAkRFMREwDwYD
VQQIEwhTYWFybGFuZDEQMA4GA1UEChMHTVBJLVNXUzEiMCAGA1UECxMZRGlzdHJp
YnV0ZWQgU3lzdGVtcyBHcm91cDExMC8GA1UEAxMoNWU3MmMwOTAzMmI4MTZiYWM0
M2MxNDc4NTJhNDBlMzZjYTg4YjE5ZjEjMCEGCSqGSIb3DQEJARYUbm9kZTAyMzhA
b2N0YXJpbmUuZGUwgZ8wDQYJKoZIhvcNAQEBBQADgY0AMIGJAoGBAM7ao11OVoE5
SvqitgTn5vk3/4i9/76bCnUasSRzsdviKWKm7E5X3VuSV0DrEx6iBm5n7udcx1sX
IwS5nUl/gl8DImPz1peV0Keq6W28m2ZdWXSteo5nUNgTH9gTxLLkcaG1d2BdOeIV
xYIHYQW87Yv5MkKvvQE7pj5NNbde9TfDAgMBAAEwDQYJKoZIhvcNAQEEBQADgYEA
ioZ1c3lKzlgFquIh1vkKDzKWjVqowKP/6o5PxJpg1iED/lM2xuIn9KzQJZ7F7fgc
jDEAySCxMtRL1Pr6c5Y5aTgPYKwTukqz90QR/33LFhgnmEYuN47FwGv394Pi9jne
O0CLg5rTyeHcofI0Bdz7bjBtzM1SxXqh8NGeUfV1vMU=
-----END CERTIFICATE-----
