Certificate:
    Data:
        Version: 1 (0x0)
        Serial Number:
            9b:27:d7:e8:d1:ba:09:b3
        Signature Algorithm: md5WithRSAEncryption
        Issuer: C=DE, ST=Saarland, O=MPI-SWS, OU=Distributed Systems Group, CN=Andreas Haeberlen/emailAddress=democa@octarine.de
        Validity
            Not Before: Apr 20 20:47:17 2015 GMT
            Not After : Apr 19 20:47:17 2016 GMT
        Subject: C=DE, ST=Saarland, O=MPI-SWS, OU=Distributed Systems Group, CN=2418a2bb59bc8379fd9abb06cd24f9e2efa81637/emailAddress=node0475@octarine.de
        Subject Public Key Info:
            Public Key Algorithm: rsaEncryption
            RSA Public Key: (1024 bit)
                Modulus (1024 bit):
                    00:d3:68:29:e6:47:e9:cf:71:95:94:de:85:b5:74:
                    75:c5:f6:fb:56:aa:27:da:6a:6e:2e:bb:9f:48:87:
                    0e:bb:b1:79:87:d3:da:8a:77:22:1f:18:6a:5b:35:
                    23:79:8d:f6:03:11:43:24:60:fb:73:da:5d:ed:4d:
                    9f:38:56:ed:7f:7a:81:00:76:2f:d3:6b:e5:65:a3:
                    e8:70:89:87:17:49:38:98:ba:d2:30:45:8d:48:8a:
                    18:2f:5d:01:5b:71:96:4c:dd:07:60:ac:39:cb:1c:
                    c6:a5:ce:db:af:0c:19:24:4c:09:55:54:a1:b9:a2:
                    9f:20:5f:4f:a6:d1:23:f8:b7
                Exponent: 65537 (0x10001)
    Signature Algorithm: md5WithRSAEncryption
        2e:76:f1:79:20:7e:c3:65:38:1f:51:08:b2:76:34:d0:8e:b9:
        a0:32:62:45:00:ff:c5:14:67:41:28:5b:e2:87:d5:d6:45:0a:
        33:cb:3b:d9:1b:3e:93:47:70:05:16:a0:5a:3a:58:44:be:13:
        fa:fd:12:b8:dc:a1:7b:fa:e2:e2:1d:e9:37:78:e6:a0:70:04:
        6c:04:97:8d:72:be:ea:91:7b:f3:43:20:0a:b1:0c:2c:81:31:
        f4:6c:02:1c:f3:43:b8:c4:bb:17:5d:6c:d3:c5:e6:1b:9a:79:
        7d:92:2f:7d:26:45:da:c5:10:64:b0:77:53:86:22:a3:2f:64:
        20:1b
-----BEGIN CERTIFICATE-----
MIICvDCCAiUCCQCbJ9fo0boJszANBgkqhkiG9w0BAQQFADCBlTELMAkGA1UEBhMC
REUxETAPBgNVBAgTCFNhYXJsYW5kMRAwDgYDVQQKEwdNUEktU1dTMSIwIAYDVQQL
ExlEaXN0cmlidXRlZCBTeXN0ZW1zIEdyb3VwMRowGAYDVQQDExFBbmRyZWFzIEhh
ZWJlcmxlbjEhMB8GCSqGSIb3DQEJARYSZGVtb2NhQG9jdGFyaW5lLmRlMB4XDTE1
MDQyMDIwNDcxN1oXDTE2MDQxOTIwNDcxN1owga4xCzAJBgNVBAYTAkRFMREwDwYD
VQQIEwhTYWFybGFuZDEQMA4GA1UEChMHTVBJLVNXUzEiMCAGA1UECxMZRGlzdHJp
YnV0ZWQgU3lzdGVtcyBHcm91cDExMC8GA1UEAxMoMjQxOGEyYmI1OWJjODM3OWZk
OWFiYjA2Y2QyNGY5ZTJlZmE4MTYzNzEjMCEGCSqGSIb3DQEJARYUbm9kZTA0NzVA
b2N0YXJpbmUuZGUwgZ8wDQYJKoZIhvcNAQEBBQADgY0AMIGJAoGBANNoKeZH6c9x
lZTehbV0dcX2+1aqJ9pqbi67n0iHDruxeYfT2op3Ih8Yals1I3mN9gMRQyRg+3Pa
Xe1NnzhW7X96gQB2L9Nr5WWj6HCJhxdJOJi60jBFjUiKGC9dAVtxlkzdB2CsOcsc
xqXO268MGSRMCVVUobminyBfT6bRI/i3AgMBAAEwDQYJKoZIhvcNAQEEBQADgYEA
LnbxeSB+w2U4H1EIsnY00I65oDJiRQD/xRRnQShb4ofV1kUKM8s72Rs+k0dwBRag
WjpYRL4T+v0SuNyhe/ri4h3pN3jmoHAEbASXjXK+6pF780MgCrEMLIEx9GwCHPND
uMS7F11s08XmG5p5fZIvfSZF2sUQZLB3U4Yioy9kIBs=
-----END CERTIFICATE-----
