Certificate:
    Data:
        Version: 1 (0x0)
        Serial Number:
            9b:27:d7:e8:d1:ba:0a:e9
        Signature Algorithm: md5WithRSAEncryption
        Issuer: C=DE, ST=Saarland, O=MPI-SWS, OU=Distributed Systems Group, CN=Andreas Haeberlen/emailAddress=democa@octarine.de
        Validity
            Not Before: Apr 20 20:47:31 2015 GMT
            Not After : Apr 19 20:47:31 2016 GMT
        Subject: C=DE, ST=Saarland, O=MPI-SWS, OU=Distributed Systems Group, CN=1b341afd7ea82c08e2c1470afae4e88f4b45532d/emailAddress=node0785@octarine.de
        Subject Public Key Info:
            Public Key Algorithm: rsaEncryption
            RSA Public Key: (1024 bit)
                Modulus (1024 bit):
                    00:e1:82:6c:b4:b3:7c:65:30:9a:18:92:ac:27:0b:
                    09:9b:7e:26:87:26:ba:9b:2f:36:72:4e:2a:ad:b5:
                    d9:a4:a9:4b:6d:08:25:da:4d:e5:cb:9c:0f:1b:29:
                    4a:da:ca:fb:b3:b3:00:12:fb:20:a1:0e:e7:80:08:
                    4d:34:40:0c:ff:ab:f4:e5:d1:37:73:14:88:cc:4a:
                    0e:2c:dd:17:be:bc:7f:0f:75:d3:27:1d:00:22:f0:
                    1a:bb:c6:f6:13:9c:15:be:f1:25:cc:e7:fc:94:9f:
                    25:52:b2:66:21:35:5f:9f:72:aa:97:91:35:13:20:
                    b1:fe:b5:7f:f6:f8:17:7d:15
                Exponent: 65537 (0x10001)
    Signature Algorithm: md5WithRSAEncryption
        94:58:ad:f3:90:6b:86:52:85:4e:67:60:1e:f7:34:ee:a1:97:
        ec:08:b0:d4:d3:a3:97:3d:d1:9e:ae:28:bf:d0:92:02:71:e2:
        f5:e0:8f:b7:06:de:f1:f5:f8:36:e7:4c:cc:2b:4c:b5:41:78:
        af:5c:9d:50:f1:60:94:40:7d:66:18:d7:1d:2c:45:60:73:57:
        4d:c5:89:fd:3b:ed:97:37:65:a6:4c:f4:2f:28:4d:54:1a:c2:
        e5:3b:1a:0e:3a:ac:ce:27:ca:a5:71:f5:33:45:41:a5:70:d7:
        4b:d2:75:ab:28:08:3f:34:4f:3a:01:73:2f:29:d9:98:3b:f0:
        2d:55
-----BEGIN CERTIFICATE-----
MIICvDCCAiUCCQCbJ9fo0boK6TANBgkqhkiG9w0BAQQFADCBlTELMAkGA1UEBhMC
REUxETAPBgNVBAgTCFNhYXJsYW5kMRAwDgYDVQQKEwdNUEktU1dTMSIwIAYDVQQL
ExlEaXN0cmlidXRlZCBTeXN0ZW1zIEdyb3VwMRowGAYDVQQDExFBbmRyZWFzIEhh
ZWJlcmxlbjEhMB8GCSqGSIb3DQEJARYSZGVtb2NhQG9jdGFyaW5lLmRlMB4XDTE1
MDQyMDIwNDczMVoXDTE2MDQxOTIwNDczMVowga4xCzAJBgNVBAYTAkRFMREwDwYD
VQQIEwhTYWFybGFuZDEQMA4GA1UEChMHTVBJLVNXUzEiMCAGA1UECxMZRGlzdHJp
YnV0ZWQgU3lzdGVtcyBHcm91cDExMC8GA1UEAxMoMWIzNDFhZmQ3ZWE4MmMwOGUy
YzE0NzBhZmFlNGU4OGY0YjQ1NTMyZDEjMCEGCSqGSIb3DQEJARYUbm9kZTA3ODVA
b2N0YXJpbmUuZGUwgZ8wDQYJKoZIhvcNAQEBBQADgY0AMIGJAoGBAOGCbLSzfGUw
mhiSrCcLCZt+JocmupsvNnJOKq212aSpS20IJdpN5cucDxspStrK+7OzABL7IKEO
54AITTRADP+r9OXRN3MUiMxKDizdF768fw910ycdACLwGrvG9hOcFb7xJczn/JSf
JVKyZiE1X59yqpeRNRMgsf61f/b4F30VAgMBAAEwDQYJKoZIhvcNAQEEBQADgYEA
lFit85BrhlKFTmdgHvc07qGX7Aiw1NOjlz3Rnq4ov9CSAnHi9eCPtwbe8fX4NudM
zCtMtUF4r1ydUPFglEB9ZhjXHSxFYHNXTcWJ/Tvtlzdlpkz0LyhNVBrC5TsaDjqs
zifKpXH1M0VBpXDXS9J1qygIPzRPOgFzLynZmDvwLVU=
-----END CERTIFICATE-----
