Certificate:
    Data:
        Version: 1 (0x0)
        Serial Number:
            9b:27:d7:e8:d1:ba:09:3a
        Signature Algorithm: md5WithRSAEncryption
        Issuer: C=DE, ST=Saarland, O=MPI-SWS, OU=Distributed Systems Group, CN=Andreas Haeberlen/emailAddress=democa@octarine.de
        Validity
            Not Before: Apr 20 20:47:12 2015 GMT
            Not After : Apr 19 20:47:12 2016 GMT
        Subject: C=DE, ST=Saarland, O=MPI-SWS, OU=Distributed Systems Group, CN=f6e1e8ada776cb99b78686bf09fbf3feae096a71/emailAddress=node0354@octarine.de
        Subject Public Key Info:
            Public Key Algorithm: rsaEncryption
            RSA Public Key: (1024 bit)
                Modulus (1024 bit):
                    00:f0:01:d0:cf:7e:c1:77:cb:40:d3:1e:ca:70:09:
                    d5:d9:b2:89:b1:2b:0b:57:44:5e:aa:33:ae:06:16:
                    cc:bc:ca:7f:3e:51:28:5f:3e:92:2b:f6:db:d9:55:
                    d5:5c:dd:16:88:a5:79:17:14:46:be:55:56:cc:3c:
                    97:6d:c4:0e:33:e4:ac:20:69:db:68:09:8f:33:ff:
                    dd:7a:34:61:4e:ba:25:fd:39:62:74:48:b7:9e:db:
                    19:82:a3:fc:98:8d:02:3f:62:93:6f:7d:fe:14:b1:
                    f7:a4:09:20:85:96:d1:0d:68:ab:61:7f:d6:ae:0d:
                    a8:6f:96:38:db:27:97:d6:6b
                Exponent: 65537 (0x10001)
    Signature Algorithm: md5WithRSAEncryption
        06:e0:3c:05:a0:df:22:6a:d1:79:41:49:0d:eb:8e:ae:3c:ac:
        8d:87:a0:62:2c:db:45:eb:8c:24:38:d0:59:b4:26:f8:da:cf:
        9a:7a:7b:aa:64:6c:1f:79:6d:6a:a9:b5:1f:9e:de:23:9e:02:
        eb:a1:37:e8:35:f9:88:a4:ce:b6:7b:11:a5:d5:c8:65:7c:b0:
        db:59:fc:a9:26:81:72:58:d0:54:2a:97:84:e5:e6:59:cb:ea:
        e9:d5:7d:ef:a6:b8:15:c8:f4:5a:b5:bd:c9:51:18:80:c1:76:
        90:c3:1d:b0:4c:cb:c6:2b:54:ae:57:76:a7:00:08:99:4e:f2:
        8d:8e
-----BEGIN CERTIFICATE-----
MIICvDCCAiUCCQCbJ9fo0boJOjANBgkqhkiG9w0BAQQFADCBlTELMAkGA1UEBhMC
REUxETAPBgNVBAgTCFNhYXJsYW5kMRAwDgYDVQQKEwdNUEktU1dTMSIwIAYDVQQL
ExlEaXN0cmlidXRlZCBTeXN0ZW1zIEdyb3VwMRowGAYDVQQDExFBbmRyZWFzIEhh
ZWJlcmxlbjEhMB8GCSqGSIb3DQEJARYSZGVtb2NhQG9jdGFyaW5lLmRlMB4XDTE1
MDQyMDIwNDcxMloXDTE2MDQxOTIwNDcxMlowga4xCzAJBgNVBAYTAkRFMREwDwYD
VQQIEwhTYWFybGFuZDEQMA4GA1UEChMHTVBJLVNXUzEiMCAGA1UECxMZRGlzdHJp
YnV0ZWQgU3lzdGVtcyBHcm91cDExMC8GA1UEAxMoZjZlMWU4YWRhNzc2Y2I5OWI3
ODY4NmJmMDlmYmYzZmVhZTA5NmE3MTEjMCEGCSqGSIb3DQEJARYUbm9kZTAzNTRA
b2N0YXJpbmUuZGUwgZ8wDQYJKoZIhvcNAQEBBQADgY0AMIGJAoGBAPAB0M9+wXfL
QNMeynAJ1dmyibErC1dEXqozrgYWzLzKfz5RKF8+kiv229lV1VzdFoileRcURr5V
Vsw8l23EDjPkrCBp22gJjzP/3Xo0YU66Jf05YnRIt57bGYKj/JiNAj9ik299/hSx
96QJIIWW0Q1oq2F/1q4NqG+WONsnl9ZrAgMBAAEwDQYJKoZIhvcNAQEEBQADgYEA
BuA8BaDfImrReUFJDeuOrjysjYegYizbReuMJDjQWbQm+NrPmnp7qmRsH3ltaqm1
H57eI54C66E36DX5iKTOtnsRpdXIZXyw21n8qSaBcljQVCqXhOXmWcvq6dV976a4
Fcj0WrW9yVEYgMF2kMMdsEzLxitUrld2pwAImU7yjY4=
-----END CERTIFICATE-----
