Certificate:
    Data:
        Version: 1 (0x0)
        Serial Number:
            9b:27:d7:e8:d1:ba:09:7c
        Signature Algorithm: md5WithRSAEncryption
        Issuer: C=DE, ST=Saarland, O=MPI-SWS, OU=Distributed Systems Group, CN=Andreas Haeberlen/emailAddress=democa@octarine.de
        Validity
            Not Before: Apr 20 20:47:15 2015 GMT
            Not After : Apr 19 20:47:15 2016 GMT
        Subject: C=DE, ST=Saarland, O=MPI-SWS, OU=Distributed Systems Group, CN=5baf4de8506650438be84bfcebb0a2afe5f32db8/emailAddress=node0420@octarine.de
        Subject Public Key Info:
            Public Key Algorithm: rsaEncryption
            RSA Public Key: (1024 bit)
                Modulus (1024 bit):
                    00:ae:1d:92:fc:77:58:16:1f:9c:16:51:26:f2:dd:
                    c2:0b:7b:b0:89:fe:08:b0:10:11:20:f1:85:81:9c:
                    3a:1a:fa:09:30:25:80:dd:ab:83:a5:08:2e:da:78:
                    fe:12:eb:7b:f8:98:b0:cf:ff:25:84:ca:f9:cd:c6:
                    f5:23:8f:36:2e:68:69:f7:7f:63:1c:64:89:82:1a:
                    97:1b:d8:62:31:0e:36:87:5a:be:dc:08:2d:0b:4d:
                    e2:28:db:83:f2:9d:b5:d6:1f:b1:9a:23:ae:1b:c1:
                    71:b7:52:5f:38:69:19:ae:20:75:6b:80:a6:c2:b1:
                    96:e7:d3:5b:ca:be:37:49:ef
                Exponent: 65537 (0x10001)
    Signature Algorithm: md5WithRSAEncryption
        2f:cc:04:34:d8:cf:21:c2:6f:98:69:ac:10:2c:eb:5f:03:92:
        2b:73:21:78:22:cc:d2:f9:15:29:e0:1d:1c:6a:cf:4f:2c:63:
        37:53:03:f2:23:01:b9:54:19:aa:32:e2:03:c7:26:7c:91:d2:
        ef:84:e8:ec:d1:fb:43:19:74:80:18:c7:10:80:47:e8:41:b8:
        5e:e2:00:0d:62:22:1e:6c:44:41:b1:31:98:f2:2f:a9:7e:d5:
        6c:15:1f:8e:49:f6:be:e8:b6:ba:61:23:db:3d:31:3f:5e:8d:
        0c:ab:9c:c0:21:e1:1c:3d:52:79:fa:de:6c:a5:e9:02:a2:0c:
        56:25
-----BEGIN CERTIFICATE-----
MIICvDCCAiUCCQCbJ9fo0boJfDANBgkqhkiG9w0BAQQFADCBlTELMAkGA1UEBhMC
REUxETAPBgNVBAgTCFNhYXJsYW5kMRAwDgYDVQQKEwdNUEktU1dTMSIwIAYDVQQL
ExlEaXN0cmlidXRlZCBTeXN0ZW1zIEdyb3VwMRowGAYDVQQDExFBbmRyZWFzIEhh
ZWJlcmxlbjEhMB8GCSqGSIb3DQEJARYSZGVtb2NhQG9jdGFyaW5lLmRlMB4XDTE1
MDQyMDIwNDcxNVoXDTE2MDQxOTIwNDcxNVowga4xCzAJBgNVBAYTAkRFMREwDwYD
VQQIEwhTYWFybGFuZDEQMA4GA1UEChMHTVBJLVNXUzEiMCAGA1UECxMZRGlzdHJp
YnV0ZWQgU3lzdGVtcyBHcm91cDExMC8GA1UEAxMoNWJhZjRkZTg1MDY2NTA0Mzhi
ZTg0YmZjZWJiMGEyYWZlNWYzMmRiODEjMCEGCSqGSIb3DQEJARYUbm9kZTA0MjBA
b2N0YXJpbmUuZGUwgZ8wDQYJKoZIhvcNAQEBBQADgY0AMIGJAoGBAK4dkvx3WBYf
nBZRJvLdwgt7sIn+CLAQESDxhYGcOhr6CTAlgN2rg6UILtp4/hLre/iYsM//JYTK
+c3G9SOPNi5oafd/YxxkiYIalxvYYjEONodavtwILQtN4ijbg/KdtdYfsZojrhvB
cbdSXzhpGa4gdWuApsKxlufTW8q+N0nvAgMBAAEwDQYJKoZIhvcNAQEEBQADgYEA
L8wENNjPIcJvmGmsECzrXwOSK3MheCLM0vkVKeAdHGrPTyxjN1MD8iMBuVQZqjLi
A8cmfJHS74To7NH7Qxl0gBjHEIBH6EG4XuIADWIiHmxEQbExmPIvqX7VbBUfjkn2
vui2umEj2z0xP16NDKucwCHhHD1SefrebKXpAqIMViU=
-----END CERTIFICATE-----
