Certificate:
    Data:
        Version: 1 (0x0)
        Serial Number:
            9b:27:d7:e8:d1:ba:09:bd
        Signature Algorithm: md5WithRSAEncryption
        Issuer: C=DE, ST=Saarland, O=MPI-SWS, OU=Distributed Systems Group, CN=Andreas Haeberlen/emailAddress=democa@octarine.de
        Validity
            Not Before: Apr 20 20:47:18 2015 GMT
            Not After : Apr 19 20:47:18 2016 GMT
        Subject: C=DE, ST=Saarland, O=MPI-SWS, OU=Distributed Systems Group, CN=8ee7f602671cdd730632cd66178cffa7e9fdff06/emailAddress=node0485@octarine.de
        Subject Public Key Info:
            Public Key Algorithm: rsaEncryption
            RSA Public Key: (1024 bit)
                Modulus (1024 bit):
                    00:d6:ba:3f:82:16:f0:54:d4:ec:61:1a:1c:f7:8c:
                    05:cf:4b:1a:bb:07:b7:44:42:c1:fd:7e:52:a5:d4:
                    59:46:45:42:ef:54:35:2f:95:a6:32:86:18:62:0f:
                    8d:43:9f:e1:d1:e2:b9:ab:a7:1d:07:f4:5b:06:b1:
                    fb:e9:e2:9f:eb:ee:53:85:21:b0:0d:37:51:a0:ab:
                    c8:bd:c8:eb:fe:e9:7c:a1:92:ed:f5:3e:a6:7b:f8:
                    ab:1f:c6:79:65:ee:81:9c:0a:7f:47:b2:df:db:de:
                    d2:7a:f6:f9:21:16:b8:61:0b:ad:5d:0e:90:20:7b:
                    b7:92:2c:e7:32:52:a0:82:1b
                Exponent: 65537 (0x10001)
    Signature Algorithm: md5WithRSAEncryption
        20:fc:d1:89:92:59:35:b6:bb:2c:12:2f:c4:89:6c:19:93:23:
        e0:3b:97:92:9d:ec:33:6b:95:79:63:88:bf:32:aa:d4:d8:6f:
        99:93:c6:96:fd:06:2e:6d:17:5c:bc:1b:30:2a:c7:67:d0:13:
        8f:de:0d:fb:40:a6:15:16:8f:da:90:dc:e3:5e:9b:8c:a8:4f:
        5b:c3:fd:10:1c:be:9e:94:54:b8:e6:2b:33:d8:b0:ac:af:5d:
        e7:b1:4e:b1:fc:d2:07:86:66:0d:8f:b1:2e:35:a7:44:a5:22:
        9f:f5:67:61:ad:ec:78:df:80:3d:ae:f7:12:1c:55:76:e1:16:
        a8:e8
-----BEGIN CERTIFICATE-----
MIICvDCCAiUCCQCbJ9fo0boJvTANBgkqhkiG9w0BAQQFADCBlTELMAkGA1UEBhMC
REUxETAPBgNVBAgTCFNhYXJsYW5kMRAwDgYDVQQKEwdNUEktU1dTMSIwIAYDVQQL
ExlEaXN0cmlidXRlZCBTeXN0ZW1zIEdyb3VwMRowGAYDVQQDExFBbmRyZWFzIEhh
ZWJlcmxlbjEhMB8GCSqGSIb3DQEJARYSZGVtb2NhQG9jdGFyaW5lLmRlMB4XDTE1
MDQyMDIwNDcxOFoXDTE2MDQxOTIwNDcxOFowga4xCzAJBgNVBAYTAkRFMREwDwYD
VQQIEwhTYWFybGFuZDEQMA4GA1UEChMHTVBJLVNXUzEiMCAGA1UECxMZRGlzdHJp
YnV0ZWQgU3lzdGVtcyBHcm91cDExMC8GA1UEAxMoOGVlN2Y2MDI2NzFjZGQ3MzA2
MzJjZDY2MTc4Y2ZmYTdlOWZkZmYwNjEjMCEGCSqGSIb3DQEJARYUbm9kZTA0ODVA
b2N0YXJpbmUuZGUwgZ8wDQYJKoZIhvcNAQEBBQADgY0AMIGJAoGBANa6P4IW8FTU
7GEaHPeMBc9LGrsHt0RCwf1+UqXUWUZFQu9UNS+VpjKGGGIPjUOf4dHiuaunHQf0
Wwax++nin+vuU4UhsA03UaCryL3I6/7pfKGS7fU+pnv4qx/GeWXugZwKf0ey39ve
0nr2+SEWuGELrV0OkCB7t5Is5zJSoIIbAgMBAAEwDQYJKoZIhvcNAQEEBQADgYEA
IPzRiZJZNba7LBIvxIlsGZMj4DuXkp3sM2uVeWOIvzKq1NhvmZPGlv0GLm0XXLwb
MCrHZ9ATj94N+0CmFRaP2pDc416bjKhPW8P9EBy+npRUuOYrM9iwrK9d57FOsfzS
B4ZmDY+xLjWnRKUin/VnYa3seN+APa73EhxVduEWqOg=
-----END CERTIFICATE-----
