Certificate:
    Data:
        Version: 1 (0x0)
        Serial Number:
            9b:27:d7:e8:d1:ba:08:03
        Signature Algorithm: md5WithRSAEncryption
        Issuer: C=DE, ST=Saarland, O=MPI-SWS, OU=Distributed Systems Group, CN=Andreas Haeberlen/emailAddress=democa@octarine.de
        Validity
            Not Before: Apr 20 20:46:59 2015 GMT
            Not After : Apr 19 20:46:59 2016 GMT
        Subject: C=DE, ST=Saarland, O=MPI-SWS, OU=Distributed Systems Group, CN=270d420fec05a1ef63075e5e4bedfd6156fa9f98/emailAddress=node0043@octarine.de
        Subject Public Key Info:
            Public Key Algorithm: rsaEncryption
            RSA Public Key: (1024 bit)
                Modulus (1024 bit):
                    00:c1:15:3b:43:b4:91:a4:90:36:a4:ff:bb:8e:f7:
                    4b:4f:60:bb:ce:ef:61:43:45:db:4e:42:11:55:ac:
                    38:be:29:27:14:a5:1b:c0:33:21:16:2c:2a:ba:88:
                    bd:33:7a:51:53:aa:69:df:a4:e4:9e:89:f6:72:6a:
                    6e:23:b3:be:6f:5b:77:2b:13:d1:0b:ed:a5:c0:d4:
                    7f:a6:5a:a1:96:63:f6:65:f7:14:97:0d:11:6c:04:
                    6e:da:fe:0f:b3:c1:98:ee:67:fa:1e:08:1e:53:59:
                    27:7f:be:a2:9b:43:ce:03:f3:eb:d9:91:f4:a0:d3:
                    70:69:22:b5:e5:c9:9d:69:5f
                Exponent: 65537 (0x10001)
    Signature Algorithm: md5WithRSAEncryption
        98:16:6b:9c:5a:cd:c5:55:f6:b3:68:d2:7c:bd:35:fc:f1:3e:
        e9:a1:ba:ce:67:39:c7:94:8f:d5:c2:ae:79:be:49:77:fc:ba:
        ee:a4:a4:12:42:f5:4e:5e:1a:8f:9f:84:cb:b3:52:b5:1a:2c:
        60:ae:e1:3e:b5:90:60:f2:62:80:90:da:b1:6b:ed:80:5d:c6:
        f4:f2:1c:42:61:bd:b1:22:30:40:ae:40:4b:07:3d:b3:18:20:
        e1:30:69:b9:fa:15:07:a8:d2:cb:a5:2d:e4:54:35:69:0c:77:
        33:02:78:4a:a8:95:60:0d:f2:1c:0c:6e:82:31:fe:bf:00:30:
        0f:ef
-----BEGIN CERTIFICATE-----
MIICvDCCAiUCCQCbJ9fo0boIAzANBgkqhkiG9w0BAQQFADCBlTELMAkGA1UEBhMC
REUxETAPBgNVBAgTCFNhYXJsYW5kMRAwDgYDVQQKEwdNUEktU1dTMSIwIAYDVQQL
ExlEaXN0cmlidXRlZCBTeXN0ZW1zIEdyb3VwMRowGAYDVQQDExFBbmRyZWFzIEhh
ZWJlcmxlbjEhMB8GCSqGSIb3DQEJARYSZGVtb2NhQG9jdGFyaW5lLmRlMB4XDTE1
MDQyMDIwNDY1OVoXDTE2MDQxOTIwNDY1OVowga4xCzAJBgNVBAYTAkRFMREwDwYD
VQQIEwhTYWFybGFuZDEQMA4GA1UEChMHTVBJLVNXUzEiMCAGA1UECxMZRGlzdHJp
YnV0ZWQgU3lzdGVtcyBHcm91cDExMC8GA1UEAxMoMjcwZDQyMGZlYzA1YTFlZjYz
MDc1ZTVlNGJlZGZkNjE1NmZhOWY5ODEjMCEGCSqGSIb3DQEJARYUbm9kZTAwNDNA
b2N0YXJpbmUuZGUwgZ8wDQYJKoZIhvcNAQEBBQADgY0AMIGJAoGBAMEVO0O0kaSQ
NqT/u473S09gu87vYUNF205CEVWsOL4pJxSlG8AzIRYsKrqIvTN6UVOqad+k5J6J
9nJqbiOzvm9bdysT0QvtpcDUf6ZaoZZj9mX3FJcNEWwEbtr+D7PBmO5n+h4IHlNZ
J3++optDzgPz69mR9KDTcGkiteXJnWlfAgMBAAEwDQYJKoZIhvcNAQEEBQADgYEA
mBZrnFrNxVX2s2jSfL01/PE+6aG6zmc5x5SP1cKueb5Jd/y67qSkEkL1Tl4aj5+E
y7NStRosYK7hPrWQYPJigJDasWvtgF3G9PIcQmG9sSIwQK5ASwc9sxgg4TBpufoV
B6jSy6Ut5FQ1aQx3MwJ4SqiVYA3yHAxugjH+vwAwD+8=
-----END CERTIFICATE-----
