Certificate:
    Data:
        Version: 1 (0x0)
        Serial Number:
            9b:27:d7:e8:d1:ba:0b:4d
        Signature Algorithm: md5WithRSAEncryption
        Issuer: C=DE, ST=Saarland, O=MPI-SWS, OU=Distributed Systems Group, CN=Andreas Haeberlen/emailAddress=democa@octarine.de
        Validity
            Not Before: Apr 20 20:47:36 2015 GMT
            Not After : Apr 19 20:47:36 2016 GMT
        Subject: C=DE, ST=Saarland, O=MPI-SWS, OU=Distributed Systems Group, CN=b9c1daf2474f5c308ea4beb1eb1b95e4fa6c45e9/emailAddress=node0885@octarine.de
        Subject Public Key Info:
            Public Key Algorithm: rsaEncryption
            RSA Public Key: (1024 bit)
                Modulus (1024 bit):
                    00:d8:1f:85:78:4a:98:e7:3c:cc:f5:15:e5:b7:85:
                    7b:61:87:67:b4:2b:e1:32:b6:5d:66:97:ec:c0:75:
                    e9:a7:b0:cb:ca:9d:90:1a:73:6f:e0:04:76:20:8b:
                    5e:6c:29:e6:40:df:d0:9e:d9:9c:64:23:ec:ad:b7:
                    bd:80:91:31:79:5d:09:38:b7:e1:91:d7:c0:11:52:
                    67:7a:49:95:2f:8e:ab:5f:b6:f5:f2:7f:1b:49:48:
                    15:42:e3:3c:f4:98:64:e9:46:13:fb:aa:95:32:cc:
                    87:8b:6c:70:e1:e9:db:5c:ce:05:47:5c:f1:95:14:
                    88:3e:ce:0f:0c:94:82:3d:07
                Exponent: 65537 (0x10001)
    Signature Algorithm: md5WithRSAEncryption
        4f:a2:f9:5d:8e:d7:cc:20:bd:b1:c5:af:9f:13:ca:52:7d:49:
        79:8e:8c:96:a1:5b:0d:97:6c:65:f4:dd:3d:81:1b:f1:53:6c:
        65:3c:50:d6:ff:f0:09:ce:5a:f1:4d:8e:7c:a7:92:92:b7:f2:
        8b:80:55:e5:13:a5:1b:8f:7a:74:81:42:bd:64:cf:60:f9:fa:
        e0:93:62:63:07:78:26:9f:5b:45:d8:81:61:2f:22:74:5c:8d:
        41:31:4e:35:cd:50:88:7c:bc:e9:22:cb:18:be:ae:69:1c:40:
        e7:d5:da:e9:0e:9f:b7:c3:58:2a:4d:f6:bf:8d:4e:65:2b:7a:
        5c:f3
-----BEGIN CERTIFICATE-----
MIICvDCCAiUCCQCbJ9fo0boLTTANBgkqhkiG9w0BAQQFADCBlTELMAkGA1UEBhMC
REUxETAPBgNVBAgTCFNhYXJsYW5kMRAwDgYDVQQKEwdNUEktU1dTMSIwIAYDVQQL
ExlEaXN0cmlidXRlZCBTeXN0ZW1zIEdyb3VwMRowGAYDVQQDExFBbmRyZWFzIEhh
ZWJlcmxlbjEhMB8GCSqGSIb3DQEJARYSZGVtb2NhQG9jdGFyaW5lLmRlMB4XDTE1
MDQyMDIwNDczNloXDTE2MDQxOTIwNDczNlowga4xCzAJBgNVBAYTAkRFMREwDwYD
VQQIEwhTYWFybGFuZDEQMA4GA1UEChMHTVBJLVNXUzEiMCAGA1UECxMZRGlzdHJp
YnV0ZWQgU3lzdGVtcyBHcm91cDExMC8GA1UEAxMoYjljMWRhZjI0NzRmNWMzMDhl
YTRiZWIxZWIxYjk1ZTRmYTZjNDVlOTEjMCEGCSqGSIb3DQEJARYUbm9kZTA4ODVA
b2N0YXJpbmUuZGUwgZ8wDQYJKoZIhvcNAQEBBQADgY0AMIGJAoGBANgfhXhKmOc8
zPUV5beFe2GHZ7Qr4TK2XWaX7MB16aewy8qdkBpzb+AEdiCLXmwp5kDf0J7ZnGQj
7K23vYCRMXldCTi34ZHXwBFSZ3pJlS+Oq1+29fJ/G0lIFULjPPSYZOlGE/uqlTLM
h4tscOHp21zOBUdc8ZUUiD7ODwyUgj0HAgMBAAEwDQYJKoZIhvcNAQEEBQADgYEA
T6L5XY7XzCC9scWvnxPKUn1JeY6MlqFbDZdsZfTdPYEb8VNsZTxQ1v/wCc5a8U2O
fKeSkrfyi4BV5ROlG496dIFCvWTPYPn64JNiYwd4Jp9bRdiBYS8idFyNQTFONc1Q
iHy86SLLGL6uaRxA59Xa6Q6ft8NYKk32v41OZSt6XPM=
-----END CERTIFICATE-----
