Certificate:
    Data:
        Version: 1 (0x0)
        Serial Number:
            9b:27:d7:e8:d1:ba:09:11
        Signature Algorithm: md5WithRSAEncryption
        Issuer: C=DE, ST=Saarland, O=MPI-SWS, OU=Distributed Systems Group, CN=Andreas Haeberlen/emailAddress=democa@octarine.de
        Validity
            Not Before: Apr 20 20:47:10 2015 GMT
            Not After : Apr 19 20:47:10 2016 GMT
        Subject: C=DE, ST=Saarland, O=MPI-SWS, OU=Distributed Systems Group, CN=8896f874913599270def251dd87150ce8558ecd7/emailAddress=node0313@octarine.de
        Subject Public Key Info:
            Public Key Algorithm: rsaEncryption
            RSA Public Key: (1024 bit)
                Modulus (1024 bit):
                    00:d7:08:3a:d7:53:d7:4c:8e:fd:e4:cb:9a:76:13:
                    6f:a8:77:ad:f3:f9:8d:ac:55:26:b3:a8:6f:28:5b:
                    15:59:9c:f6:69:8d:1a:2b:6b:b5:c4:06:29:e8:ad:
                    95:0a:7b:72:ee:e6:1c:5c:59:3f:01:08:83:8e:2e:
                    d1:2f:2f:40:f7:0b:6d:11:9c:34:01:b4:96:d4:e0:
                    7f:91:24:dd:fb:1a:80:fc:24:4e:eb:8d:a3:b7:24:
                    14:d4:54:74:6c:a4:bf:73:4a:a7:05:0d:37:05:5c:
                    4e:54:de:67:0b:27:af:60:7e:9a:d0:29:eb:4f:1b:
                    31:9b:c3:44:bb:04:0e:e6:d9
                Exponent: 65537 (0x10001)
    Signature Algorithm: md5WithRSAEncryption
        0d:5b:62:2a:73:84:bf:83:05:a6:80:21:1e:63:a8:06:b4:e9:
        ba:21:fa:a0:d2:82:be:80:d9:df:01:a9:bd:76:50:93:ff:35:
        03:db:b2:e7:9f:8c:f6:33:dd:04:b4:5a:10:0c:45:db:38:2b:
        12:38:9c:77:59:bc:db:ea:5c:23:ae:ed:2b:a5:78:07:90:d0:
        be:af:f2:7c:77:a9:49:0e:b1:ee:43:ea:9d:8f:af:46:f0:c4:
        86:ba:d7:e8:ac:da:fe:7f:9e:d1:fd:58:d4:c7:f1:68:c5:93:
        57:43:f2:81:af:c3:32:f7:bd:77:1c:d9:8a:53:ac:ed:59:bd:
        66:62
-----BEGIN CERTIFICATE-----
MIICvDCCAiUCCQCbJ9fo0boJETANBgkqhkiG9w0BAQQFADCBlTELMAkGA1UEBhMC
REUxETAPBgNVBAgTCFNhYXJsYW5kMRAwDgYDVQQKEwdNUEktU1dTMSIwIAYDVQQL
ExlEaXN0cmlidXRlZCBTeXN0ZW1zIEdyb3VwMRowGAYDVQQDExFBbmRyZWFzIEhh
ZWJlcmxlbjEhMB8GCSqGSIb3DQEJARYSZGVtb2NhQG9jdGFyaW5lLmRlMB4XDTE1
MDQyMDIwNDcxMFoXDTE2MDQxOTIwNDcxMFowga4xCzAJBgNVBAYTAkRFMREwDwYD
VQQIEwhTYWFybGFuZDEQMA4GA1UEChMHTVBJLVNXUzEiMCAGA1UECxMZRGlzdHJp
YnV0ZWQgU3lzdGVtcyBHcm91cDExMC8GA1UEAxMoODg5NmY4NzQ5MTM1OTkyNzBk
ZWYyNTFkZDg3MTUwY2U4NTU4ZWNkNzEjMCEGCSqGSIb3DQEJARYUbm9kZTAzMTNA
b2N0YXJpbmUuZGUwgZ8wDQYJKoZIhvcNAQEBBQADgY0AMIGJAoGBANcIOtdT10yO
/eTLmnYTb6h3rfP5jaxVJrOobyhbFVmc9mmNGitrtcQGKeitlQp7cu7mHFxZPwEI
g44u0S8vQPcLbRGcNAG0ltTgf5Ek3fsagPwkTuuNo7ckFNRUdGykv3NKpwUNNwVc
TlTeZwsnr2B+mtAp608bMZvDRLsEDubZAgMBAAEwDQYJKoZIhvcNAQEEBQADgYEA
DVtiKnOEv4MFpoAhHmOoBrTpuiH6oNKCvoDZ3wGpvXZQk/81A9uy55+M9jPdBLRa
EAxF2zgrEjicd1m82+pcI67tK6V4B5DQvq/yfHepSQ6x7kPqnY+vRvDEhrrX6Kza
/n+e0f1Y1MfxaMWTV0Pyga/DMve9dxzZilOs7Vm9ZmI=
-----END CERTIFICATE-----
