Certificate:
    Data:
        Version: 1 (0x0)
        Serial Number:
            9b:27:d7:e8:d1:ba:0a:b8
        Signature Algorithm: md5WithRSAEncryption
        Issuer: C=DE, ST=Saarland, O=MPI-SWS, OU=Distributed Systems Group, CN=Andreas Haeberlen/emailAddress=democa@octarine.de
        Validity
            Not Before: Apr 20 20:47:29 2015 GMT
            Not After : Apr 19 20:47:29 2016 GMT
        Subject: C=DE, ST=Saarland, O=MPI-SWS, OU=Distributed Systems Group, CN=182bd7b08453a5665e64bd90ed195ba63c104d1c/emailAddress=node0736@octarine.de
        Subject Public Key Info:
            Public Key Algorithm: rsaEncryption
            RSA Public Key: (1024 bit)
                Modulus (1024 bit):
                    00:e7:dc:9f:d4:fe:c8:a9:b3:7a:08:be:fe:98:85:
                    ff:75:88:9f:ae:91:c2:27:b0:67:07:56:f5:28:9e:
                    aa:7c:ba:9a:6b:78:b8:98:98:a1:4b:c9:dd:13:87:
                    9f:b2:7f:ac:87:be:a0:f1:ab:24:96:34:7c:ed:6f:
                    d0:c4:25:5a:aa:51:ea:2d:14:5e:1a:27:a5:c2:d7:
                    6f:f4:9d:f3:1a:da:39:25:84:fb:3f:a4:10:0d:1c:
                    ed:d9:1f:1d:34:2c:9f:8b:08:c2:15:75:4f:78:d0:
                    85:2e:40:0b:e4:92:2a:af:34:b5:f0:e8:b2:f6:07:
                    f8:19:7c:e2:a6:b5:82:b7:05
                Exponent: 65537 (0x10001)
    Signature Algorithm: md5WithRSAEncryption
        53:4b:b3:c2:50:1e:32:a9:d6:92:9f:39:29:93:45:d7:25:5d:
        72:17:ad:9d:03:65:62:fa:d7:80:85:b0:b7:68:fb:66:61:11:
        98:d2:49:0d:8c:45:2f:4a:81:e5:84:8d:fa:f6:08:dd:69:46:
        13:f0:8b:67:5d:5c:ef:d4:a8:d9:6c:e5:54:b6:bf:12:15:07:
        30:29:b7:e9:b9:b7:54:0b:af:9c:63:20:ec:bf:ce:bf:5b:9d:
        c7:cf:bc:c1:77:04:f7:72:d9:09:20:15:7e:74:8b:6c:eb:64:
        06:3b:44:fd:04:69:7a:5d:c1:a9:b9:ec:db:68:63:f0:0d:55:
        da:ef
-----BEGIN CERTIFICATE-----
MIICvDCCAiUCCQCbJ9fo0boKuDANBgkqhkiG9w0BAQQFADCBlTELMAkGA1UEBhMC
REUxETAPBgNVBAgTCFNhYXJsYW5kMRAwDgYDVQQKEwdNUEktU1dTMSIwIAYDVQQL
ExlEaXN0cmlidXRlZCBTeXN0ZW1zIEdyb3VwMRowGAYDVQQDExFBbmRyZWFzIEhh
ZWJlcmxlbjEhMB8GCSqGSIb3DQEJARYSZGVtb2NhQG9jdGFyaW5lLmRlMB4XDTE1
MDQyMDIwNDcyOVoXDTE2MDQxOTIwNDcyOVowga4xCzAJBgNVBAYTAkRFMREwDwYD
VQQIEwhTYWFybGFuZDEQMA4GA1UEChMHTVBJLVNXUzEiMCAGA1UECxMZRGlzdHJp
YnV0ZWQgU3lzdGVtcyBHcm91cDExMC8GA1UEAxMoMTgyYmQ3YjA4NDUzYTU2NjVl
NjRiZDkwZWQxOTViYTYzYzEwNGQxYzEjMCEGCSqGSIb3DQEJARYUbm9kZTA3MzZA
b2N0YXJpbmUuZGUwgZ8wDQYJKoZIhvcNAQEBBQADgY0AMIGJAoGBAOfcn9T+yKmz
egi+/piF/3WIn66RwiewZwdW9Sieqny6mmt4uJiYoUvJ3ROHn7J/rIe+oPGrJJY0
fO1v0MQlWqpR6i0UXhonpcLXb/Sd8xraOSWE+z+kEA0c7dkfHTQsn4sIwhV1T3jQ
hS5AC+SSKq80tfDosvYH+Bl84qa1grcFAgMBAAEwDQYJKoZIhvcNAQEEBQADgYEA
U0uzwlAeMqnWkp85KZNF1yVdchetnQNlYvrXgIWwt2j7ZmERmNJJDYxFL0qB5YSN
+vYI3WlGE/CLZ11c79So2WzlVLa/EhUHMCm36bm3VAuvnGMg7L/Ov1udx8+8wXcE
93LZCSAVfnSLbOtkBjtE/QRpel3Bqbns22hj8A1V2u8=
-----END CERTIFICATE-----
