Certificate:
    Data:
        Version: 1 (0x0)
        Serial Number:
            9b:27:d7:e8:d1:ba:0b:7f
        Signature Algorithm: md5WithRSAEncryption
        Issuer: C=DE, ST=Saarland, O=MPI-SWS, OU=Distributed Systems Group, CN=Andreas Haeberlen/emailAddress=democa@octarine.de
        Validity
            Not Before: Apr 20 20:47:38 2015 GMT
            Not After : Apr 19 20:47:38 2016 GMT
        Subject: C=DE, ST=Saarland, O=MPI-SWS, OU=Distributed Systems Group, CN=7e373905831a698a1e15c9401716268a5b2852dd/emailAddress=node0935@octarine.de
        Subject Public Key Info:
            Public Key Algorithm: rsaEncryption
            RSA Public Key: (1024 bit)
                Modulus (1024 bit):
                    00:d3:5c:7b:86:4c:04:09:93:e3:0e:44:60:3c:fe:
                    88:17:ba:95:d9:34:9e:5f:62:b0:33:d7:6a:bf:12:
                    9f:65:bf:5b:56:77:fc:d8:55:af:8d:93:d6:e1:0b:
                    19:85:8b:5f:82:b2:8a:f2:40:ea:84:93:92:e0:79:
                    d0:2c:0e:81:bc:09:19:03:60:83:9b:df:b7:5f:18:
                    2a:14:47:1c:a1:2f:f4:f2:d2:1f:11:96:de:ed:83:
                    b4:0e:b0:61:ce:de:41:27:45:41:33:78:80:a6:e1:
                    83:e9:7b:f9:63:88:8b:14:60:6b:89:9e:5b:cd:7a:
                    81:10:f8:aa:ae:7b:82:dd:ab
                Exponent: 65537 (0x10001)
    Signature Algorithm: md5WithRSAEncryption
        46:68:dc:da:d9:3d:0e:de:53:33:19:8b:65:e1:56:5a:01:15:
        5a:6a:67:2f:92:e6:0d:71:5f:9c:51:45:3e:8a:3a:e2:20:5e:
        f5:22:84:77:a8:ca:aa:61:bf:18:4f:61:ed:86:55:4b:b7:35:
        b9:1e:c3:ed:75:61:8f:60:42:0d:fc:0e:74:c0:c6:b7:5e:cc:
        69:df:8b:08:ae:4e:99:76:52:c8:f1:a2:10:c6:0c:64:7b:cb:
        64:d7:70:fe:8e:cc:f0:57:a7:dc:c6:19:fa:a5:bd:d8:83:b9:
        c9:ce:3d:6e:9d:e5:85:85:85:62:a0:69:73:b7:c5:65:1e:5c:
        88:c5
-----BEGIN CERTIFICATE-----
MIICvDCCAiUCCQCbJ9fo0boLfzANBgkqhkiG9w0BAQQFADCBlTELMAkGA1UEBhMC
REUxETAPBgNVBAgTCFNhYXJsYW5kMRAwDgYDVQQKEwdNUEktU1dTMSIwIAYDVQQL
ExlEaXN0cmlidXRlZCBTeXN0ZW1zIEdyb3VwMRowGAYDVQQDExFBbmRyZWFzIEhh
ZWJlcmxlbjEhMB8GCSqGSIb3DQEJARYSZGVtb2NhQG9jdGFyaW5lLmRlMB4XDTE1
MDQyMDIwNDczOFoXDTE2MDQxOTIwNDczOFowga4xCzAJBgNVBAYTAkRFMREwDwYD
VQQIEwhTYWFybGFuZDEQMA4GA1UEChMHTVBJLVNXUzEiMCAGA1UECxMZRGlzdHJp
YnV0ZWQgU3lzdGVtcyBHcm91cDExMC8GA1UEAxMoN2UzNzM5MDU4MzFhNjk4YTFl
MTVjOTQwMTcxNjI2OGE1YjI4NTJkZDEjMCEGCSqGSIb3DQEJARYUbm9kZTA5MzVA
b2N0YXJpbmUuZGUwgZ8wDQYJKoZIhvcNAQEBBQADgY0AMIGJAoGBANNce4ZMBAmT
4w5EYDz+iBe6ldk0nl9isDPXar8Sn2W/W1Z3/NhVr42T1uELGYWLX4KyivJA6oST
kuB50CwOgbwJGQNgg5vft18YKhRHHKEv9PLSHxGW3u2DtA6wYc7eQSdFQTN4gKbh
g+l7+WOIixRga4meW816gRD4qq57gt2rAgMBAAEwDQYJKoZIhvcNAQEEBQADgYEA
Rmjc2tk9Dt5TMxmLZeFWWgEVWmpnL5LmDXFfnFFFPoo64iBe9SKEd6jKqmG/GE9h
7YZVS7c1uR7D7XVhj2BCDfwOdMDGt17Mad+LCK5OmXZSyPGiEMYMZHvLZNdw/o7M
8Fen3MYZ+qW92IO5yc49bp3lhYWFYqBpc7fFZR5ciMU=
-----END CERTIFICATE-----
