Certificate:
    Data:
        Version: 1 (0x0)
        Serial Number:
            9b:27:d7:e8:d1:ba:08:2b
        Signature Algorithm: md5WithRSAEncryption
        Issuer: C=DE, ST=Saarland, O=MPI-SWS, OU=Distributed Systems Group, CN=Andreas Haeberlen/emailAddress=democa@octarine.de
        Validity
            Not Before: Apr 20 20:47:00 2015 GMT
            Not After : Apr 19 20:47:00 2016 GMT
        Subject: C=DE, ST=Saarland, O=MPI-SWS, OU=Distributed Systems Group, CN=7afc3f4f56d12957d131aa87e0021179b65e6aeb/emailAddress=node0083@octarine.de
        Subject Public Key Info:
            Public Key Algorithm: rsaEncryption
            RSA Public Key: (1024 bit)
                Modulus (1024 bit):
                    00:da:c0:3e:30:07:6b:9e:a4:8d:c8:8d:3a:05:ec:
                    e2:d3:59:71:7f:b9:df:16:33:fe:9b:56:e0:6b:80:
                    8c:df:f2:66:80:00:41:19:6b:75:b4:7b:51:45:6d:
                    0b:a5:20:59:49:b6:51:64:89:c0:f0:3e:18:2b:11:
                    d0:56:2e:33:03:f7:dc:0c:1b:fe:20:ba:b1:ce:60:
                    8f:f4:9d:26:d3:31:e2:a1:9d:01:a8:20:b2:8d:8e:
                    8b:23:f4:3c:d3:6c:81:96:90:39:23:e7:03:3c:c2:
                    43:9a:cd:46:f5:68:1a:31:24:50:f4:f1:ad:0f:54:
                    d9:05:37:12:ee:98:f3:e0:c1
                Exponent: 65537 (0x10001)
    Signature Algorithm: md5WithRSAEncryption
        7b:72:f5:80:a5:29:b4:9e:81:81:6a:c3:b1:5d:19:19:cb:2b:
        9a:f1:23:7b:03:61:89:36:f3:b8:10:ff:e0:8a:fd:37:96:09:
        a4:8d:35:21:6b:61:3d:19:79:c8:a7:a5:75:3b:7b:26:a0:85:
        85:9e:5d:33:eb:89:3d:b1:c7:98:75:28:d8:cc:71:2d:1a:74:
        a9:ed:0f:85:b7:fe:25:1b:d0:6e:42:4d:3f:76:14:f8:aa:94:
        2e:fb:10:4e:ab:f4:38:e5:f5:0f:49:75:57:ec:33:3d:70:51:
        33:ab:62:0a:d6:c4:d7:a2:e3:fb:2e:06:e6:43:23:51:b5:4d:
        e1:61
-----BEGIN CERTIFICATE-----
MIICvDCCAiUCCQCbJ9fo0boIKzANBgkqhkiG9w0BAQQFADCBlTELMAkGA1UEBhMC
REUxETAPBgNVBAgTCFNhYXJsYW5kMRAwDgYDVQQKEwdNUEktU1dTMSIwIAYDVQQL
ExlEaXN0cmlidXRlZCBTeXN0ZW1zIEdyb3VwMRowGAYDVQQDExFBbmRyZWFzIEhh
ZWJlcmxlbjEhMB8GCSqGSIb3DQEJARYSZGVtb2NhQG9jdGFyaW5lLmRlMB4XDTE1
MDQyMDIwNDcwMFoXDTE2MDQxOTIwNDcwMFowga4xCzAJBgNVBAYTAkRFMREwDwYD
VQQIEwhTYWFybGFuZDEQMA4GA1UEChMHTVBJLVNXUzEiMCAGA1UECxMZRGlzdHJp
YnV0ZWQgU3lzdGVtcyBHcm91cDExMC8GA1UEAxMoN2FmYzNmNGY1NmQxMjk1N2Qx
MzFhYTg3ZTAwMjExNzliNjVlNmFlYjEjMCEGCSqGSIb3DQEJARYUbm9kZTAwODNA
b2N0YXJpbmUuZGUwgZ8wDQYJKoZIhvcNAQEBBQADgY0AMIGJAoGBANrAPjAHa56k
jciNOgXs4tNZcX+53xYz/ptW4GuAjN/yZoAAQRlrdbR7UUVtC6UgWUm2UWSJwPA+
GCsR0FYuMwP33Awb/iC6sc5gj/SdJtMx4qGdAaggso2OiyP0PNNsgZaQOSPnAzzC
Q5rNRvVoGjEkUPTxrQ9U2QU3Eu6Y8+DBAgMBAAEwDQYJKoZIhvcNAQEEBQADgYEA
e3L1gKUptJ6BgWrDsV0ZGcsrmvEjewNhiTbzuBD/4Ir9N5YJpI01IWthPRl5yKel
dTt7JqCFhZ5dM+uJPbHHmHUo2MxxLRp0qe0Phbf+JRvQbkJNP3YU+KqULvsQTqv0
OOX1D0l1V+wzPXBRM6tiCtbE16Lj+y4G5kMjUbVN4WE=
-----END CERTIFICATE-----
