Certificate:
    Data:
        Version: 1 (0x0)
        Serial Number:
            9b:27:d7:e8:d1:ba:08:a7
        Signature Algorithm: md5WithRSAEncryption
        Issuer: C=DE, ST=Saarland, O=MPI-SWS, OU=Distributed Systems Group, CN=Andreas Haeberlen/emailAddress=democa@octarine.de
        Validity
            Not Before: Apr 20 20:47:06 2015 GMT
            Not After : Apr 19 20:47:06 2016 GMT
        Subject: C=DE, ST=Saarland, O=MPI-SWS, OU=Distributed Systems Group, CN=062f59574cdc3aee9a28e482e0ba36c4de3389bc/emailAddress=node0207@octarine.de
        Subject Public Key Info:
            Public Key Algorithm: rsaEncryption
            RSA Public Key: (1024 bit)
                Modulus (1024 bit):
                    00:d8:7e:0c:21:ba:4e:0b:6b:51:1e:ad:48:cb:bc:
                    e2:01:ff:e2:4b:22:6d:bd:57:8e:ce:1d:ac:0f:5a:
                    74:aa:92:03:66:96:50:49:a7:fd:14:8d:ee:09:52:
                    aa:20:6c:f5:19:17:5a:17:d0:f6:e2:a7:d5:83:38:
                    20:3b:e3:9e:9e:f0:68:f1:34:c2:c2:9e:17:75:d5:
                    dd:01:bc:0b:a4:b3:83:27:c2:65:c0:18:4d:56:6d:
                    ea:74:56:1b:09:17:41:1b:2b:51:6b:d7:07:ab:bf:
                    d1:45:87:84:b2:34:84:bd:dc:1a:60:11:3a:2f:23:
                    cc:05:2d:19:54:3c:06:79:f5
                Exponent: 65537 (0x10001)
    Signature Algorithm: md5WithRSAEncryption
        28:02:75:3e:bd:4d:53:02:9c:20:31:06:3f:b7:74:ce:8c:92:
        c2:a5:d0:f8:83:59:ba:26:f3:ef:44:1f:ba:01:1e:90:50:98:
        15:82:e0:23:c6:11:f7:ff:cf:80:46:b1:ea:02:e7:e5:8d:f9:
        cf:42:f5:8c:36:89:31:f2:84:84:4e:46:c9:dd:33:c7:5e:a1:
        16:c9:66:be:39:00:37:b9:e9:cb:32:07:35:26:d6:9a:30:02:
        af:7c:7f:b6:b4:ee:43:ca:93:7e:ca:f0:21:4f:2e:56:e1:7d:
        6b:3a:cc:58:6b:da:13:03:64:c4:5b:7e:e4:fa:14:0d:85:4e:
        c9:08
-----BEGIN CERTIFICATE-----
MIICvDCCAiUCCQCbJ9fo0boIpzANBgkqhkiG9w0BAQQFADCBlTELMAkGA1UEBhMC
REUxETAPBgNVBAgTCFNhYXJsYW5kMRAwDgYDVQQKEwdNUEktU1dTMSIwIAYDVQQL
ExlEaXN0cmlidXRlZCBTeXN0ZW1zIEdyb3VwMRowGAYDVQQDExFBbmRyZWFzIEhh
ZWJlcmxlbjEhMB8GCSqGSIb3DQEJARYSZGVtb2NhQG9jdGFyaW5lLmRlMB4XDTE1
MDQyMDIwNDcwNloXDTE2MDQxOTIwNDcwNlowga4xCzAJBgNVBAYTAkRFMREwDwYD
VQQIEwhTYWFybGFuZDEQMA4GA1UEChMHTVBJLVNXUzEiMCAGA1UECxMZRGlzdHJp
YnV0ZWQgU3lzdGVtcyBHcm91cDExMC8GA1UEAxMoMDYyZjU5NTc0Y2RjM2FlZTlh
MjhlNDgyZTBiYTM2YzRkZTMzODliYzEjMCEGCSqGSIb3DQEJARYUbm9kZTAyMDdA
b2N0YXJpbmUuZGUwgZ8wDQYJKoZIhvcNAQEBBQADgY0AMIGJAoGBANh+DCG6Tgtr
UR6tSMu84gH/4ksibb1Xjs4drA9adKqSA2aWUEmn/RSN7glSqiBs9RkXWhfQ9uKn
1YM4IDvjnp7waPE0wsKeF3XV3QG8C6SzgyfCZcAYTVZt6nRWGwkXQRsrUWvXB6u/
0UWHhLI0hL3cGmAROi8jzAUtGVQ8Bnn1AgMBAAEwDQYJKoZIhvcNAQEEBQADgYEA
KAJ1Pr1NUwKcIDEGP7d0zoySwqXQ+INZuibz70QfugEekFCYFYLgI8YR9//PgEax
6gLn5Y35z0L1jDaJMfKEhE5Gyd0zx16hFslmvjkAN7npyzIHNSbWmjACr3x/trTu
Q8qTfsrwIU8uVuF9azrMWGvaEwNkxFt+5PoUDYVOyQg=
-----END CERTIFICATE-----
