Certificate:
    Data:
        Version: 1 (0x0)
        Serial Number:
            9b:27:d7:e8:d1:ba:09:d8
        Signature Algorithm: md5WithRSAEncryption
        Issuer: C=DE, ST=Saarland, O=MPI-SWS, OU=Distributed Systems Group, CN=Andreas Haeberlen/emailAddress=democa@octarine.de
        Validity
            Not Before: Apr 20 20:47:19 2015 GMT
            Not After : Apr 19 20:47:19 2016 GMT
        Subject: C=DE, ST=Saarland, O=MPI-SWS, OU=Distributed Systems Group, CN=e854694c54169d2bd3528cdf1369d91b17080445/emailAddress=node0512@octarine.de
        Subject Public Key Info:
            Public Key Algorithm: rsaEncryption
            RSA Public Key: (1024 bit)
                Modulus (1024 bit):
                    00:b3:ff:a2:ab:d1:44:c3:13:59:0f:55:b2:4d:f2:
                    98:58:1f:87:df:4a:08:6a:0a:eb:61:06:8d:09:4a:
                    9e:04:d9:de:b1:5d:da:ce:58:2c:68:bb:02:3b:d4:
                    29:2a:bc:73:b5:4c:ad:8c:30:bf:32:4e:76:02:43:
                    b9:ac:f0:99:80:bb:33:d9:7f:32:59:f9:74:92:17:
                    66:56:61:a7:91:43:28:ae:ff:ef:17:04:35:e3:a5:
                    c6:3d:67:de:59:ce:99:e5:79:04:5f:f8:92:aa:8b:
                    e8:0a:1a:75:f9:7d:f6:49:2f:92:41:80:a3:5d:95:
                    7c:50:b0:b3:b9:d4:ed:ae:5d
                Exponent: 65537 (0x10001)
    Signature Algorithm: md5WithRSAEncryption
        2b:06:8e:9e:5a:d2:6b:b0:1f:48:d4:52:74:46:db:c9:60:fb:
        00:ad:a9:43:33:c9:91:66:8f:d0:38:28:07:47:da:4b:ab:f4:
        95:c8:36:b3:8e:2d:26:2f:eb:2a:52:c1:23:95:51:f4:9d:a4:
        96:98:45:4f:d2:78:1c:b5:be:ea:59:6d:cc:2e:61:c3:7a:55:
        fe:9c:c3:ab:a0:ae:3b:38:d6:7e:34:86:ae:ee:bc:ff:e9:bc:
        10:ab:36:2b:0d:52:5b:55:4b:0c:46:d8:51:0a:a2:e4:10:b4:
        fc:46:ab:34:24:5a:b8:83:ef:33:89:80:66:ae:e8:43:fb:52:
        fe:89
-----BEGIN CERTIFICATE-----
MIICvDCCAiUCCQCbJ9fo0boJ2DANBgkqhkiG9w0BAQQFADCBlTELMAkGA1UEBhMC
REUxETAPBgNVBAgTCFNhYXJsYW5kMRAwDgYDVQQKEwdNUEktU1dTMSIwIAYDVQQL
ExlEaXN0cmlidXRlZCBTeXN0ZW1zIEdyb3VwMRowGAYDVQQDExFBbmRyZWFzIEhh
ZWJlcmxlbjEhMB8GCSqGSIb3DQEJARYSZGVtb2NhQG9jdGFyaW5lLmRlMB4XDTE1
MDQyMDIwNDcxOVoXDTE2MDQxOTIwNDcxOVowga4xCzAJBgNVBAYTAkRFMREwDwYD
VQQIEwhTYWFybGFuZDEQMA4GA1UEChMHTVBJLVNXUzEiMCAGA1UECxMZRGlzdHJp
YnV0ZWQgU3lzdGVtcyBHcm91cDExMC8GA1UEAxMoZTg1NDY5NGM1NDE2OWQyYmQz
NTI4Y2RmMTM2OWQ5MWIxNzA4MDQ0NTEjMCEGCSqGSIb3DQEJARYUbm9kZTA1MTJA
b2N0YXJpbmUuZGUwgZ8wDQYJKoZIhvcNAQEBBQADgY0AMIGJAoGBALP/oqvRRMMT
WQ9Vsk3ymFgfh99KCGoK62EGjQlKngTZ3rFd2s5YLGi7AjvUKSq8c7VMrYwwvzJO
dgJDuazwmYC7M9l/Mln5dJIXZlZhp5FDKK7/7xcENeOlxj1n3lnOmeV5BF/4kqqL
6Aoadfl99kkvkkGAo12VfFCws7nU7a5dAgMBAAEwDQYJKoZIhvcNAQEEBQADgYEA
KwaOnlrSa7AfSNRSdEbbyWD7AK2pQzPJkWaP0DgoB0faS6v0lcg2s44tJi/rKlLB
I5VR9J2klphFT9J4HLW+6lltzC5hw3pV/pzDq6CuOzjWfjSGru68/+m8EKs2Kw1S
W1VLDEbYUQqi5BC0/EarNCRauIPvM4mAZq7oQ/tS/ok=
-----END CERTIFICATE-----
