Certificate:
    Data:
        Version: 1 (0x0)
        Serial Number:
            9b:27:d7:e8:d1:ba:0a:6b
        Signature Algorithm: md5WithRSAEncryption
        Issuer: C=DE, ST=Saarland, O=MPI-SWS, OU=Distributed Systems Group, CN=Andreas Haeberlen/emailAddress=democa@octarine.de
        Validity
            Not Before: Apr 20 20:47:26 2015 GMT
            Not After : Apr 19 20:47:26 2016 GMT
        Subject: C=DE, ST=Saarland, O=MPI-SWS, OU=Distributed Systems Group, CN=47c86b6779502753223b166ba9695f7a743dfa57/emailAddress=node0659@octarine.de
        Subject Public Key Info:
            Public Key Algorithm: rsaEncryption
            RSA Public Key: (1024 bit)
                Modulus (1024 bit):
                    00:f7:e9:2e:91:0c:da:19:d3:24:67:3e:b6:74:e5:
                    37:61:70:0b:75:73:75:6b:b4:d7:30:45:ff:9a:88:
                    7c:dd:af:15:d2:1c:da:ce:90:09:c6:34:59:18:e8:
                    c7:76:95:11:8f:f6:39:a0:f4:a7:b2:13:12:a0:44:
                    26:6a:26:26:72:d5:47:78:96:71:4d:2a:67:51:22:
                    94:e2:47:e2:a1:8a:88:eb:f6:0d:46:d4:a4:70:e0:
                    c9:7c:1c:b0:80:ac:76:00:4f:d2:bf:01:4b:6a:af:
                    d1:68:a2:76:e0:c3:99:ad:34:32:0a:33:05:1a:5c:
                    4a:f1:41:ea:9e:94:d2:c6:03
                Exponent: 65537 (0x10001)
    Signature Algorithm: md5WithRSAEncryption
        39:9a:3d:4e:86:80:9f:51:46:4e:ac:4f:e4:2b:27:74:49:f1:
        70:92:1d:cd:16:bb:04:74:dc:73:3d:c4:9b:3a:14:27:48:68:
        a4:dd:37:00:33:ec:43:e2:6a:77:39:f4:db:75:14:e9:db:bd:
        07:10:02:ce:00:11:f3:06:af:ba:49:34:27:60:2e:64:d8:d6:
        f3:f4:ef:5d:25:d3:55:cf:70:48:99:4b:8b:aa:d6:a0:e9:67:
        95:7c:3c:f2:78:8c:69:f8:f5:b4:77:ef:91:64:7b:3c:2c:3e:
        d4:b8:62:2a:48:8f:a2:f1:97:7e:3e:92:a3:05:71:1c:9e:b5:
        a1:7e
-----BEGIN CERTIFICATE-----
MIICvDCCAiUCCQCbJ9fo0boKazANBgkqhkiG9w0BAQQFADCBlTELMAkGA1UEBhMC
REUxETAPBgNVBAgTCFNhYXJsYW5kMRAwDgYDVQQKEwdNUEktU1dTMSIwIAYDVQQL
ExlEaXN0cmlidXRlZCBTeXN0ZW1zIEdyb3VwMRowGAYDVQQDExFBbmRyZWFzIEhh
ZWJlcmxlbjEhMB8GCSqGSIb3DQEJARYSZGVtb2NhQG9jdGFyaW5lLmRlMB4XDTE1
MDQyMDIwNDcyNloXDTE2MDQxOTIwNDcyNlowga4xCzAJBgNVBAYTAkRFMREwDwYD
VQQIEwhTYWFybGFuZDEQMA4GA1UEChMHTVBJLVNXUzEiMCAGA1UECxMZRGlzdHJp
YnV0ZWQgU3lzdGVtcyBHcm91cDExMC8GA1UEAxMoNDdjODZiNjc3OTUwMjc1MzIy
M2IxNjZiYTk2OTVmN2E3NDNkZmE1NzEjMCEGCSqGSIb3DQEJARYUbm9kZTA2NTlA
b2N0YXJpbmUuZGUwgZ8wDQYJKoZIhvcNAQEBBQADgY0AMIGJAoGBAPfpLpEM2hnT
JGc+tnTlN2FwC3VzdWu01zBF/5qIfN2vFdIc2s6QCcY0WRjox3aVEY/2OaD0p7IT
EqBEJmomJnLVR3iWcU0qZ1EilOJH4qGKiOv2DUbUpHDgyXwcsICsdgBP0r8BS2qv
0WiiduDDma00MgozBRpcSvFB6p6U0sYDAgMBAAEwDQYJKoZIhvcNAQEEBQADgYEA
OZo9ToaAn1FGTqxP5CsndEnxcJIdzRa7BHTccz3EmzoUJ0hopN03ADPsQ+Jqdzn0
23UU6du9BxACzgAR8wavukk0J2AuZNjW8/TvXSXTVc9wSJlLi6rWoOlnlXw88niM
afj1tHfvkWR7PCw+1LhiKkiPovGXfj6SowVxHJ61oX4=
-----END CERTIFICATE-----
