Certificate:
    Data:
        Version: 1 (0x0)
        Serial Number:
            9b:27:d7:e8:d1:ba:09:1a
        Signature Algorithm: md5WithRSAEncryption
        Issuer: C=DE, ST=Saarland, O=MPI-SWS, OU=Distributed Systems Group, CN=Andreas Haeberlen/emailAddress=democa@octarine.de
        Validity
            Not Before: Apr 20 20:47:11 2015 GMT
            Not After : Apr 19 20:47:11 2016 GMT
        Subject: C=DE, ST=Saarland, O=MPI-SWS, OU=Distributed Systems Group, CN=7f1bbc841e32f36db73ddfaf2a1a289a8a537d88/emailAddress=node0322@octarine.de
        Subject Public Key Info:
            Public Key Algorithm: rsaEncryption
            RSA Public Key: (1024 bit)
                Modulus (1024 bit):
                    00:a4:ed:85:72:a5:9b:80:80:3f:13:bd:b4:e4:59:
                    3d:fa:a2:cb:fd:3d:86:b7:40:69:de:32:b9:20:c2:
                    03:56:bd:24:a9:d2:73:9a:57:59:04:e1:1f:ef:90:
                    2d:a5:5f:a6:69:64:62:f5:98:73:d7:8a:26:90:58:
                    5b:de:d3:02:0d:f2:ea:06:e8:95:3c:ae:cc:af:be:
                    03:d6:c0:13:ed:bc:08:97:ee:29:58:a9:21:e8:49:
                    6f:7c:db:e5:bc:96:02:36:ea:c2:06:b6:16:c0:11:
                    ec:b2:85:74:dc:18:c0:f8:ab:a1:d4:69:c7:fa:a7:
                    37:fd:9f:ae:09:5a:e5:48:63
                Exponent: 65537 (0x10001)
    Signature Algorithm: md5WithRSAEncryption
        61:a7:08:d4:2c:28:c5:3b:1b:54:f4:bc:d9:1c:3b:45:37:98:
        1b:d6:ec:6d:67:61:08:32:bc:76:a9:8d:b7:2a:87:e4:82:e1:
        d1:6d:98:b7:e7:87:82:1f:9d:6c:81:76:12:ba:53:c4:90:5c:
        c6:67:95:d1:0a:1f:d9:0a:e1:af:3c:16:0b:50:05:98:f7:90:
        8e:5d:aa:8c:1e:72:7b:4a:5f:f1:63:94:c7:27:d6:38:d7:0c:
        17:e5:39:be:75:8d:38:e6:1c:8a:42:03:96:87:39:94:0b:10:
        81:47:34:22:f1:d6:e9:03:47:fe:1a:89:0c:c5:4a:aa:bc:dd:
        0e:66
-----BEGIN CERTIFICATE-----
MIICvDCCAiUCCQCbJ9fo0boJGjANBgkqhkiG9w0BAQQFADCBlTELMAkGA1UEBhMC
REUxETAPBgNVBAgTCFNhYXJsYW5kMRAwDgYDVQQKEwdNUEktU1dTMSIwIAYDVQQL
ExlEaXN0cmlidXRlZCBTeXN0ZW1zIEdyb3VwMRowGAYDVQQDExFBbmRyZWFzIEhh
ZWJlcmxlbjEhMB8GCSqGSIb3DQEJARYSZGVtb2NhQG9jdGFyaW5lLmRlMB4XDTE1
MDQyMDIwNDcxMVoXDTE2MDQxOTIwNDcxMVowga4xCzAJBgNVBAYTAkRFMREwDwYD
VQQIEwhTYWFybGFuZDEQMA4GA1UEChMHTVBJLVNXUzEiMCAGA1UECxMZRGlzdHJp
YnV0ZWQgU3lzdGVtcyBHcm91cDExMC8GA1UEAxMoN2YxYmJjODQxZTMyZjM2ZGI3
M2RkZmFmMmExYTI4OWE4YTUzN2Q4ODEjMCEGCSqGSIb3DQEJARYUbm9kZTAzMjJA
b2N0YXJpbmUuZGUwgZ8wDQYJKoZIhvcNAQEBBQADgY0AMIGJAoGBAKTthXKlm4CA
PxO9tORZPfqiy/09hrdAad4yuSDCA1a9JKnSc5pXWQThH++QLaVfpmlkYvWYc9eK
JpBYW97TAg3y6gbolTyuzK++A9bAE+28CJfuKVipIehJb3zb5byWAjbqwga2FsAR
7LKFdNwYwPirodRpx/qnN/2frgla5UhjAgMBAAEwDQYJKoZIhvcNAQEEBQADgYEA
YacI1CwoxTsbVPS82Rw7RTeYG9bsbWdhCDK8dqmNtyqH5ILh0W2Yt+eHgh+dbIF2
ErpTxJBcxmeV0Qof2QrhrzwWC1AFmPeQjl2qjB5ye0pf8WOUxyfWONcMF+U5vnWN
OOYcikIDloc5lAsQgUc0IvHW6QNH/hqJDMVKqrzdDmY=
-----END CERTIFICATE-----
