Certificate:
    Data:
        Version: 1 (0x0)
        Serial Number:
            9b:27:d7:e8:d1:ba:0b:6d
        Signature Algorithm: md5WithRSAEncryption
        Issuer: C=DE, ST=Saarland, O=MPI-SWS, OU=Distributed Systems Group, CN=Andreas Haeberlen/emailAddress=democa@octarine.de
        Validity
            Not Before: Apr 20 20:47:38 2015 GMT
            Not After : Apr 19 20:47:38 2016 GMT
        Subject: C=DE, ST=Saarland, O=MPI-SWS, OU=Distributed Systems Group, CN=c6fd2f9cd54d441ffb2909cfc86c9f5665484d41/emailAddress=node0917@octarine.de
        Subject Public Key Info:
            Public Key Algorithm: rsaEncryption
            RSA Public Key: (1024 bit)
                Modulus (1024 bit):
                    00:a9:50:db:65:d1:59:05:13:29:dd:13:b7:63:00:
                    c9:95:6a:7c:fa:08:ca:b3:a3:f8:01:31:e8:cd:c5:
                    4f:76:c5:2b:47:d6:88:1b:60:13:6b:a0:dd:06:15:
                    f8:93:d9:e8:55:08:d3:92:c6:05:77:0c:f5:fc:7f:
                    2c:63:ef:53:08:f7:38:21:a5:3b:f0:ee:02:c2:6a:
                    ef:1b:fb:c8:79:1c:bb:bd:65:a3:72:95:69:95:e2:
                    bd:2c:50:f6:30:3e:a6:19:17:89:d9:94:31:4b:7c:
                    8c:86:e3:23:54:01:51:ba:86:f1:db:69:47:19:4c:
                    b1:59:9e:38:7b:d8:ae:9d:b3
                Exponent: 65537 (0x10001)
    Signature Algorithm: md5WithRSAEncryption
        21:d5:6f:42:e7:00:45:81:c7:b7:be:8f:38:96:f5:bf:35:78:
        ac:f5:26:ce:6f:7c:4c:86:39:08:34:4d:5c:02:3d:e3:4a:70:
        bf:dd:d0:e8:84:9a:e1:ea:a7:69:a1:29:ef:af:ff:72:24:80:
        b8:22:c1:a4:ce:7e:2b:f4:90:c1:66:2e:72:01:5d:79:5f:54:
        2c:be:c9:56:a6:bf:b4:5e:fd:27:fa:9c:e6:fc:95:6c:ba:02:
        00:42:c0:c4:11:e2:92:f9:a2:fb:83:63:04:30:6e:db:eb:0c:
        1e:12:3c:29:78:88:83:e8:b4:9f:94:e8:e4:25:31:d9:e1:cb:
        08:8b
-----BEGIN CERTIFICATE-----
MIICvDCCAiUCCQCbJ9fo0boLbTANBgkqhkiG9w0BAQQFADCBlTELMAkGA1UEBhMC
REUxETAPBgNVBAgTCFNhYXJsYW5kMRAwDgYDVQQKEwdNUEktU1dTMSIwIAYDVQQL
ExlEaXN0cmlidXRlZCBTeXN0ZW1zIEdyb3VwMRowGAYDVQQDExFBbmRyZWFzIEhh
ZWJlcmxlbjEhMB8GCSqGSIb3DQEJARYSZGVtb2NhQG9jdGFyaW5lLmRlMB4XDTE1
MDQyMDIwNDczOFoXDTE2MDQxOTIwNDczOFowga4xCzAJBgNVBAYTAkRFMREwDwYD
VQQIEwhTYWFybGFuZDEQMA4GA1UEChMHTVBJLVNXUzEiMCAGA1UECxMZRGlzdHJp
YnV0ZWQgU3lzdGVtcyBHcm91cDExMC8GA1UEAxMoYzZmZDJmOWNkNTRkNDQxZmZi
MjkwOWNmYzg2YzlmNTY2NTQ4NGQ0MTEjMCEGCSqGSIb3DQEJARYUbm9kZTA5MTdA
b2N0YXJpbmUuZGUwgZ8wDQYJKoZIhvcNAQEBBQADgY0AMIGJAoGBAKlQ22XRWQUT
Kd0Tt2MAyZVqfPoIyrOj+AEx6M3FT3bFK0fWiBtgE2ug3QYV+JPZ6FUI05LGBXcM
9fx/LGPvUwj3OCGlO/DuAsJq7xv7yHkcu71lo3KVaZXivSxQ9jA+phkXidmUMUt8
jIbjI1QBUbqG8dtpRxlMsVmeOHvYrp2zAgMBAAEwDQYJKoZIhvcNAQEEBQADgYEA
IdVvQucARYHHt76POJb1vzV4rPUmzm98TIY5CDRNXAI940pwv93Q6ISa4eqnaaEp
76//ciSAuCLBpM5+K/SQwWYucgFdeV9ULL7JVqa/tF79J/qc5vyVbLoCAELAxBHi
kvmi+4NjBDBu2+sMHhI8KXiIg+i0n5To5CUx2eHLCIs=
-----END CERTIFICATE-----
