Certificate:
    Data:
        Version: 1 (0x0)
        Serial Number:
            9b:27:d7:e8:d1:ba:08:62
        Signature Algorithm: md5WithRSAEncryption
        Issuer: C=DE, ST=Saarland, O=MPI-SWS, OU=Distributed Systems Group, CN=Andreas Haeberlen/emailAddress=democa@octarine.de
        Validity
            Not Before: Apr 20 20:47:03 2015 GMT
            Not After : Apr 19 20:47:03 2016 GMT
        Subject: C=DE, ST=Saarland, O=MPI-SWS, OU=Distributed Systems Group, CN=c9a6263d97be57f39c9275264dc9169d0442a704/emailAddress=node0138@octarine.de
        Subject Public Key Info:
            Public Key Algorithm: rsaEncryption
            RSA Public Key: (1024 bit)
                Modulus (1024 bit):
                    00:db:b9:f1:10:ba:a4:9f:f2:d9:68:41:5b:dd:29:
                    14:c1:a3:90:26:9c:fc:8e:ed:66:8d:c6:73:3b:6a:
                    a2:0c:f6:cf:ef:0b:9c:b9:ee:12:f2:13:6c:84:dd:
                    f3:0d:7f:95:d3:ff:6a:d1:39:1d:6f:b0:01:b1:0f:
                    62:cc:20:c6:fa:d4:13:0b:58:3f:b0:36:c4:cb:66:
                    33:df:0f:56:45:99:c5:f0:8b:99:df:c2:c3:35:cf:
                    90:10:7f:eb:ca:5f:dd:a3:8a:e1:85:43:fb:56:ab:
                    8d:2c:61:4d:7c:bd:32:de:f3:57:bb:55:83:ba:ce:
                    01:08:16:2a:83:c8:ea:e1:c3
                Exponent: 65537 (0x10001)
    Signature Algorithm: md5WithRSAEncryption
        9b:1a:bc:c8:54:08:86:97:09:f0:da:98:d7:48:56:ba:2f:8c:
        4f:3a:54:05:87:5d:1e:a3:c0:ec:69:dd:38:26:39:b0:56:91:
        ee:79:f2:e4:3f:44:17:7f:39:cc:11:e1:fc:2a:94:a5:28:ad:
        14:fc:d3:fb:50:3f:56:4f:0f:87:ef:46:e6:a7:72:8d:80:54:
        43:fe:fa:0f:36:d0:85:2b:7e:08:30:34:9f:d6:07:82:af:71:
        16:b2:f3:d9:cc:b5:7d:7e:d9:8e:36:14:cb:3c:d1:7d:42:fc:
        fd:89:a2:21:d4:a2:c4:27:02:2e:2f:3b:7a:0b:b0:72:21:13:
        4e:c6
-----BEGIN CERTIFICATE-----
MIICvDCCAiUCCQCbJ9fo0boIYjANBgkqhkiG9w0BAQQFADCBlTELMAkGA1UEBhMC
REUxETAPBgNVBAgTCFNhYXJsYW5kMRAwDgYDVQQKEwdNUEktU1dTMSIwIAYDVQQL
ExlEaXN0cmlidXRlZCBTeXN0ZW1zIEdyb3VwMRowGAYDVQQDExFBbmRyZWFzIEhh
ZWJlcmxlbjEhMB8GCSqGSIb3DQEJARYSZGVtb2NhQG9jdGFyaW5lLmRlMB4XDTE1
MDQyMDIwNDcwM1oXDTE2MDQxOTIwNDcwM1owga4xCzAJBgNVBAYTAkRFMREwDwYD
VQQIEwhTYWFybGFuZDEQMA4GA1UEChMHTVBJLVNXUzEiMCAGA1UECxMZRGlzdHJp
YnV0ZWQgU3lzdGVtcyBHcm91cDExMC8GA1UEAxMoYzlhNjI2M2Q5N2JlNTdmMzlj
OTI3NTI2NGRjOTE2OWQwNDQyYTcwNDEjMCEGCSqGSIb3DQEJARYUbm9kZTAxMzhA
b2N0YXJpbmUuZGUwgZ8wDQYJKoZIhvcNAQEBBQADgY0AMIGJAoGBANu58RC6pJ/y
2WhBW90pFMGjkCac/I7tZo3Gcztqogz2z+8LnLnuEvITbITd8w1/ldP/atE5HW+w
AbEPYswgxvrUEwtYP7A2xMtmM98PVkWZxfCLmd/CwzXPkBB/68pf3aOK4YVD+1ar
jSxhTXy9Mt7zV7tVg7rOAQgWKoPI6uHDAgMBAAEwDQYJKoZIhvcNAQEEBQADgYEA
mxq8yFQIhpcJ8NqY10hWui+MTzpUBYddHqPA7GndOCY5sFaR7nny5D9EF385zBHh
/CqUpSitFPzT+1A/Vk8Ph+9G5qdyjYBUQ/76DzbQhSt+CDA0n9YHgq9xFrLz2cy1
fX7ZjjYUyzzRfUL8/YmiIdSixCcCLi87eguwciETTsY=
-----END CERTIFICATE-----
