Certificate:
    Data:
        Version: 1 (0x0)
        Serial Number:
            9b:27:d7:e8:d1:ba:0b:79
        Signature Algorithm: md5WithRSAEncryption
        Issuer: C=DE, ST=Saarland, O=MPI-SWS, OU=Distributed Systems Group, CN=Andreas Haeberlen/emailAddress=democa@octarine.de
        Validity
            Not Before: Apr 20 20:47:38 2015 GMT
            Not After : Apr 19 20:47:38 2016 GMT
        Subject: C=DE, ST=Saarland, O=MPI-SWS, OU=Distributed Systems Group, CN=4025424024db717342dc5d09c26abb40c6609a1b/emailAddress=node0929@octarine.de
        Subject Public Key Info:
            Public Key Algorithm: rsaEncryption
            RSA Public Key: (1024 bit)
                Modulus (1024 bit):
                    00:d8:2f:eb:ff:a4:3d:3e:35:ae:99:99:98:9d:6b:
                    9c:fd:cc:46:ea:fe:47:cb:6d:7b:6d:9e:c1:a8:e8:
                    e1:a4:f6:18:63:58:4d:a3:42:57:07:16:f8:9a:ca:
                    87:66:a5:bf:c2:6b:70:ea:76:6a:37:10:c4:0c:d8:
                    25:38:86:0c:6e:1b:4c:04:5c:0b:8e:06:a2:b1:1d:
                    70:bf:e3:f1:80:e7:dd:83:28:e7:f5:d2:e8:12:56:
                    ad:fe:a6:12:85:71:ea:70:9c:65:f7:de:2d:74:a2:
                    10:a8:ac:65:c9:41:0f:a3:28:13:d0:ed:d8:85:d7:
                    2a:50:31:60:97:3b:a9:d2:15
                Exponent: 65537 (0x10001)
    Signature Algorithm: md5WithRSAEncryption
        32:e7:25:b0:bd:7a:36:3e:94:cb:d6:d7:fd:77:96:59:5b:1e:
        11:46:70:ed:64:83:b2:e5:8a:17:97:58:f0:a9:cc:6a:97:f7:
        6a:65:14:02:af:09:37:ac:cf:3a:b2:f4:9c:9b:14:21:3d:e7:
        ed:cd:cc:76:3b:41:e5:83:52:91:ab:ea:7b:89:13:6f:09:16:
        35:95:4d:18:1d:85:5a:cb:3e:f1:c8:54:ea:bb:ae:ec:ed:a1:
        2e:f9:8d:62:6b:62:1b:25:c0:08:d4:49:03:ac:ef:62:42:ba:
        e1:e9:72:1d:f9:01:5c:66:f3:4c:be:a8:01:82:3c:05:5e:1d:
        8d:7b
-----BEGIN CERTIFICATE-----
MIICvDCCAiUCCQCbJ9fo0boLeTANBgkqhkiG9w0BAQQFADCBlTELMAkGA1UEBhMC
REUxETAPBgNVBAgTCFNhYXJsYW5kMRAwDgYDVQQKEwdNUEktU1dTMSIwIAYDVQQL
ExlEaXN0cmlidXRlZCBTeXN0ZW1zIEdyb3VwMRowGAYDVQQDExFBbmRyZWFzIEhh
ZWJlcmxlbjEhMB8GCSqGSIb3DQEJARYSZGVtb2NhQG9jdGFyaW5lLmRlMB4XDTE1
MDQyMDIwNDczOFoXDTE2MDQxOTIwNDczOFowga4xCzAJBgNVBAYTAkRFMREwDwYD
VQQIEwhTYWFybGFuZDEQMA4GA1UEChMHTVBJLVNXUzEiMCAGA1UECxMZRGlzdHJp
YnV0ZWQgU3lzdGVtcyBHcm91cDExMC8GA1UEAxMoNDAyNTQyNDAyNGRiNzE3MzQy
ZGM1ZDA5YzI2YWJiNDBjNjYwOWExYjEjMCEGCSqGSIb3DQEJARYUbm9kZTA5MjlA
b2N0YXJpbmUuZGUwgZ8wDQYJKoZIhvcNAQEBBQADgY0AMIGJAoGBANgv6/+kPT41
rpmZmJ1rnP3MRur+R8tte22ewajo4aT2GGNYTaNCVwcW+JrKh2alv8JrcOp2ajcQ
xAzYJTiGDG4bTARcC44GorEdcL/j8YDn3YMo5/XS6BJWrf6mEoVx6nCcZffeLXSi
EKisZclBD6MoE9Dt2IXXKlAxYJc7qdIVAgMBAAEwDQYJKoZIhvcNAQEEBQADgYEA
MuclsL16Nj6Uy9bX/XeWWVseEUZw7WSDsuWKF5dY8KnMapf3amUUAq8JN6zPOrL0
nJsUIT3n7c3MdjtB5YNSkavqe4kTbwkWNZVNGB2FWss+8chU6ruu7O2hLvmNYmti
GyXACNRJA6zvYkK64elyHfkBXGbzTL6oAYI8BV4djXs=
-----END CERTIFICATE-----
