Certificate:
    Data:
        Version: 1 (0x0)
        Serial Number:
            9b:27:d7:e8:d1:ba:0a:33
        Signature Algorithm: md5WithRSAEncryption
        Issuer: C=DE, ST=Saarland, O=MPI-SWS, OU=Distributed Systems Group, CN=Andreas Haeberlen/emailAddress=democa@octarine.de
        Validity
            Not Before: Apr 20 20:47:23 2015 GMT
            Not After : Apr 19 20:47:23 2016 GMT
        Subject: C=DE, ST=Saarland, O=MPI-SWS, OU=Distributed Systems Group, CN=8de45adb3ae5089065c814c342c96c6fa54ff1a3/emailAddress=node0603@octarine.de
        Subject Public Key Info:
            Public Key Algorithm: rsaEncryption
            RSA Public Key: (1024 bit)
                Modulus (1024 bit):
                    00:ed:b4:bb:60:05:3b:c7:fe:16:f2:43:e4:1b:cd:
                    f2:64:47:ac:d8:24:98:8f:4d:9e:19:86:53:c0:b6:
                    7c:b5:49:f7:51:15:e5:56:5b:bb:95:ae:35:bf:b4:
                    01:6c:64:75:ed:93:89:60:b9:2f:77:49:bb:ca:a5:
                    06:d1:b6:e9:13:17:29:a7:03:b5:be:3a:f0:00:2e:
                    b9:76:ee:98:fb:a4:92:71:68:ee:ae:d1:c8:61:be:
                    33:34:5e:15:a0:b6:17:60:ba:c2:79:24:f0:c1:14:
                    24:5e:95:31:32:a1:34:4a:f2:e0:7f:d0:0b:d7:72:
                    ce:01:7a:89:08:77:fa:45:33
                Exponent: 65537 (0x10001)
    Signature Algorithm: md5WithRSAEncryption
        70:52:b3:7e:f9:e0:8b:e7:a4:e0:d6:86:4c:7d:bb:f5:41:81:
        54:3b:cd:f0:c7:d9:5a:a6:d8:ab:bd:9a:99:3f:ac:e9:25:a5:
        f8:ea:11:a1:f9:b0:ab:9c:92:06:ac:2a:12:cc:9f:67:18:12:
        94:e3:66:99:7d:24:19:75:64:00:cc:ee:fb:66:ba:bf:4d:af:
        79:51:e6:ae:05:88:60:0d:c6:84:af:10:a2:3c:51:1d:c7:46:
        8a:71:e1:44:87:b1:af:f0:65:51:c8:f5:9b:f6:66:37:cf:9d:
        80:56:4e:5a:1e:a2:80:57:6e:0f:70:ca:d3:0f:c3:83:d5:4c:
        cc:f6
-----BEGIN CERTIFICATE-----
MIICvDCCAiUCCQCbJ9fo0boKMzANBgkqhkiG9w0BAQQFADCBlTELMAkGA1UEBhMC
REUxETAPBgNVBAgTCFNhYXJsYW5kMRAwDgYDVQQKEwdNUEktU1dTMSIwIAYDVQQL
ExlEaXN0cmlidXRlZCBTeXN0ZW1zIEdyb3VwMRowGAYDVQQDExFBbmRyZWFzIEhh
ZWJlcmxlbjEhMB8GCSqGSIb3DQEJARYSZGVtb2NhQG9jdGFyaW5lLmRlMB4XDTE1
MDQyMDIwNDcyM1oXDTE2MDQxOTIwNDcyM1owga4xCzAJBgNVBAYTAkRFMREwDwYD
VQQIEwhTYWFybGFuZDEQMA4GA1UEChMHTVBJLVNXUzEiMCAGA1UECxMZRGlzdHJp
YnV0ZWQgU3lzdGVtcyBHcm91cDExMC8GA1UEAxMoOGRlNDVhZGIzYWU1MDg5MDY1
YzgxNGMzNDJjOTZjNmZhNTRmZjFhMzEjMCEGCSqGSIb3DQEJARYUbm9kZTA2MDNA
b2N0YXJpbmUuZGUwgZ8wDQYJKoZIhvcNAQEBBQADgY0AMIGJAoGBAO20u2AFO8f+
FvJD5BvN8mRHrNgkmI9NnhmGU8C2fLVJ91EV5VZbu5WuNb+0AWxkde2TiWC5L3dJ
u8qlBtG26RMXKacDtb468AAuuXbumPukknFo7q7RyGG+MzReFaC2F2C6wnkk8MEU
JF6VMTKhNEry4H/QC9dyzgF6iQh3+kUzAgMBAAEwDQYJKoZIhvcNAQEEBQADgYEA
cFKzfvngi+ek4NaGTH279UGBVDvN8MfZWqbYq72amT+s6SWl+OoRofmwq5ySBqwq
EsyfZxgSlONmmX0kGXVkAMzu+2a6v02veVHmrgWIYA3GhK8QojxRHcdGinHhRIex
r/BlUcj1m/ZmN8+dgFZOWh6igFduD3DK0w/Dg9VMzPY=
-----END CERTIFICATE-----
