Certificate:
    Data:
        Version: 1 (0x0)
        Serial Number:
            9b:27:d7:e8:d1:ba:0a:88
        Signature Algorithm: md5WithRSAEncryption
        Issuer: C=DE, ST=Saarland, O=MPI-SWS, OU=Distributed Systems Group, CN=Andreas Haeberlen/emailAddress=democa@octarine.de
        Validity
            Not Before: Apr 20 20:47:27 2015 GMT
            Not After : Apr 19 20:47:27 2016 GMT
        Subject: C=DE, ST=Saarland, O=MPI-SWS, OU=Distributed Systems Group, CN=62c0c86bfd2441310d566679f2e422584281aeca/emailAddress=node0688@octarine.de
        Subject Public Key Info:
            Public Key Algorithm: rsaEncryption
            RSA Public Key: (1024 bit)
                Modulus (1024 bit):
                    00:bc:45:a3:8a:cb:30:2b:f3:e0:f3:c3:7b:06:c5:
                    44:3c:31:92:81:22:37:13:ab:e2:81:40:a8:c8:44:
                    d8:40:0e:ef:e5:e8:d6:8f:85:ca:da:6b:f4:14:79:
                    a3:8a:ba:51:0f:18:aa:73:b7:22:db:f9:32:90:db:
                    fd:5d:84:a5:f6:c4:ce:95:30:cc:a1:f6:ba:10:4f:
                    55:8e:b6:af:4c:ce:0e:9e:59:2f:71:d5:fc:c5:d9:
                    1d:bf:57:30:5f:bd:e0:e0:b7:f1:4a:51:9b:8b:cc:
                    c3:79:c8:c8:0f:99:68:9c:85:8d:85:19:6d:d1:33:
                    09:c7:98:b4:30:57:44:38:75
                Exponent: 65537 (0x10001)
    Signature Algorithm: md5WithRSAEncryption
        b9:8a:28:d1:16:09:c2:d9:b4:32:b3:d1:7b:0d:80:73:da:15:
        28:c2:19:f7:44:2f:9e:ab:18:3e:5d:e3:e6:37:35:63:d7:ef:
        6a:cd:ef:9d:17:cc:37:ed:ef:27:d0:0b:e5:7f:15:d2:fd:af:
        72:75:c7:d0:7b:d0:95:95:31:14:e6:8a:7d:2b:76:5d:43:1d:
        93:b6:ce:b9:2d:60:a2:40:b0:bc:b3:b3:b3:a0:1a:73:ba:29:
        7c:34:11:89:91:da:68:e5:56:6c:d4:06:88:83:bf:2e:4b:af:
        3d:33:c7:36:9b:81:3b:13:2a:8d:4c:25:54:f7:48:e7:40:ec:
        59:a0
-----BEGIN CERTIFICATE-----
MIICvDCCAiUCCQCbJ9fo0boKiDANBgkqhkiG9w0BAQQFADCBlTELMAkGA1UEBhMC
REUxETAPBgNVBAgTCFNhYXJsYW5kMRAwDgYDVQQKEwdNUEktU1dTMSIwIAYDVQQL
ExlEaXN0cmlidXRlZCBTeXN0ZW1zIEdyb3VwMRowGAYDVQQDExFBbmRyZWFzIEhh
ZWJlcmxlbjEhMB8GCSqGSIb3DQEJARYSZGVtb2NhQG9jdGFyaW5lLmRlMB4XDTE1
MDQyMDIwNDcyN1oXDTE2MDQxOTIwNDcyN1owga4xCzAJBgNVBAYTAkRFMREwDwYD
VQQIEwhTYWFybGFuZDEQMA4GA1UEChMHTVBJLVNXUzEiMCAGA1UECxMZRGlzdHJp
YnV0ZWQgU3lzdGVtcyBHcm91cDExMC8GA1UEAxMoNjJjMGM4NmJmZDI0NDEzMTBk
NTY2Njc5ZjJlNDIyNTg0MjgxYWVjYTEjMCEGCSqGSIb3DQEJARYUbm9kZTA2ODhA
b2N0YXJpbmUuZGUwgZ8wDQYJKoZIhvcNAQEBBQADgY0AMIGJAoGBALxFo4rLMCvz
4PPDewbFRDwxkoEiNxOr4oFAqMhE2EAO7+Xo1o+Fytpr9BR5o4q6UQ8YqnO3Itv5
MpDb/V2EpfbEzpUwzKH2uhBPVY62r0zODp5ZL3HV/MXZHb9XMF+94OC38UpRm4vM
w3nIyA+ZaJyFjYUZbdEzCceYtDBXRDh1AgMBAAEwDQYJKoZIhvcNAQEEBQADgYEA
uYoo0RYJwtm0MrPRew2Ac9oVKMIZ90QvnqsYPl3j5jc1Y9fvas3vnRfMN+3vJ9AL
5X8V0v2vcnXH0HvQlZUxFOaKfSt2XUMdk7bOuS1gokCwvLOzs6Aac7opfDQRiZHa
aOVWbNQGiIO/LkuvPTPHNpuBOxMqjUwlVPdI50DsWaA=
-----END CERTIFICATE-----
