Certificate:
    Data:
        Version: 1 (0x0)
        Serial Number:
            9b:27:d7:e8:d1:ba:0b:2a
        Signature Algorithm: md5WithRSAEncryption
        Issuer: C=DE, ST=Saarland, O=MPI-SWS, OU=Distributed Systems Group, CN=Andreas Haeberlen/emailAddress=democa@octarine.de
        Validity
            Not Before: Apr 20 20:47:34 2015 GMT
            Not After : Apr 19 20:47:34 2016 GMT
        Subject: C=DE, ST=Saarland, O=MPI-SWS, OU=Distributed Systems Group, CN=2270e48eb7baddb6e606ad295bc7a58d70e54740/emailAddress=node0850@octarine.de
        Subject Public Key Info:
            Public Key Algorithm: rsaEncryption
            RSA Public Key: (1024 bit)
                Modulus (1024 bit):
                    00:b6:48:47:93:36:b1:cf:48:76:7d:59:20:7c:3c:
                    f1:d5:a2:fa:49:e7:c9:28:0e:f9:ff:0b:50:95:8c:
                    46:65:b7:2c:5b:d9:22:54:25:4f:ea:74:d7:68:3b:
                    1d:3c:b9:d5:9c:36:59:32:16:9a:94:c0:9d:df:14:
                    86:2e:a0:c5:17:27:2c:cc:fa:7d:80:59:c9:1f:de:
                    1e:56:30:3f:25:db:59:0e:f5:cf:2e:ce:19:b4:db:
                    37:99:ee:4a:99:80:2c:6d:c7:81:d9:2b:a1:64:aa:
                    77:f4:2c:54:14:c1:ae:50:41:09:3b:99:a6:8c:39:
                    c1:1d:ee:7a:77:bd:87:e2:0f
                Exponent: 65537 (0x10001)
    Signature Algorithm: md5WithRSAEncryption
        b8:ab:18:f7:4f:09:74:b9:a2:f4:f6:33:7f:e8:55:fb:35:58:
        d3:4d:84:12:fe:f8:60:d5:0f:fa:95:21:15:99:e5:75:da:6d:
        bd:3b:47:fc:bd:f4:91:0b:9a:7a:b4:dd:41:a3:a3:38:55:23:
        52:ea:e3:b6:3a:47:f1:cd:82:83:6e:e3:1b:24:eb:70:0c:f7:
        c1:e0:55:0a:1f:27:d1:2d:35:6e:29:93:1d:28:49:70:f7:8e:
        2f:0a:8e:49:22:be:dc:c5:03:65:26:8c:92:b3:23:7d:0a:07:
        f3:82:8b:b0:1a:45:b4:11:3a:ac:0e:3f:d2:80:c1:58:ac:09:
        77:8c
-----BEGIN CERTIFICATE-----
MIICvDCCAiUCCQCbJ9fo0boLKjANBgkqhkiG9w0BAQQFADCBlTELMAkGA1UEBhMC
REUxETAPBgNVBAgTCFNhYXJsYW5kMRAwDgYDVQQKEwdNUEktU1dTMSIwIAYDVQQL
ExlEaXN0cmlidXRlZCBTeXN0ZW1zIEdyb3VwMRowGAYDVQQDExFBbmRyZWFzIEhh
ZWJlcmxlbjEhMB8GCSqGSIb3DQEJARYSZGVtb2NhQG9jdGFyaW5lLmRlMB4XDTE1
MDQyMDIwNDczNFoXDTE2MDQxOTIwNDczNFowga4xCzAJBgNVBAYTAkRFMREwDwYD
VQQIEwhTYWFybGFuZDEQMA4GA1UEChMHTVBJLVNXUzEiMCAGA1UECxMZRGlzdHJp
YnV0ZWQgU3lzdGVtcyBHcm91cDExMC8GA1UEAxMoMjI3MGU0OGViN2JhZGRiNmU2
MDZhZDI5NWJjN2E1OGQ3MGU1NDc0MDEjMCEGCSqGSIb3DQEJARYUbm9kZTA4NTBA
b2N0YXJpbmUuZGUwgZ8wDQYJKoZIhvcNAQEBBQADgY0AMIGJAoGBALZIR5M2sc9I
dn1ZIHw88dWi+knnySgO+f8LUJWMRmW3LFvZIlQlT+p012g7HTy51Zw2WTIWmpTA
nd8Uhi6gxRcnLMz6fYBZyR/eHlYwPyXbWQ71zy7OGbTbN5nuSpmALG3HgdkroWSq
d/QsVBTBrlBBCTuZpow5wR3uene9h+IPAgMBAAEwDQYJKoZIhvcNAQEEBQADgYEA
uKsY908JdLmi9PYzf+hV+zVY002EEv74YNUP+pUhFZnlddptvTtH/L30kQuaerTd
QaOjOFUjUurjtjpH8c2Cg27jGyTrcAz3weBVCh8n0S01bimTHShJcPeOLwqOSSK+
3MUDZSaMkrMjfQoH84KLsBpFtBE6rA4/0oDBWKwJd4w=
-----END CERTIFICATE-----
