Certificate:
    Data:
        Version: 1 (0x0)
        Serial Number:
            9b:27:d7:e8:d1:ba:0a:bb
        Signature Algorithm: md5WithRSAEncryption
        Issuer: C=DE, ST=Saarland, O=MPI-SWS, OU=Distributed Systems Group, CN=Andreas Haeberlen/emailAddress=democa@octarine.de
        Validity
            Not Before: Apr 20 20:47:29 2015 GMT
            Not After : Apr 19 20:47:29 2016 GMT
        Subject: C=DE, ST=Saarland, O=MPI-SWS, OU=Distributed Systems Group, CN=903a0708d0775fa0a28c11dab5d767808cb83c01/emailAddress=node0739@octarine.de
        Subject Public Key Info:
            Public Key Algorithm: rsaEncryption
            RSA Public Key: (1024 bit)
                Modulus (1024 bit):
                    00:b2:38:17:5b:d8:5b:a3:6c:68:eb:0c:40:5b:7b:
                    9d:02:b7:ab:4e:d0:9a:b8:eb:da:34:ac:9a:fc:e9:
                    5b:f7:12:80:d6:4a:01:d1:89:f5:ff:1f:a0:28:12:
                    83:65:fc:38:69:c1:e4:cd:b2:05:86:46:35:1d:f7:
                    4c:12:51:69:a0:7f:c0:2c:40:7a:ed:e1:b5:01:d5:
                    62:a0:6d:ee:ed:80:ae:14:02:34:25:77:3a:bc:7c:
                    66:a7:37:85:01:a0:0c:34:52:b1:e1:e9:52:d3:37:
                    55:13:af:58:b7:ec:8a:c3:a6:90:02:67:a1:4f:dd:
                    73:a4:2e:b2:28:d0:5f:e7:5b
                Exponent: 65537 (0x10001)
    Signature Algorithm: md5WithRSAEncryption
        2f:e2:b5:7c:8d:33:42:2c:8e:a3:86:49:1e:32:f5:1f:b0:de:
        e1:09:a3:09:65:69:2a:c9:d8:72:f6:69:4c:c1:40:1d:df:66:
        f0:52:62:03:2a:8b:2c:c6:01:14:a2:b0:ab:2e:a8:aa:cc:17:
        5e:cc:71:1c:4a:73:8b:3b:50:ee:54:35:8e:7f:dc:aa:87:13:
        22:d3:c1:96:d3:92:16:5f:88:dc:6a:f3:ae:0b:fe:92:63:cd:
        0a:d4:71:4f:7a:b8:be:b9:6f:67:fc:a3:0b:61:1d:58:5a:fb:
        1e:55:2b:8e:3c:2f:83:aa:89:a5:cb:2a:42:75:50:01:a4:c6:
        db:80
-----BEGIN CERTIFICATE-----
MIICvDCCAiUCCQCbJ9fo0boKuzANBgkqhkiG9w0BAQQFADCBlTELMAkGA1UEBhMC
REUxETAPBgNVBAgTCFNhYXJsYW5kMRAwDgYDVQQKEwdNUEktU1dTMSIwIAYDVQQL
ExlEaXN0cmlidXRlZCBTeXN0ZW1zIEdyb3VwMRowGAYDVQQDExFBbmRyZWFzIEhh
ZWJlcmxlbjEhMB8GCSqGSIb3DQEJARYSZGVtb2NhQG9jdGFyaW5lLmRlMB4XDTE1
MDQyMDIwNDcyOVoXDTE2MDQxOTIwNDcyOVowga4xCzAJBgNVBAYTAkRFMREwDwYD
VQQIEwhTYWFybGFuZDEQMA4GA1UEChMHTVBJLVNXUzEiMCAGA1UECxMZRGlzdHJp
YnV0ZWQgU3lzdGVtcyBHcm91cDExMC8GA1UEAxMoOTAzYTA3MDhkMDc3NWZhMGEy
OGMxMWRhYjVkNzY3ODA4Y2I4M2MwMTEjMCEGCSqGSIb3DQEJARYUbm9kZTA3MzlA
b2N0YXJpbmUuZGUwgZ8wDQYJKoZIhvcNAQEBBQADgY0AMIGJAoGBALI4F1vYW6Ns
aOsMQFt7nQK3q07Qmrjr2jSsmvzpW/cSgNZKAdGJ9f8foCgSg2X8OGnB5M2yBYZG
NR33TBJRaaB/wCxAeu3htQHVYqBt7u2ArhQCNCV3Orx8Zqc3hQGgDDRSseHpUtM3
VROvWLfsisOmkAJnoU/dc6QusijQX+dbAgMBAAEwDQYJKoZIhvcNAQEEBQADgYEA
L+K1fI0zQiyOo4ZJHjL1H7De4QmjCWVpKsnYcvZpTMFAHd9m8FJiAyqLLMYBFKKw
qy6oqswXXsxxHEpziztQ7lQ1jn/cqocTItPBltOSFl+I3Grzrgv+kmPNCtRxT3q4
vrlvZ/yjC2EdWFr7HlUrjjwvg6qJpcsqQnVQAaTG24A=
-----END CERTIFICATE-----
