Certificate:
    Data:
        Version: 1 (0x0)
        Serial Number:
            9b:27:d7:e8:d1:ba:0a:ee
        Signature Algorithm: md5WithRSAEncryption
        Issuer: C=DE, ST=Saarland, O=MPI-SWS, OU=Distributed Systems Group, CN=Andreas Haeberlen/emailAddress=democa@octarine.de
        Validity
            Not Before: Apr 20 20:47:32 2015 GMT
            Not After : Apr 19 20:47:32 2016 GMT
        Subject: C=DE, ST=Saarland, O=MPI-SWS, OU=Distributed Systems Group, CN=3df49f507c6781313567b9ba5de8d030e2582b89/emailAddress=node0790@octarine.de
        Subject Public Key Info:
            Public Key Algorithm: rsaEncryption
            RSA Public Key: (1024 bit)
                Modulus (1024 bit):
                    00:9c:8e:c0:ac:d1:6e:53:33:3f:4d:98:11:06:56:
                    08:b8:f7:ac:e7:28:86:6f:aa:ec:cd:ce:76:82:1b:
                    7c:10:51:2e:6a:e6:b5:79:51:4d:8a:0a:17:2a:35:
                    68:f0:74:04:2c:32:63:37:33:d7:2f:bf:95:f8:db:
                    ff:b4:6d:43:b2:ab:89:4c:56:5e:ca:88:28:df:d0:
                    eb:4d:28:00:3c:d2:32:3d:30:fc:bd:cb:2e:12:27:
                    41:c3:56:14:d1:f8:f8:85:6a:9d:8e:2e:d3:52:6f:
                    e3:6e:93:25:01:45:f7:5e:5d:c9:07:f4:56:2b:00:
                    9f:3e:8f:17:0f:1a:51:1f:03
                Exponent: 65537 (0x10001)
    Signature Algorithm: md5WithRSAEncryption
        8a:ab:f5:c8:26:76:db:35:15:e9:f4:db:31:fd:b7:ed:1b:ae:
        94:28:0f:57:e5:eb:24:c0:44:b7:e8:d2:bc:58:e2:ae:d4:97:
        c2:47:1d:1e:1f:d5:d0:e5:0e:e6:38:7f:c3:97:6a:30:6e:f1:
        a2:c3:a9:32:4c:c4:37:0f:66:a1:33:0f:13:cf:69:54:66:58:
        f2:9d:a4:3b:2d:fb:19:8e:fb:bc:56:10:be:9c:0d:30:c9:79:
        e7:a1:30:81:3a:c8:fd:f5:65:9f:8d:90:c6:31:b2:d5:b0:9f:
        c1:39:47:17:fe:83:bc:7f:2f:9d:99:83:b7:18:f6:73:cd:b5:
        67:80
-----BEGIN CERTIFICATE-----
MIICvDCCAiUCCQCbJ9fo0boK7jANBgkqhkiG9w0BAQQFADCBlTELMAkGA1UEBhMC
REUxETAPBgNVBAgTCFNhYXJsYW5kMRAwDgYDVQQKEwdNUEktU1dTMSIwIAYDVQQL
ExlEaXN0cmlidXRlZCBTeXN0ZW1zIEdyb3VwMRowGAYDVQQDExFBbmRyZWFzIEhh
ZWJlcmxlbjEhMB8GCSqGSIb3DQEJARYSZGVtb2NhQG9jdGFyaW5lLmRlMB4XDTE1
MDQyMDIwNDczMloXDTE2MDQxOTIwNDczMlowga4xCzAJBgNVBAYTAkRFMREwDwYD
VQQIEwhTYWFybGFuZDEQMA4GA1UEChMHTVBJLVNXUzEiMCAGA1UECxMZRGlzdHJp
YnV0ZWQgU3lzdGVtcyBHcm91cDExMC8GA1UEAxMoM2RmNDlmNTA3YzY3ODEzMTM1
NjdiOWJhNWRlOGQwMzBlMjU4MmI4OTEjMCEGCSqGSIb3DQEJARYUbm9kZTA3OTBA
b2N0YXJpbmUuZGUwgZ8wDQYJKoZIhvcNAQEBBQADgY0AMIGJAoGBAJyOwKzRblMz
P02YEQZWCLj3rOcohm+q7M3OdoIbfBBRLmrmtXlRTYoKFyo1aPB0BCwyYzcz1y+/
lfjb/7RtQ7KriUxWXsqIKN/Q600oADzSMj0w/L3LLhInQcNWFNH4+IVqnY4u01Jv
426TJQFF915dyQf0VisAnz6PFw8aUR8DAgMBAAEwDQYJKoZIhvcNAQEEBQADgYEA
iqv1yCZ22zUV6fTbMf237RuulCgPV+XrJMBEt+jSvFjirtSXwkcdHh/V0OUO5jh/
w5dqMG7xosOpMkzENw9moTMPE89pVGZY8p2kOy37GY77vFYQvpwNMMl556EwgTrI
/fVln42QxjGy1bCfwTlHF/6DvH8vnZmDtxj2c821Z4A=
-----END CERTIFICATE-----
