Certificate:
    Data:
        Version: 1 (0x0)
        Serial Number:
            9b:27:d7:e8:d1:ba:09:7d
        Signature Algorithm: md5WithRSAEncryption
        Issuer: C=DE, ST=Saarland, O=MPI-SWS, OU=Distributed Systems Group, CN=Andreas Haeberlen/emailAddress=democa@octarine.de
        Validity
            Not Before: Apr 20 20:47:15 2015 GMT
            Not After : Apr 19 20:47:15 2016 GMT
        Subject: C=DE, ST=Saarland, O=MPI-SWS, OU=Distributed Systems Group, CN=d2f2336bf533120fdbf8ea8cf7024cb1ea41eacd/emailAddress=node0421@octarine.de
        Subject Public Key Info:
            Public Key Algorithm: rsaEncryption
            RSA Public Key: (1024 bit)
                Modulus (1024 bit):
                    00:bd:f0:22:e9:fd:4a:b2:d4:55:64:cc:21:9c:68:
                    13:c8:90:76:06:3c:41:e3:e9:ad:06:ca:7d:41:73:
                    ea:b5:0e:14:48:89:64:18:9e:e3:a9:6c:46:a8:a9:
                    a8:f0:a7:40:df:db:17:f2:95:0d:c3:56:45:d5:70:
                    6d:c7:85:ac:91:ec:4b:8a:b1:e0:00:f5:f8:84:6b:
                    f8:06:f7:66:68:17:10:91:f7:f1:d8:53:a0:6e:dc:
                    46:db:d8:8e:70:07:a4:54:e8:f4:d5:cc:17:cc:bf:
                    a5:5d:4c:00:07:e6:3c:11:f1:22:5f:b9:80:f5:86:
                    85:69:14:e2:79:ba:cb:46:a5
                Exponent: 65537 (0x10001)
    Signature Algorithm: md5WithRSAEncryption
        7b:57:42:6a:4a:aa:54:da:1d:54:20:0c:ef:16:a0:fd:4d:dd:
        d1:42:01:50:9d:ed:02:56:4c:c4:f2:e7:1c:4b:32:4d:a2:6a:
        b2:7a:ce:99:2b:d5:cf:61:8d:cc:7e:dc:a6:fb:3d:3e:aa:0e:
        0a:b4:c8:2d:eb:54:c6:79:74:a4:4d:b0:8d:94:84:00:6d:6f:
        10:60:19:ec:76:b8:96:90:a1:74:2f:10:b8:3d:61:2f:12:d3:
        88:62:f8:a8:c0:74:8b:3e:64:8c:42:64:0e:ef:de:39:d9:66:
        3a:2c:a3:1e:b5:88:d4:bb:d9:ef:6a:b1:de:58:4a:85:52:b7:
        52:f7
-----BEGIN CERTIFICATE-----
MIICvDCCAiUCCQCbJ9fo0boJfTANBgkqhkiG9w0BAQQFADCBlTELMAkGA1UEBhMC
REUxETAPBgNVBAgTCFNhYXJsYW5kMRAwDgYDVQQKEwdNUEktU1dTMSIwIAYDVQQL
ExlEaXN0cmlidXRlZCBTeXN0ZW1zIEdyb3VwMRowGAYDVQQDExFBbmRyZWFzIEhh
ZWJlcmxlbjEhMB8GCSqGSIb3DQEJARYSZGVtb2NhQG9jdGFyaW5lLmRlMB4XDTE1
MDQyMDIwNDcxNVoXDTE2MDQxOTIwNDcxNVowga4xCzAJBgNVBAYTAkRFMREwDwYD
VQQIEwhTYWFybGFuZDEQMA4GA1UEChMHTVBJLVNXUzEiMCAGA1UECxMZRGlzdHJp
YnV0ZWQgU3lzdGVtcyBHcm91cDExMC8GA1UEAxMoZDJmMjMzNmJmNTMzMTIwZmRi
ZjhlYThjZjcwMjRjYjFlYTQxZWFjZDEjMCEGCSqGSIb3DQEJARYUbm9kZTA0MjFA
b2N0YXJpbmUuZGUwgZ8wDQYJKoZIhvcNAQEBBQADgY0AMIGJAoGBAL3wIun9SrLU
VWTMIZxoE8iQdgY8QePprQbKfUFz6rUOFEiJZBie46lsRqipqPCnQN/bF/KVDcNW
RdVwbceFrJHsS4qx4AD1+IRr+Ab3ZmgXEJH38dhToG7cRtvYjnAHpFTo9NXMF8y/
pV1MAAfmPBHxIl+5gPWGhWkU4nm6y0alAgMBAAEwDQYJKoZIhvcNAQEEBQADgYEA
e1dCakqqVNodVCAM7xag/U3d0UIBUJ3tAlZMxPLnHEsyTaJqsnrOmSvVz2GNzH7c
pvs9PqoOCrTILetUxnl0pE2wjZSEAG1vEGAZ7Ha4lpChdC8QuD1hLxLTiGL4qMB0
iz5kjEJkDu/eOdlmOiyjHrWI1LvZ72qx3lhKhVK3Uvc=
-----END CERTIFICATE-----
