Certificate:
    Data:
        Version: 1 (0x0)
        Serial Number:
            9b:27:d7:e8:d1:ba:0a:4d
        Signature Algorithm: md5WithRSAEncryption
        Issuer: C=DE, ST=Saarland, O=MPI-SWS, OU=Distributed Systems Group, CN=Andreas Haeberlen/emailAddress=democa@octarine.de
        Validity
            Not Before: Apr 20 20:47:24 2015 GMT
            Not After : Apr 19 20:47:24 2016 GMT
        Subject: C=DE, ST=Saarland, O=MPI-SWS, OU=Distributed Systems Group, CN=ecca6d3afdc8b6fea167c90f23888ec6a81164b5/emailAddress=node0629@octarine.de
        Subject Public Key Info:
            Public Key Algorithm: rsaEncryption
            RSA Public Key: (1024 bit)
                Modulus (1024 bit):
                    00:bb:86:c8:3c:34:5b:3e:f2:85:e5:0e:40:a5:93:
                    d6:d6:cf:f4:83:27:9f:8c:dc:18:f7:ca:08:29:64:
                    ba:9c:4d:24:a8:7d:21:11:5c:c3:cb:95:cf:5e:00:
                    7f:3b:f4:a7:3a:fa:97:15:86:08:18:71:c3:ad:11:
                    8c:00:ee:3e:6d:d5:a4:0c:4d:25:2d:b2:c2:4c:f2:
                    f2:cf:7b:40:a9:a9:2a:c5:b6:35:5d:05:b5:b9:f9:
                    d5:c1:9c:61:76:4b:34:5e:ee:05:7c:c0:d5:a5:dd:
                    43:8a:54:9d:e5:89:6f:c4:3a:57:8e:7f:ee:cf:44:
                    57:d9:45:7c:98:70:54:8c:f7
                Exponent: 65537 (0x10001)
    Signature Algorithm: md5WithRSAEncryption
        9b:4e:5a:1f:68:21:a6:c2:2f:80:58:e0:f0:6f:48:7f:a9:3c:
        40:5b:95:56:18:94:5d:9d:7b:ae:35:cb:2d:0a:14:7b:c4:a6:
        41:42:90:37:85:07:14:6d:c7:3d:51:61:4c:57:eb:55:4c:99:
        37:dd:36:e0:98:e2:c9:d4:d1:8b:2b:9e:ed:56:5b:a5:b8:6d:
        7b:16:17:7c:2a:88:76:d3:7a:b0:70:a0:0a:2e:46:64:66:24:
        4e:1b:ea:da:35:46:56:7a:22:da:5a:08:63:17:0f:48:ba:e2:
        67:42:81:ab:32:09:16:ad:9a:63:d5:a1:4b:7f:9b:16:f6:df:
        78:37
-----BEGIN CERTIFICATE-----
MIICvDCCAiUCCQCbJ9fo0boKTTANBgkqhkiG9w0BAQQFADCBlTELMAkGA1UEBhMC
REUxETAPBgNVBAgTCFNhYXJsYW5kMRAwDgYDVQQKEwdNUEktU1dTMSIwIAYDVQQL
ExlEaXN0cmlidXRlZCBTeXN0ZW1zIEdyb3VwMRowGAYDVQQDExFBbmRyZWFzIEhh
ZWJlcmxlbjEhMB8GCSqGSIb3DQEJARYSZGVtb2NhQG9jdGFyaW5lLmRlMB4XDTE1
MDQyMDIwNDcyNFoXDTE2MDQxOTIwNDcyNFowga4xCzAJBgNVBAYTAkRFMREwDwYD
VQQIEwhTYWFybGFuZDEQMA4GA1UEChMHTVBJLVNXUzEiMCAGA1UECxMZRGlzdHJp
YnV0ZWQgU3lzdGVtcyBHcm91cDExMC8GA1UEAxMoZWNjYTZkM2FmZGM4YjZmZWEx
NjdjOTBmMjM4ODhlYzZhODExNjRiNTEjMCEGCSqGSIb3DQEJARYUbm9kZTA2MjlA
b2N0YXJpbmUuZGUwgZ8wDQYJKoZIhvcNAQEBBQADgY0AMIGJAoGBALuGyDw0Wz7y
heUOQKWT1tbP9IMnn4zcGPfKCClkupxNJKh9IRFcw8uVz14Afzv0pzr6lxWGCBhx
w60RjADuPm3VpAxNJS2ywkzy8s97QKmpKsW2NV0Ftbn51cGcYXZLNF7uBXzA1aXd
Q4pUneWJb8Q6V45/7s9EV9lFfJhwVIz3AgMBAAEwDQYJKoZIhvcNAQEEBQADgYEA
m05aH2ghpsIvgFjg8G9If6k8QFuVVhiUXZ17rjXLLQoUe8SmQUKQN4UHFG3HPVFh
TFfrVUyZN9024JjiydTRiyue7VZbpbhtexYXfCqIdtN6sHCgCi5GZGYkThvq2jVG
Vnoi2loIYxcPSLriZ0KBqzIJFq2aY9WhS3+bFvbfeDc=
-----END CERTIFICATE-----
