Certificate:
    Data:
        Version: 1 (0x0)
        Serial Number:
            9b:27:d7:e8:d1:ba:09:db
        Signature Algorithm: md5WithRSAEncryption
        Issuer: C=DE, ST=Saarland, O=MPI-SWS, OU=Distributed Systems Group, CN=Andreas Haeberlen/emailAddress=democa@octarine.de
        Validity
            Not Before: Apr 20 20:47:19 2015 GMT
            Not After : Apr 19 20:47:19 2016 GMT
        Subject: C=DE, ST=Saarland, O=MPI-SWS, OU=Distributed Systems Group, CN=e2511e8fb2f24d9d93a22faa91c17db5f170fffa/emailAddress=node0515@octarine.de
        Subject Public Key Info:
            Public Key Algorithm: rsaEncryption
            RSA Public Key: (1024 bit)
                Modulus (1024 bit):
                    00:ba:a3:89:72:40:cf:58:36:f2:f2:00:f7:44:b1:
                    f6:e4:0b:bc:30:5f:80:46:a7:a9:49:66:81:fb:8b:
                    c9:d0:39:af:97:85:c0:06:3b:19:16:df:30:20:68:
                    61:9b:0f:10:72:6e:ac:e9:22:a6:32:28:10:b2:ae:
                    fd:1b:60:38:0d:0e:56:f1:e0:96:f6:76:41:de:73:
                    af:35:32:47:cf:08:d6:b0:78:a9:ae:9c:16:12:03:
                    18:cb:2f:3b:b8:76:66:56:82:21:52:ea:ee:3a:c3:
                    3b:bf:94:0a:2f:cc:29:36:38:d1:b7:55:a9:cb:b9:
                    53:a2:d0:9e:65:32:e0:bb:1f
                Exponent: 65537 (0x10001)
    Signature Algorithm: md5WithRSAEncryption
        73:7f:37:95:86:ad:5b:38:8a:36:d0:fe:8e:e4:bb:f7:63:b6:
        eb:c0:2a:e1:ad:63:48:3d:53:04:4c:16:6f:8c:6a:78:0a:23:
        d2:10:90:24:84:f1:cb:f0:f9:f1:21:ac:3a:99:8d:42:eb:a5:
        7e:dc:50:fd:91:b9:e5:09:ad:18:39:20:83:07:54:e1:9f:ba:
        95:0a:e2:f5:93:4c:26:3d:bb:08:34:98:34:4d:fe:71:e5:c5:
        23:9b:5b:20:a0:3a:30:4e:51:94:5a:77:60:92:fb:c2:39:60:
        e1:32:5b:1c:99:29:3c:15:cc:39:83:2a:96:4e:63:b2:89:0d:
        8e:2d
-----BEGIN CERTIFICATE-----
MIICvDCCAiUCCQCbJ9fo0boJ2zANBgkqhkiG9w0BAQQFADCBlTELMAkGA1UEBhMC
REUxETAPBgNVBAgTCFNhYXJsYW5kMRAwDgYDVQQKEwdNUEktU1dTMSIwIAYDVQQL
ExlEaXN0cmlidXRlZCBTeXN0ZW1zIEdyb3VwMRowGAYDVQQDExFBbmRyZWFzIEhh
ZWJlcmxlbjEhMB8GCSqGSIb3DQEJARYSZGVtb2NhQG9jdGFyaW5lLmRlMB4XDTE1
MDQyMDIwNDcxOVoXDTE2MDQxOTIwNDcxOVowga4xCzAJBgNVBAYTAkRFMREwDwYD
VQQIEwhTYWFybGFuZDEQMA4GA1UEChMHTVBJLVNXUzEiMCAGA1UECxMZRGlzdHJp
YnV0ZWQgU3lzdGVtcyBHcm91cDExMC8GA1UEAxMoZTI1MTFlOGZiMmYyNGQ5ZDkz
YTIyZmFhOTFjMTdkYjVmMTcwZmZmYTEjMCEGCSqGSIb3DQEJARYUbm9kZTA1MTVA
b2N0YXJpbmUuZGUwgZ8wDQYJKoZIhvcNAQEBBQADgY0AMIGJAoGBALqjiXJAz1g2
8vIA90Sx9uQLvDBfgEanqUlmgfuLydA5r5eFwAY7GRbfMCBoYZsPEHJurOkipjIo
ELKu/RtgOA0OVvHglvZ2Qd5zrzUyR88I1rB4qa6cFhIDGMsvO7h2ZlaCIVLq7jrD
O7+UCi/MKTY40bdVqcu5U6LQnmUy4LsfAgMBAAEwDQYJKoZIhvcNAQEEBQADgYEA
c383lYatWziKNtD+juS792O268Aq4a1jSD1TBEwWb4xqeAoj0hCQJITxy/D58SGs
OpmNQuulftxQ/ZG55QmtGDkggwdU4Z+6lQri9ZNMJj27CDSYNE3+ceXFI5tbIKA6
ME5RlFp3YJL7wjlg4TJbHJkpPBXMOYMqlk5jsokNji0=
-----END CERTIFICATE-----
