Certificate:
    Data:
        Version: 1 (0x0)
        Serial Number:
            9b:27:d7:e8:d1:ba:09:cc
        Signature Algorithm: md5WithRSAEncryption
        Issuer: C=DE, ST=Saarland, O=MPI-SWS, OU=Distributed Systems Group, CN=Andreas Haeberlen/emailAddress=democa@octarine.de
        Validity
            Not Before: Apr 20 20:47:18 2015 GMT
            Not After : Apr 19 20:47:18 2016 GMT
        Subject: C=DE, ST=Saarland, O=MPI-SWS, OU=Distributed Systems Group, CN=ca542153a5451f8498bdb0faddeb4d717d5aead9/emailAddress=node0500@octarine.de
        Subject Public Key Info:
            Public Key Algorithm: rsaEncryption
            RSA Public Key: (1024 bit)
                Modulus (1024 bit):
                    00:e0:a3:22:9a:44:00:5a:fc:9b:4b:81:29:97:59:
                    82:8e:4a:15:17:83:77:0e:dd:ab:a9:d7:9c:dc:5e:
                    f6:03:f0:ce:99:95:8b:d7:da:3b:95:cb:ac:49:bc:
                    b9:bb:33:03:7a:eb:ed:00:f0:9e:cf:a3:2b:89:41:
                    08:19:b0:b3:4f:4d:8a:25:99:d3:4d:bd:3b:5e:b1:
                    55:72:53:f4:61:7e:42:02:15:1a:c6:cf:ec:a4:f5:
                    25:3c:d5:12:7a:17:c4:f0:61:64:d7:3e:95:cd:3a:
                    bf:16:ef:66:93:26:7f:93:2d:84:da:83:b7:3b:e2:
                    92:82:3f:8d:cf:44:06:fe:99
                Exponent: 65537 (0x10001)
    Signature Algorithm: md5WithRSAEncryption
        c4:0a:06:2e:57:57:0d:9b:cc:96:da:95:2a:ab:26:55:dd:33:
        8e:b5:12:b9:ae:70:24:1f:4f:e8:0b:e4:65:52:3b:5e:0e:1f:
        57:b9:83:bc:ae:02:9b:a0:ae:ff:56:d0:ca:c0:0a:7f:81:bf:
        a6:0d:b6:0d:bc:5f:ba:88:29:1b:7f:34:03:96:67:d9:85:aa:
        26:bd:ed:69:97:e8:06:5d:4f:a4:84:b1:ca:e5:e7:65:e3:a1:
        52:3e:6a:f9:13:10:c7:84:60:ce:da:ce:18:27:ea:70:ee:2b:
        cb:3d:95:ea:8b:08:cc:a1:bc:a4:6a:c8:ee:57:3b:35:71:21:
        e5:64
-----BEGIN CERTIFICATE-----
MIICvDCCAiUCCQCbJ9fo0boJzDANBgkqhkiG9w0BAQQFADCBlTELMAkGA1UEBhMC
REUxETAPBgNVBAgTCFNhYXJsYW5kMRAwDgYDVQQKEwdNUEktU1dTMSIwIAYDVQQL
ExlEaXN0cmlidXRlZCBTeXN0ZW1zIEdyb3VwMRowGAYDVQQDExFBbmRyZWFzIEhh
ZWJlcmxlbjEhMB8GCSqGSIb3DQEJARYSZGVtb2NhQG9jdGFyaW5lLmRlMB4XDTE1
MDQyMDIwNDcxOFoXDTE2MDQxOTIwNDcxOFowga4xCzAJBgNVBAYTAkRFMREwDwYD
VQQIEwhTYWFybGFuZDEQMA4GA1UEChMHTVBJLVNXUzEiMCAGA1UECxMZRGlzdHJp
YnV0ZWQgU3lzdGVtcyBHcm91cDExMC8GA1UEAxMoY2E1NDIxNTNhNTQ1MWY4NDk4
YmRiMGZhZGRlYjRkNzE3ZDVhZWFkOTEjMCEGCSqGSIb3DQEJARYUbm9kZTA1MDBA
b2N0YXJpbmUuZGUwgZ8wDQYJKoZIhvcNAQEBBQADgY0AMIGJAoGBAOCjIppEAFr8
m0uBKZdZgo5KFReDdw7dq6nXnNxe9gPwzpmVi9faO5XLrEm8ubszA3rr7QDwns+j
K4lBCBmws09NiiWZ0029O16xVXJT9GF+QgIVGsbP7KT1JTzVEnoXxPBhZNc+lc06
vxbvZpMmf5MthNqDtzvikoI/jc9EBv6ZAgMBAAEwDQYJKoZIhvcNAQEEBQADgYEA
xAoGLldXDZvMltqVKqsmVd0zjrUSua5wJB9P6AvkZVI7Xg4fV7mDvK4Cm6Cu/1bQ
ysAKf4G/pg22DbxfuogpG380A5Zn2YWqJr3taZfoBl1PpISxyuXnZeOhUj5q+RMQ
x4RgztrOGCfqcO4ryz2V6osIzKG8pGrI7lc7NXEh5WQ=
-----END CERTIFICATE-----
