Certificate:
    Data:
        Version: 1 (0x0)
        Serial Number:
            9b:27:d7:e8:d1:ba:0a:55
        Signature Algorithm: md5WithRSAEncryption
        Issuer: C=DE, ST=Saarland, O=MPI-SWS, OU=Distributed Systems Group, CN=Andreas Haeberlen/emailAddress=democa@octarine.de
        Validity
            Not Before: Apr 20 20:47:25 2015 GMT
            Not After : Apr 19 20:47:25 2016 GMT
        Subject: C=DE, ST=Saarland, O=MPI-SWS, OU=Distributed Systems Group, CN=838c6b7f617c0495ad42a9b1e22f6c5f0dc7936f/emailAddress=node0637@octarine.de
        Subject Public Key Info:
            Public Key Algorithm: rsaEncryption
            RSA Public Key: (1024 bit)
                Modulus (1024 bit):
                    00:b2:01:3b:2e:1d:97:86:d6:77:25:14:d7:7a:1d:
                    f6:3f:10:d3:03:f5:ff:ad:04:2a:60:4d:df:9f:d8:
                    c1:c0:16:db:c7:5b:87:38:47:b8:a3:ef:d1:dd:5a:
                    63:19:ab:56:68:50:86:09:d0:76:fc:8f:84:08:7c:
                    82:13:26:55:75:57:a3:84:6f:7f:d9:82:05:b7:59:
                    56:64:4e:52:4e:05:a1:62:7d:91:8b:27:c9:9a:8b:
                    b0:61:06:22:bd:45:8e:21:63:d0:8b:f9:f3:c0:15:
                    22:71:4f:5d:6a:a1:ee:7f:91:39:0a:19:a7:19:b2:
                    26:e8:ca:e4:2b:5f:de:75:f7
                Exponent: 65537 (0x10001)
    Signature Algorithm: md5WithRSAEncryption
        16:18:dc:c9:ec:d9:5e:c4:46:b6:b0:e3:5a:38:0b:60:9e:05:
        42:bc:af:63:f5:96:fd:78:5a:d5:37:a0:ef:99:c2:43:d7:67:
        dc:00:f9:67:22:78:b5:07:d2:2a:9a:55:f3:49:37:e1:f0:4f:
        9f:85:49:0b:94:cb:5e:ef:bf:60:79:42:c4:b8:79:d6:74:96:
        ca:ba:f6:20:15:4e:cc:f1:44:65:69:22:66:c8:30:42:b2:d0:
        b9:92:f2:6c:ed:ee:31:7c:ea:12:c4:da:cd:29:58:b1:90:0e:
        e8:44:05:a7:fe:c0:a8:24:a5:b7:68:61:f6:72:ed:4f:0f:45:
        e4:49
-----BEGIN CERTIFICATE-----
MIICvDCCAiUCCQCbJ9fo0boKVTANBgkqhkiG9w0BAQQFADCBlTELMAkGA1UEBhMC
REUxETAPBgNVBAgTCFNhYXJsYW5kMRAwDgYDVQQKEwdNUEktU1dTMSIwIAYDVQQL
ExlEaXN0cmlidXRlZCBTeXN0ZW1zIEdyb3VwMRowGAYDVQQDExFBbmRyZWFzIEhh
ZWJlcmxlbjEhMB8GCSqGSIb3DQEJARYSZGVtb2NhQG9jdGFyaW5lLmRlMB4XDTE1
MDQyMDIwNDcyNVoXDTE2MDQxOTIwNDcyNVowga4xCzAJBgNVBAYTAkRFMREwDwYD
VQQIEwhTYWFybGFuZDEQMA4GA1UEChMHTVBJLVNXUzEiMCAGA1UECxMZRGlzdHJp
YnV0ZWQgU3lzdGVtcyBHcm91cDExMC8GA1UEAxMoODM4YzZiN2Y2MTdjMDQ5NWFk
NDJhOWIxZTIyZjZjNWYwZGM3OTM2ZjEjMCEGCSqGSIb3DQEJARYUbm9kZTA2MzdA
b2N0YXJpbmUuZGUwgZ8wDQYJKoZIhvcNAQEBBQADgY0AMIGJAoGBALIBOy4dl4bW
dyUU13od9j8Q0wP1/60EKmBN35/YwcAW28dbhzhHuKPv0d1aYxmrVmhQhgnQdvyP
hAh8ghMmVXVXo4Rvf9mCBbdZVmROUk4FoWJ9kYsnyZqLsGEGIr1FjiFj0Iv588AV
InFPXWqh7n+ROQoZpxmyJujK5Ctf3nX3AgMBAAEwDQYJKoZIhvcNAQEEBQADgYEA
FhjcyezZXsRGtrDjWjgLYJ4FQryvY/WW/Xha1Teg75nCQ9dn3AD5ZyJ4tQfSKppV
80k34fBPn4VJC5TLXu+/YHlCxLh51nSWyrr2IBVOzPFEZWkiZsgwQrLQuZLybO3u
MXzqEsTazSlYsZAO6EQFp/7AqCSlt2hh9nLtTw9F5Ek=
-----END CERTIFICATE-----
