Certificate:
    Data:
        Version: 1 (0x0)
        Serial Number:
            9b:27:d7:e8:d1:ba:08:1b
        Signature Algorithm: md5WithRSAEncryption
        Issuer: C=DE, ST=Saarland, O=MPI-SWS, OU=Distributed Systems Group, CN=Andreas Haeberlen/emailAddress=democa@octarine.de
        Validity
            Not Before: Apr 20 20:46:59 2015 GMT
            Not After : Apr 19 20:46:59 2016 GMT
        Subject: C=DE, ST=Saarland, O=MPI-SWS, OU=Distributed Systems Group, CN=90507f2890f2d6bacd9012e9edfa84715c2cc545/emailAddress=node0067@octarine.de
        Subject Public Key Info:
            Public Key Algorithm: rsaEncryption
            RSA Public Key: (1024 bit)
                Modulus (1024 bit):
                    00:94:60:04:ce:48:2d:9a:3c:12:ac:10:3f:c0:60:
                    d3:fe:44:27:4c:e7:3a:fd:7a:b5:9b:f5:cb:33:96:
                    8c:9a:b7:bf:9c:75:d7:a2:ca:28:d6:07:aa:47:d4:
                    95:b1:c6:d2:b7:b0:d8:16:00:69:c5:74:37:85:75:
                    34:25:39:03:22:ae:f4:57:06:52:e8:54:9c:7b:30:
                    f1:22:f6:b7:f0:0d:38:d7:0a:ad:3e:ca:3f:6c:06:
                    6d:8c:11:dd:94:1b:9b:3c:81:20:ba:33:62:28:f1:
                    97:3a:35:77:3b:e3:ed:41:25:16:36:a5:9b:28:f8:
                    dc:17:67:3b:a0:5c:bd:d6:f5
                Exponent: 65537 (0x10001)
    Signature Algorithm: md5WithRSAEncryption
        9c:7d:48:94:e7:28:3d:56:f7:db:34:61:58:06:1c:6c:fa:e8:
        6a:b4:99:cd:6a:e8:4b:67:23:62:07:47:51:22:f9:de:24:74:
        01:78:c0:4b:9f:ee:e2:0b:74:f9:ce:83:bb:52:42:ef:f6:ec:
        71:9f:e5:ac:48:f7:87:25:b6:d7:1c:86:8d:74:20:1c:e6:7f:
        ac:95:96:1e:4e:89:8d:10:cf:4c:d4:83:d4:19:a4:ef:79:f8:
        97:0a:94:6a:7b:f1:3d:f9:12:e0:b5:78:b0:80:2b:d0:ad:37:
        26:5d:b0:08:dd:84:dd:0f:8b:7a:65:38:3d:20:1b:6f:3c:4a:
        18:c9
-----BEGIN CERTIFICATE-----
MIICvDCCAiUCCQCbJ9fo0boIGzANBgkqhkiG9w0BAQQFADCBlTELMAkGA1UEBhMC
REUxETAPBgNVBAgTCFNhYXJsYW5kMRAwDgYDVQQKEwdNUEktU1dTMSIwIAYDVQQL
ExlEaXN0cmlidXRlZCBTeXN0ZW1zIEdyb3VwMRowGAYDVQQDExFBbmRyZWFzIEhh
ZWJlcmxlbjEhMB8GCSqGSIb3DQEJARYSZGVtb2NhQG9jdGFyaW5lLmRlMB4XDTE1
MDQyMDIwNDY1OVoXDTE2MDQxOTIwNDY1OVowga4xCzAJBgNVBAYTAkRFMREwDwYD
VQQIEwhTYWFybGFuZDEQMA4GA1UEChMHTVBJLVNXUzEiMCAGA1UECxMZRGlzdHJp
YnV0ZWQgU3lzdGVtcyBHcm91cDExMC8GA1UEAxMoOTA1MDdmMjg5MGYyZDZiYWNk
OTAxMmU5ZWRmYTg0NzE1YzJjYzU0NTEjMCEGCSqGSIb3DQEJARYUbm9kZTAwNjdA
b2N0YXJpbmUuZGUwgZ8wDQYJKoZIhvcNAQEBBQADgY0AMIGJAoGBAJRgBM5ILZo8
EqwQP8Bg0/5EJ0znOv16tZv1yzOWjJq3v5x116LKKNYHqkfUlbHG0rew2BYAacV0
N4V1NCU5AyKu9FcGUuhUnHsw8SL2t/ANONcKrT7KP2wGbYwR3ZQbmzyBILozYijx
lzo1dzvj7UElFjalmyj43BdnO6Bcvdb1AgMBAAEwDQYJKoZIhvcNAQEEBQADgYEA
nH1IlOcoPVb32zRhWAYcbProarSZzWroS2cjYgdHUSL53iR0AXjAS5/u4gt0+c6D
u1JC7/bscZ/lrEj3hyW21xyGjXQgHOZ/rJWWHk6JjRDPTNSD1Bmk73n4lwqUanvx
PfkS4LV4sIAr0K03Jl2wCN2E3Q+LemU4PSAbbzxKGMk=
-----END CERTIFICATE-----
