Certificate:
    Data:
        Version: 1 (0x0)
        Serial Number:
            9b:27:d7:e8:d1:ba:0b:64
        Signature Algorithm: md5WithRSAEncryption
        Issuer: C=DE, ST=Saarland, O=MPI-SWS, OU=Distributed Systems Group, CN=Andreas Haeberlen/emailAddress=democa@octarine.de
        Validity
            Not Before: Apr 20 20:47:37 2015 GMT
            Not After : Apr 19 20:47:37 2016 GMT
        Subject: C=DE, ST=Saarland, O=MPI-SWS, OU=Distributed Systems Group, CN=bac77c699cd4c0676568eb264f09301fad61acb3/emailAddress=node0908@octarine.de
        Subject Public Key Info:
            Public Key Algorithm: rsaEncryption
            RSA Public Key: (1024 bit)
                Modulus (1024 bit):
                    00:cf:ab:26:d2:f0:5f:eb:61:35:be:d3:7d:df:95:
                    0c:de:e0:1e:4d:32:38:32:f7:51:a9:46:a0:d5:d4:
                    d5:42:7b:45:c8:d0:d8:90:f2:98:b0:b4:ca:68:0e:
                    7d:21:b8:80:13:a8:49:41:41:06:e3:d0:ee:a2:b3:
                    d6:e3:dd:9a:a1:e9:60:bc:59:a5:95:49:3e:17:26:
                    f5:d6:6f:64:0a:69:15:a0:7c:6c:5b:ae:6e:fb:1f:
                    20:63:e2:8d:40:a0:84:d6:ad:54:7d:3d:34:ab:03:
                    8c:26:8d:56:75:50:01:31:60:8c:fa:e9:86:e8:fb:
                    6c:7d:2e:c2:c7:70:da:c9:63
                Exponent: 65537 (0x10001)
    Signature Algorithm: md5WithRSAEncryption
        bd:c3:02:de:7b:b3:35:4a:b4:bf:81:84:13:aa:74:1e:f9:e9:
        50:83:6c:b0:63:e7:37:e2:3e:32:99:75:3c:58:64:1c:46:16:
        b7:ca:45:9c:6e:17:b2:b0:a3:5e:8e:5d:6e:e2:2f:06:86:86:
        50:e2:15:53:1b:54:1d:5e:47:63:2a:24:9c:b0:9e:de:01:92:
        31:10:08:5d:f5:97:b3:00:7a:fe:bb:e6:b3:78:9c:8d:63:b4:
        6a:74:8c:b4:8f:31:44:0f:a8:a4:97:40:5b:10:ad:b7:60:a4:
        92:a4:38:d3:21:ee:f2:8e:24:0b:ea:dc:e7:89:4e:33:50:ae:
        8f:2d
-----BEGIN CERTIFICATE-----
MIICvDCCAiUCCQCbJ9fo0boLZDANBgkqhkiG9w0BAQQFADCBlTELMAkGA1UEBhMC
REUxETAPBgNVBAgTCFNhYXJsYW5kMRAwDgYDVQQKEwdNUEktU1dTMSIwIAYDVQQL
ExlEaXN0cmlidXRlZCBTeXN0ZW1zIEdyb3VwMRowGAYDVQQDExFBbmRyZWFzIEhh
ZWJlcmxlbjEhMB8GCSqGSIb3DQEJARYSZGVtb2NhQG9jdGFyaW5lLmRlMB4XDTE1
MDQyMDIwNDczN1oXDTE2MDQxOTIwNDczN1owga4xCzAJBgNVBAYTAkRFMREwDwYD
VQQIEwhTYWFybGFuZDEQMA4GA1UEChMHTVBJLVNXUzEiMCAGA1UECxMZRGlzdHJp
YnV0ZWQgU3lzdGVtcyBHcm91cDExMC8GA1UEAxMoYmFjNzdjNjk5Y2Q0YzA2NzY1
NjhlYjI2NGYwOTMwMWZhZDYxYWNiMzEjMCEGCSqGSIb3DQEJARYUbm9kZTA5MDhA
b2N0YXJpbmUuZGUwgZ8wDQYJKoZIhvcNAQEBBQADgY0AMIGJAoGBAM+rJtLwX+th
Nb7Tfd+VDN7gHk0yODL3UalGoNXU1UJ7RcjQ2JDymLC0ymgOfSG4gBOoSUFBBuPQ
7qKz1uPdmqHpYLxZpZVJPhcm9dZvZAppFaB8bFuubvsfIGPijUCghNatVH09NKsD
jCaNVnVQATFgjPrphuj7bH0uwsdw2sljAgMBAAEwDQYJKoZIhvcNAQEEBQADgYEA
vcMC3nuzNUq0v4GEE6p0HvnpUINssGPnN+I+Mpl1PFhkHEYWt8pFnG4XsrCjXo5d
buIvBoaGUOIVUxtUHV5HYyoknLCe3gGSMRAIXfWXswB6/rvms3icjWO0anSMtI8x
RA+opJdAWxCtt2CkkqQ40yHu8o4kC+rc54lOM1Cujy0=
-----END CERTIFICATE-----
