Certificate:
    Data:
        Version: 1 (0x0)
        Serial Number:
            9b:27:d7:e8:d1:ba:08:3e
        Signature Algorithm: md5WithRSAEncryption
        Issuer: C=DE, ST=Saarland, O=MPI-SWS, OU=Distributed Systems Group, CN=Andreas Haeberlen/emailAddress=democa@octarine.de
        Validity
            Not Before: Apr 20 20:47:01 2015 GMT
            Not After : Apr 19 20:47:01 2016 GMT
        Subject: C=DE, ST=Saarland, O=MPI-SWS, OU=Distributed Systems Group, CN=66b8221bb953ce5016ebf49bdebfd534cece1eac/emailAddress=node0102@octarine.de
        Subject Public Key Info:
            Public Key Algorithm: rsaEncryption
            RSA Public Key: (1024 bit)
                Modulus (1024 bit):
                    00:c2:a9:92:c9:5b:5f:db:8c:08:ac:8c:f9:b8:f9:
                    89:01:41:9b:bc:32:c9:8a:30:1d:7a:e1:47:ac:b5:
                    46:eb:9b:aa:a5:35:54:ec:33:0f:96:51:b2:8f:dd:
                    ac:7f:7e:ed:e5:5b:e0:48:f0:13:2b:00:c4:bc:68:
                    9a:60:00:0b:9a:59:cd:40:c8:3a:94:90:72:0f:55:
                    bf:3b:bb:8e:63:e6:0c:3a:c2:a6:c7:2b:c3:09:a7:
                    e8:89:61:16:0b:9b:cd:6d:e8:72:77:b6:7b:2c:49:
                    14:06:d5:f3:b6:c4:22:10:e9:a0:51:55:5c:1e:85:
                    7b:f3:d3:13:b3:db:a3:30:9f
                Exponent: 65537 (0x10001)
    Signature Algorithm: md5WithRSAEncryption
        4b:6c:ff:3d:51:a3:66:af:c2:1b:df:c0:9a:d5:34:c4:cd:f2:
        ce:66:9f:1a:94:43:b3:aa:63:68:54:79:b0:e5:06:f0:c9:14:
        6f:3b:a6:14:5a:d7:29:96:58:a1:45:db:4d:8c:01:52:29:bc:
        d0:c8:d9:14:69:80:b9:df:e5:e2:6c:71:f8:8d:94:ce:bd:f9:
        64:95:c7:b7:0b:fb:cd:2a:ca:54:dc:fa:4a:1d:85:6b:81:47:
        84:62:88:89:fc:86:e0:ce:1e:d1:63:79:61:46:73:9f:25:99:
        53:06:fc:c8:03:e0:b6:b1:38:ee:51:cc:a9:ba:8f:70:68:59:
        ce:34
-----BEGIN CERTIFICATE-----
MIICvDCCAiUCCQCbJ9fo0boIPjANBgkqhkiG9w0BAQQFADCBlTELMAkGA1UEBhMC
REUxETAPBgNVBAgTCFNhYXJsYW5kMRAwDgYDVQQKEwdNUEktU1dTMSIwIAYDVQQL
ExlEaXN0cmlidXRlZCBTeXN0ZW1zIEdyb3VwMRowGAYDVQQDExFBbmRyZWFzIEhh
ZWJlcmxlbjEhMB8GCSqGSIb3DQEJARYSZGVtb2NhQG9jdGFyaW5lLmRlMB4XDTE1
MDQyMDIwNDcwMVoXDTE2MDQxOTIwNDcwMVowga4xCzAJBgNVBAYTAkRFMREwDwYD
VQQIEwhTYWFybGFuZDEQMA4GA1UEChMHTVBJLVNXUzEiMCAGA1UECxMZRGlzdHJp
YnV0ZWQgU3lzdGVtcyBHcm91cDExMC8GA1UEAxMoNjZiODIyMWJiOTUzY2U1MDE2
ZWJmNDliZGViZmQ1MzRjZWNlMWVhYzEjMCEGCSqGSIb3DQEJARYUbm9kZTAxMDJA
b2N0YXJpbmUuZGUwgZ8wDQYJKoZIhvcNAQEBBQADgY0AMIGJAoGBAMKpkslbX9uM
CKyM+bj5iQFBm7wyyYowHXrhR6y1RuubqqU1VOwzD5ZRso/drH9+7eVb4EjwEysA
xLxommAAC5pZzUDIOpSQcg9Vvzu7jmPmDDrCpscrwwmn6IlhFgubzW3ocne2eyxJ
FAbV87bEIhDpoFFVXB6Fe/PTE7PbozCfAgMBAAEwDQYJKoZIhvcNAQEEBQADgYEA
S2z/PVGjZq/CG9/AmtU0xM3yzmafGpRDs6pjaFR5sOUG8MkUbzumFFrXKZZYoUXb
TYwBUim80MjZFGmAud/l4mxx+I2Uzr35ZJXHtwv7zSrKVNz6Sh2Fa4FHhGKIifyG
4M4e0WN5YUZznyWZUwb8yAPgtrE47lHMqbqPcGhZzjQ=
-----END CERTIFICATE-----
