Certificate:
    Data:
        Version: 1 (0x0)
        Serial Number:
            9b:27:d7:e8:d1:ba:09:f0
        Signature Algorithm: md5WithRSAEncryption
        Issuer: C=DE, ST=Saarland, O=MPI-SWS, OU=Distributed Systems Group, CN=Andreas Haeberlen/emailAddress=democa@octarine.de
        Validity
            Not Before: Apr 20 20:47:20 2015 GMT
            Not After : Apr 19 20:47:20 2016 GMT
        Subject: C=DE, ST=Saarland, O=MPI-SWS, OU=Distributed Systems Group, CN=e05ce770764cb2da366d34920012194faac8239a/emailAddress=node0536@octarine.de
        Subject Public Key Info:
            Public Key Algorithm: rsaEncryption
            RSA Public Key: (1024 bit)
                Modulus (1024 bit):
                    00:cd:79:a9:12:6c:e3:a1:35:5e:04:77:e4:14:50:
                    56:3f:01:22:fe:53:11:c6:c7:9c:8f:92:e5:46:a6:
                    f2:48:0a:d2:ab:b4:a9:68:81:d8:51:9f:c6:8e:40:
                    d1:98:60:e4:7d:1a:7b:d2:57:4b:52:31:7d:a0:12:
                    9a:9e:31:01:77:43:ac:31:1d:b4:09:ff:9f:06:22:
                    3f:ff:f1:3d:81:41:15:38:7e:ae:74:e0:48:dd:42:
                    88:ec:2d:c1:4b:c5:ca:23:40:6d:80:e1:90:41:1d:
                    04:c1:d0:a9:01:eb:32:74:33:b5:fa:5f:2d:70:ac:
                    97:33:e1:5f:a6:81:cd:2f:1b
                Exponent: 65537 (0x10001)
    Signature Algorithm: md5WithRSAEncryption
        cc:b0:0c:c4:ee:c0:b7:5a:87:2e:6f:29:b0:10:ea:93:76:c4:
        22:fb:47:16:8e:b4:d1:42:9d:53:02:47:dc:74:9a:12:85:26:
        08:d8:5e:a3:d6:3b:ec:48:20:d2:60:15:84:a1:96:c9:32:a4:
        39:b9:66:3f:c4:ba:01:74:31:78:b0:32:9c:fc:ab:f6:58:ca:
        8b:0b:bd:3d:ce:12:91:27:84:0b:e1:19:26:7f:a2:33:31:7b:
        37:a7:e8:53:5e:10:49:ed:e6:3b:72:38:bd:38:be:0c:36:4d:
        ea:0b:e6:8c:91:0c:bd:19:1a:b8:81:84:6c:b8:9c:e6:e5:65:
        7f:fa
-----BEGIN CERTIFICATE-----
MIICvDCCAiUCCQCbJ9fo0boJ8DANBgkqhkiG9w0BAQQFADCBlTELMAkGA1UEBhMC
REUxETAPBgNVBAgTCFNhYXJsYW5kMRAwDgYDVQQKEwdNUEktU1dTMSIwIAYDVQQL
ExlEaXN0cmlidXRlZCBTeXN0ZW1zIEdyb3VwMRowGAYDVQQDExFBbmRyZWFzIEhh
ZWJlcmxlbjEhMB8GCSqGSIb3DQEJARYSZGVtb2NhQG9jdGFyaW5lLmRlMB4XDTE1
MDQyMDIwNDcyMFoXDTE2MDQxOTIwNDcyMFowga4xCzAJBgNVBAYTAkRFMREwDwYD
VQQIEwhTYWFybGFuZDEQMA4GA1UEChMHTVBJLVNXUzEiMCAGA1UECxMZRGlzdHJp
YnV0ZWQgU3lzdGVtcyBHcm91cDExMC8GA1UEAxMoZTA1Y2U3NzA3NjRjYjJkYTM2
NmQzNDkyMDAxMjE5NGZhYWM4MjM5YTEjMCEGCSqGSIb3DQEJARYUbm9kZTA1MzZA
b2N0YXJpbmUuZGUwgZ8wDQYJKoZIhvcNAQEBBQADgY0AMIGJAoGBAM15qRJs46E1
XgR35BRQVj8BIv5TEcbHnI+S5Uam8kgK0qu0qWiB2FGfxo5A0Zhg5H0ae9JXS1Ix
faASmp4xAXdDrDEdtAn/nwYiP//xPYFBFTh+rnTgSN1CiOwtwUvFyiNAbYDhkEEd
BMHQqQHrMnQztfpfLXCslzPhX6aBzS8bAgMBAAEwDQYJKoZIhvcNAQEEBQADgYEA
zLAMxO7At1qHLm8psBDqk3bEIvtHFo600UKdUwJH3HSaEoUmCNheo9Y77Egg0mAV
hKGWyTKkOblmP8S6AXQxeLAynPyr9ljKiwu9Pc4SkSeEC+EZJn+iMzF7N6foU14Q
Se3mO3I4vTi+DDZN6gvmjJEMvRkauIGEbLic5uVlf/o=
-----END CERTIFICATE-----
