Certificate:
    Data:
        Version: 1 (0x0)
        Serial Number:
            9b:27:d7:e8:d1:ba:08:29
        Signature Algorithm: md5WithRSAEncryption
        Issuer: C=DE, ST=Saarland, O=MPI-SWS, OU=Distributed Systems Group, CN=Andreas Haeberlen/emailAddress=democa@octarine.de
        Validity
            Not Before: Apr 20 20:47:00 2015 GMT
            Not After : Apr 19 20:47:00 2016 GMT
        Subject: C=DE, ST=Saarland, O=MPI-SWS, OU=Distributed Systems Group, CN=c2ca0e644370e637d2d17ef6335815bd88886fcb/emailAddress=node0081@octarine.de
        Subject Public Key Info:
            Public Key Algorithm: rsaEncryption
            RSA Public Key: (1024 bit)
                Modulus (1024 bit):
                    00:a0:7c:26:0c:e5:d0:8d:19:7f:3f:4e:cf:a1:f8:
                    64:a4:be:56:3a:60:61:19:a5:dd:f6:54:23:2d:8a:
                    ee:7a:73:7b:4e:35:2c:d2:4f:5d:3b:0d:c0:e1:d0:
                    61:49:c0:e0:92:bd:25:1c:74:d6:3a:b9:32:9b:8a:
                    49:e9:a5:ea:4a:35:61:80:78:d5:12:34:13:04:7a:
                    e2:5b:d8:8e:ed:04:53:a1:c8:20:23:d5:18:2b:8f:
                    ca:53:57:27:2e:72:b5:1e:80:e2:7f:22:08:22:37:
                    d0:02:df:16:ee:5b:42:82:ff:06:12:cd:45:9c:f5:
                    3a:a9:fa:da:70:0f:03:df:bb
                Exponent: 65537 (0x10001)
    Signature Algorithm: md5WithRSAEncryption
        09:3f:16:4d:31:ac:89:0d:b2:a3:cd:1f:39:3a:b7:f5:91:e3:
        02:04:96:06:a6:10:33:07:fb:2a:55:31:7b:a5:f4:44:de:b3:
        15:ac:8d:c0:5f:53:21:72:c2:66:3c:78:e8:1d:f4:be:28:68:
        43:ba:38:f6:5e:eb:5d:a2:66:77:4b:ba:6a:35:3a:0e:a9:f7:
        9d:11:59:f3:50:2a:d1:ea:cf:45:5e:ae:ad:ab:02:19:86:1c:
        54:ae:3b:18:d5:3d:46:67:c8:08:c9:54:59:6f:46:3d:b9:4a:
        14:dd:53:62:83:d7:3e:b4:bb:b3:04:cd:d5:ea:fb:f6:c7:33:
        b7:44
-----BEGIN CERTIFICATE-----
MIICvDCCAiUCCQCbJ9fo0boIKTANBgkqhkiG9w0BAQQFADCBlTELMAkGA1UEBhMC
REUxETAPBgNVBAgTCFNhYXJsYW5kMRAwDgYDVQQKEwdNUEktU1dTMSIwIAYDVQQL
ExlEaXN0cmlidXRlZCBTeXN0ZW1zIEdyb3VwMRowGAYDVQQDExFBbmRyZWFzIEhh
ZWJlcmxlbjEhMB8GCSqGSIb3DQEJARYSZGVtb2NhQG9jdGFyaW5lLmRlMB4XDTE1
MDQyMDIwNDcwMFoXDTE2MDQxOTIwNDcwMFowga4xCzAJBgNVBAYTAkRFMREwDwYD
VQQIEwhTYWFybGFuZDEQMA4GA1UEChMHTVBJLVNXUzEiMCAGA1UECxMZRGlzdHJp
YnV0ZWQgU3lzdGVtcyBHcm91cDExMC8GA1UEAxMoYzJjYTBlNjQ0MzcwZTYzN2Qy
ZDE3ZWY2MzM1ODE1YmQ4ODg4NmZjYjEjMCEGCSqGSIb3DQEJARYUbm9kZTAwODFA
b2N0YXJpbmUuZGUwgZ8wDQYJKoZIhvcNAQEBBQADgY0AMIGJAoGBAKB8Jgzl0I0Z
fz9Oz6H4ZKS+VjpgYRml3fZUIy2K7npze041LNJPXTsNwOHQYUnA4JK9JRx01jq5
MpuKSeml6ko1YYB41RI0EwR64lvYju0EU6HIICPVGCuPylNXJy5ytR6A4n8iCCI3
0ALfFu5bQoL/BhLNRZz1Oqn62nAPA9+7AgMBAAEwDQYJKoZIhvcNAQEEBQADgYEA
CT8WTTGsiQ2yo80fOTq39ZHjAgSWBqYQMwf7KlUxe6X0RN6zFayNwF9TIXLCZjx4
6B30vihoQ7o49l7rXaJmd0u6ajU6Dqn3nRFZ81Aq0erPRV6urasCGYYcVK47GNU9
RmfICMlUWW9GPblKFN1TYoPXPrS7swTN1er79sczt0Q=
-----END CERTIFICATE-----
