Certificate:
    Data:
        Version: 1 (0x0)
        Serial Number:
            9b:27:d7:e8:d1:ba:09:07
        Signature Algorithm: md5WithRSAEncryption
        Issuer: C=DE, ST=Saarland, O=MPI-SWS, OU=Distributed Systems Group, CN=Andreas Haeberlen/emailAddress=democa@octarine.de
        Validity
            Not Before: Apr 20 20:47:10 2015 GMT
            Not After : Apr 19 20:47:10 2016 GMT
        Subject: C=DE, ST=Saarland, O=MPI-SWS, OU=Distributed Systems Group, CN=346f68a53cddefa05baeda6e7d6bdf613d0a6a09/emailAddress=node0303@octarine.de
        Subject Public Key Info:
            Public Key Algorithm: rsaEncryption
            RSA Public Key: (1024 bit)
                Modulus (1024 bit):
                    00:c8:1d:a2:9f:b2:9a:5b:c4:8d:e8:04:99:1a:40:
                    76:68:9d:32:3f:06:da:98:89:49:a8:55:1c:83:8e:
                    10:2f:d2:ba:d8:0e:e6:ce:e4:d6:0c:3c:2b:1c:02:
                    de:d7:bd:6a:f9:3a:0a:12:76:48:10:06:ec:95:31:
                    7b:3a:ea:52:fa:5a:0c:0e:3e:eb:59:6a:f3:af:d3:
                    ca:6a:a2:d8:90:c2:14:05:fa:10:24:c3:f2:01:16:
                    ba:6e:41:72:ac:16:85:d7:6e:7d:6d:52:b0:0c:d0:
                    ae:02:4f:40:4e:48:7d:0b:ef:9f:fd:74:ab:b3:04:
                    45:3d:0b:38:48:c0:1c:4d:07
                Exponent: 65537 (0x10001)
    Signature Algorithm: md5WithRSAEncryption
        66:c0:09:46:32:3c:16:06:62:9d:69:1a:e9:93:c3:36:4d:6b:
        4b:97:a1:9a:0f:dc:03:c4:67:d4:25:fe:c9:6f:24:e7:e1:fe:
        15:40:8b:d9:d8:5e:e2:04:fe:3a:cc:a9:ac:2a:62:16:c3:0f:
        ce:df:2d:df:49:c0:81:81:86:1b:1d:3e:ff:d5:9b:21:a3:0d:
        ba:a5:10:a0:e8:b1:46:56:d5:57:41:d8:51:4c:f6:63:98:a5:
        51:1d:ce:63:e0:3e:cf:95:a3:de:71:41:76:5c:57:70:63:f5:
        e4:b5:04:2e:96:44:57:d6:99:0a:1a:9c:83:fc:48:cd:c5:33:
        e8:f6
-----BEGIN CERTIFICATE-----
MIICvDCCAiUCCQCbJ9fo0boJBzANBgkqhkiG9w0BAQQFADCBlTELMAkGA1UEBhMC
REUxETAPBgNVBAgTCFNhYXJsYW5kMRAwDgYDVQQKEwdNUEktU1dTMSIwIAYDVQQL
ExlEaXN0cmlidXRlZCBTeXN0ZW1zIEdyb3VwMRowGAYDVQQDExFBbmRyZWFzIEhh
ZWJlcmxlbjEhMB8GCSqGSIb3DQEJARYSZGVtb2NhQG9jdGFyaW5lLmRlMB4XDTE1
MDQyMDIwNDcxMFoXDTE2MDQxOTIwNDcxMFowga4xCzAJBgNVBAYTAkRFMREwDwYD
VQQIEwhTYWFybGFuZDEQMA4GA1UEChMHTVBJLVNXUzEiMCAGA1UECxMZRGlzdHJp
YnV0ZWQgU3lzdGVtcyBHcm91cDExMC8GA1UEAxMoMzQ2ZjY4YTUzY2RkZWZhMDVi
YWVkYTZlN2Q2YmRmNjEzZDBhNmEwOTEjMCEGCSqGSIb3DQEJARYUbm9kZTAzMDNA
b2N0YXJpbmUuZGUwgZ8wDQYJKoZIhvcNAQEBBQADgY0AMIGJAoGBAMgdop+ymlvE
jegEmRpAdmidMj8G2piJSahVHIOOEC/SutgO5s7k1gw8KxwC3te9avk6ChJ2SBAG
7JUxezrqUvpaDA4+61lq86/Tymqi2JDCFAX6ECTD8gEWum5BcqwWhddufW1SsAzQ
rgJPQE5IfQvvn/10q7MERT0LOEjAHE0HAgMBAAEwDQYJKoZIhvcNAQEEBQADgYEA
ZsAJRjI8FgZinWka6ZPDNk1rS5ehmg/cA8Rn1CX+yW8k5+H+FUCL2dhe4gT+Osyp
rCpiFsMPzt8t30nAgYGGGx0+/9WbIaMNuqUQoOixRlbVV0HYUUz2Y5ilUR3OY+A+
z5Wj3nFBdlxXcGP15LUELpZEV9aZChqcg/xIzcUz6PY=
-----END CERTIFICATE-----
