Certificate:
    Data:
        Version: 1 (0x0)
        Serial Number:
            9b:27:d7:e8:d1:ba:09:4f
        Signature Algorithm: md5WithRSAEncryption
        Issuer: C=DE, ST=Saarland, O=MPI-SWS, OU=Distributed Systems Group, CN=Andreas Haeberlen/emailAddress=democa@octarine.de
        Validity
            Not Before: Apr 20 20:47:13 2015 GMT
            Not After : Apr 19 20:47:13 2016 GMT
        Subject: C=DE, ST=Saarland, O=MPI-SWS, OU=Distributed Systems Group, CN=54c98fbd5cb7ce338999ade95b04644c815100e6/emailAddress=node0375@octarine.de
        Subject Public Key Info:
            Public Key Algorithm: rsaEncryption
            RSA Public Key: (1024 bit)
                Modulus (1024 bit):
                    00:ac:0c:0f:65:85:72:92:8e:59:48:b8:de:ae:11:
                    d2:09:d0:29:81:69:32:9e:3f:f7:79:dc:11:2a:8f:
                    66:35:fb:fd:16:73:51:2a:a5:ed:9c:6b:93:c5:a5:
                    c1:27:c0:a8:98:07:fa:a2:d9:62:e1:f4:fb:95:21:
                    5e:86:b5:a6:86:a0:f3:30:25:f8:48:31:e0:c1:32:
                    78:bd:2e:cb:4e:a2:8e:54:31:59:b9:ad:92:1b:0c:
                    0a:7d:28:d7:1d:ba:5f:ef:4f:52:ea:ca:b3:41:31:
                    39:5e:2e:14:e8:92:8f:6b:e8:e2:95:da:f6:4a:31:
                    9c:66:f6:b0:e6:fa:7c:73:e1
                Exponent: 65537 (0x10001)
    Signature Algorithm: md5WithRSAEncryption
        0a:dd:52:fb:db:c0:8e:a1:e9:7b:3b:ce:01:a9:cc:f4:f6:a8:
        06:64:e2:08:d4:a3:06:ad:bf:d5:59:1c:32:f3:7d:ae:e9:0c:
        41:1b:6f:60:72:cc:52:06:d5:5b:0e:e4:00:28:de:5e:52:5c:
        db:70:2d:30:8f:88:c1:59:1b:12:6d:fc:3a:37:b1:ed:ed:b7:
        7c:75:16:c3:6b:b7:40:bb:cb:db:3e:7c:ba:8e:8a:02:73:e8:
        ef:03:37:95:3f:22:e2:37:eb:4d:82:e2:50:1e:b8:df:94:b5:
        98:12:48:df:b3:e7:bb:65:ca:64:da:4a:0d:8a:d9:98:c5:42:
        ad:b2
-----BEGIN CERTIFICATE-----
MIICvDCCAiUCCQCbJ9fo0boJTzANBgkqhkiG9w0BAQQFADCBlTELMAkGA1UEBhMC
REUxETAPBgNVBAgTCFNhYXJsYW5kMRAwDgYDVQQKEwdNUEktU1dTMSIwIAYDVQQL
ExlEaXN0cmlidXRlZCBTeXN0ZW1zIEdyb3VwMRowGAYDVQQDExFBbmRyZWFzIEhh
ZWJlcmxlbjEhMB8GCSqGSIb3DQEJARYSZGVtb2NhQG9jdGFyaW5lLmRlMB4XDTE1
MDQyMDIwNDcxM1oXDTE2MDQxOTIwNDcxM1owga4xCzAJBgNVBAYTAkRFMREwDwYD
VQQIEwhTYWFybGFuZDEQMA4GA1UEChMHTVBJLVNXUzEiMCAGA1UECxMZRGlzdHJp
YnV0ZWQgU3lzdGVtcyBHcm91cDExMC8GA1UEAxMoNTRjOThmYmQ1Y2I3Y2UzMzg5
OTlhZGU5NWIwNDY0NGM4MTUxMDBlNjEjMCEGCSqGSIb3DQEJARYUbm9kZTAzNzVA
b2N0YXJpbmUuZGUwgZ8wDQYJKoZIhvcNAQEBBQADgY0AMIGJAoGBAKwMD2WFcpKO
WUi43q4R0gnQKYFpMp4/93ncESqPZjX7/RZzUSql7Zxrk8WlwSfAqJgH+qLZYuH0
+5UhXoa1poag8zAl+Egx4MEyeL0uy06ijlQxWbmtkhsMCn0o1x26X+9PUurKs0Ex
OV4uFOiSj2vo4pXa9koxnGb2sOb6fHPhAgMBAAEwDQYJKoZIhvcNAQEEBQADgYEA
Ct1S+9vAjqHpezvOAanM9PaoBmTiCNSjBq2/1VkcMvN9rukMQRtvYHLMUgbVWw7k
ACjeXlJc23AtMI+IwVkbEm38Ojex7e23fHUWw2u3QLvL2z58uo6KAnPo7wM3lT8i
4jfrTYLiUB6435S1mBJI37Pnu2XKZNpKDYrZmMVCrbI=
-----END CERTIFICATE-----
