Certificate:
    Data:
        Version: 1 (0x0)
        Serial Number:
            9b:27:d7:e8:d1:ba:0b:78
        Signature Algorithm: md5WithRSAEncryption
        Issuer: C=DE, ST=Saarland, O=MPI-SWS, OU=Distributed Systems Group, CN=Andreas Haeberlen/emailAddress=democa@octarine.de
        Validity
            Not Before: Apr 20 20:47:38 2015 GMT
            Not After : Apr 19 20:47:38 2016 GMT
        Subject: C=DE, ST=Saarland, O=MPI-SWS, OU=Distributed Systems Group, CN=b1fe8e68bcb9040fbffc934cb3aa82f34f2cd859/emailAddress=node0928@octarine.de
        Subject Public Key Info:
            Public Key Algorithm: rsaEncryption
            RSA Public Key: (1024 bit)
                Modulus (1024 bit):
                    00:b9:70:5a:02:92:ea:0a:29:c2:89:0d:76:1e:ce:
                    b5:64:27:15:1b:fa:b4:7c:5e:b1:95:4a:cb:8e:8a:
                    fb:d5:dc:99:85:85:22:b7:d3:6d:e9:25:37:7d:27:
                    f0:6f:37:a4:8e:88:04:06:24:2e:47:70:9b:49:74:
                    4e:b3:5c:30:8f:b4:49:f1:a3:84:3a:ee:bf:f3:e2:
                    35:6e:40:67:5a:89:b5:39:08:ff:c0:8d:2e:56:59:
                    ab:d5:d6:1d:d3:34:9f:11:17:18:61:c4:30:b9:7d:
                    61:c9:71:f8:35:16:15:a5:64:04:36:c9:92:cd:de:
                    c1:c2:26:de:8b:56:d7:bf:49
                Exponent: 65537 (0x10001)
    Signature Algorithm: md5WithRSAEncryption
        8b:12:4e:e0:58:cc:26:65:e2:69:a6:20:e7:a7:0b:ff:7c:ae:
        c9:b0:0e:e6:28:40:88:be:df:6d:24:e6:b4:9b:23:05:43:e5:
        85:08:5d:4c:ab:c5:c0:ff:bb:aa:2c:8a:33:10:8c:c9:cf:59:
        58:7b:be:e5:21:ae:1f:9b:a3:f2:a9:2f:72:75:0f:10:a0:a9:
        07:5e:17:1f:a1:26:bb:0f:1a:eb:04:5e:d6:e3:f1:54:a1:51:
        ba:7d:94:36:8a:fb:5d:d5:f5:c8:a6:45:35:5b:c9:05:2f:8d:
        c5:72:9f:5d:0d:6d:cd:a0:73:f6:91:61:1b:54:f9:48:26:e6:
        ad:9d
-----BEGIN CERTIFICATE-----
MIICvDCCAiUCCQCbJ9fo0boLeDANBgkqhkiG9w0BAQQFADCBlTELMAkGA1UEBhMC
REUxETAPBgNVBAgTCFNhYXJsYW5kMRAwDgYDVQQKEwdNUEktU1dTMSIwIAYDVQQL
ExlEaXN0cmlidXRlZCBTeXN0ZW1zIEdyb3VwMRowGAYDVQQDExFBbmRyZWFzIEhh
ZWJlcmxlbjEhMB8GCSqGSIb3DQEJARYSZGVtb2NhQG9jdGFyaW5lLmRlMB4XDTE1
MDQyMDIwNDczOFoXDTE2MDQxOTIwNDczOFowga4xCzAJBgNVBAYTAkRFMREwDwYD
VQQIEwhTYWFybGFuZDEQMA4GA1UEChMHTVBJLVNXUzEiMCAGA1UECxMZRGlzdHJp
YnV0ZWQgU3lzdGVtcyBHcm91cDExMC8GA1UEAxMoYjFmZThlNjhiY2I5MDQwZmJm
ZmM5MzRjYjNhYTgyZjM0ZjJjZDg1OTEjMCEGCSqGSIb3DQEJARYUbm9kZTA5MjhA
b2N0YXJpbmUuZGUwgZ8wDQYJKoZIhvcNAQEBBQADgY0AMIGJAoGBALlwWgKS6gop
wokNdh7OtWQnFRv6tHxesZVKy46K+9XcmYWFIrfTbeklN30n8G83pI6IBAYkLkdw
m0l0TrNcMI+0SfGjhDruv/PiNW5AZ1qJtTkI/8CNLlZZq9XWHdM0nxEXGGHEMLl9
Yclx+DUWFaVkBDbJks3ewcIm3otW179JAgMBAAEwDQYJKoZIhvcNAQEEBQADgYEA
ixJO4FjMJmXiaaYg56cL/3yuybAO5ihAiL7fbSTmtJsjBUPlhQhdTKvFwP+7qiyK
MxCMyc9ZWHu+5SGuH5uj8qkvcnUPEKCpB14XH6Emuw8a6wRe1uPxVKFRun2UNor7
XdX1yKZFNVvJBS+NxXKfXQ1tzaBz9pFhG1T5SCbmrZ0=
-----END CERTIFICATE-----
