Certificate:
    Data:
        Version: 1 (0x0)
        Serial Number:
            9b:27:d7:e8:d1:ba:09:3d
        Signature Algorithm: md5WithRSAEncryption
        Issuer: C=DE, ST=Saarland, O=MPI-SWS, OU=Distributed Systems Group, CN=Andreas Haeberlen/emailAddress=democa@octarine.de
        Validity
            Not Before: Apr 20 20:47:12 2015 GMT
            Not After : Apr 19 20:47:12 2016 GMT
        Subject: C=DE, ST=Saarland, O=MPI-SWS, OU=Distributed Systems Group, CN=4d1170106b1cfdd7343a6b6e0c33843c25da5eac/emailAddress=node0357@octarine.de
        Subject Public Key Info:
            Public Key Algorithm: rsaEncryption
            RSA Public Key: (1024 bit)
                Modulus (1024 bit):
                    00:d8:ee:c5:19:56:a8:ea:be:52:61:1c:44:a4:10:
                    46:8c:9a:6c:95:fe:37:5b:79:b3:c4:89:eb:0d:c8:
                    84:0d:1a:c9:20:3e:83:1a:c7:c8:b6:ef:30:34:7c:
                    e5:a6:1f:08:8d:0c:83:dd:58:a6:ec:b5:db:f6:4d:
                    6e:7c:ae:be:80:e9:20:51:e7:a4:ab:dc:16:98:5e:
                    ae:44:e5:08:7c:52:75:b8:d0:ff:5f:ca:dd:88:da:
                    ba:0f:0b:54:4b:a7:d4:74:85:84:6b:5f:f4:05:a9:
                    50:d8:b6:a0:34:0f:af:38:b1:e0:57:65:0d:d5:99:
                    40:0f:1d:d6:f8:20:12:7e:a3
                Exponent: 65537 (0x10001)
    Signature Algorithm: md5WithRSAEncryption
        85:86:fa:14:43:90:9b:c7:28:16:6c:0e:90:2c:7b:01:a0:36:
        0c:dd:9e:fe:f6:fb:de:c9:5d:f9:a9:09:46:85:91:ef:0a:d6:
        bb:3b:18:22:dd:1f:29:cc:58:ad:b0:81:56:ec:fe:91:8f:a5:
        f7:3a:20:ef:58:03:23:c8:2e:e0:20:2d:1a:6e:bc:f2:dc:8c:
        72:a1:74:d5:4c:22:4e:95:60:71:03:a5:50:8a:ed:3f:f6:ac:
        f5:bf:ea:48:98:b9:f2:4b:b6:87:de:16:ef:16:38:0e:ab:e2:
        54:f0:9b:b0:f2:c1:c9:a3:94:ac:03:67:c5:95:26:a4:da:87:
        85:a2
-----BEGIN CERTIFICATE-----
MIICvDCCAiUCCQCbJ9fo0boJPTANBgkqhkiG9w0BAQQFADCBlTELMAkGA1UEBhMC
REUxETAPBgNVBAgTCFNhYXJsYW5kMRAwDgYDVQQKEwdNUEktU1dTMSIwIAYDVQQL
ExlEaXN0cmlidXRlZCBTeXN0ZW1zIEdyb3VwMRowGAYDVQQDExFBbmRyZWFzIEhh
ZWJlcmxlbjEhMB8GCSqGSIb3DQEJARYSZGVtb2NhQG9jdGFyaW5lLmRlMB4XDTE1
MDQyMDIwNDcxMloXDTE2MDQxOTIwNDcxMlowga4xCzAJBgNVBAYTAkRFMREwDwYD
VQQIEwhTYWFybGFuZDEQMA4GA1UEChMHTVBJLVNXUzEiMCAGA1UECxMZRGlzdHJp
YnV0ZWQgU3lzdGVtcyBHcm91cDExMC8GA1UEAxMoNGQxMTcwMTA2YjFjZmRkNzM0
M2E2YjZlMGMzMzg0M2MyNWRhNWVhYzEjMCEGCSqGSIb3DQEJARYUbm9kZTAzNTdA
b2N0YXJpbmUuZGUwgZ8wDQYJKoZIhvcNAQEBBQADgY0AMIGJAoGBANjuxRlWqOq+
UmEcRKQQRoyabJX+N1t5s8SJ6w3IhA0aySA+gxrHyLbvMDR85aYfCI0Mg91Ypuy1
2/ZNbnyuvoDpIFHnpKvcFpherkTlCHxSdbjQ/1/K3Yjaug8LVEun1HSFhGtf9AWp
UNi2oDQPrzix4FdlDdWZQA8d1vggEn6jAgMBAAEwDQYJKoZIhvcNAQEEBQADgYEA
hYb6FEOQm8coFmwOkCx7AaA2DN2e/vb73sld+akJRoWR7wrWuzsYIt0fKcxYrbCB
Vuz+kY+l9zog71gDI8gu4CAtGm688tyMcqF01UwiTpVgcQOlUIrtP/as9b/qSJi5
8ku2h94W7xY4DqviVPCbsPLByaOUrANnxZUmpNqHhaI=
-----END CERTIFICATE-----
