Certificate:
    Data:
        Version: 1 (0x0)
        Serial Number:
            9b:27:d7:e8:d1:ba:08:82
        Signature Algorithm: md5WithRSAEncryption
        Issuer: C=DE, ST=Saarland, O=MPI-SWS, OU=Distributed Systems Group, CN=Andreas Haeberlen/emailAddress=democa@octarine.de
        Validity
            Not Before: Apr 20 20:47:04 2015 GMT
            Not After : Apr 19 20:47:04 2016 GMT
        Subject: C=DE, ST=Saarland, O=MPI-SWS, OU=Distributed Systems Group, CN=1aad4d1a798a3811754645b9b8d0b98c42a80b37/emailAddress=node0170@octarine.de
        Subject Public Key Info:
            Public Key Algorithm: rsaEncryption
            RSA Public Key: (1024 bit)
                Modulus (1024 bit):
                    00:bb:b1:4c:89:13:8b:d1:b0:bd:55:ee:70:78:c7:
                    80:9e:7d:6b:8f:00:84:0e:01:e3:96:45:16:70:c2:
                    93:19:20:e7:00:61:64:29:60:79:ec:cf:c8:73:7e:
                    af:9d:d7:33:46:10:47:4e:a6:e2:89:0a:73:e2:75:
                    7d:86:03:3a:f9:e2:4b:46:ab:f7:a7:14:0f:78:31:
                    96:25:9b:54:e2:7e:1b:47:8f:f7:a3:91:37:d8:2c:
                    19:1c:1c:6b:2f:b0:49:fd:79:e7:63:16:ba:98:db:
                    f8:7b:bd:42:bc:1f:82:f4:a2:03:55:ba:30:c4:81:
                    60:5e:01:9e:9d:13:65:91:3f
                Exponent: 65537 (0x10001)
    Signature Algorithm: md5WithRSAEncryption
        63:17:4c:f9:7e:22:01:61:47:fc:0d:10:a7:2e:d1:11:5d:a9:
        18:7a:40:cc:0f:14:b0:f2:39:77:84:10:a0:79:1a:67:a7:31:
        43:7b:a0:96:2b:ed:e1:75:b3:03:c3:0d:07:ec:ad:c1:bf:11:
        ff:a7:96:c2:4c:bc:b2:10:65:bd:b0:02:40:20:a8:34:6a:b5:
        c6:10:ba:16:e2:1b:2b:ff:34:93:4a:a7:c2:d9:ea:46:6f:9f:
        80:b1:27:02:cd:17:03:0e:01:5d:3d:0c:93:07:19:7c:b4:92:
        b9:ee:77:a0:2f:50:39:97:1f:91:13:0e:da:ec:56:27:24:3c:
        33:32
-----BEGIN CERTIFICATE-----
MIICvDCCAiUCCQCbJ9fo0boIgjANBgkqhkiG9w0BAQQFADCBlTELMAkGA1UEBhMC
REUxETAPBgNVBAgTCFNhYXJsYW5kMRAwDgYDVQQKEwdNUEktU1dTMSIwIAYDVQQL
ExlEaXN0cmlidXRlZCBTeXN0ZW1zIEdyb3VwMRowGAYDVQQDExFBbmRyZWFzIEhh
ZWJlcmxlbjEhMB8GCSqGSIb3DQEJARYSZGVtb2NhQG9jdGFyaW5lLmRlMB4XDTE1
MDQyMDIwNDcwNFoXDTE2MDQxOTIwNDcwNFowga4xCzAJBgNVBAYTAkRFMREwDwYD
VQQIEwhTYWFybGFuZDEQMA4GA1UEChMHTVBJLVNXUzEiMCAGA1UECxMZRGlzdHJp
YnV0ZWQgU3lzdGVtcyBHcm91cDExMC8GA1UEAxMoMWFhZDRkMWE3OThhMzgxMTc1
NDY0NWI5YjhkMGI5OGM0MmE4MGIzNzEjMCEGCSqGSIb3DQEJARYUbm9kZTAxNzBA
b2N0YXJpbmUuZGUwgZ8wDQYJKoZIhvcNAQEBBQADgY0AMIGJAoGBALuxTIkTi9Gw
vVXucHjHgJ59a48AhA4B45ZFFnDCkxkg5wBhZClgeezPyHN+r53XM0YQR06m4okK
c+J1fYYDOvniS0ar96cUD3gxliWbVOJ+G0eP96ORN9gsGRwcay+wSf1552MWupjb
+Hu9QrwfgvSiA1W6MMSBYF4Bnp0TZZE/AgMBAAEwDQYJKoZIhvcNAQEEBQADgYEA
YxdM+X4iAWFH/A0Qpy7REV2pGHpAzA8UsPI5d4QQoHkaZ6cxQ3uglivt4XWzA8MN
B+ytwb8R/6eWwky8shBlvbACQCCoNGq1xhC6FuIbK/80k0qnwtnqRm+fgLEnAs0X
Aw4BXT0MkwcZfLSSue53oC9QOZcfkRMO2uxWJyQ8MzI=
-----END CERTIFICATE-----
