Certificate:
    Data:
        Version: 1 (0x0)
        Serial Number:
            9b:27:d7:e8:d1:ba:08:80
        Signature Algorithm: md5WithRSAEncryption
        Issuer: C=DE, ST=Saarland, O=MPI-SWS, OU=Distributed Systems Group, CN=Andreas Haeberlen/emailAddress=democa@octarine.de
        Validity
            Not Before: Apr 20 20:47:04 2015 GMT
            Not After : Apr 19 20:47:04 2016 GMT
        Subject: C=DE, ST=Saarland, O=MPI-SWS, OU=Distributed Systems Group, CN=8b2eaf0cb6c418bf9466efb16c74882134fd4faf/emailAddress=node0168@octarine.de
        Subject Public Key Info:
            Public Key Algorithm: rsaEncryption
            RSA Public Key: (1024 bit)
                Modulus (1024 bit):
                    00:bd:5a:0f:59:f3:6b:e9:af:7a:ea:b1:72:38:69:
                    0b:97:73:bb:d7:23:41:03:54:99:fe:ac:b0:c8:94:
                    4c:8c:7f:1c:b6:ee:c8:04:6d:24:17:ae:dc:30:a7:
                    2f:2b:bb:42:fa:09:c6:ef:0a:37:80:20:8e:bb:a8:
                    0b:9c:14:c1:aa:5b:51:5f:4c:b5:ab:40:e9:c1:c7:
                    5a:36:80:6c:48:b3:df:ad:35:24:71:89:90:0c:af:
                    c7:ca:06:39:b9:41:8a:c6:92:07:02:fa:5a:2f:40:
                    7c:5f:b9:f9:43:32:0e:7f:17:ce:9e:34:ac:b5:c8:
                    74:53:b6:ff:8d:06:d5:94:71
                Exponent: 65537 (0x10001)
    Signature Algorithm: md5WithRSAEncryption
        3f:ed:c9:8f:19:ce:01:fe:36:ab:e6:f4:8a:1c:71:a5:2c:74:
        99:88:5b:c6:fa:a4:fd:6d:54:35:57:20:80:3c:c6:2a:3b:f1:
        c1:ce:78:50:fa:fd:dc:e8:72:d3:8f:13:9c:c2:d2:9f:17:c0:
        e0:46:03:c0:22:f7:a1:ef:aa:a0:a7:3f:6a:18:6e:c0:53:fb:
        8f:64:a0:a2:21:e1:dc:2a:c9:91:03:0a:99:0d:6e:d7:98:8b:
        e9:c2:55:94:93:5b:63:31:ab:f6:94:00:39:28:7f:97:1c:ca:
        7b:95:f4:39:ef:5f:96:f0:d8:2f:38:65:92:59:1f:26:c5:7e:
        48:93
-----BEGIN CERTIFICATE-----
MIICvDCCAiUCCQCbJ9fo0boIgDANBgkqhkiG9w0BAQQFADCBlTELMAkGA1UEBhMC
REUxETAPBgNVBAgTCFNhYXJsYW5kMRAwDgYDVQQKEwdNUEktU1dTMSIwIAYDVQQL
ExlEaXN0cmlidXRlZCBTeXN0ZW1zIEdyb3VwMRowGAYDVQQDExFBbmRyZWFzIEhh
ZWJlcmxlbjEhMB8GCSqGSIb3DQEJARYSZGVtb2NhQG9jdGFyaW5lLmRlMB4XDTE1
MDQyMDIwNDcwNFoXDTE2MDQxOTIwNDcwNFowga4xCzAJBgNVBAYTAkRFMREwDwYD
VQQIEwhTYWFybGFuZDEQMA4GA1UEChMHTVBJLVNXUzEiMCAGA1UECxMZRGlzdHJp
YnV0ZWQgU3lzdGVtcyBHcm91cDExMC8GA1UEAxMoOGIyZWFmMGNiNmM0MThiZjk0
NjZlZmIxNmM3NDg4MjEzNGZkNGZhZjEjMCEGCSqGSIb3DQEJARYUbm9kZTAxNjhA
b2N0YXJpbmUuZGUwgZ8wDQYJKoZIhvcNAQEBBQADgY0AMIGJAoGBAL1aD1nza+mv
euqxcjhpC5dzu9cjQQNUmf6ssMiUTIx/HLbuyARtJBeu3DCnLyu7QvoJxu8KN4Ag
jruoC5wUwapbUV9MtatA6cHHWjaAbEiz3601JHGJkAyvx8oGOblBisaSBwL6Wi9A
fF+5+UMyDn8Xzp40rLXIdFO2/40G1ZRxAgMBAAEwDQYJKoZIhvcNAQEEBQADgYEA
P+3JjxnOAf42q+b0ihxxpSx0mYhbxvqk/W1UNVcggDzGKjvxwc54UPr93Ohy048T
nMLSnxfA4EYDwCL3oe+qoKc/ahhuwFP7j2SgoiHh3CrJkQMKmQ1u15iL6cJVlJNb
YzGr9pQAOSh/lxzKe5X0Oe9flvDYLzhlklkfJsV+SJM=
-----END CERTIFICATE-----
