Certificate:
    Data:
        Version: 1 (0x0)
        Serial Number:
            9b:27:d7:e8:d1:ba:0b:af
        Signature Algorithm: md5WithRSAEncryption
        Issuer: C=DE, ST=Saarland, O=MPI-SWS, OU=Distributed Systems Group, CN=Andreas Haeberlen/emailAddress=democa@octarine.de
        Validity
            Not Before: Apr 20 20:47:41 2015 GMT
            Not After : Apr 19 20:47:41 2016 GMT
        Subject: C=DE, ST=Saarland, O=MPI-SWS, OU=Distributed Systems Group, CN=f9d1e889139c51b6d48b174df667b11baec96428/emailAddress=node0983@octarine.de
        Subject Public Key Info:
            Public Key Algorithm: rsaEncryption
            RSA Public Key: (1024 bit)
                Modulus (1024 bit):
                    00:b9:f9:32:a8:d7:1f:30:87:c5:a5:70:ac:1a:50:
                    c0:08:23:dd:d6:74:8d:f3:a2:f8:3d:e6:17:80:fa:
                    4f:b9:7f:28:78:60:27:54:b1:41:2b:8f:1d:9d:ff:
                    2f:6c:ae:e3:2e:19:9f:a6:c1:62:7a:2f:c4:b7:30:
                    04:66:b7:93:6c:ac:28:e7:da:73:c0:d9:b6:98:ee:
                    43:d5:0a:36:4d:c6:76:50:66:7a:a6:04:22:14:ac:
                    f8:35:dd:fa:64:34:2e:2c:a6:f3:cd:a3:03:ab:a6:
                    d5:49:89:21:fa:96:46:77:c1:63:35:a0:15:18:aa:
                    dd:e3:6d:02:08:6c:a6:cd:85
                Exponent: 65537 (0x10001)
    Signature Algorithm: md5WithRSAEncryption
        93:e1:0d:66:93:72:b8:8d:dd:8d:31:ba:f3:06:d5:8b:2e:4b:
        0c:b4:7e:71:a5:16:cf:95:3c:1e:1b:ae:a7:46:d6:0e:ca:92:
        29:5d:37:0b:6b:90:3e:6b:18:fa:83:e5:2c:28:df:76:a6:0a:
        9d:10:99:33:30:6c:85:3e:ec:fe:d2:89:8f:80:2f:67:cf:00:
        20:9e:33:23:2b:5d:54:33:0e:d9:1c:8b:7c:38:5e:23:11:d2:
        38:6b:23:ff:3a:3f:91:43:c9:b1:cc:d3:60:d6:b1:d1:2f:de:
        6b:ef:aa:63:3f:69:40:30:f8:23:b3:a9:b5:9e:21:37:fa:e9:
        3a:59
-----BEGIN CERTIFICATE-----
MIICvDCCAiUCCQCbJ9fo0boLrzANBgkqhkiG9w0BAQQFADCBlTELMAkGA1UEBhMC
REUxETAPBgNVBAgTCFNhYXJsYW5kMRAwDgYDVQQKEwdNUEktU1dTMSIwIAYDVQQL
ExlEaXN0cmlidXRlZCBTeXN0ZW1zIEdyb3VwMRowGAYDVQQDExFBbmRyZWFzIEhh
ZWJlcmxlbjEhMB8GCSqGSIb3DQEJARYSZGVtb2NhQG9jdGFyaW5lLmRlMB4XDTE1
MDQyMDIwNDc0MVoXDTE2MDQxOTIwNDc0MVowga4xCzAJBgNVBAYTAkRFMREwDwYD
VQQIEwhTYWFybGFuZDEQMA4GA1UEChMHTVBJLVNXUzEiMCAGA1UECxMZRGlzdHJp
YnV0ZWQgU3lzdGVtcyBHcm91cDExMC8GA1UEAxMoZjlkMWU4ODkxMzljNTFiNmQ0
OGIxNzRkZjY2N2IxMWJhZWM5NjQyODEjMCEGCSqGSIb3DQEJARYUbm9kZTA5ODNA
b2N0YXJpbmUuZGUwgZ8wDQYJKoZIhvcNAQEBBQADgY0AMIGJAoGBALn5MqjXHzCH
xaVwrBpQwAgj3dZ0jfOi+D3mF4D6T7l/KHhgJ1SxQSuPHZ3/L2yu4y4Zn6bBYnov
xLcwBGa3k2ysKOfac8DZtpjuQ9UKNk3GdlBmeqYEIhSs+DXd+mQ0Liym882jA6um
1UmJIfqWRnfBYzWgFRiq3eNtAghsps2FAgMBAAEwDQYJKoZIhvcNAQEEBQADgYEA
k+ENZpNyuI3djTG68wbViy5LDLR+caUWz5U8Hhuup0bWDsqSKV03C2uQPmsY+oPl
LCjfdqYKnRCZMzBshT7s/tKJj4AvZ88AIJ4zIytdVDMO2RyLfDheIxHSOGsj/zo/
kUPJsczTYNax0S/ea++qYz9pQDD4I7OptZ4hN/rpOlk=
-----END CERTIFICATE-----
