Certificate:
    Data:
        Version: 1 (0x0)
        Serial Number:
            9b:27:d7:e8:d1:ba:08:76
        Signature Algorithm: md5WithRSAEncryption
        Issuer: C=DE, ST=Saarland, O=MPI-SWS, OU=Distributed Systems Group, CN=Andreas Haeberlen/emailAddress=democa@octarine.de
        Validity
            Not Before: Apr 20 20:47:04 2015 GMT
            Not After : Apr 19 20:47:04 2016 GMT
        Subject: C=DE, ST=Saarland, O=MPI-SWS, OU=Distributed Systems Group, CN=5cd21f99b847a1574a5c7621d6fa564a22c426ed/emailAddress=node0158@octarine.de
        Subject Public Key Info:
            Public Key Algorithm: rsaEncryption
            RSA Public Key: (1024 bit)
                Modulus (1024 bit):
                    00:ad:89:0e:6d:88:7c:2f:99:09:3b:bc:3b:04:1c:
                    7b:a6:1b:60:f7:b3:c7:df:07:ba:1e:68:61:12:03:
                    fc:6b:3a:a7:ca:87:57:4e:8a:68:1d:06:7f:23:14:
                    15:02:95:4a:e5:61:f3:18:b1:9b:62:40:f7:50:cf:
                    53:e4:bc:f5:b8:e9:bc:8d:74:da:44:f7:d2:79:49:
                    a5:0c:d3:0e:f7:ab:74:67:ce:ce:6e:6a:80:47:cf:
                    42:62:b6:29:99:16:1d:25:2c:03:96:2a:76:d3:3f:
                    32:b5:f1:77:5f:f0:66:ec:f8:44:68:1e:16:5e:d2:
                    ff:15:0b:ff:97:ae:0c:b9:2b
                Exponent: 65537 (0x10001)
    Signature Algorithm: md5WithRSAEncryption
        99:e8:d9:a7:93:5a:2d:7d:21:ed:72:cc:70:0d:1d:24:e9:04:
        c2:0c:9b:39:06:1e:b3:ea:46:68:6e:6d:b3:ab:95:91:f1:e6:
        67:3e:2d:67:3c:5b:58:aa:59:06:b3:5b:3f:7a:bd:f3:d1:80:
        f6:3c:be:ac:a5:c8:91:ef:02:c2:77:55:d8:5d:6f:50:98:4a:
        dd:5a:7d:07:4b:d8:89:0e:15:64:70:a7:65:e6:bc:cd:fc:92:
        fc:ca:b6:e6:c9:87:bf:81:70:68:8f:4f:bf:90:c0:71:37:32:
        d3:e1:25:4d:7b:10:8e:aa:2b:4f:ef:4c:03:7f:9c:d9:9c:65:
        b0:f2
-----BEGIN CERTIFICATE-----
MIICvDCCAiUCCQCbJ9fo0boIdjANBgkqhkiG9w0BAQQFADCBlTELMAkGA1UEBhMC
REUxETAPBgNVBAgTCFNhYXJsYW5kMRAwDgYDVQQKEwdNUEktU1dTMSIwIAYDVQQL
ExlEaXN0cmlidXRlZCBTeXN0ZW1zIEdyb3VwMRowGAYDVQQDExFBbmRyZWFzIEhh
ZWJlcmxlbjEhMB8GCSqGSIb3DQEJARYSZGVtb2NhQG9jdGFyaW5lLmRlMB4XDTE1
MDQyMDIwNDcwNFoXDTE2MDQxOTIwNDcwNFowga4xCzAJBgNVBAYTAkRFMREwDwYD
VQQIEwhTYWFybGFuZDEQMA4GA1UEChMHTVBJLVNXUzEiMCAGA1UECxMZRGlzdHJp
YnV0ZWQgU3lzdGVtcyBHcm91cDExMC8GA1UEAxMoNWNkMjFmOTliODQ3YTE1NzRh
NWM3NjIxZDZmYTU2NGEyMmM0MjZlZDEjMCEGCSqGSIb3DQEJARYUbm9kZTAxNThA
b2N0YXJpbmUuZGUwgZ8wDQYJKoZIhvcNAQEBBQADgY0AMIGJAoGBAK2JDm2IfC+Z
CTu8OwQce6YbYPezx98Huh5oYRID/Gs6p8qHV06KaB0GfyMUFQKVSuVh8xixm2JA
91DPU+S89bjpvI102kT30nlJpQzTDverdGfOzm5qgEfPQmK2KZkWHSUsA5YqdtM/
MrXxd1/wZuz4RGgeFl7S/xUL/5euDLkrAgMBAAEwDQYJKoZIhvcNAQEEBQADgYEA
mejZp5NaLX0h7XLMcA0dJOkEwgybOQYes+pGaG5ts6uVkfHmZz4tZzxbWKpZBrNb
P3q989GA9jy+rKXIke8CwndV2F1vUJhK3Vp9B0vYiQ4VZHCnZea8zfyS/Mq25smH
v4FwaI9Pv5DAcTcy0+ElTXsQjqorT+9MA3+c2ZxlsPI=
-----END CERTIFICATE-----
