Certificate:
    Data:
        Version: 1 (0x0)
        Serial Number:
            9b:27:d7:e8:d1:ba:08:7e
        Signature Algorithm: md5WithRSAEncryption
        Issuer: C=DE, ST=Saarland, O=MPI-SWS, OU=Distributed Systems Group, CN=Andreas Haeberlen/emailAddress=democa@octarine.de
        Validity
            Not Before: Apr 20 20:47:04 2015 GMT
            Not After : Apr 19 20:47:04 2016 GMT
        Subject: C=DE, ST=Saarland, O=MPI-SWS, OU=Distributed Systems Group, CN=e0d8456f9c8c489e960d6a58c3d3dd5bd3418b11/emailAddress=node0166@octarine.de
        Subject Public Key Info:
            Public Key Algorithm: rsaEncryption
            RSA Public Key: (1024 bit)
                Modulus (1024 bit):
                    00:c6:4f:9c:94:b0:20:4b:d5:77:30:61:ee:60:d5:
                    31:f4:e1:08:91:cc:1c:09:f0:14:17:c7:23:b3:55:
                    4b:08:77:09:9d:31:c5:57:a4:18:a3:b2:6a:18:20:
                    7d:36:df:73:8f:d2:92:5b:30:40:f5:f8:dd:a7:59:
                    62:e3:3e:34:a7:98:24:78:6c:c3:96:86:86:1d:3e:
                    f1:a2:f8:f0:61:b1:d3:03:f1:e3:77:fd:51:c4:c4:
                    b1:85:c9:dc:2e:6a:d7:ef:73:ea:f4:cd:22:14:3d:
                    dc:c1:94:6c:b2:1e:35:ad:1b:8e:92:3c:ec:0d:f1:
                    63:64:70:de:ca:3f:5c:f1:df
                Exponent: 65537 (0x10001)
    Signature Algorithm: md5WithRSAEncryption
        78:94:14:50:31:f7:84:f3:72:c9:83:93:e4:cf:f6:a0:1d:4b:
        01:ce:5f:16:e4:29:cd:15:fd:39:ee:b0:f3:f8:1b:24:5e:4a:
        75:7e:a4:f0:d5:76:5a:af:08:c0:8c:b5:df:97:39:d0:de:38:
        c3:63:e9:05:b7:36:e8:ff:ee:eb:63:e9:82:ea:b7:83:03:4c:
        14:cb:e7:08:bf:a6:bc:5c:be:5f:89:9a:85:f7:53:46:2f:98:
        9a:ba:9e:2c:62:ee:6b:96:fe:93:a1:a4:fa:c8:62:cb:9e:94:
        7b:76:e2:00:e6:30:d5:2b:18:10:8b:55:83:f1:b7:82:c3:87:
        bd:d2
-----BEGIN CERTIFICATE-----
MIICvDCCAiUCCQCbJ9fo0boIfjANBgkqhkiG9w0BAQQFADCBlTELMAkGA1UEBhMC
REUxETAPBgNVBAgTCFNhYXJsYW5kMRAwDgYDVQQKEwdNUEktU1dTMSIwIAYDVQQL
ExlEaXN0cmlidXRlZCBTeXN0ZW1zIEdyb3VwMRowGAYDVQQDExFBbmRyZWFzIEhh
ZWJlcmxlbjEhMB8GCSqGSIb3DQEJARYSZGVtb2NhQG9jdGFyaW5lLmRlMB4XDTE1
MDQyMDIwNDcwNFoXDTE2MDQxOTIwNDcwNFowga4xCzAJBgNVBAYTAkRFMREwDwYD
VQQIEwhTYWFybGFuZDEQMA4GA1UEChMHTVBJLVNXUzEiMCAGA1UECxMZRGlzdHJp
YnV0ZWQgU3lzdGVtcyBHcm91cDExMC8GA1UEAxMoZTBkODQ1NmY5YzhjNDg5ZTk2
MGQ2YTU4YzNkM2RkNWJkMzQxOGIxMTEjMCEGCSqGSIb3DQEJARYUbm9kZTAxNjZA
b2N0YXJpbmUuZGUwgZ8wDQYJKoZIhvcNAQEBBQADgY0AMIGJAoGBAMZPnJSwIEvV
dzBh7mDVMfThCJHMHAnwFBfHI7NVSwh3CZ0xxVekGKOyahggfTbfc4/SklswQPX4
3adZYuM+NKeYJHhsw5aGhh0+8aL48GGx0wPx43f9UcTEsYXJ3C5q1+9z6vTNIhQ9
3MGUbLIeNa0bjpI87A3xY2Rw3so/XPHfAgMBAAEwDQYJKoZIhvcNAQEEBQADgYEA
eJQUUDH3hPNyyYOT5M/2oB1LAc5fFuQpzRX9Oe6w8/gbJF5KdX6k8NV2Wq8IwIy1
35c50N44w2PpBbc26P/u62Ppguq3gwNMFMvnCL+mvFy+X4mahfdTRi+YmrqeLGLu
a5b+k6Gk+shiy56Ue3biAOYw1SsYEItVg/G3gsOHvdI=
-----END CERTIFICATE-----
