Certificate:
    Data:
        Version: 1 (0x0)
        Serial Number:
            9b:27:d7:e8:d1:ba:08:df
        Signature Algorithm: md5WithRSAEncryption
        Issuer: C=DE, ST=Saarland, O=MPI-SWS, OU=Distributed Systems Group, CN=Andreas Haeberlen/emailAddress=democa@octarine.de
        Validity
            Not Before: Apr 20 20:47:08 2015 GMT
            Not After : Apr 19 20:47:08 2016 GMT
        Subject: C=DE, ST=Saarland, O=MPI-SWS, OU=Distributed Systems Group, CN=08ff77a13d46dc547c803d57b2283e63663ddee1/emailAddress=node0263@octarine.de
        Subject Public Key Info:
            Public Key Algorithm: rsaEncryption
            RSA Public Key: (1024 bit)
                Modulus (1024 bit):
                    00:c7:05:f1:5f:27:58:bf:76:0e:92:ae:f8:e7:ab:
                    7c:bc:a8:70:8c:d8:3e:a6:7b:fa:39:b5:62:48:02:
                    ef:4c:5f:3e:24:1d:76:02:6c:7d:4d:dd:4c:6c:fa:
                    24:1b:49:df:31:f0:dc:b9:de:72:ee:57:9d:f1:da:
                    6a:86:a3:45:41:5d:a9:80:13:34:46:6a:95:99:e6:
                    45:af:84:5d:3a:20:00:12:b3:bf:35:ac:b8:ee:a8:
                    9c:fc:da:ff:d7:c0:59:78:79:cc:00:62:74:1d:e8:
                    0a:51:63:7c:7e:33:5d:2e:b2:54:07:dd:cb:7a:49:
                    cf:7d:00:25:fd:d2:e0:12:ff
                Exponent: 65537 (0x10001)
    Signature Algorithm: md5WithRSAEncryption
        8e:30:b5:0d:aa:62:c5:05:43:50:54:aa:72:73:cc:a3:dc:40:
        c9:44:48:aa:74:a0:b3:0c:99:ee:7c:8b:3c:47:6b:ac:f5:05:
        62:b1:e6:b5:f8:3e:ec:63:61:f3:de:bb:07:a7:2b:e9:b2:ec:
        c9:bb:4f:47:48:e4:89:7a:fb:98:c9:54:73:6d:4e:66:6c:46:
        dc:86:d8:f2:1f:b9:c9:e2:74:8a:d8:71:ac:2a:65:3d:3b:a6:
        28:62:a0:42:e4:94:8c:8a:26:d8:21:bf:f2:43:87:39:91:9a:
        b1:60:28:8d:6e:be:15:05:11:9e:90:e6:db:ce:f6:4b:61:b7:
        a3:47
-----BEGIN CERTIFICATE-----
MIICvDCCAiUCCQCbJ9fo0boI3zANBgkqhkiG9w0BAQQFADCBlTELMAkGA1UEBhMC
REUxETAPBgNVBAgTCFNhYXJsYW5kMRAwDgYDVQQKEwdNUEktU1dTMSIwIAYDVQQL
ExlEaXN0cmlidXRlZCBTeXN0ZW1zIEdyb3VwMRowGAYDVQQDExFBbmRyZWFzIEhh
ZWJlcmxlbjEhMB8GCSqGSIb3DQEJARYSZGVtb2NhQG9jdGFyaW5lLmRlMB4XDTE1
MDQyMDIwNDcwOFoXDTE2MDQxOTIwNDcwOFowga4xCzAJBgNVBAYTAkRFMREwDwYD
VQQIEwhTYWFybGFuZDEQMA4GA1UEChMHTVBJLVNXUzEiMCAGA1UECxMZRGlzdHJp
YnV0ZWQgU3lzdGVtcyBHcm91cDExMC8GA1UEAxMoMDhmZjc3YTEzZDQ2ZGM1NDdj
ODAzZDU3YjIyODNlNjM2NjNkZGVlMTEjMCEGCSqGSIb3DQEJARYUbm9kZTAyNjNA
b2N0YXJpbmUuZGUwgZ8wDQYJKoZIhvcNAQEBBQADgY0AMIGJAoGBAMcF8V8nWL92
DpKu+OerfLyocIzYPqZ7+jm1YkgC70xfPiQddgJsfU3dTGz6JBtJ3zHw3Lnecu5X
nfHaaoajRUFdqYATNEZqlZnmRa+EXTogABKzvzWsuO6onPza/9fAWXh5zABidB3o
ClFjfH4zXS6yVAfdy3pJz30AJf3S4BL/AgMBAAEwDQYJKoZIhvcNAQEEBQADgYEA
jjC1DapixQVDUFSqcnPMo9xAyURIqnSgswyZ7nyLPEdrrPUFYrHmtfg+7GNh8967
B6cr6bLsybtPR0jkiXr7mMlUc21OZmxG3IbY8h+5yeJ0ithxrCplPTumKGKgQuSU
jIom2CG/8kOHOZGasWAojW6+FQURnpDm2872S2G3o0c=
-----END CERTIFICATE-----
