Certificate:
    Data:
        Version: 1 (0x0)
        Serial Number:
            9b:27:d7:e8:d1:ba:0a:6a
        Signature Algorithm: md5WithRSAEncryption
        Issuer: C=DE, ST=Saarland, O=MPI-SWS, OU=Distributed Systems Group, CN=Andreas Haeberlen/emailAddress=democa@octarine.de
        Validity
            Not Before: Apr 20 20:47:26 2015 GMT
            Not After : Apr 19 20:47:26 2016 GMT
        Subject: C=DE, ST=Saarland, O=MPI-SWS, OU=Distributed Systems Group, CN=0a191a8ee8df4fed1b2d99250ac09f2a943bfc9d/emailAddress=node0658@octarine.de
        Subject Public Key Info:
            Public Key Algorithm: rsaEncryption
            RSA Public Key: (1024 bit)
                Modulus (1024 bit):
                    00:b1:0e:32:43:43:0a:b6:a5:c9:c9:10:70:d1:85:
                    25:05:d5:3c:14:b9:4e:ed:b8:10:ec:b5:5c:df:07:
                    cc:4b:22:89:30:4a:a9:b8:5d:7e:bc:69:ca:1a:86:
                    78:8e:74:35:c5:14:73:c3:42:b3:15:c8:8b:20:5d:
                    8e:bf:96:a6:10:94:4e:a1:7b:c3:52:7d:62:78:20:
                    bd:3e:34:9f:c8:02:76:f4:d2:b7:b1:2b:a2:a4:13:
                    be:34:13:10:a3:1d:0e:7d:75:d1:7f:84:86:dc:a0:
                    d8:a6:f3:71:b1:d8:33:e6:78:90:17:49:d1:49:0b:
                    0c:0c:d0:b3:46:1f:08:3f:15
                Exponent: 65537 (0x10001)
    Signature Algorithm: md5WithRSAEncryption
        5f:dd:b5:e3:88:c5:68:5d:99:04:e6:57:83:b4:76:bb:f4:f6:
        f3:46:c2:4a:0a:6e:1c:66:d1:af:f2:7f:66:d6:67:a7:84:8e:
        bc:1c:bb:04:fb:b1:b7:5c:a9:f4:50:35:1a:5b:d6:73:0c:4f:
        3b:39:7a:74:cf:ef:b8:ae:90:e6:4a:97:74:28:24:28:3f:31:
        89:ee:c7:00:c7:31:f8:ed:bb:45:b0:8c:0e:3b:25:c4:a1:b2:
        46:b7:c6:5c:15:56:55:0c:f2:ae:62:3c:21:95:07:d1:fb:5e:
        b9:4a:47:4c:20:4c:54:26:87:b1:42:73:67:29:64:66:61:56:
        3b:96
-----BEGIN CERTIFICATE-----
MIICvDCCAiUCCQCbJ9fo0boKajANBgkqhkiG9w0BAQQFADCBlTELMAkGA1UEBhMC
REUxETAPBgNVBAgTCFNhYXJsYW5kMRAwDgYDVQQKEwdNUEktU1dTMSIwIAYDVQQL
ExlEaXN0cmlidXRlZCBTeXN0ZW1zIEdyb3VwMRowGAYDVQQDExFBbmRyZWFzIEhh
ZWJlcmxlbjEhMB8GCSqGSIb3DQEJARYSZGVtb2NhQG9jdGFyaW5lLmRlMB4XDTE1
MDQyMDIwNDcyNloXDTE2MDQxOTIwNDcyNlowga4xCzAJBgNVBAYTAkRFMREwDwYD
VQQIEwhTYWFybGFuZDEQMA4GA1UEChMHTVBJLVNXUzEiMCAGA1UECxMZRGlzdHJp
YnV0ZWQgU3lzdGVtcyBHcm91cDExMC8GA1UEAxMoMGExOTFhOGVlOGRmNGZlZDFi
MmQ5OTI1MGFjMDlmMmE5NDNiZmM5ZDEjMCEGCSqGSIb3DQEJARYUbm9kZTA2NThA
b2N0YXJpbmUuZGUwgZ8wDQYJKoZIhvcNAQEBBQADgY0AMIGJAoGBALEOMkNDCral
yckQcNGFJQXVPBS5Tu24EOy1XN8HzEsiiTBKqbhdfrxpyhqGeI50NcUUc8NCsxXI
iyBdjr+WphCUTqF7w1J9YnggvT40n8gCdvTSt7EroqQTvjQTEKMdDn110X+Ehtyg
2KbzcbHYM+Z4kBdJ0UkLDAzQs0YfCD8VAgMBAAEwDQYJKoZIhvcNAQEEBQADgYEA
X92144jFaF2ZBOZXg7R2u/T280bCSgpuHGbRr/J/ZtZnp4SOvBy7BPuxt1yp9FA1
GlvWcwxPOzl6dM/vuK6Q5kqXdCgkKD8xie7HAMcx+O27RbCMDjslxKGyRrfGXBVW
VQzyrmI8IZUH0fteuUpHTCBMVCaHsUJzZylkZmFWO5Y=
-----END CERTIFICATE-----
