Certificate:
    Data:
        Version: 1 (0x0)
        Serial Number:
            9b:27:d7:e8:d1:ba:0a:8b
        Signature Algorithm: md5WithRSAEncryption
        Issuer: C=DE, ST=Saarland, O=MPI-SWS, OU=Distributed Systems Group, CN=Andreas Haeberlen/emailAddress=democa@octarine.de
        Validity
            Not Before: Apr 20 20:47:27 2015 GMT
            Not After : Apr 19 20:47:27 2016 GMT
        Subject: C=DE, ST=Saarland, O=MPI-SWS, OU=Distributed Systems Group, CN=f8d2baf2e2d567081ebe3f47939b9c2850b0aa29/emailAddress=node0691@octarine.de
        Subject Public Key Info:
            Public Key Algorithm: rsaEncryption
            RSA Public Key: (1024 bit)
                Modulus (1024 bit):
                    00:cf:cc:7a:8f:dd:54:de:a6:43:65:58:be:51:91:
                    ca:5f:37:23:2e:24:84:2e:c6:6f:a9:0e:bf:17:c0:
                    81:01:d6:7c:42:67:67:d8:7e:3c:3a:50:cd:e0:55:
                    95:79:be:21:36:a3:2d:11:98:e6:16:58:30:84:e7:
                    a0:37:0a:79:ed:13:61:c4:70:1c:90:2f:7e:34:f6:
                    54:09:1a:13:8e:b8:44:05:82:c4:f5:5d:82:56:e3:
                    e3:d4:a9:19:0f:f5:fe:47:f7:93:b6:0f:4b:27:27:
                    3b:65:65:54:85:e2:99:c1:58:ab:f0:fa:6b:f9:71:
                    e3:b3:74:40:c5:64:d1:4f:01
                Exponent: 65537 (0x10001)
    Signature Algorithm: md5WithRSAEncryption
        c9:24:7b:ce:97:0b:be:a5:d3:81:dc:b0:f7:4a:23:fb:df:35:
        e4:f8:bb:b8:cc:88:0c:c6:d1:c5:e0:88:46:b2:44:dc:b5:2d:
        d4:0c:9e:8f:69:2f:5b:7a:3f:39:55:a7:54:e7:57:d8:c2:cf:
        cd:38:e4:5b:46:7f:1f:39:89:09:4d:79:1f:d1:24:fc:07:d7:
        19:ff:53:0c:7d:c3:7f:ce:ee:be:b2:fe:26:fa:70:3e:cb:12:
        cf:78:a3:e1:b6:6d:ae:d6:d4:ee:b4:2d:04:9e:40:c2:64:33:
        79:1e:7b:cb:b1:ca:4b:94:a3:4b:26:00:ff:c0:06:58:a9:51:
        33:0e
-----BEGIN CERTIFICATE-----
MIICvDCCAiUCCQCbJ9fo0boKizANBgkqhkiG9w0BAQQFADCBlTELMAkGA1UEBhMC
REUxETAPBgNVBAgTCFNhYXJsYW5kMRAwDgYDVQQKEwdNUEktU1dTMSIwIAYDVQQL
ExlEaXN0cmlidXRlZCBTeXN0ZW1zIEdyb3VwMRowGAYDVQQDExFBbmRyZWFzIEhh
ZWJlcmxlbjEhMB8GCSqGSIb3DQEJARYSZGVtb2NhQG9jdGFyaW5lLmRlMB4XDTE1
MDQyMDIwNDcyN1oXDTE2MDQxOTIwNDcyN1owga4xCzAJBgNVBAYTAkRFMREwDwYD
VQQIEwhTYWFybGFuZDEQMA4GA1UEChMHTVBJLVNXUzEiMCAGA1UECxMZRGlzdHJp
YnV0ZWQgU3lzdGVtcyBHcm91cDExMC8GA1UEAxMoZjhkMmJhZjJlMmQ1NjcwODFl
YmUzZjQ3OTM5YjljMjg1MGIwYWEyOTEjMCEGCSqGSIb3DQEJARYUbm9kZTA2OTFA
b2N0YXJpbmUuZGUwgZ8wDQYJKoZIhvcNAQEBBQADgY0AMIGJAoGBAM/Meo/dVN6m
Q2VYvlGRyl83Iy4khC7Gb6kOvxfAgQHWfEJnZ9h+PDpQzeBVlXm+ITajLRGY5hZY
MITnoDcKee0TYcRwHJAvfjT2VAkaE464RAWCxPVdglbj49SpGQ/1/kf3k7YPSycn
O2VlVIXimcFYq/D6a/lx47N0QMVk0U8BAgMBAAEwDQYJKoZIhvcNAQEEBQADgYEA
ySR7zpcLvqXTgdyw90oj+9815Pi7uMyIDMbRxeCIRrJE3LUt1Ayej2kvW3o/OVWn
VOdX2MLPzTjkW0Z/HzmJCU15H9Ek/AfXGf9TDH3Df87uvrL+JvpwPssSz3ij4bZt
rtbU7rQtBJ5AwmQzeR57y7HKS5SjSyYA/8AGWKlRMw4=
-----END CERTIFICATE-----
