Certificate:
    Data:
        Version: 1 (0x0)
        Serial Number:
            9b:27:d7:e8:d1:ba:08:8c
        Signature Algorithm: md5WithRSAEncryption
        Issuer: C=DE, ST=Saarland, O=MPI-SWS, OU=Distributed Systems Group, CN=Andreas Haeberlen/emailAddress=democa@octarine.de
        Validity
            Not Before: Apr 20 20:47:05 2015 GMT
            Not After : Apr 19 20:47:05 2016 GMT
        Subject: C=DE, ST=Saarland, O=MPI-SWS, OU=Distributed Systems Group, CN=b893ba3e4908c569f010ffe7ab95344fce27856c/emailAddress=node0180@octarine.de
        Subject Public Key Info:
            Public Key Algorithm: rsaEncryption
            RSA Public Key: (1024 bit)
                Modulus (1024 bit):
                    00:b8:c1:2d:81:68:32:f5:64:f7:d7:ba:d4:9d:e0:
                    b5:9a:63:c1:15:9c:30:b3:28:60:d5:e8:9d:e6:00:
                    9b:a4:fe:0d:9c:24:82:a7:45:74:b0:2a:fb:a4:bb:
                    b2:2d:47:0b:80:34:1b:fb:6a:07:be:9e:db:d2:3e:
                    25:a4:ad:06:fd:cb:ec:b6:dc:e7:50:8f:10:f1:4c:
                    77:85:5e:65:cb:b8:c0:86:35:62:cf:36:92:15:26:
                    f4:18:a8:cb:bc:49:0d:be:6e:d9:24:6c:f5:d5:e2:
                    50:50:07:b1:30:74:7b:c9:bb:a3:c5:7d:e2:87:ba:
                    d0:d9:40:d4:26:c4:46:3c:57
                Exponent: 65537 (0x10001)
    Signature Algorithm: md5WithRSAEncryption
        8f:89:1c:a1:9c:a0:4f:cd:c0:94:0a:2f:30:72:5d:ed:f6:45:
        3e:be:7e:c6:c6:6b:ff:48:9c:5d:60:29:01:a3:79:e6:bc:f8:
        0e:b7:ed:43:e6:c9:a0:9b:ce:75:90:ec:f4:60:50:ce:2f:c1:
        f7:d1:6e:0b:04:e9:01:9d:6b:02:ec:47:a0:4f:e5:69:58:f0:
        cd:d2:fe:da:b0:c4:cc:8c:46:ee:2d:ab:be:92:33:e6:e2:46:
        61:a0:6d:b2:9b:9c:1f:41:01:f6:6d:f7:70:b2:12:d6:9e:7e:
        4b:c4:4e:51:fa:a4:5b:2f:62:7a:f8:ce:34:29:c5:8a:30:c3:
        37:e8
-----BEGIN CERTIFICATE-----
MIICvDCCAiUCCQCbJ9fo0boIjDANBgkqhkiG9w0BAQQFADCBlTELMAkGA1UEBhMC
REUxETAPBgNVBAgTCFNhYXJsYW5kMRAwDgYDVQQKEwdNUEktU1dTMSIwIAYDVQQL
ExlEaXN0cmlidXRlZCBTeXN0ZW1zIEdyb3VwMRowGAYDVQQDExFBbmRyZWFzIEhh
ZWJlcmxlbjEhMB8GCSqGSIb3DQEJARYSZGVtb2NhQG9jdGFyaW5lLmRlMB4XDTE1
MDQyMDIwNDcwNVoXDTE2MDQxOTIwNDcwNVowga4xCzAJBgNVBAYTAkRFMREwDwYD
VQQIEwhTYWFybGFuZDEQMA4GA1UEChMHTVBJLVNXUzEiMCAGA1UECxMZRGlzdHJp
YnV0ZWQgU3lzdGVtcyBHcm91cDExMC8GA1UEAxMoYjg5M2JhM2U0OTA4YzU2OWYw
MTBmZmU3YWI5NTM0NGZjZTI3ODU2YzEjMCEGCSqGSIb3DQEJARYUbm9kZTAxODBA
b2N0YXJpbmUuZGUwgZ8wDQYJKoZIhvcNAQEBBQADgY0AMIGJAoGBALjBLYFoMvVk
99e61J3gtZpjwRWcMLMoYNXoneYAm6T+DZwkgqdFdLAq+6S7si1HC4A0G/tqB76e
29I+JaStBv3L7Lbc51CPEPFMd4VeZcu4wIY1Ys82khUm9Bioy7xJDb5u2SRs9dXi
UFAHsTB0e8m7o8V94oe60NlA1CbERjxXAgMBAAEwDQYJKoZIhvcNAQEEBQADgYEA
j4kcoZygT83AlAovMHJd7fZFPr5+xsZr/0icXWApAaN55rz4DrftQ+bJoJvOdZDs
9GBQzi/B99FuCwTpAZ1rAuxHoE/laVjwzdL+2rDEzIxG7i2rvpIz5uJGYaBtspuc
H0EB9m33cLIS1p5+S8ROUfqkWy9ievjONCnFijDDN+g=
-----END CERTIFICATE-----
