Certificate:
    Data:
        Version: 1 (0x0)
        Serial Number:
            9b:27:d7:e8:d1:ba:0a:0a
        Signature Algorithm: md5WithRSAEncryption
        Issuer: C=DE, ST=Saarland, O=MPI-SWS, OU=Distributed Systems Group, CN=Andreas Haeberlen/emailAddress=democa@octarine.de
        Validity
            Not Before: Apr 20 20:47:21 2015 GMT
            Not After : Apr 19 20:47:21 2016 GMT
        Subject: C=DE, ST=Saarland, O=MPI-SWS, OU=Distributed Systems Group, CN=9d1fd246c4f7a84832df414961177931650474a4/emailAddress=node0562@octarine.de
        Subject Public Key Info:
            Public Key Algorithm: rsaEncryption
            RSA Public Key: (1024 bit)
                Modulus (1024 bit):
                    00:b0:e9:0c:5e:75:13:62:27:a1:3e:e2:c6:34:f6:
                    81:8e:fa:ce:9f:c0:85:e9:40:14:26:10:3d:0b:c1:
                    78:99:e4:7b:ea:f5:64:a0:b2:ef:f6:d3:50:5c:53:
                    d2:90:55:aa:64:13:65:a8:a2:c0:76:e2:9f:2d:e0:
                    f4:70:a4:33:b0:f4:76:70:26:df:e9:42:7a:4c:ed:
                    87:f0:8a:ec:ad:cc:04:8c:bd:50:96:0f:6b:7c:8d:
                    5a:96:64:02:dd:3e:09:54:18:7a:e0:4a:cb:a0:72:
                    34:06:90:6b:23:17:03:e7:58:1e:60:e0:3b:1a:66:
                    a4:d8:37:41:0f:30:ef:69:35
                Exponent: 65537 (0x10001)
    Signature Algorithm: md5WithRSAEncryption
        79:e2:2d:b7:a9:04:52:23:ec:da:49:d1:ec:e2:a2:a0:8b:0d:
        ed:d7:89:aa:1b:ef:a6:7b:68:83:7b:94:9e:54:a6:d5:e3:57:
        93:15:bd:a9:2a:e9:26:9b:64:dd:f1:51:98:e1:cd:d4:48:3a:
        6e:b5:81:8c:12:f3:9e:b0:c5:52:01:70:03:dd:0a:32:13:38:
        e6:27:60:e7:07:8c:0a:27:cd:2a:c8:a1:15:be:0b:b3:15:9b:
        29:4e:ae:ed:4a:41:2b:70:e4:66:49:2c:ad:81:5f:ee:87:4f:
        c8:fe:8a:0b:b0:36:62:1b:19:95:0a:31:ce:df:b4:c3:ef:a1:
        e9:f2
-----BEGIN CERTIFICATE-----
MIICvDCCAiUCCQCbJ9fo0boKCjANBgkqhkiG9w0BAQQFADCBlTELMAkGA1UEBhMC
REUxETAPBgNVBAgTCFNhYXJsYW5kMRAwDgYDVQQKEwdNUEktU1dTMSIwIAYDVQQL
ExlEaXN0cmlidXRlZCBTeXN0ZW1zIEdyb3VwMRowGAYDVQQDExFBbmRyZWFzIEhh
ZWJlcmxlbjEhMB8GCSqGSIb3DQEJARYSZGVtb2NhQG9jdGFyaW5lLmRlMB4XDTE1
MDQyMDIwNDcyMVoXDTE2MDQxOTIwNDcyMVowga4xCzAJBgNVBAYTAkRFMREwDwYD
VQQIEwhTYWFybGFuZDEQMA4GA1UEChMHTVBJLVNXUzEiMCAGA1UECxMZRGlzdHJp
YnV0ZWQgU3lzdGVtcyBHcm91cDExMC8GA1UEAxMoOWQxZmQyNDZjNGY3YTg0ODMy
ZGY0MTQ5NjExNzc5MzE2NTA0NzRhNDEjMCEGCSqGSIb3DQEJARYUbm9kZTA1NjJA
b2N0YXJpbmUuZGUwgZ8wDQYJKoZIhvcNAQEBBQADgY0AMIGJAoGBALDpDF51E2In
oT7ixjT2gY76zp/AhelAFCYQPQvBeJnke+r1ZKCy7/bTUFxT0pBVqmQTZaiiwHbi
ny3g9HCkM7D0dnAm3+lCekzth/CK7K3MBIy9UJYPa3yNWpZkAt0+CVQYeuBKy6By
NAaQayMXA+dYHmDgOxpmpNg3QQ8w72k1AgMBAAEwDQYJKoZIhvcNAQEEBQADgYEA
eeItt6kEUiPs2knR7OKioIsN7deJqhvvpntog3uUnlSm1eNXkxW9qSrpJptk3fFR
mOHN1Eg6brWBjBLznrDFUgFwA90KMhM45idg5weMCifNKsihFb4LsxWbKU6u7UpB
K3DkZkksrYFf7odPyP6KC7A2YhsZlQoxzt+0w++h6fI=
-----END CERTIFICATE-----
