Certificate:
    Data:
        Version: 1 (0x0)
        Serial Number:
            9b:27:d7:e8:d1:ba:0b:ba
        Signature Algorithm: md5WithRSAEncryption
        Issuer: C=DE, ST=Saarland, O=MPI-SWS, OU=Distributed Systems Group, CN=Andreas Haeberlen/emailAddress=democa@octarine.de
        Validity
            Not Before: Apr 20 20:47:41 2015 GMT
            Not After : Apr 19 20:47:41 2016 GMT
        Subject: C=DE, ST=Saarland, O=MPI-SWS, OU=Distributed Systems Group, CN=256a39dabb315939901cca8fdebb73898e4c8264/emailAddress=node0994@octarine.de
        Subject Public Key Info:
            Public Key Algorithm: rsaEncryption
            RSA Public Key: (1024 bit)
                Modulus (1024 bit):
                    00:c8:48:d5:3a:8a:2b:d1:86:5c:4a:6f:3e:75:9f:
                    a0:a0:6a:07:92:9d:43:36:3b:cf:19:52:f7:0c:5d:
                    8c:08:39:7f:8a:d6:ec:06:cf:10:5d:d7:6f:46:6b:
                    6e:e9:b0:d7:5f:4e:a8:e6:3d:26:e4:88:30:e2:26:
                    56:ef:a7:fa:95:dd:3d:df:84:07:ea:43:6f:c0:b9:
                    28:03:44:c1:d3:61:44:d4:e9:44:46:e7:ad:31:05:
                    be:ef:31:2a:1b:57:8e:49:b1:0b:2e:27:78:22:f0:
                    85:1a:12:4f:f7:c9:dd:32:17:8f:44:d3:6b:b1:c2:
                    1c:69:eb:44:77:00:cf:8f:6d
                Exponent: 65537 (0x10001)
    Signature Algorithm: md5WithRSAEncryption
        aa:b2:09:bc:e6:b7:01:a0:b3:3d:6c:91:d2:46:19:64:8c:50:
        ea:1d:c4:29:c3:be:34:f1:fd:bb:52:44:13:ff:31:b4:14:3d:
        59:79:7c:98:4e:0a:fe:5d:7e:4f:84:e1:ff:61:42:4c:9f:a9:
        68:f3:96:b3:bb:50:93:6c:98:d9:d1:b9:dc:fb:9e:b9:df:0c:
        71:bb:2a:0d:db:2c:5a:cb:b1:bb:25:d1:af:df:1b:cf:73:39:
        b0:ed:e6:9c:d6:47:6d:8c:6e:45:c4:91:b3:5c:23:46:cf:dd:
        25:20:6f:40:88:86:94:f3:f6:db:8b:42:bd:77:05:83:b7:34:
        d4:9b
-----BEGIN CERTIFICATE-----
MIICvDCCAiUCCQCbJ9fo0boLujANBgkqhkiG9w0BAQQFADCBlTELMAkGA1UEBhMC
REUxETAPBgNVBAgTCFNhYXJsYW5kMRAwDgYDVQQKEwdNUEktU1dTMSIwIAYDVQQL
ExlEaXN0cmlidXRlZCBTeXN0ZW1zIEdyb3VwMRowGAYDVQQDExFBbmRyZWFzIEhh
ZWJlcmxlbjEhMB8GCSqGSIb3DQEJARYSZGVtb2NhQG9jdGFyaW5lLmRlMB4XDTE1
MDQyMDIwNDc0MVoXDTE2MDQxOTIwNDc0MVowga4xCzAJBgNVBAYTAkRFMREwDwYD
VQQIEwhTYWFybGFuZDEQMA4GA1UEChMHTVBJLVNXUzEiMCAGA1UECxMZRGlzdHJp
YnV0ZWQgU3lzdGVtcyBHcm91cDExMC8GA1UEAxMoMjU2YTM5ZGFiYjMxNTkzOTkw
MWNjYThmZGViYjczODk4ZTRjODI2NDEjMCEGCSqGSIb3DQEJARYUbm9kZTA5OTRA
b2N0YXJpbmUuZGUwgZ8wDQYJKoZIhvcNAQEBBQADgY0AMIGJAoGBAMhI1TqKK9GG
XEpvPnWfoKBqB5KdQzY7zxlS9wxdjAg5f4rW7AbPEF3Xb0Zrbumw119OqOY9JuSI
MOImVu+n+pXdPd+EB+pDb8C5KANEwdNhRNTpREbnrTEFvu8xKhtXjkmxCy4neCLw
hRoST/fJ3TIXj0TTa7HCHGnrRHcAz49tAgMBAAEwDQYJKoZIhvcNAQEEBQADgYEA
qrIJvOa3AaCzPWyR0kYZZIxQ6h3EKcO+NPH9u1JEE/8xtBQ9WXl8mE4K/l1+T4Th
/2FCTJ+paPOWs7tQk2yY2dG53Pueud8McbsqDdssWsuxuyXRr98bz3M5sO3mnNZH
bYxuRcSRs1wjRs/dJSBvQIiGlPP224tCvXcFg7c01Js=
-----END CERTIFICATE-----
