Certificate:
    Data:
        Version: 1 (0x0)
        Serial Number:
            9b:27:d7:e8:d1:ba:0a:8f
        Signature Algorithm: md5WithRSAEncryption
        Issuer: C=DE, ST=Saarland, O=MPI-SWS, OU=Distributed Systems Group, CN=Andreas Haeberlen/emailAddress=democa@octarine.de
        Validity
            Not Before: Apr 20 20:47:27 2015 GMT
            Not After : Apr 19 20:47:27 2016 GMT
        Subject: C=DE, ST=Saarland, O=MPI-SWS, OU=Distributed Systems Group, CN=5bce6c189e8832aea982fbced4db8e5da1c0ed87/emailAddress=node0695@octarine.de
        Subject Public Key Info:
            Public Key Algorithm: rsaEncryption
            RSA Public Key: (1024 bit)
                Modulus (1024 bit):
                    00:a6:ca:13:e2:4e:77:52:60:6d:85:8d:09:1d:6f:
                    14:18:a4:84:a4:3e:8b:9a:87:c5:22:a7:c6:3b:f2:
                    77:7c:d0:7b:5a:b9:32:2c:27:1a:3f:e4:41:b2:d3:
                    5d:81:f4:03:ca:e4:39:d7:55:bb:cc:c3:74:8d:e0:
                    9b:9b:39:98:81:6b:d1:1c:f5:37:ec:4a:f8:c3:d0:
                    44:fd:47:ee:27:58:df:98:10:6d:a1:0e:a1:22:06:
                    f3:39:0a:fc:72:9a:95:6b:84:bd:95:de:d2:a1:31:
                    96:6e:d7:ed:53:4d:40:73:3c:42:7c:ad:3d:fd:e9:
                    6b:5b:67:9b:81:92:36:43:f3
                Exponent: 65537 (0x10001)
    Signature Algorithm: md5WithRSAEncryption
        06:bb:7d:1b:c9:b6:57:26:df:08:38:de:8c:47:1b:36:a8:aa:
        b9:69:b4:9f:9a:f7:ca:62:00:7a:c9:6e:51:66:16:72:7e:12:
        a7:c0:fe:7a:5b:e6:76:49:4e:cb:f5:e0:f5:e3:9e:27:e2:0c:
        74:92:e2:be:91:c1:50:e6:a0:5e:8b:1c:f3:bc:5a:7c:62:43:
        15:fa:5c:72:af:ec:05:8b:7e:35:94:04:11:2a:a4:e2:18:48:
        fb:97:71:8b:5c:21:a1:8b:1f:c0:5c:bf:f8:d9:98:08:83:cd:
        50:c7:18:4f:a7:68:89:1b:23:7d:b1:4f:9b:d3:1f:35:00:9a:
        06:f0
-----BEGIN CERTIFICATE-----
MIICvDCCAiUCCQCbJ9fo0boKjzANBgkqhkiG9w0BAQQFADCBlTELMAkGA1UEBhMC
REUxETAPBgNVBAgTCFNhYXJsYW5kMRAwDgYDVQQKEwdNUEktU1dTMSIwIAYDVQQL
ExlEaXN0cmlidXRlZCBTeXN0ZW1zIEdyb3VwMRowGAYDVQQDExFBbmRyZWFzIEhh
ZWJlcmxlbjEhMB8GCSqGSIb3DQEJARYSZGVtb2NhQG9jdGFyaW5lLmRlMB4XDTE1
MDQyMDIwNDcyN1oXDTE2MDQxOTIwNDcyN1owga4xCzAJBgNVBAYTAkRFMREwDwYD
VQQIEwhTYWFybGFuZDEQMA4GA1UEChMHTVBJLVNXUzEiMCAGA1UECxMZRGlzdHJp
YnV0ZWQgU3lzdGVtcyBHcm91cDExMC8GA1UEAxMoNWJjZTZjMTg5ZTg4MzJhZWE5
ODJmYmNlZDRkYjhlNWRhMWMwZWQ4NzEjMCEGCSqGSIb3DQEJARYUbm9kZTA2OTVA
b2N0YXJpbmUuZGUwgZ8wDQYJKoZIhvcNAQEBBQADgY0AMIGJAoGBAKbKE+JOd1Jg
bYWNCR1vFBikhKQ+i5qHxSKnxjvyd3zQe1q5MiwnGj/kQbLTXYH0A8rkOddVu8zD
dI3gm5s5mIFr0Rz1N+xK+MPQRP1H7idY35gQbaEOoSIG8zkK/HKalWuEvZXe0qEx
lm7X7VNNQHM8QnytPf3pa1tnm4GSNkPzAgMBAAEwDQYJKoZIhvcNAQEEBQADgYEA
Brt9G8m2VybfCDjejEcbNqiquWm0n5r3ymIAesluUWYWcn4Sp8D+elvmdklOy/Xg
9eOeJ+IMdJLivpHBUOagXosc87xafGJDFfpccq/sBYt+NZQEESqk4hhI+5dxi1wh
oYsfwFy/+NmYCIPNUMcYT6doiRsjfbFPm9MfNQCaBvA=
-----END CERTIFICATE-----
