Certificate:
    Data:
        Version: 1 (0x0)
        Serial Number:
            9b:27:d7:e8:d1:ba:07:e9
        Signature Algorithm: md5WithRSAEncryption
        Issuer: C=DE, ST=Saarland, O=MPI-SWS, OU=Distributed Systems Group, CN=Andreas Haeberlen/emailAddress=democa@octarine.de
        Validity
            Not Before: Apr 20 20:46:57 2015 GMT
            Not After : Apr 19 20:46:57 2016 GMT
        Subject: C=DE, ST=Saarland, O=MPI-SWS, OU=Distributed Systems Group, CN=3feed4ada35ef6b4d8f5409cf5d8974c72b47511/emailAddress=node0017@octarine.de
        Subject Public Key Info:
            Public Key Algorithm: rsaEncryption
            RSA Public Key: (1024 bit)
                Modulus (1024 bit):
                    00:df:56:79:ed:c5:d4:54:d0:bb:29:44:ec:01:10:
                    f8:86:29:58:d6:4f:29:9e:59:43:b9:f1:4f:67:a3:
                    74:1b:23:30:90:27:ed:d1:d8:90:a5:2b:13:8f:e7:
                    33:bb:9c:8a:ef:1e:ee:95:a9:38:15:10:82:ca:fb:
                    56:b3:1c:46:8f:6c:ad:c7:25:92:f9:9d:50:0a:0a:
                    7d:cb:d7:7b:52:2a:4d:a0:3b:d6:6f:71:b0:6c:92:
                    86:bb:4d:83:9a:36:40:df:f0:c9:dc:8c:5f:a0:f4:
                    e8:45:a4:b5:27:ce:d2:5b:42:ac:d4:af:a6:27:c4:
                    89:57:9a:25:d0:13:72:cf:fd
                Exponent: 65537 (0x10001)
    Signature Algorithm: md5WithRSAEncryption
        82:ed:79:99:0f:f7:f1:b1:95:45:c3:ee:2f:dc:d2:f5:66:c3:
        4b:c4:5f:93:c8:cd:bd:a4:5b:9c:bb:a5:c5:78:cf:23:f6:b7:
        7c:39:a5:f3:18:d8:93:f1:fc:4b:ad:1b:92:ad:cb:08:be:41:
        2a:09:2f:09:b3:2f:9d:6b:7b:96:ce:26:62:76:68:af:9c:3d:
        31:8c:f9:12:72:40:06:83:7d:74:6f:ce:83:7d:c2:0d:d7:6e:
        40:f2:8a:4c:0d:c7:1c:c1:d5:06:b1:e7:2a:be:fd:37:a7:69:
        0c:4b:24:a9:10:b5:0a:2d:85:0d:9f:38:20:25:d5:8d:01:82:
        41:0a
-----BEGIN CERTIFICATE-----
MIICvDCCAiUCCQCbJ9fo0boH6TANBgkqhkiG9w0BAQQFADCBlTELMAkGA1UEBhMC
REUxETAPBgNVBAgTCFNhYXJsYW5kMRAwDgYDVQQKEwdNUEktU1dTMSIwIAYDVQQL
ExlEaXN0cmlidXRlZCBTeXN0ZW1zIEdyb3VwMRowGAYDVQQDExFBbmRyZWFzIEhh
ZWJlcmxlbjEhMB8GCSqGSIb3DQEJARYSZGVtb2NhQG9jdGFyaW5lLmRlMB4XDTE1
MDQyMDIwNDY1N1oXDTE2MDQxOTIwNDY1N1owga4xCzAJBgNVBAYTAkRFMREwDwYD
VQQIEwhTYWFybGFuZDEQMA4GA1UEChMHTVBJLVNXUzEiMCAGA1UECxMZRGlzdHJp
YnV0ZWQgU3lzdGVtcyBHcm91cDExMC8GA1UEAxMoM2ZlZWQ0YWRhMzVlZjZiNGQ4
ZjU0MDljZjVkODk3NGM3MmI0NzUxMTEjMCEGCSqGSIb3DQEJARYUbm9kZTAwMTdA
b2N0YXJpbmUuZGUwgZ8wDQYJKoZIhvcNAQEBBQADgY0AMIGJAoGBAN9Wee3F1FTQ
uylE7AEQ+IYpWNZPKZ5ZQ7nxT2ejdBsjMJAn7dHYkKUrE4/nM7uciu8e7pWpOBUQ
gsr7VrMcRo9srcclkvmdUAoKfcvXe1IqTaA71m9xsGyShrtNg5o2QN/wydyMX6D0
6EWktSfO0ltCrNSvpifEiVeaJdATcs/9AgMBAAEwDQYJKoZIhvcNAQEEBQADgYEA
gu15mQ/38bGVRcPuL9zS9WbDS8Rfk8jNvaRbnLulxXjPI/a3fDml8xjYk/H8S60b
kq3LCL5BKgkvCbMvnWt7ls4mYnZor5w9MYz5EnJABoN9dG/Og33CDdduQPKKTA3H
HMHVBrHnKr79N6dpDEskqRC1Ci2FDZ84ICXVjQGCQQo=
-----END CERTIFICATE-----
