Certificate:
    Data:
        Version: 1 (0x0)
        Serial Number:
            9b:27:d7:e8:d1:ba:08:a6
        Signature Algorithm: md5WithRSAEncryption
        Issuer: C=DE, ST=Saarland, O=MPI-SWS, OU=Distributed Systems Group, CN=Andreas Haeberlen/emailAddress=democa@octarine.de
        Validity
            Not Before: Apr 20 20:47:06 2015 GMT
            Not After : Apr 19 20:47:06 2016 GMT
        Subject: C=DE, ST=Saarland, O=MPI-SWS, OU=Distributed Systems Group, CN=007842a36eb0ef762a6577d2afc4e31f4988b2b2/emailAddress=node0206@octarine.de
        Subject Public Key Info:
            Public Key Algorithm: rsaEncryption
            RSA Public Key: (1024 bit)
                Modulus (1024 bit):
                    00:c2:4b:03:83:fe:e0:b5:96:a4:4a:d6:60:ea:be:
                    1b:b4:58:2a:b5:8b:fb:42:db:35:00:78:30:6a:5e:
                    85:69:6a:66:20:d9:ba:ee:1e:6a:e3:b5:3d:0b:61:
                    fe:de:92:cc:b8:3a:4b:de:4b:e8:b9:52:30:31:42:
                    25:cb:20:39:6b:b8:a1:c8:17:9d:33:df:ba:9e:c0:
                    52:74:56:df:93:8b:f1:77:51:02:81:47:3e:02:b7:
                    06:3a:da:74:da:92:a5:e3:04:05:0c:41:f4:98:e5:
                    89:1e:1c:e2:c0:06:10:61:73:4c:45:a0:33:e6:d5:
                    c2:ef:18:88:82:56:c3:56:19
                Exponent: 65537 (0x10001)
    Signature Algorithm: md5WithRSAEncryption
        63:ed:33:df:85:c4:03:c0:2b:59:15:e9:47:e1:36:63:24:1f:
        eb:a9:f5:0d:f0:59:54:6b:6b:01:60:9e:ce:5e:94:f0:7d:3c:
        ee:97:c9:2c:ce:e0:71:f0:c2:ec:27:bd:81:e0:f1:fa:c0:ee:
        e6:52:6f:8c:c0:56:8b:35:54:5f:cb:de:f9:2d:c4:44:1a:86:
        f3:4a:67:91:c9:78:4b:3e:97:e7:3e:43:dc:0e:fe:af:c4:48:
        8c:b5:fd:40:3f:63:d6:80:7c:2f:3d:d5:8b:60:db:32:59:b0:
        8c:26:67:c8:8c:e6:bd:f2:72:55:68:04:9f:44:86:1e:6e:ac:
        b9:2f
-----BEGIN CERTIFICATE-----
MIICvDCCAiUCCQCbJ9fo0boIpjANBgkqhkiG9w0BAQQFADCBlTELMAkGA1UEBhMC
REUxETAPBgNVBAgTCFNhYXJsYW5kMRAwDgYDVQQKEwdNUEktU1dTMSIwIAYDVQQL
ExlEaXN0cmlidXRlZCBTeXN0ZW1zIEdyb3VwMRowGAYDVQQDExFBbmRyZWFzIEhh
ZWJlcmxlbjEhMB8GCSqGSIb3DQEJARYSZGVtb2NhQG9jdGFyaW5lLmRlMB4XDTE1
MDQyMDIwNDcwNloXDTE2MDQxOTIwNDcwNlowga4xCzAJBgNVBAYTAkRFMREwDwYD
VQQIEwhTYWFybGFuZDEQMA4GA1UEChMHTVBJLVNXUzEiMCAGA1UECxMZRGlzdHJp
YnV0ZWQgU3lzdGVtcyBHcm91cDExMC8GA1UEAxMoMDA3ODQyYTM2ZWIwZWY3NjJh
NjU3N2QyYWZjNGUzMWY0OTg4YjJiMjEjMCEGCSqGSIb3DQEJARYUbm9kZTAyMDZA
b2N0YXJpbmUuZGUwgZ8wDQYJKoZIhvcNAQEBBQADgY0AMIGJAoGBAMJLA4P+4LWW
pErWYOq+G7RYKrWL+0LbNQB4MGpehWlqZiDZuu4eauO1PQth/t6SzLg6S95L6LlS
MDFCJcsgOWu4ocgXnTPfup7AUnRW35OL8XdRAoFHPgK3BjradNqSpeMEBQxB9Jjl
iR4c4sAGEGFzTEWgM+bVwu8YiIJWw1YZAgMBAAEwDQYJKoZIhvcNAQEEBQADgYEA
Y+0z34XEA8ArWRXpR+E2YyQf66n1DfBZVGtrAWCezl6U8H087pfJLM7gcfDC7Ce9
geDx+sDu5lJvjMBWizVUX8ve+S3ERBqG80pnkcl4Sz6X5z5D3A7+r8RIjLX9QD9j
1oB8Lz3Vi2DbMlmwjCZnyIzmvfJyVWgEn0SGHm6suS8=
-----END CERTIFICATE-----
