Certificate:
    Data:
        Version: 1 (0x0)
        Serial Number:
            9b:27:d7:e8:d1:ba:08:b1
        Signature Algorithm: md5WithRSAEncryption
        Issuer: C=DE, ST=Saarland, O=MPI-SWS, OU=Distributed Systems Group, CN=Andreas Haeberlen/emailAddress=democa@octarine.de
        Validity
            Not Before: Apr 20 20:47:06 2015 GMT
            Not After : Apr 19 20:47:06 2016 GMT
        Subject: C=DE, ST=Saarland, O=MPI-SWS, OU=Distributed Systems Group, CN=b76ce47ac1e7f553ee4e3efacd0a9a95201058b1/emailAddress=node0217@octarine.de
        Subject Public Key Info:
            Public Key Algorithm: rsaEncryption
            RSA Public Key: (1024 bit)
                Modulus (1024 bit):
                    00:ce:72:27:a0:23:8f:21:d7:eb:2e:53:2f:85:b5:
                    72:6b:50:8f:83:03:f6:ff:4f:cb:9c:59:a9:72:66:
                    e5:67:a0:72:65:3f:21:a9:19:45:cb:2d:b9:5d:9a:
                    a9:4a:7d:33:18:d1:9b:81:3a:64:ae:26:9d:3f:e9:
                    c6:57:27:c7:91:08:78:4b:c1:a3:48:8b:3d:b9:63:
                    66:11:dc:c5:b6:f9:fc:52:67:4b:7f:ce:c0:1d:44:
                    b3:9d:0d:52:33:68:e2:78:62:90:0b:32:ca:82:5a:
                    7c:7c:05:53:b3:81:3f:63:36:cc:1b:43:b5:d0:af:
                    bb:39:b7:59:0d:ed:93:b0:d7
                Exponent: 65537 (0x10001)
    Signature Algorithm: md5WithRSAEncryption
        85:25:19:ca:28:04:79:83:69:25:cc:5d:e8:d8:1d:30:bf:d1:
        da:2e:9b:6a:1c:aa:3d:14:95:8a:34:78:0d:7c:41:1e:03:d0:
        b6:84:37:2a:ad:8c:b5:33:28:d0:ff:c4:0a:34:30:20:b5:e0:
        1c:52:98:0e:a3:8d:a4:a5:ef:2c:a9:6a:23:2b:45:b4:4c:d7:
        a1:bb:f2:29:71:8e:f7:f2:28:9b:fd:10:9a:bb:84:c0:13:62:
        b9:33:35:0d:10:10:76:f5:25:cf:96:48:7a:64:12:7f:aa:8a:
        38:2f:98:c5:19:fd:8e:04:3a:64:67:bf:06:83:81:20:46:44:
        85:3c
-----BEGIN CERTIFICATE-----
MIICvDCCAiUCCQCbJ9fo0boIsTANBgkqhkiG9w0BAQQFADCBlTELMAkGA1UEBhMC
REUxETAPBgNVBAgTCFNhYXJsYW5kMRAwDgYDVQQKEwdNUEktU1dTMSIwIAYDVQQL
ExlEaXN0cmlidXRlZCBTeXN0ZW1zIEdyb3VwMRowGAYDVQQDExFBbmRyZWFzIEhh
ZWJlcmxlbjEhMB8GCSqGSIb3DQEJARYSZGVtb2NhQG9jdGFyaW5lLmRlMB4XDTE1
MDQyMDIwNDcwNloXDTE2MDQxOTIwNDcwNlowga4xCzAJBgNVBAYTAkRFMREwDwYD
VQQIEwhTYWFybGFuZDEQMA4GA1UEChMHTVBJLVNXUzEiMCAGA1UECxMZRGlzdHJp
YnV0ZWQgU3lzdGVtcyBHcm91cDExMC8GA1UEAxMoYjc2Y2U0N2FjMWU3ZjU1M2Vl
NGUzZWZhY2QwYTlhOTUyMDEwNThiMTEjMCEGCSqGSIb3DQEJARYUbm9kZTAyMTdA
b2N0YXJpbmUuZGUwgZ8wDQYJKoZIhvcNAQEBBQADgY0AMIGJAoGBAM5yJ6AjjyHX
6y5TL4W1cmtQj4MD9v9Py5xZqXJm5WegcmU/IakZRcstuV2aqUp9MxjRm4E6ZK4m
nT/pxlcnx5EIeEvBo0iLPbljZhHcxbb5/FJnS3/OwB1Es50NUjNo4nhikAsyyoJa
fHwFU7OBP2M2zBtDtdCvuzm3WQ3tk7DXAgMBAAEwDQYJKoZIhvcNAQEEBQADgYEA
hSUZyigEeYNpJcxd6NgdML/R2i6bahyqPRSVijR4DXxBHgPQtoQ3Kq2MtTMo0P/E
CjQwILXgHFKYDqONpKXvLKlqIytFtEzXobvyKXGO9/Iom/0QmruEwBNiuTM1DRAQ
dvUlz5ZIemQSf6qKOC+YxRn9jgQ6ZGe/BoOBIEZEhTw=
-----END CERTIFICATE-----
