Certificate:
    Data:
        Version: 1 (0x0)
        Serial Number:
            9b:27:d7:e8:d1:ba:0a:02
        Signature Algorithm: md5WithRSAEncryption
        Issuer: C=DE, ST=Saarland, O=MPI-SWS, OU=Distributed Systems Group, CN=Andreas Haeberlen/emailAddress=democa@octarine.de
        Validity
            Not Before: Apr 20 20:47:21 2015 GMT
            Not After : Apr 19 20:47:21 2016 GMT
        Subject: C=DE, ST=Saarland, O=MPI-SWS, OU=Distributed Systems Group, CN=8d32d81a426f31e2a28f9ce02e30372c45e1dfc2/emailAddress=node0554@octarine.de
        Subject Public Key Info:
            Public Key Algorithm: rsaEncryption
            RSA Public Key: (1024 bit)
                Modulus (1024 bit):
                    00:cc:75:12:1d:96:a0:31:86:d0:34:d8:e9:cc:2d:
                    a3:d8:98:7d:1c:3f:70:57:cd:67:16:5f:a0:4c:0f:
                    02:e2:f8:58:00:3e:17:2c:ba:05:c4:d4:bb:94:28:
                    46:fe:d5:2a:38:8e:82:6f:c3:86:a9:bd:20:7f:52:
                    1c:c8:e7:0e:f1:08:d2:b1:cb:83:e4:c3:18:93:4f:
                    8b:71:04:15:d1:8e:c1:9c:ff:a6:c4:c0:24:e2:bb:
                    93:c1:51:75:9c:55:1f:05:bb:88:6a:ac:61:2e:48:
                    c8:9c:bb:13:8f:08:09:7d:be:d5:e6:43:51:15:a8:
                    d9:a1:12:7d:b2:a6:f8:f4:6f
                Exponent: 65537 (0x10001)
    Signature Algorithm: md5WithRSAEncryption
        74:81:93:c0:43:86:2e:fa:01:15:1c:7d:91:b3:59:2a:e1:d6:
        ad:71:c9:88:44:5f:31:7f:98:8e:a0:f0:83:67:f9:1c:ef:ed:
        fa:3d:ba:33:2d:d7:3b:1e:02:e9:9a:b2:89:f5:e1:72:ac:05:
        d8:20:fe:c7:d2:d5:b4:39:43:85:60:14:89:d3:65:23:c6:36:
        af:0b:ad:fb:ab:c6:01:a8:88:57:0b:24:dd:ad:f3:5e:23:5d:
        8d:ec:81:e5:ec:e0:31:63:27:f4:f8:a1:44:70:db:7b:d6:22:
        d4:bd:fb:24:56:e2:0e:1b:4f:64:36:07:63:d1:9e:fb:1e:6d:
        c5:75
-----BEGIN CERTIFICATE-----
MIICvDCCAiUCCQCbJ9fo0boKAjANBgkqhkiG9w0BAQQFADCBlTELMAkGA1UEBhMC
REUxETAPBgNVBAgTCFNhYXJsYW5kMRAwDgYDVQQKEwdNUEktU1dTMSIwIAYDVQQL
ExlEaXN0cmlidXRlZCBTeXN0ZW1zIEdyb3VwMRowGAYDVQQDExFBbmRyZWFzIEhh
ZWJlcmxlbjEhMB8GCSqGSIb3DQEJARYSZGVtb2NhQG9jdGFyaW5lLmRlMB4XDTE1
MDQyMDIwNDcyMVoXDTE2MDQxOTIwNDcyMVowga4xCzAJBgNVBAYTAkRFMREwDwYD
VQQIEwhTYWFybGFuZDEQMA4GA1UEChMHTVBJLVNXUzEiMCAGA1UECxMZRGlzdHJp
YnV0ZWQgU3lzdGVtcyBHcm91cDExMC8GA1UEAxMoOGQzMmQ4MWE0MjZmMzFlMmEy
OGY5Y2UwMmUzMDM3MmM0NWUxZGZjMjEjMCEGCSqGSIb3DQEJARYUbm9kZTA1NTRA
b2N0YXJpbmUuZGUwgZ8wDQYJKoZIhvcNAQEBBQADgY0AMIGJAoGBAMx1Eh2WoDGG
0DTY6cwto9iYfRw/cFfNZxZfoEwPAuL4WAA+Fyy6BcTUu5QoRv7VKjiOgm/Dhqm9
IH9SHMjnDvEI0rHLg+TDGJNPi3EEFdGOwZz/psTAJOK7k8FRdZxVHwW7iGqsYS5I
yJy7E48ICX2+1eZDURWo2aESfbKm+PRvAgMBAAEwDQYJKoZIhvcNAQEEBQADgYEA
dIGTwEOGLvoBFRx9kbNZKuHWrXHJiERfMX+YjqDwg2f5HO/t+j26My3XOx4C6Zqy
ifXhcqwF2CD+x9LVtDlDhWAUidNlI8Y2rwut+6vGAaiIVwsk3a3zXiNdjeyB5ezg
MWMn9PihRHDbe9Yi1L37JFbiDhtPZDYHY9Ge+x5txXU=
-----END CERTIFICATE-----
