Certificate:
    Data:
        Version: 1 (0x0)
        Serial Number:
            9b:27:d7:e8:d1:ba:08:ef
        Signature Algorithm: md5WithRSAEncryption
        Issuer: C=DE, ST=Saarland, O=MPI-SWS, OU=Distributed Systems Group, CN=Andreas Haeberlen/emailAddress=democa@octarine.de
        Validity
            Not Before: Apr 20 20:47:09 2015 GMT
            Not After : Apr 19 20:47:09 2016 GMT
        Subject: C=DE, ST=Saarland, O=MPI-SWS, OU=Distributed Systems Group, CN=1349b5fdb5a0f99ac401d5737bf4a29c6d5125fe/emailAddress=node0279@octarine.de
        Subject Public Key Info:
            Public Key Algorithm: rsaEncryption
            RSA Public Key: (1024 bit)
                Modulus (1024 bit):
                    00:bb:d7:c0:25:dd:52:b9:ce:ac:58:99:d5:e7:f6:
                    45:bc:57:10:bf:f7:c7:be:6a:48:74:c2:ec:eb:8d:
                    4c:4b:e6:13:c5:68:73:b4:46:f5:8c:73:32:2d:56:
                    5d:0d:56:42:86:ab:81:03:b7:7c:fc:2d:4e:5a:2c:
                    ec:bf:a6:a5:9d:0e:d0:79:a4:17:77:c1:55:f7:10:
                    0f:21:3c:f9:ad:3b:1b:87:fa:05:c8:98:b8:a5:6d:
                    b0:e2:b5:ae:5f:74:24:c2:59:ce:ba:0c:65:ce:eb:
                    6b:0b:05:ec:89:17:47:44:fa:da:61:28:0e:6b:79:
                    00:66:31:01:e9:cd:e9:a9:b7
                Exponent: 65537 (0x10001)
    Signature Algorithm: md5WithRSAEncryption
        12:1c:fc:cd:21:e5:87:a3:7d:a1:f1:b1:ff:4f:d2:76:da:b1:
        30:90:c1:74:3b:a3:5e:4a:b9:13:7e:c1:d0:9e:7a:79:cf:a9:
        0a:28:96:cd:4b:06:a4:c9:55:08:f7:ac:23:7e:c1:d3:08:b3:
        1b:a6:41:d1:37:96:a5:03:fc:1d:87:67:e5:2f:f1:7a:95:ab:
        a9:d5:3d:e6:89:51:7a:5a:f3:79:7c:ae:24:8e:9b:25:81:4b:
        b9:a2:65:6c:88:be:6c:4d:b9:2e:2f:73:a9:21:94:f5:81:c0:
        1a:cb:0e:0b:d9:b0:8f:48:8e:a4:12:87:77:f4:97:4a:db:9f:
        ac:c4
-----BEGIN CERTIFICATE-----
MIICvDCCAiUCCQCbJ9fo0boI7zANBgkqhkiG9w0BAQQFADCBlTELMAkGA1UEBhMC
REUxETAPBgNVBAgTCFNhYXJsYW5kMRAwDgYDVQQKEwdNUEktU1dTMSIwIAYDVQQL
ExlEaXN0cmlidXRlZCBTeXN0ZW1zIEdyb3VwMRowGAYDVQQDExFBbmRyZWFzIEhh
ZWJlcmxlbjEhMB8GCSqGSIb3DQEJARYSZGVtb2NhQG9jdGFyaW5lLmRlMB4XDTE1
MDQyMDIwNDcwOVoXDTE2MDQxOTIwNDcwOVowga4xCzAJBgNVBAYTAkRFMREwDwYD
VQQIEwhTYWFybGFuZDEQMA4GA1UEChMHTVBJLVNXUzEiMCAGA1UECxMZRGlzdHJp
YnV0ZWQgU3lzdGVtcyBHcm91cDExMC8GA1UEAxMoMTM0OWI1ZmRiNWEwZjk5YWM0
MDFkNTczN2JmNGEyOWM2ZDUxMjVmZTEjMCEGCSqGSIb3DQEJARYUbm9kZTAyNzlA
b2N0YXJpbmUuZGUwgZ8wDQYJKoZIhvcNAQEBBQADgY0AMIGJAoGBALvXwCXdUrnO
rFiZ1ef2RbxXEL/3x75qSHTC7OuNTEvmE8Voc7RG9YxzMi1WXQ1WQoargQO3fPwt
Tlos7L+mpZ0O0HmkF3fBVfcQDyE8+a07G4f6BciYuKVtsOK1rl90JMJZzroMZc7r
awsF7IkXR0T62mEoDmt5AGYxAenN6am3AgMBAAEwDQYJKoZIhvcNAQEEBQADgYEA
Ehz8zSHlh6N9ofGx/0/SdtqxMJDBdDujXkq5E37B0J56ec+pCiiWzUsGpMlVCPes
I37B0wizG6ZB0TeWpQP8HYdn5S/xepWrqdU95olRelrzeXyuJI6bJYFLuaJlbIi+
bE25Li9zqSGU9YHAGssOC9mwj0iOpBKHd/SXStufrMQ=
-----END CERTIFICATE-----
