Certificate:
    Data:
        Version: 1 (0x0)
        Serial Number:
            9b:27:d7:e8:d1:ba:09:42
        Signature Algorithm: md5WithRSAEncryption
        Issuer: C=DE, ST=Saarland, O=MPI-SWS, OU=Distributed Systems Group, CN=Andreas Haeberlen/emailAddress=democa@octarine.de
        Validity
            Not Before: Apr 20 20:47:12 2015 GMT
            Not After : Apr 19 20:47:12 2016 GMT
        Subject: C=DE, ST=Saarland, O=MPI-SWS, OU=Distributed Systems Group, CN=bd0469c60c415cf262d4971cb1977f83c8732492/emailAddress=node0362@octarine.de
        Subject Public Key Info:
            Public Key Algorithm: rsaEncryption
            RSA Public Key: (1024 bit)
                Modulus (1024 bit):
                    00:bd:cf:56:b2:87:60:3a:b5:59:8c:e6:3b:2f:09:
                    a3:bb:ce:32:88:7e:bc:8c:77:49:79:bc:a0:df:29:
                    ad:65:2c:58:2a:33:20:c7:50:09:49:fc:1e:1f:43:
                    da:9f:51:85:f3:9a:5a:f6:6d:f4:d4:67:15:32:3c:
                    8c:09:e1:53:c7:15:64:ee:29:07:a3:de:1d:de:24:
                    c2:9e:ac:ce:83:73:ee:d6:3e:d6:3a:11:a8:c8:da:
                    21:c5:f2:5e:af:48:fc:fd:f3:30:a5:3a:a4:07:de:
                    40:c7:6c:3a:a9:8b:4e:58:c1:d0:1a:fd:2c:67:55:
                    c4:47:96:cd:6b:f5:e4:ab:d1
                Exponent: 65537 (0x10001)
    Signature Algorithm: md5WithRSAEncryption
        20:d3:7a:c0:16:94:b7:dd:6e:0d:cf:57:68:65:4a:89:87:2a:
        a3:64:dc:69:e3:d9:1a:26:b3:c5:21:87:32:43:93:ef:43:39:
        dc:7f:1d:18:41:f1:35:4a:8b:42:f6:5b:59:c6:04:40:06:b6:
        70:ef:bb:f4:f8:e4:f0:95:05:75:ae:13:c8:90:a3:51:86:8f:
        f4:5c:99:be:c8:45:4a:50:6e:18:03:6d:49:ea:d0:3b:ff:8f:
        b0:0f:5f:71:77:c7:bd:48:1e:06:58:f9:ca:b5:a1:0e:9b:73:
        d3:97:84:c2:ba:67:1a:03:d4:87:5b:57:6d:5f:29:1d:79:97:
        1a:8f
-----BEGIN CERTIFICATE-----
MIICvDCCAiUCCQCbJ9fo0boJQjANBgkqhkiG9w0BAQQFADCBlTELMAkGA1UEBhMC
REUxETAPBgNVBAgTCFNhYXJsYW5kMRAwDgYDVQQKEwdNUEktU1dTMSIwIAYDVQQL
ExlEaXN0cmlidXRlZCBTeXN0ZW1zIEdyb3VwMRowGAYDVQQDExFBbmRyZWFzIEhh
ZWJlcmxlbjEhMB8GCSqGSIb3DQEJARYSZGVtb2NhQG9jdGFyaW5lLmRlMB4XDTE1
MDQyMDIwNDcxMloXDTE2MDQxOTIwNDcxMlowga4xCzAJBgNVBAYTAkRFMREwDwYD
VQQIEwhTYWFybGFuZDEQMA4GA1UEChMHTVBJLVNXUzEiMCAGA1UECxMZRGlzdHJp
YnV0ZWQgU3lzdGVtcyBHcm91cDExMC8GA1UEAxMoYmQwNDY5YzYwYzQxNWNmMjYy
ZDQ5NzFjYjE5NzdmODNjODczMjQ5MjEjMCEGCSqGSIb3DQEJARYUbm9kZTAzNjJA
b2N0YXJpbmUuZGUwgZ8wDQYJKoZIhvcNAQEBBQADgY0AMIGJAoGBAL3PVrKHYDq1
WYzmOy8Jo7vOMoh+vIx3SXm8oN8prWUsWCozIMdQCUn8Hh9D2p9RhfOaWvZt9NRn
FTI8jAnhU8cVZO4pB6PeHd4kwp6szoNz7tY+1joRqMjaIcXyXq9I/P3zMKU6pAfe
QMdsOqmLTljB0Br9LGdVxEeWzWv15KvRAgMBAAEwDQYJKoZIhvcNAQEEBQADgYEA
INN6wBaUt91uDc9XaGVKiYcqo2TcaePZGiazxSGHMkOT70M53H8dGEHxNUqLQvZb
WcYEQAa2cO+79Pjk8JUFda4TyJCjUYaP9FyZvshFSlBuGANtSerQO/+PsA9fcXfH
vUgeBlj5yrWhDptz05eEwrpnGgPUh1tXbV8pHXmXGo8=
-----END CERTIFICATE-----
