Certificate:
    Data:
        Version: 1 (0x0)
        Serial Number:
            9b:27:d7:e8:d1:ba:08:31
        Signature Algorithm: md5WithRSAEncryption
        Issuer: C=DE, ST=Saarland, O=MPI-SWS, OU=Distributed Systems Group, CN=Andreas Haeberlen/emailAddress=democa@octarine.de
        Validity
            Not Before: Apr 20 20:47:00 2015 GMT
            Not After : Apr 19 20:47:00 2016 GMT
        Subject: C=DE, ST=Saarland, O=MPI-SWS, OU=Distributed Systems Group, CN=aa4dea87e9695e4341ce937e729f054af97e3052/emailAddress=node0089@octarine.de
        Subject Public Key Info:
            Public Key Algorithm: rsaEncryption
            RSA Public Key: (1024 bit)
                Modulus (1024 bit):
                    00:bd:24:c3:3a:9b:f1:3d:36:75:31:b7:2e:b7:26:
                    de:ea:d4:3d:59:b3:9b:25:a1:c4:e8:fd:d4:22:30:
                    65:b9:2c:f6:cb:ba:9e:22:f5:9f:77:6c:2e:7e:ff:
                    90:c5:7c:9f:83:40:ce:8e:ae:e6:f2:ee:d0:0e:d9:
                    5c:6f:75:14:1d:62:b1:19:7e:c4:3a:4b:77:e4:6e:
                    d4:df:97:04:87:ee:8b:b8:2e:76:b8:78:b0:5c:07:
                    14:73:bd:01:6c:de:66:ad:fc:7d:d3:fe:71:34:26:
                    14:9d:1c:12:2d:df:8a:ba:0f:5b:cb:da:eb:2f:b0:
                    72:24:d1:d9:de:40:12:9c:6f
                Exponent: 65537 (0x10001)
    Signature Algorithm: md5WithRSAEncryption
        5b:01:eb:57:4c:6b:86:bc:bf:f2:6c:03:cb:9d:a3:7f:63:6e:
        0f:46:6e:ff:f9:05:92:f5:37:28:a0:8a:75:1e:c6:c0:55:70:
        90:5f:27:57:bf:a5:07:b0:24:53:b9:2b:9d:b9:49:e9:fa:2d:
        f4:d5:15:7d:51:85:ba:47:b3:8b:58:36:63:dc:4f:15:7b:7a:
        ad:40:94:8e:20:e7:b7:de:e3:73:97:4f:22:d3:20:64:fa:c0:
        40:f2:5b:d9:a5:ca:1d:25:b6:61:6a:8d:60:76:d4:b8:bd:bb:
        ac:1b:ac:05:aa:01:de:4a:29:a3:8e:37:1d:60:66:37:e1:13:
        d7:1a
-----BEGIN CERTIFICATE-----
MIICvDCCAiUCCQCbJ9fo0boIMTANBgkqhkiG9w0BAQQFADCBlTELMAkGA1UEBhMC
REUxETAPBgNVBAgTCFNhYXJsYW5kMRAwDgYDVQQKEwdNUEktU1dTMSIwIAYDVQQL
ExlEaXN0cmlidXRlZCBTeXN0ZW1zIEdyb3VwMRowGAYDVQQDExFBbmRyZWFzIEhh
ZWJlcmxlbjEhMB8GCSqGSIb3DQEJARYSZGVtb2NhQG9jdGFyaW5lLmRlMB4XDTE1
MDQyMDIwNDcwMFoXDTE2MDQxOTIwNDcwMFowga4xCzAJBgNVBAYTAkRFMREwDwYD
VQQIEwhTYWFybGFuZDEQMA4GA1UEChMHTVBJLVNXUzEiMCAGA1UECxMZRGlzdHJp
YnV0ZWQgU3lzdGVtcyBHcm91cDExMC8GA1UEAxMoYWE0ZGVhODdlOTY5NWU0MzQx
Y2U5MzdlNzI5ZjA1NGFmOTdlMzA1MjEjMCEGCSqGSIb3DQEJARYUbm9kZTAwODlA
b2N0YXJpbmUuZGUwgZ8wDQYJKoZIhvcNAQEBBQADgY0AMIGJAoGBAL0kwzqb8T02
dTG3Lrcm3urUPVmzmyWhxOj91CIwZbks9su6niL1n3dsLn7/kMV8n4NAzo6u5vLu
0A7ZXG91FB1isRl+xDpLd+Ru1N+XBIfui7gudrh4sFwHFHO9AWzeZq38fdP+cTQm
FJ0cEi3firoPW8va6y+wciTR2d5AEpxvAgMBAAEwDQYJKoZIhvcNAQEEBQADgYEA
WwHrV0xrhry/8mwDy52jf2NuD0Zu//kFkvU3KKCKdR7GwFVwkF8nV7+lB7AkU7kr
nblJ6fot9NUVfVGFukezi1g2Y9xPFXt6rUCUjiDnt97jc5dPItMgZPrAQPJb2aXK
HSW2YWqNYHbUuL27rBusBaoB3kopo443HWBmN+ET1xo=
-----END CERTIFICATE-----
