Certificate:
    Data:
        Version: 1 (0x0)
        Serial Number:
            9b:27:d7:e8:d1:ba:09:a1
        Signature Algorithm: md5WithRSAEncryption
        Issuer: C=DE, ST=Saarland, O=MPI-SWS, OU=Distributed Systems Group, CN=Andreas Haeberlen/emailAddress=democa@octarine.de
        Validity
            Not Before: Apr 20 20:47:16 2015 GMT
            Not After : Apr 19 20:47:16 2016 GMT
        Subject: C=DE, ST=Saarland, O=MPI-SWS, OU=Distributed Systems Group, CN=7d372191d0834137fa96fd40749d1ea8befe09fd/emailAddress=node0457@octarine.de
        Subject Public Key Info:
            Public Key Algorithm: rsaEncryption
            RSA Public Key: (1024 bit)
                Modulus (1024 bit):
                    00:d1:9e:6b:52:c0:eb:f5:18:c4:fc:34:0c:92:2f:
                    10:7d:a9:75:91:70:6b:7a:34:ca:7b:78:75:e3:3b:
                    31:19:1f:83:65:dc:82:d4:d0:65:27:0d:d6:36:19:
                    09:77:01:e8:e9:38:bf:88:0e:78:ba:5a:23:2d:33:
                    94:98:18:f1:a5:f0:9b:34:dc:b1:98:63:6c:5a:da:
                    18:1b:65:14:6c:f7:61:c6:b0:a2:4a:00:9f:a3:64:
                    46:8b:7c:d2:3d:b7:6b:10:20:29:42:8b:b7:3e:6c:
                    48:a8:4c:d7:34:d9:fa:fe:58:db:04:b7:ba:6b:13:
                    ad:57:b5:66:c5:ab:2d:23:65
                Exponent: 65537 (0x10001)
    Signature Algorithm: md5WithRSAEncryption
        a8:ed:d0:65:5e:d7:57:09:63:72:65:85:3b:57:a5:76:a7:f1:
        a7:91:7e:bf:6f:7b:82:d2:39:ea:45:d0:02:0d:88:23:17:81:
        d8:43:02:c4:ec:fc:b3:a4:4c:ca:ea:bc:b9:4f:21:4a:ba:8f:
        2f:c1:a6:1b:82:82:86:f0:b8:4e:98:35:9e:36:a6:67:f2:28:
        bc:47:a0:8f:8b:be:9c:03:f9:fe:bf:e7:e4:9c:94:5f:f5:69:
        13:cd:81:fb:03:01:7d:c6:bf:38:e2:c4:67:17:2a:40:87:68:
        61:de:2e:3e:e4:63:7d:68:92:30:5d:49:84:94:b6:b3:d5:1e:
        d6:4b
-----BEGIN CERTIFICATE-----
MIICvDCCAiUCCQCbJ9fo0boJoTANBgkqhkiG9w0BAQQFADCBlTELMAkGA1UEBhMC
REUxETAPBgNVBAgTCFNhYXJsYW5kMRAwDgYDVQQKEwdNUEktU1dTMSIwIAYDVQQL
ExlEaXN0cmlidXRlZCBTeXN0ZW1zIEdyb3VwMRowGAYDVQQDExFBbmRyZWFzIEhh
ZWJlcmxlbjEhMB8GCSqGSIb3DQEJARYSZGVtb2NhQG9jdGFyaW5lLmRlMB4XDTE1
MDQyMDIwNDcxNloXDTE2MDQxOTIwNDcxNlowga4xCzAJBgNVBAYTAkRFMREwDwYD
VQQIEwhTYWFybGFuZDEQMA4GA1UEChMHTVBJLVNXUzEiMCAGA1UECxMZRGlzdHJp
YnV0ZWQgU3lzdGVtcyBHcm91cDExMC8GA1UEAxMoN2QzNzIxOTFkMDgzNDEzN2Zh
OTZmZDQwNzQ5ZDFlYThiZWZlMDlmZDEjMCEGCSqGSIb3DQEJARYUbm9kZTA0NTdA
b2N0YXJpbmUuZGUwgZ8wDQYJKoZIhvcNAQEBBQADgY0AMIGJAoGBANGea1LA6/UY
xPw0DJIvEH2pdZFwa3o0ynt4deM7MRkfg2XcgtTQZScN1jYZCXcB6Ok4v4gOeLpa
Iy0zlJgY8aXwmzTcsZhjbFraGBtlFGz3YcawokoAn6NkRot80j23axAgKUKLtz5s
SKhM1zTZ+v5Y2wS3umsTrVe1ZsWrLSNlAgMBAAEwDQYJKoZIhvcNAQEEBQADgYEA
qO3QZV7XVwljcmWFO1eldqfxp5F+v297gtI56kXQAg2IIxeB2EMCxOz8s6RMyuq8
uU8hSrqPL8GmG4KChvC4Tpg1njamZ/IovEegj4u+nAP5/r/n5JyUX/VpE82B+wMB
fca/OOLEZxcqQIdoYd4uPuRjfWiSMF1JhJS2s9Ue1ks=
-----END CERTIFICATE-----
