Certificate:
    Data:
        Version: 1 (0x0)
        Serial Number:
            9b:27:d7:e8:d1:ba:08:a8
        Signature Algorithm: md5WithRSAEncryption
        Issuer: C=DE, ST=Saarland, O=MPI-SWS, OU=Distributed Systems Group, CN=Andreas Haeberlen/emailAddress=democa@octarine.de
        Validity
            Not Before: Apr 20 20:47:06 2015 GMT
            Not After : Apr 19 20:47:06 2016 GMT
        Subject: C=DE, ST=Saarland, O=MPI-SWS, OU=Distributed Systems Group, CN=6989368d1a6ffe2ded723361295a3069af3d5bb7/emailAddress=node0208@octarine.de
        Subject Public Key Info:
            Public Key Algorithm: rsaEncryption
            RSA Public Key: (1024 bit)
                Modulus (1024 bit):
                    00:ab:b3:90:99:27:fe:2b:ad:56:08:67:d4:3f:06:
                    b5:b5:72:f1:81:57:54:1f:4f:fc:a1:d7:68:1b:a1:
                    03:da:c5:ae:61:30:88:73:7c:49:b9:16:ab:d3:8d:
                    58:cb:35:b6:cf:e5:3c:16:28:3d:d7:09:ec:0f:06:
                    f7:f3:66:68:49:9e:60:56:95:25:c8:64:b4:5a:9b:
                    c3:59:9f:c9:74:9a:9a:53:0d:86:f7:94:e6:cc:28:
                    f1:ba:e2:3c:89:03:23:c9:3c:0a:1c:e4:13:b1:d1:
                    b7:f8:f6:2c:fc:6b:38:6f:a1:75:24:cf:85:32:39:
                    a3:8e:be:12:2c:e6:12:86:cd
                Exponent: 65537 (0x10001)
    Signature Algorithm: md5WithRSAEncryption
        1e:4b:6e:b9:55:30:d9:e1:b1:9d:5c:68:26:91:87:19:c8:90:
        9c:69:b1:65:5c:e2:e7:be:96:07:0d:6f:59:b0:ca:41:07:aa:
        ac:06:41:e7:f6:84:2c:ee:01:a4:51:19:b3:2a:85:08:10:b3:
        5b:11:6e:9b:62:bd:63:cf:32:c8:69:8c:8e:66:26:ef:f1:a2:
        ef:0a:6c:18:20:55:a7:a0:8c:cc:d0:01:b7:a1:08:34:60:b5:
        dc:9d:e0:c7:a2:8f:35:46:fc:b6:90:78:0d:c6:df:33:c0:96:
        71:4f:a2:03:83:e3:8e:52:c6:ce:b3:c6:5f:02:28:c7:a0:c2:
        42:f5
-----BEGIN CERTIFICATE-----
MIICvDCCAiUCCQCbJ9fo0boIqDANBgkqhkiG9w0BAQQFADCBlTELMAkGA1UEBhMC
REUxETAPBgNVBAgTCFNhYXJsYW5kMRAwDgYDVQQKEwdNUEktU1dTMSIwIAYDVQQL
ExlEaXN0cmlidXRlZCBTeXN0ZW1zIEdyb3VwMRowGAYDVQQDExFBbmRyZWFzIEhh
ZWJlcmxlbjEhMB8GCSqGSIb3DQEJARYSZGVtb2NhQG9jdGFyaW5lLmRlMB4XDTE1
MDQyMDIwNDcwNloXDTE2MDQxOTIwNDcwNlowga4xCzAJBgNVBAYTAkRFMREwDwYD
VQQIEwhTYWFybGFuZDEQMA4GA1UEChMHTVBJLVNXUzEiMCAGA1UECxMZRGlzdHJp
YnV0ZWQgU3lzdGVtcyBHcm91cDExMC8GA1UEAxMoNjk4OTM2OGQxYTZmZmUyZGVk
NzIzMzYxMjk1YTMwNjlhZjNkNWJiNzEjMCEGCSqGSIb3DQEJARYUbm9kZTAyMDhA
b2N0YXJpbmUuZGUwgZ8wDQYJKoZIhvcNAQEBBQADgY0AMIGJAoGBAKuzkJkn/iut
Vghn1D8GtbVy8YFXVB9P/KHXaBuhA9rFrmEwiHN8SbkWq9ONWMs1ts/lPBYoPdcJ
7A8G9/NmaEmeYFaVJchktFqbw1mfyXSamlMNhveU5swo8briPIkDI8k8ChzkE7HR
t/j2LPxrOG+hdSTPhTI5o46+EizmEobNAgMBAAEwDQYJKoZIhvcNAQEEBQADgYEA
HktuuVUw2eGxnVxoJpGHGciQnGmxZVzi576WBw1vWbDKQQeqrAZB5/aELO4BpFEZ
syqFCBCzWxFum2K9Y88yyGmMjmYm7/Gi7wpsGCBVp6CMzNABt6EINGC13J3gx6KP
NUb8tpB4DcbfM8CWcU+iA4PjjlLGzrPGXwIox6DCQvU=
-----END CERTIFICATE-----
