Certificate:
    Data:
        Version: 1 (0x0)
        Serial Number:
            9b:27:d7:e8:d1:ba:0b:a4
        Signature Algorithm: md5WithRSAEncryption
        Issuer: C=DE, ST=Saarland, O=MPI-SWS, OU=Distributed Systems Group, CN=Andreas Haeberlen/emailAddress=democa@octarine.de
        Validity
            Not Before: Apr 20 20:47:40 2015 GMT
            Not After : Apr 19 20:47:40 2016 GMT
        Subject: C=DE, ST=Saarland, O=MPI-SWS, OU=Distributed Systems Group, CN=95bfaa865494493ade4b98fc21694f1e4ddf766c/emailAddress=node0972@octarine.de
        Subject Public Key Info:
            Public Key Algorithm: rsaEncryption
            RSA Public Key: (1024 bit)
                Modulus (1024 bit):
                    00:c5:ad:9f:8c:a9:52:44:a0:c4:7c:85:b7:83:37:
                    86:6d:6a:67:c4:65:5a:99:70:b4:a5:92:d2:ef:96:
                    5d:86:c6:9c:73:8b:2c:71:aa:ab:f3:c4:6b:3d:6b:
                    f5:cb:21:89:10:e7:0d:d6:b9:66:80:04:12:f7:ed:
                    65:84:d5:3a:18:31:b2:cb:14:6f:8d:d2:55:28:ab:
                    bf:67:04:83:28:6e:0e:b4:47:3f:0b:9d:a1:e4:08:
                    6d:81:8a:45:f6:3e:91:31:30:bc:c1:d2:f5:bc:93:
                    bc:a3:13:8d:05:9d:16:f1:48:4e:6f:e9:f8:f5:f9:
                    46:bf:22:63:46:51:db:34:4d
                Exponent: 65537 (0x10001)
    Signature Algorithm: md5WithRSAEncryption
        4c:05:61:47:9b:e9:df:54:0a:f0:05:6b:db:87:38:56:f1:2b:
        28:5a:ce:16:0f:18:e5:ae:eb:74:09:f0:11:5f:17:b2:32:d3:
        62:55:1b:cb:c7:01:39:83:ea:a0:22:d4:6a:dc:65:2a:5a:c3:
        bd:42:ce:34:80:2d:c5:c3:9f:88:32:ee:99:68:7e:e7:f5:cb:
        6c:8b:0b:9c:b5:e4:9b:a6:1a:8c:ef:d9:5c:e7:f8:41:da:68:
        3d:20:a3:97:44:ff:ff:af:e1:73:a3:16:20:ed:8a:b1:1e:f4:
        c3:36:7c:90:46:de:ec:ea:ac:80:21:43:bd:fd:f3:bc:c9:65:
        f5:53
-----BEGIN CERTIFICATE-----
MIICvDCCAiUCCQCbJ9fo0boLpDANBgkqhkiG9w0BAQQFADCBlTELMAkGA1UEBhMC
REUxETAPBgNVBAgTCFNhYXJsYW5kMRAwDgYDVQQKEwdNUEktU1dTMSIwIAYDVQQL
ExlEaXN0cmlidXRlZCBTeXN0ZW1zIEdyb3VwMRowGAYDVQQDExFBbmRyZWFzIEhh
ZWJlcmxlbjEhMB8GCSqGSIb3DQEJARYSZGVtb2NhQG9jdGFyaW5lLmRlMB4XDTE1
MDQyMDIwNDc0MFoXDTE2MDQxOTIwNDc0MFowga4xCzAJBgNVBAYTAkRFMREwDwYD
VQQIEwhTYWFybGFuZDEQMA4GA1UEChMHTVBJLVNXUzEiMCAGA1UECxMZRGlzdHJp
YnV0ZWQgU3lzdGVtcyBHcm91cDExMC8GA1UEAxMoOTViZmFhODY1NDk0NDkzYWRl
NGI5OGZjMjE2OTRmMWU0ZGRmNzY2YzEjMCEGCSqGSIb3DQEJARYUbm9kZTA5NzJA
b2N0YXJpbmUuZGUwgZ8wDQYJKoZIhvcNAQEBBQADgY0AMIGJAoGBAMWtn4ypUkSg
xHyFt4M3hm1qZ8RlWplwtKWS0u+WXYbGnHOLLHGqq/PEaz1r9cshiRDnDda5ZoAE
EvftZYTVOhgxsssUb43SVSirv2cEgyhuDrRHPwudoeQIbYGKRfY+kTEwvMHS9byT
vKMTjQWdFvFITm/p+PX5Rr8iY0ZR2zRNAgMBAAEwDQYJKoZIhvcNAQEEBQADgYEA
TAVhR5vp31QK8AVr24c4VvErKFrOFg8Y5a7rdAnwEV8XsjLTYlUby8cBOYPqoCLU
atxlKlrDvULONIAtxcOfiDLumWh+5/XLbIsLnLXkm6YajO/ZXOf4QdpoPSCjl0T/
/6/hc6MWIO2KsR70wzZ8kEbe7OqsgCFDvf3zvMll9VM=
-----END CERTIFICATE-----
