Certificate:
    Data:
        Version: 1 (0x0)
        Serial Number:
            9b:27:d7:e8:d1:ba:0a:07
        Signature Algorithm: md5WithRSAEncryption
        Issuer: C=DE, ST=Saarland, O=MPI-SWS, OU=Distributed Systems Group, CN=Andreas Haeberlen/emailAddress=democa@octarine.de
        Validity
            Not Before: Apr 20 20:47:21 2015 GMT
            Not After : Apr 19 20:47:21 2016 GMT
        Subject: C=DE, ST=Saarland, O=MPI-SWS, OU=Distributed Systems Group, CN=fc1690bae8a71bce7879c7143e8667a63bccc87a/emailAddress=node0559@octarine.de
        Subject Public Key Info:
            Public Key Algorithm: rsaEncryption
            RSA Public Key: (1024 bit)
                Modulus (1024 bit):
                    00:c2:cb:cf:5d:c0:62:39:ca:a3:59:d3:23:e2:a0:
                    1a:1f:f6:f3:12:c8:62:b7:de:19:6e:b4:d3:d7:93:
                    a9:35:1c:57:66:1c:c6:1b:42:01:2a:79:97:da:92:
                    35:ec:b1:e6:b8:f1:af:ff:8f:e3:af:82:25:8e:c0:
                    3a:4b:75:4d:d1:44:05:4f:88:7d:df:a8:36:f3:c1:
                    a4:89:88:e1:48:20:22:1d:95:7a:6a:32:20:18:9f:
                    5b:91:ff:86:14:38:66:30:17:80:bf:55:e7:a2:c1:
                    46:1f:89:bf:85:5f:1e:d8:26:74:77:bc:f7:70:e1:
                    6d:3a:b2:b2:84:52:f7:db:d3
                Exponent: 65537 (0x10001)
    Signature Algorithm: md5WithRSAEncryption
        95:d3:75:ff:d8:34:32:82:ee:f4:1b:26:51:a0:5e:c1:ad:69:
        fe:f1:a1:df:a6:a4:31:c4:46:20:da:0f:35:ca:fd:32:6d:54:
        f0:09:62:17:7a:62:d9:59:0d:5f:c1:8f:fe:ee:8d:80:73:7b:
        49:b3:2c:62:20:ba:73:f3:64:b6:f7:e2:94:ee:77:3b:85:a2:
        d5:97:1a:63:c5:ad:b2:88:e8:6a:56:f8:f7:1a:3c:18:6e:ba:
        8f:5c:f8:ed:3b:65:4a:86:e1:9a:4a:c6:a3:13:46:91:d3:86:
        6a:ff:14:3e:6f:81:66:d5:6d:d6:d7:e2:06:ce:c8:e7:80:6a:
        54:58
-----BEGIN CERTIFICATE-----
MIICvDCCAiUCCQCbJ9fo0boKBzANBgkqhkiG9w0BAQQFADCBlTELMAkGA1UEBhMC
REUxETAPBgNVBAgTCFNhYXJsYW5kMRAwDgYDVQQKEwdNUEktU1dTMSIwIAYDVQQL
ExlEaXN0cmlidXRlZCBTeXN0ZW1zIEdyb3VwMRowGAYDVQQDExFBbmRyZWFzIEhh
ZWJlcmxlbjEhMB8GCSqGSIb3DQEJARYSZGVtb2NhQG9jdGFyaW5lLmRlMB4XDTE1
MDQyMDIwNDcyMVoXDTE2MDQxOTIwNDcyMVowga4xCzAJBgNVBAYTAkRFMREwDwYD
VQQIEwhTYWFybGFuZDEQMA4GA1UEChMHTVBJLVNXUzEiMCAGA1UECxMZRGlzdHJp
YnV0ZWQgU3lzdGVtcyBHcm91cDExMC8GA1UEAxMoZmMxNjkwYmFlOGE3MWJjZTc4
NzljNzE0M2U4NjY3YTYzYmNjYzg3YTEjMCEGCSqGSIb3DQEJARYUbm9kZTA1NTlA
b2N0YXJpbmUuZGUwgZ8wDQYJKoZIhvcNAQEBBQADgY0AMIGJAoGBAMLLz13AYjnK
o1nTI+KgGh/28xLIYrfeGW6009eTqTUcV2YcxhtCASp5l9qSNeyx5rjxr/+P46+C
JY7AOkt1TdFEBU+Ifd+oNvPBpImI4UggIh2VemoyIBifW5H/hhQ4ZjAXgL9V56LB
Rh+Jv4VfHtgmdHe893DhbTqysoRS99vTAgMBAAEwDQYJKoZIhvcNAQEEBQADgYEA
ldN1/9g0MoLu9BsmUaBewa1p/vGh36akMcRGINoPNcr9Mm1U8AliF3pi2VkNX8GP
/u6NgHN7SbMsYiC6c/NktvfilO53O4Wi1ZcaY8Wtsojoalb49xo8GG66j1z47Ttl
SobhmkrGoxNGkdOGav8UPm+BZtVt1tfiBs7I54BqVFg=
-----END CERTIFICATE-----
