Certificate:
    Data:
        Version: 1 (0x0)
        Serial Number:
            9b:27:d7:e8:d1:ba:08:ed
        Signature Algorithm: md5WithRSAEncryption
        Issuer: C=DE, ST=Saarland, O=MPI-SWS, OU=Distributed Systems Group, CN=Andreas Haeberlen/emailAddress=democa@octarine.de
        Validity
            Not Before: Apr 20 20:47:09 2015 GMT
            Not After : Apr 19 20:47:09 2016 GMT
        Subject: C=DE, ST=Saarland, O=MPI-SWS, OU=Distributed Systems Group, CN=95bfeafb3eede9fafc9b6452eb5f9e533032b2ee/emailAddress=node0277@octarine.de
        Subject Public Key Info:
            Public Key Algorithm: rsaEncryption
            RSA Public Key: (1024 bit)
                Modulus (1024 bit):
                    00:b4:53:55:de:d6:71:db:dc:06:b6:41:45:2c:c0:
                    e3:fb:ae:cc:90:bd:cf:80:60:1e:67:7f:d8:61:12:
                    25:e2:5f:50:08:5f:8c:2d:7e:d2:97:ee:df:1e:79:
                    91:93:0e:e3:08:c5:d5:f4:ab:a1:99:34:14:a8:a4:
                    bf:5a:e0:8b:ae:c8:d5:d6:36:f2:ab:a8:b8:7b:22:
                    7b:13:e6:f0:fc:21:9a:3f:70:90:de:0d:99:b0:e7:
                    fc:d7:42:45:3c:2a:c2:a6:38:4f:53:47:26:2b:4e:
                    61:29:ae:c2:ec:2f:3d:91:fe:45:32:4b:79:d4:bb:
                    ac:0e:68:f9:55:c4:73:36:e5
                Exponent: 65537 (0x10001)
    Signature Algorithm: md5WithRSAEncryption
        af:69:5a:f5:9b:b8:e8:3a:49:9c:c7:2b:50:f2:f8:6c:1e:4d:
        a5:7f:92:b6:99:b5:19:bf:1a:13:dc:5e:6e:75:fc:0c:84:76:
        33:84:30:d1:b8:10:ca:62:c5:e9:ad:34:95:87:3d:67:ac:cc:
        0a:cb:6a:14:09:60:32:67:29:09:1a:4f:8c:ca:57:aa:64:f7:
        6b:70:3a:1f:f8:e3:92:a4:5b:d3:6b:48:a4:20:63:01:01:7e:
        af:43:95:f3:b6:43:94:29:d3:1a:27:f4:d8:46:ed:2f:22:2b:
        cb:67:f2:a9:cc:b9:12:1b:9f:51:f3:98:b1:93:99:f0:99:dc:
        92:c5
-----BEGIN CERTIFICATE-----
MIICvDCCAiUCCQCbJ9fo0boI7TANBgkqhkiG9w0BAQQFADCBlTELMAkGA1UEBhMC
REUxETAPBgNVBAgTCFNhYXJsYW5kMRAwDgYDVQQKEwdNUEktU1dTMSIwIAYDVQQL
ExlEaXN0cmlidXRlZCBTeXN0ZW1zIEdyb3VwMRowGAYDVQQDExFBbmRyZWFzIEhh
ZWJlcmxlbjEhMB8GCSqGSIb3DQEJARYSZGVtb2NhQG9jdGFyaW5lLmRlMB4XDTE1
MDQyMDIwNDcwOVoXDTE2MDQxOTIwNDcwOVowga4xCzAJBgNVBAYTAkRFMREwDwYD
VQQIEwhTYWFybGFuZDEQMA4GA1UEChMHTVBJLVNXUzEiMCAGA1UECxMZRGlzdHJp
YnV0ZWQgU3lzdGVtcyBHcm91cDExMC8GA1UEAxMoOTViZmVhZmIzZWVkZTlmYWZj
OWI2NDUyZWI1ZjllNTMzMDMyYjJlZTEjMCEGCSqGSIb3DQEJARYUbm9kZTAyNzdA
b2N0YXJpbmUuZGUwgZ8wDQYJKoZIhvcNAQEBBQADgY0AMIGJAoGBALRTVd7Wcdvc
BrZBRSzA4/uuzJC9z4BgHmd/2GESJeJfUAhfjC1+0pfu3x55kZMO4wjF1fSroZk0
FKikv1rgi67I1dY28quouHsiexPm8Pwhmj9wkN4NmbDn/NdCRTwqwqY4T1NHJitO
YSmuwuwvPZH+RTJLedS7rA5o+VXEczblAgMBAAEwDQYJKoZIhvcNAQEEBQADgYEA
r2la9Zu46DpJnMcrUPL4bB5NpX+Stpm1Gb8aE9xebnX8DIR2M4Qw0bgQymLF6a00
lYc9Z6zMCstqFAlgMmcpCRpPjMpXqmT3a3A6H/jjkqRb02tIpCBjAQF+r0OV87ZD
lCnTGif02EbtLyIry2fyqcy5EhufUfOYsZOZ8JncksU=
-----END CERTIFICATE-----
