Certificate:
    Data:
        Version: 1 (0x0)
        Serial Number:
            9b:27:d7:e8:d1:ba:0b:8d
        Signature Algorithm: md5WithRSAEncryption
        Issuer: C=DE, ST=Saarland, O=MPI-SWS, OU=Distributed Systems Group, CN=Andreas Haeberlen/emailAddress=democa@octarine.de
        Validity
            Not Before: Apr 20 20:47:39 2015 GMT
            Not After : Apr 19 20:47:39 2016 GMT
        Subject: C=DE, ST=Saarland, O=MPI-SWS, OU=Distributed Systems Group, CN=8b4835eceaef3906a3687d0fac5c3c3b774bd27c/emailAddress=node0949@octarine.de
        Subject Public Key Info:
            Public Key Algorithm: rsaEncryption
            RSA Public Key: (1024 bit)
                Modulus (1024 bit):
                    00:cf:6e:ba:d2:4c:11:2b:40:14:bf:75:75:68:25:
                    46:0e:81:89:f5:47:a3:dc:3c:c7:89:54:df:8b:83:
                    76:1c:da:4c:64:b8:4c:45:f5:ca:75:7c:19:23:b5:
                    27:62:95:35:1d:17:5b:46:4f:78:37:a3:58:e4:51:
                    64:11:f0:c3:2d:7f:aa:a8:03:b9:1e:2d:e5:46:d7:
                    09:f9:c1:59:20:bf:40:5c:18:87:cf:40:9b:27:59:
                    e8:38:ab:f9:e4:72:e4:36:29:97:a0:f0:88:80:46:
                    a2:d7:53:9a:30:6c:c4:1e:97:62:c2:aa:9d:1a:cb:
                    0c:b2:19:a9:11:3c:93:c0:f5
                Exponent: 65537 (0x10001)
    Signature Algorithm: md5WithRSAEncryption
        7e:2a:52:d9:13:e1:42:54:4b:d3:a6:80:35:92:d9:e7:6f:e8:
        d3:49:f3:54:26:3f:38:4a:07:77:c2:c7:0f:a9:c2:c4:69:06:
        13:b1:9c:38:61:2d:d2:e3:0c:c4:17:8d:f7:92:17:97:09:0d:
        43:f1:43:10:2b:53:09:43:42:8f:42:25:92:7a:cc:54:07:29:
        ce:aa:e2:d8:26:30:52:67:ed:e6:e0:a1:73:72:a5:38:b3:4c:
        e8:d2:d3:8c:ee:41:c3:62:87:e5:19:b6:e4:43:1a:7a:45:3c:
        f6:6c:b9:49:86:08:cc:d8:38:b9:52:30:0b:8f:17:15:de:93:
        93:7f
-----BEGIN CERTIFICATE-----
MIICvDCCAiUCCQCbJ9fo0boLjTANBgkqhkiG9w0BAQQFADCBlTELMAkGA1UEBhMC
REUxETAPBgNVBAgTCFNhYXJsYW5kMRAwDgYDVQQKEwdNUEktU1dTMSIwIAYDVQQL
ExlEaXN0cmlidXRlZCBTeXN0ZW1zIEdyb3VwMRowGAYDVQQDExFBbmRyZWFzIEhh
ZWJlcmxlbjEhMB8GCSqGSIb3DQEJARYSZGVtb2NhQG9jdGFyaW5lLmRlMB4XDTE1
MDQyMDIwNDczOVoXDTE2MDQxOTIwNDczOVowga4xCzAJBgNVBAYTAkRFMREwDwYD
VQQIEwhTYWFybGFuZDEQMA4GA1UEChMHTVBJLVNXUzEiMCAGA1UECxMZRGlzdHJp
YnV0ZWQgU3lzdGVtcyBHcm91cDExMC8GA1UEAxMoOGI0ODM1ZWNlYWVmMzkwNmEz
Njg3ZDBmYWM1YzNjM2I3NzRiZDI3YzEjMCEGCSqGSIb3DQEJARYUbm9kZTA5NDlA
b2N0YXJpbmUuZGUwgZ8wDQYJKoZIhvcNAQEBBQADgY0AMIGJAoGBAM9uutJMEStA
FL91dWglRg6BifVHo9w8x4lU34uDdhzaTGS4TEX1ynV8GSO1J2KVNR0XW0ZPeDej
WORRZBHwwy1/qqgDuR4t5UbXCfnBWSC/QFwYh89AmydZ6Dir+eRy5DYpl6DwiIBG
otdTmjBsxB6XYsKqnRrLDLIZqRE8k8D1AgMBAAEwDQYJKoZIhvcNAQEEBQADgYEA
fipS2RPhQlRL06aANZLZ52/o00nzVCY/OEoHd8LHD6nCxGkGE7GcOGEt0uMMxBeN
95IXlwkNQ/FDECtTCUNCj0IlknrMVAcpzqri2CYwUmft5uChc3KlOLNM6NLTjO5B
w2KH5Rm25EMaekU89my5SYYIzNg4uVIwC48XFd6Tk38=
-----END CERTIFICATE-----
