Certificate:
    Data:
        Version: 1 (0x0)
        Serial Number:
            9b:27:d7:e8:d1:ba:0a:e1
        Signature Algorithm: md5WithRSAEncryption
        Issuer: C=DE, ST=Saarland, O=MPI-SWS, OU=Distributed Systems Group, CN=Andreas Haeberlen/emailAddress=democa@octarine.de
        Validity
            Not Before: Apr 20 20:47:31 2015 GMT
            Not After : Apr 19 20:47:31 2016 GMT
        Subject: C=DE, ST=Saarland, O=MPI-SWS, OU=Distributed Systems Group, CN=b65098db419f5056a1f5c76478a3a2b5906283ed/emailAddress=node0777@octarine.de
        Subject Public Key Info:
            Public Key Algorithm: rsaEncryption
            RSA Public Key: (1024 bit)
                Modulus (1024 bit):
                    00:db:58:5e:a0:60:3a:11:76:c6:9e:e1:5a:5e:93:
                    1d:d3:a3:b4:9c:76:78:3c:4b:80:e4:fd:40:54:d7:
                    02:65:33:54:45:70:83:19:17:2e:b8:ab:88:d4:52:
                    9f:a3:eb:11:91:4c:ef:7c:5e:fa:b8:a4:e1:20:27:
                    00:d0:de:f2:5b:15:5f:30:92:3f:78:7c:1c:ba:56:
                    50:69:cf:bb:d5:8b:e7:2b:9c:cf:a3:66:2f:a2:fe:
                    a2:6f:f2:8f:56:9b:c6:70:35:eb:eb:68:33:6e:bf:
                    db:c1:41:e9:95:cc:4b:35:a3:28:8d:83:1f:92:77:
                    89:46:9e:73:d0:32:91:ac:4f
                Exponent: 65537 (0x10001)
    Signature Algorithm: md5WithRSAEncryption
        45:80:1f:bf:62:b2:51:d2:d6:81:71:66:99:9b:50:fe:e6:3b:
        77:c8:91:85:62:7e:97:8c:ec:16:10:1b:59:f4:b8:f2:75:fe:
        81:54:fc:8e:5d:c9:e7:43:0c:b3:a5:cd:49:72:d1:ac:4a:6e:
        b4:59:e0:aa:63:b0:0e:61:86:28:b9:4a:e6:4d:71:44:72:ee:
        ec:82:97:11:8c:36:5f:5b:ee:41:bb:c4:36:a1:4a:62:93:2c:
        d2:7f:94:aa:f1:22:c1:fe:a2:39:cb:25:10:a1:bb:4d:2f:62:
        b3:fb:57:b3:9d:fd:d2:49:74:88:7a:b8:d0:ff:11:4b:aa:fe:
        c8:ff
-----BEGIN CERTIFICATE-----
MIICvDCCAiUCCQCbJ9fo0boK4TANBgkqhkiG9w0BAQQFADCBlTELMAkGA1UEBhMC
REUxETAPBgNVBAgTCFNhYXJsYW5kMRAwDgYDVQQKEwdNUEktU1dTMSIwIAYDVQQL
ExlEaXN0cmlidXRlZCBTeXN0ZW1zIEdyb3VwMRowGAYDVQQDExFBbmRyZWFzIEhh
ZWJlcmxlbjEhMB8GCSqGSIb3DQEJARYSZGVtb2NhQG9jdGFyaW5lLmRlMB4XDTE1
MDQyMDIwNDczMVoXDTE2MDQxOTIwNDczMVowga4xCzAJBgNVBAYTAkRFMREwDwYD
VQQIEwhTYWFybGFuZDEQMA4GA1UEChMHTVBJLVNXUzEiMCAGA1UECxMZRGlzdHJp
YnV0ZWQgU3lzdGVtcyBHcm91cDExMC8GA1UEAxMoYjY1MDk4ZGI0MTlmNTA1NmEx
ZjVjNzY0NzhhM2EyYjU5MDYyODNlZDEjMCEGCSqGSIb3DQEJARYUbm9kZTA3NzdA
b2N0YXJpbmUuZGUwgZ8wDQYJKoZIhvcNAQEBBQADgY0AMIGJAoGBANtYXqBgOhF2
xp7hWl6THdOjtJx2eDxLgOT9QFTXAmUzVEVwgxkXLririNRSn6PrEZFM73xe+rik
4SAnANDe8lsVXzCSP3h8HLpWUGnPu9WL5yucz6NmL6L+om/yj1abxnA16+toM26/
28FB6ZXMSzWjKI2DH5J3iUaec9AykaxPAgMBAAEwDQYJKoZIhvcNAQEEBQADgYEA
RYAfv2KyUdLWgXFmmZtQ/uY7d8iRhWJ+l4zsFhAbWfS48nX+gVT8jl3J50MMs6XN
SXLRrEputFngqmOwDmGGKLlK5k1xRHLu7IKXEYw2X1vuQbvENqFKYpMs0n+UqvEi
wf6iOcslEKG7TS9is/tXs5390kl0iHq40P8RS6r+yP8=
-----END CERTIFICATE-----
