Certificate:
    Data:
        Version: 1 (0x0)
        Serial Number:
            9b:27:d7:e8:d1:ba:08:34
        Signature Algorithm: md5WithRSAEncryption
        Issuer: C=DE, ST=Saarland, O=MPI-SWS, OU=Distributed Systems Group, CN=Andreas Haeberlen/emailAddress=democa@octarine.de
        Validity
            Not Before: Apr 20 20:47:00 2015 GMT
            Not After : Apr 19 20:47:00 2016 GMT
        Subject: C=DE, ST=Saarland, O=MPI-SWS, OU=Distributed Systems Group, CN=3f8b9e9db2d5818691c7fdb0459b02731ffad888/emailAddress=node0092@octarine.de
        Subject Public Key Info:
            Public Key Algorithm: rsaEncryption
            RSA Public Key: (1024 bit)
                Modulus (1024 bit):
                    00:b3:c3:65:b3:59:69:2b:30:b7:18:99:f1:1b:e0:
                    c5:76:61:16:4e:0f:ed:f1:72:17:04:e3:a3:ab:dc:
                    aa:ee:a5:36:1d:7b:a9:f5:42:bb:46:81:f3:c1:3d:
                    b9:f7:06:af:0a:27:48:1d:1d:61:f8:20:f3:dd:79:
                    ea:a5:b4:c7:01:50:c9:a4:e5:33:81:45:1c:95:a7:
                    e7:b2:4f:c0:30:f5:bc:5e:1f:ea:53:6c:be:1e:9b:
                    e3:40:e7:7a:30:fb:17:01:31:05:25:69:30:1c:72:
                    c9:bf:dd:27:e4:23:89:aa:b4:43:b0:a3:9b:be:de:
                    ff:af:43:d4:2e:d5:dd:5a:4b
                Exponent: 65537 (0x10001)
    Signature Algorithm: md5WithRSAEncryption
        b3:53:b2:4b:d5:77:df:1e:55:81:ea:7e:f0:6b:00:e4:24:07:
        08:39:39:6d:30:9e:bc:fc:94:4a:30:ae:cf:62:8e:93:d3:d9:
        9e:20:c7:06:20:d0:b5:6c:84:d2:8e:ce:24:ed:48:13:f9:be:
        2b:35:16:4d:33:21:f9:38:54:ca:54:28:c9:a8:d8:bd:24:91:
        8d:0d:7a:6f:60:24:1b:ff:57:b9:d6:70:c0:68:ca:67:bf:69:
        cb:ed:7c:48:03:2a:f9:96:55:ef:cf:80:e7:b3:0f:a4:5d:0d:
        35:2b:7b:a5:eb:fc:4c:6e:d2:ec:b5:a9:dd:77:df:64:6f:f0:
        8c:75
-----BEGIN CERTIFICATE-----
MIICvDCCAiUCCQCbJ9fo0boINDANBgkqhkiG9w0BAQQFADCBlTELMAkGA1UEBhMC
REUxETAPBgNVBAgTCFNhYXJsYW5kMRAwDgYDVQQKEwdNUEktU1dTMSIwIAYDVQQL
ExlEaXN0cmlidXRlZCBTeXN0ZW1zIEdyb3VwMRowGAYDVQQDExFBbmRyZWFzIEhh
ZWJlcmxlbjEhMB8GCSqGSIb3DQEJARYSZGVtb2NhQG9jdGFyaW5lLmRlMB4XDTE1
MDQyMDIwNDcwMFoXDTE2MDQxOTIwNDcwMFowga4xCzAJBgNVBAYTAkRFMREwDwYD
VQQIEwhTYWFybGFuZDEQMA4GA1UEChMHTVBJLVNXUzEiMCAGA1UECxMZRGlzdHJp
YnV0ZWQgU3lzdGVtcyBHcm91cDExMC8GA1UEAxMoM2Y4YjllOWRiMmQ1ODE4Njkx
YzdmZGIwNDU5YjAyNzMxZmZhZDg4ODEjMCEGCSqGSIb3DQEJARYUbm9kZTAwOTJA
b2N0YXJpbmUuZGUwgZ8wDQYJKoZIhvcNAQEBBQADgY0AMIGJAoGBALPDZbNZaSsw
txiZ8RvgxXZhFk4P7fFyFwTjo6vcqu6lNh17qfVCu0aB88E9ufcGrwonSB0dYfgg
89156qW0xwFQyaTlM4FFHJWn57JPwDD1vF4f6lNsvh6b40DnejD7FwExBSVpMBxy
yb/dJ+Qjiaq0Q7Cjm77e/69D1C7V3VpLAgMBAAEwDQYJKoZIhvcNAQEEBQADgYEA
s1OyS9V33x5Vgep+8GsA5CQHCDk5bTCevPyUSjCuz2KOk9PZniDHBiDQtWyE0o7O
JO1IE/m+KzUWTTMh+ThUylQoyajYvSSRjQ16b2AkG/9XudZwwGjKZ79py+18SAMq
+ZZV78+A57MPpF0NNSt7pev8TG7S7LWp3XffZG/wjHU=
-----END CERTIFICATE-----
