Certificate:
    Data:
        Version: 1 (0x0)
        Serial Number:
            9b:27:d7:e8:d1:ba:08:1a
        Signature Algorithm: md5WithRSAEncryption
        Issuer: C=DE, ST=Saarland, O=MPI-SWS, OU=Distributed Systems Group, CN=Andreas Haeberlen/emailAddress=democa@octarine.de
        Validity
            Not Before: Apr 20 20:46:59 2015 GMT
            Not After : Apr 19 20:46:59 2016 GMT
        Subject: C=DE, ST=Saarland, O=MPI-SWS, OU=Distributed Systems Group, CN=a43fefdf1da777a20ae79d78c51f338e8ce6bb5d/emailAddress=node0066@octarine.de
        Subject Public Key Info:
            Public Key Algorithm: rsaEncryption
            RSA Public Key: (1024 bit)
                Modulus (1024 bit):
                    00:cb:9e:a8:00:af:c8:9f:85:58:16:0f:f5:d5:fa:
                    81:ee:74:2b:01:6f:d3:45:42:4b:25:ab:70:11:bd:
                    42:6d:50:01:f9:0b:c0:06:ca:ce:5e:04:55:39:42:
                    50:e1:8f:75:ed:d3:74:a6:77:3e:e8:04:6c:af:a7:
                    1b:ae:5c:72:dc:af:eb:e9:15:38:dc:ae:c4:70:b1:
                    d0:88:55:39:3f:db:33:4d:99:8e:aa:5c:c8:15:20:
                    50:2b:9e:54:8b:d4:ac:3e:2c:b6:76:14:b0:df:2e:
                    17:a1:62:83:52:10:16:52:dd:3b:83:56:1d:4c:8f:
                    8e:da:3c:f9:a8:1e:25:22:3f
                Exponent: 65537 (0x10001)
    Signature Algorithm: md5WithRSAEncryption
        36:33:1b:f9:7a:ca:e6:33:2e:87:5e:0b:67:49:0e:94:43:bc:
        29:92:5a:67:73:e5:77:af:0a:70:67:61:22:64:10:94:ed:b5:
        0e:a4:6f:1e:2c:27:21:a6:8f:dd:69:c8:fd:38:55:39:a4:41:
        b2:66:08:a9:1e:35:29:ef:00:a2:b2:55:f7:1e:bf:d2:29:e1:
        d8:1f:34:f4:34:23:ff:56:bb:5f:e0:21:d9:87:e3:5d:e7:31:
        8f:54:2e:c7:84:7f:ee:67:52:c7:19:a0:82:b6:f6:73:34:5e:
        3a:1d:88:46:d1:3d:c8:81:34:4d:3f:1f:95:54:2b:43:86:69:
        cd:9e
-----BEGIN CERTIFICATE-----
MIICvDCCAiUCCQCbJ9fo0boIGjANBgkqhkiG9w0BAQQFADCBlTELMAkGA1UEBhMC
REUxETAPBgNVBAgTCFNhYXJsYW5kMRAwDgYDVQQKEwdNUEktU1dTMSIwIAYDVQQL
ExlEaXN0cmlidXRlZCBTeXN0ZW1zIEdyb3VwMRowGAYDVQQDExFBbmRyZWFzIEhh
ZWJlcmxlbjEhMB8GCSqGSIb3DQEJARYSZGVtb2NhQG9jdGFyaW5lLmRlMB4XDTE1
MDQyMDIwNDY1OVoXDTE2MDQxOTIwNDY1OVowga4xCzAJBgNVBAYTAkRFMREwDwYD
VQQIEwhTYWFybGFuZDEQMA4GA1UEChMHTVBJLVNXUzEiMCAGA1UECxMZRGlzdHJp
YnV0ZWQgU3lzdGVtcyBHcm91cDExMC8GA1UEAxMoYTQzZmVmZGYxZGE3NzdhMjBh
ZTc5ZDc4YzUxZjMzOGU4Y2U2YmI1ZDEjMCEGCSqGSIb3DQEJARYUbm9kZTAwNjZA
b2N0YXJpbmUuZGUwgZ8wDQYJKoZIhvcNAQEBBQADgY0AMIGJAoGBAMueqACvyJ+F
WBYP9dX6ge50KwFv00VCSyWrcBG9Qm1QAfkLwAbKzl4EVTlCUOGPde3TdKZ3PugE
bK+nG65cctyv6+kVONyuxHCx0IhVOT/bM02ZjqpcyBUgUCueVIvUrD4stnYUsN8u
F6Fig1IQFlLdO4NWHUyPjto8+ageJSI/AgMBAAEwDQYJKoZIhvcNAQEEBQADgYEA
NjMb+XrK5jMuh14LZ0kOlEO8KZJaZ3Pld68KcGdhImQQlO21DqRvHiwnIaaP3WnI
/ThVOaRBsmYIqR41Ke8AorJV9x6/0inh2B809DQj/1a7X+Ah2YfjXecxj1Qux4R/
7mdSxxmggrb2czReOh2IRtE9yIE0TT8flVQrQ4ZpzZ4=
-----END CERTIFICATE-----
