Certificate:
    Data:
        Version: 1 (0x0)
        Serial Number:
            9b:27:d7:e8:d1:ba:0a:af
        Signature Algorithm: md5WithRSAEncryption
        Issuer: C=DE, ST=Saarland, O=MPI-SWS, OU=Distributed Systems Group, CN=Andreas Haeberlen/emailAddress=democa@octarine.de
        Validity
            Not Before: Apr 20 20:47:29 2015 GMT
            Not After : Apr 19 20:47:29 2016 GMT
        Subject: C=DE, ST=Saarland, O=MPI-SWS, OU=Distributed Systems Group, CN=f369455a1a6d335559018f7cfd8344847fdb5256/emailAddress=node0727@octarine.de
        Subject Public Key Info:
            Public Key Algorithm: rsaEncryption
            RSA Public Key: (1024 bit)
                Modulus (1024 bit):
                    00:dd:a9:11:03:c3:d8:0d:35:43:36:ab:ee:d5:3a:
                    7c:52:88:f4:7b:b3:e8:98:0a:a7:92:c0:d6:c6:d4:
                    0e:7c:3d:33:d0:72:c1:56:31:ab:5b:16:45:4f:b8:
                    73:73:ba:81:3c:e0:8e:6c:29:34:c4:25:0f:2c:48:
                    81:dd:b5:09:e6:0f:76:8f:8c:a4:e1:cf:cc:23:77:
                    10:23:7a:99:23:c4:7c:4c:78:e2:09:23:a6:3e:ba:
                    03:3e:7a:2e:64:2b:43:0f:68:85:25:bb:b5:24:71:
                    98:c1:9d:37:e4:70:34:44:71:41:37:89:59:17:8f:
                    6a:56:6a:cc:b1:1a:f6:84:91
                Exponent: 65537 (0x10001)
    Signature Algorithm: md5WithRSAEncryption
        a8:ff:55:c7:28:c7:49:d3:4f:ab:7b:87:a3:16:91:65:1c:b3:
        6a:95:ca:d3:dd:90:4b:62:fd:6d:77:64:b8:8b:10:e1:5f:ce:
        f7:bd:f8:64:bf:bf:48:c6:61:70:01:25:94:52:fe:86:6e:95:
        a7:54:5a:64:1c:23:57:48:95:c8:2d:10:71:09:51:fc:49:97:
        7a:ff:63:47:f6:b2:23:35:99:a7:15:a0:06:e3:7d:1c:56:e5:
        62:39:af:b7:0a:ab:48:af:95:bd:4f:31:d0:ca:61:b7:1c:7e:
        4c:97:3c:43:5d:09:13:3b:45:10:c8:db:0f:93:2c:02:08:59:
        41:37
-----BEGIN CERTIFICATE-----
MIICvDCCAiUCCQCbJ9fo0boKrzANBgkqhkiG9w0BAQQFADCBlTELMAkGA1UEBhMC
REUxETAPBgNVBAgTCFNhYXJsYW5kMRAwDgYDVQQKEwdNUEktU1dTMSIwIAYDVQQL
ExlEaXN0cmlidXRlZCBTeXN0ZW1zIEdyb3VwMRowGAYDVQQDExFBbmRyZWFzIEhh
ZWJlcmxlbjEhMB8GCSqGSIb3DQEJARYSZGVtb2NhQG9jdGFyaW5lLmRlMB4XDTE1
MDQyMDIwNDcyOVoXDTE2MDQxOTIwNDcyOVowga4xCzAJBgNVBAYTAkRFMREwDwYD
VQQIEwhTYWFybGFuZDEQMA4GA1UEChMHTVBJLVNXUzEiMCAGA1UECxMZRGlzdHJp
YnV0ZWQgU3lzdGVtcyBHcm91cDExMC8GA1UEAxMoZjM2OTQ1NWExYTZkMzM1NTU5
MDE4ZjdjZmQ4MzQ0ODQ3ZmRiNTI1NjEjMCEGCSqGSIb3DQEJARYUbm9kZTA3MjdA
b2N0YXJpbmUuZGUwgZ8wDQYJKoZIhvcNAQEBBQADgY0AMIGJAoGBAN2pEQPD2A01
Qzar7tU6fFKI9Huz6JgKp5LA1sbUDnw9M9BywVYxq1sWRU+4c3O6gTzgjmwpNMQl
DyxIgd21CeYPdo+MpOHPzCN3ECN6mSPEfEx44gkjpj66Az56LmQrQw9ohSW7tSRx
mMGdN+RwNERxQTeJWRePalZqzLEa9oSRAgMBAAEwDQYJKoZIhvcNAQEEBQADgYEA
qP9VxyjHSdNPq3uHoxaRZRyzapXK092QS2L9bXdkuIsQ4V/O9734ZL+/SMZhcAEl
lFL+hm6Vp1RaZBwjV0iVyC0QcQlR/EmXev9jR/ayIzWZpxWgBuN9HFblYjmvtwqr
SK+VvU8x0Mphtxx+TJc8Q10JEztFEMjbD5MsAghZQTc=
-----END CERTIFICATE-----
