Certificate:
    Data:
        Version: 1 (0x0)
        Serial Number:
            9b:27:d7:e8:d1:ba:0a:b9
        Signature Algorithm: md5WithRSAEncryption
        Issuer: C=DE, ST=Saarland, O=MPI-SWS, OU=Distributed Systems Group, CN=Andreas Haeberlen/emailAddress=democa@octarine.de
        Validity
            Not Before: Apr 20 20:47:29 2015 GMT
            Not After : Apr 19 20:47:29 2016 GMT
        Subject: C=DE, ST=Saarland, O=MPI-SWS, OU=Distributed Systems Group, CN=160bb62048506e04c2e1d871592963589635c661/emailAddress=node0737@octarine.de
        Subject Public Key Info:
            Public Key Algorithm: rsaEncryption
            RSA Public Key: (1024 bit)
                Modulus (1024 bit):
                    00:e5:89:c3:9e:73:6f:25:6d:be:cc:7f:bf:c2:91:
                    ee:e7:50:82:a7:0c:a2:c6:72:fc:1d:3f:70:bb:32:
                    4c:ec:3f:18:37:59:7a:70:b4:b1:84:00:8c:08:e4:
                    51:33:ff:cc:4c:9a:e7:45:25:e7:5f:33:de:12:b6:
                    94:ca:01:94:6e:41:df:35:83:1a:cd:bf:be:52:a0:
                    ec:9f:4b:32:07:b3:3c:78:7e:27:69:3f:fb:73:b6:
                    ec:04:fb:ff:5c:5d:a4:66:94:39:ce:15:5c:eb:9a:
                    c4:11:4e:e4:da:a1:14:85:a8:2d:4c:1e:30:90:2b:
                    30:21:0e:10:ec:a3:c3:02:59
                Exponent: 65537 (0x10001)
    Signature Algorithm: md5WithRSAEncryption
        3e:13:99:00:4d:ba:7d:00:b5:27:e1:0e:dc:a9:a6:1c:ea:bb:
        c4:12:b5:13:da:b0:21:f2:5f:c1:5a:5a:d3:d2:2b:75:ca:f3:
        f9:a8:1b:1f:e8:18:7b:18:5d:38:b4:94:02:a7:07:7a:47:40:
        26:54:4f:11:35:eb:47:6d:38:85:9f:87:a4:96:77:d0:64:b4:
        ee:1d:9c:51:9c:ab:fe:75:16:80:26:fa:cb:8b:65:bc:aa:17:
        cd:08:16:61:71:87:fa:7e:7b:a9:31:09:33:13:65:c9:fd:43:
        20:56:ce:05:ff:39:c6:a5:97:ea:f7:64:00:3a:79:61:33:2f:
        53:85
-----BEGIN CERTIFICATE-----
MIICvDCCAiUCCQCbJ9fo0boKuTANBgkqhkiG9w0BAQQFADCBlTELMAkGA1UEBhMC
REUxETAPBgNVBAgTCFNhYXJsYW5kMRAwDgYDVQQKEwdNUEktU1dTMSIwIAYDVQQL
ExlEaXN0cmlidXRlZCBTeXN0ZW1zIEdyb3VwMRowGAYDVQQDExFBbmRyZWFzIEhh
ZWJlcmxlbjEhMB8GCSqGSIb3DQEJARYSZGVtb2NhQG9jdGFyaW5lLmRlMB4XDTE1
MDQyMDIwNDcyOVoXDTE2MDQxOTIwNDcyOVowga4xCzAJBgNVBAYTAkRFMREwDwYD
VQQIEwhTYWFybGFuZDEQMA4GA1UEChMHTVBJLVNXUzEiMCAGA1UECxMZRGlzdHJp
YnV0ZWQgU3lzdGVtcyBHcm91cDExMC8GA1UEAxMoMTYwYmI2MjA0ODUwNmUwNGMy
ZTFkODcxNTkyOTYzNTg5NjM1YzY2MTEjMCEGCSqGSIb3DQEJARYUbm9kZTA3MzdA
b2N0YXJpbmUuZGUwgZ8wDQYJKoZIhvcNAQEBBQADgY0AMIGJAoGBAOWJw55zbyVt
vsx/v8KR7udQgqcMosZy/B0/cLsyTOw/GDdZenC0sYQAjAjkUTP/zEya50Ul518z
3hK2lMoBlG5B3zWDGs2/vlKg7J9LMgezPHh+J2k/+3O27AT7/1xdpGaUOc4VXOua
xBFO5NqhFIWoLUweMJArMCEOEOyjwwJZAgMBAAEwDQYJKoZIhvcNAQEEBQADgYEA
PhOZAE26fQC1J+EO3KmmHOq7xBK1E9qwIfJfwVpa09Irdcrz+agbH+gYexhdOLSU
AqcHekdAJlRPETXrR204hZ+HpJZ30GS07h2cUZyr/nUWgCb6y4tlvKoXzQgWYXGH
+n57qTEJMxNlyf1DIFbOBf85xqWX6vdkADp5YTMvU4U=
-----END CERTIFICATE-----
