Certificate:
    Data:
        Version: 1 (0x0)
        Serial Number:
            9b:27:d7:e8:d1:ba:09:1f
        Signature Algorithm: md5WithRSAEncryption
        Issuer: C=DE, ST=Saarland, O=MPI-SWS, OU=Distributed Systems Group, CN=Andreas Haeberlen/emailAddress=democa@octarine.de
        Validity
            Not Before: Apr 20 20:47:11 2015 GMT
            Not After : Apr 19 20:47:11 2016 GMT
        Subject: C=DE, ST=Saarland, O=MPI-SWS, OU=Distributed Systems Group, CN=8fa974794dbcf1deb3f5fb893ca07c30bd9321c6/emailAddress=node0327@octarine.de
        Subject Public Key Info:
            Public Key Algorithm: rsaEncryption
            RSA Public Key: (1024 bit)
                Modulus (1024 bit):
                    00:c9:e6:b8:e7:18:cc:b0:8b:3f:4f:6f:4f:52:aa:
                    3a:5e:d4:45:64:3f:76:51:7f:db:b6:44:02:c1:35:
                    c0:05:e3:ad:8d:ba:23:85:87:fc:e4:a0:b3:23:65:
                    81:fe:aa:3a:ef:6f:d3:3a:b1:6d:fd:26:01:f5:5d:
                    de:80:8f:24:6e:72:91:fe:3a:86:d5:a8:0b:3f:06:
                    9e:1b:f9:f0:a0:fd:d8:cc:ca:47:6d:ad:0c:ac:34:
                    49:86:56:d7:6b:3c:bd:35:4a:42:b2:3d:94:75:7b:
                    04:ed:ee:54:50:df:70:73:bc:d7:e3:09:35:90:64:
                    f1:c8:91:4e:4a:6b:b3:7d:1f
                Exponent: 65537 (0x10001)
    Signature Algorithm: md5WithRSAEncryption
        29:e6:24:84:36:d8:6f:54:d2:dd:1d:34:c9:fa:fe:36:2e:bf:
        ce:94:93:2b:22:1a:32:18:94:7e:8c:e8:43:05:4c:3d:a1:da:
        8e:dc:62:b2:1c:5c:f5:10:ce:e6:44:00:47:12:f1:0c:87:f4:
        e4:23:88:34:b4:aa:1d:13:63:63:6c:da:55:dd:07:cc:7a:b0:
        b0:d3:da:27:4c:36:1b:72:0e:b8:f0:8f:7b:8a:80:1d:9f:78:
        b5:49:ff:32:19:d1:1d:30:56:35:c4:33:bf:1a:57:ed:94:80:
        c8:81:56:ad:b2:04:aa:6b:cd:f5:68:ee:cb:45:e4:eb:4c:54:
        17:4f
-----BEGIN CERTIFICATE-----
MIICvDCCAiUCCQCbJ9fo0boJHzANBgkqhkiG9w0BAQQFADCBlTELMAkGA1UEBhMC
REUxETAPBgNVBAgTCFNhYXJsYW5kMRAwDgYDVQQKEwdNUEktU1dTMSIwIAYDVQQL
ExlEaXN0cmlidXRlZCBTeXN0ZW1zIEdyb3VwMRowGAYDVQQDExFBbmRyZWFzIEhh
ZWJlcmxlbjEhMB8GCSqGSIb3DQEJARYSZGVtb2NhQG9jdGFyaW5lLmRlMB4XDTE1
MDQyMDIwNDcxMVoXDTE2MDQxOTIwNDcxMVowga4xCzAJBgNVBAYTAkRFMREwDwYD
VQQIEwhTYWFybGFuZDEQMA4GA1UEChMHTVBJLVNXUzEiMCAGA1UECxMZRGlzdHJp
YnV0ZWQgU3lzdGVtcyBHcm91cDExMC8GA1UEAxMoOGZhOTc0Nzk0ZGJjZjFkZWIz
ZjVmYjg5M2NhMDdjMzBiZDkzMjFjNjEjMCEGCSqGSIb3DQEJARYUbm9kZTAzMjdA
b2N0YXJpbmUuZGUwgZ8wDQYJKoZIhvcNAQEBBQADgY0AMIGJAoGBAMnmuOcYzLCL
P09vT1KqOl7URWQ/dlF/27ZEAsE1wAXjrY26I4WH/OSgsyNlgf6qOu9v0zqxbf0m
AfVd3oCPJG5ykf46htWoCz8Gnhv58KD92MzKR22tDKw0SYZW12s8vTVKQrI9lHV7
BO3uVFDfcHO81+MJNZBk8ciRTkprs30fAgMBAAEwDQYJKoZIhvcNAQEEBQADgYEA
KeYkhDbYb1TS3R00yfr+Ni6/zpSTKyIaMhiUfozoQwVMPaHajtxishxc9RDO5kQA
RxLxDIf05COINLSqHRNjY2zaVd0HzHqwsNPaJ0w2G3IOuPCPe4qAHZ94tUn/MhnR
HTBWNcQzvxpX7ZSAyIFWrbIEqmvN9Wjuy0Xk60xUF08=
-----END CERTIFICATE-----
