Certificate:
    Data:
        Version: 1 (0x0)
        Serial Number:
            9b:27:d7:e8:d1:ba:0a:c1
        Signature Algorithm: md5WithRSAEncryption
        Issuer: C=DE, ST=Saarland, O=MPI-SWS, OU=Distributed Systems Group, CN=Andreas Haeberlen/emailAddress=democa@octarine.de
        Validity
            Not Before: Apr 20 20:47:30 2015 GMT
            Not After : Apr 19 20:47:30 2016 GMT
        Subject: C=DE, ST=Saarland, O=MPI-SWS, OU=Distributed Systems Group, CN=9a7f599367f6a012d188f0476231f4b8f374c082/emailAddress=node0745@octarine.de
        Subject Public Key Info:
            Public Key Algorithm: rsaEncryption
            RSA Public Key: (1024 bit)
                Modulus (1024 bit):
                    00:95:ff:3d:8d:3c:da:b5:60:e2:85:fa:66:e1:43:
                    c8:95:d3:b8:a8:4a:f5:3b:1e:7d:fc:cf:84:f6:9a:
                    bd:60:16:9b:e8:59:0a:6c:0d:36:a7:f8:1f:0f:1a:
                    ea:37:db:9f:ad:1a:93:26:49:69:dc:69:6f:4b:84:
                    01:64:22:01:c5:e3:dd:58:5d:fa:91:8d:de:60:6d:
                    92:44:66:b7:71:3e:b9:d2:8f:79:8c:1d:2b:e8:50:
                    f8:20:a6:c1:d3:a0:fe:4c:13:f5:c7:d9:f6:a8:be:
                    e8:5d:3c:d6:ce:97:55:3d:91:5e:4c:c1:36:cd:5c:
                    ef:3e:84:83:fb:55:80:70:cf
                Exponent: 65537 (0x10001)
    Signature Algorithm: md5WithRSAEncryption
        36:4b:2e:6a:eb:f6:b5:7a:ef:55:41:13:a1:9d:45:4c:9d:c7:
        19:7c:18:43:67:69:21:32:cf:8b:c2:ef:71:d6:45:bf:39:69:
        a9:ef:75:1c:23:f5:0e:41:59:a3:a1:c0:09:59:77:3c:e2:9e:
        2c:a2:49:18:58:de:54:42:e6:81:a2:45:b9:8a:f0:ff:32:a2:
        03:b8:22:50:23:b3:72:cb:f9:28:26:a4:3c:48:53:e5:fa:15:
        59:83:40:29:a8:66:e1:9a:3a:90:11:de:4b:9c:ee:35:23:f2:
        bf:d7:60:9c:06:0f:8f:72:9e:6e:01:83:67:b8:5e:a8:f2:a9:
        03:16
-----BEGIN CERTIFICATE-----
MIICvDCCAiUCCQCbJ9fo0boKwTANBgkqhkiG9w0BAQQFADCBlTELMAkGA1UEBhMC
REUxETAPBgNVBAgTCFNhYXJsYW5kMRAwDgYDVQQKEwdNUEktU1dTMSIwIAYDVQQL
ExlEaXN0cmlidXRlZCBTeXN0ZW1zIEdyb3VwMRowGAYDVQQDExFBbmRyZWFzIEhh
ZWJlcmxlbjEhMB8GCSqGSIb3DQEJARYSZGVtb2NhQG9jdGFyaW5lLmRlMB4XDTE1
MDQyMDIwNDczMFoXDTE2MDQxOTIwNDczMFowga4xCzAJBgNVBAYTAkRFMREwDwYD
VQQIEwhTYWFybGFuZDEQMA4GA1UEChMHTVBJLVNXUzEiMCAGA1UECxMZRGlzdHJp
YnV0ZWQgU3lzdGVtcyBHcm91cDExMC8GA1UEAxMoOWE3ZjU5OTM2N2Y2YTAxMmQx
ODhmMDQ3NjIzMWY0YjhmMzc0YzA4MjEjMCEGCSqGSIb3DQEJARYUbm9kZTA3NDVA
b2N0YXJpbmUuZGUwgZ8wDQYJKoZIhvcNAQEBBQADgY0AMIGJAoGBAJX/PY082rVg
4oX6ZuFDyJXTuKhK9TseffzPhPaavWAWm+hZCmwNNqf4Hw8a6jfbn60akyZJadxp
b0uEAWQiAcXj3Vhd+pGN3mBtkkRmt3E+udKPeYwdK+hQ+CCmwdOg/kwT9cfZ9qi+
6F081s6XVT2RXkzBNs1c7z6Eg/tVgHDPAgMBAAEwDQYJKoZIhvcNAQEEBQADgYEA
Nksuauv2tXrvVUEToZ1FTJ3HGXwYQ2dpITLPi8LvcdZFvzlpqe91HCP1DkFZo6HA
CVl3POKeLKJJGFjeVELmgaJFuYrw/zKiA7giUCOzcsv5KCakPEhT5foVWYNAKahm
4Zo6kBHeS5zuNSPyv9dgnAYPj3KebgGDZ7heqPKpAxY=
-----END CERTIFICATE-----
