Certificate:
    Data:
        Version: 1 (0x0)
        Serial Number:
            9b:27:d7:e8:d1:ba:09:cd
        Signature Algorithm: md5WithRSAEncryption
        Issuer: C=DE, ST=Saarland, O=MPI-SWS, OU=Distributed Systems Group, CN=Andreas Haeberlen/emailAddress=democa@octarine.de
        Validity
            Not Before: Apr 20 20:47:18 2015 GMT
            Not After : Apr 19 20:47:18 2016 GMT
        Subject: C=DE, ST=Saarland, O=MPI-SWS, OU=Distributed Systems Group, CN=01e1176b028b375054ca14b91140c1ac39e50501/emailAddress=node0501@octarine.de
        Subject Public Key Info:
            Public Key Algorithm: rsaEncryption
            RSA Public Key: (1024 bit)
                Modulus (1024 bit):
                    00:d1:c6:c8:75:6e:87:37:45:3d:65:f6:6a:13:1c:
                    aa:0c:fa:d8:49:70:56:86:7f:3a:0d:2e:f2:48:27:
                    7a:d9:86:d3:c8:e7:d0:5e:48:45:cc:0a:0b:b7:75:
                    8a:7f:6b:93:dd:b6:7b:34:a1:bf:2a:d8:98:f2:6f:
                    39:f1:ca:c6:a5:8f:5d:a6:44:55:d9:3c:52:d4:25:
                    b6:5d:6c:6b:1c:7b:89:b3:48:f5:de:7c:0e:ab:ef:
                    0b:72:aa:a6:4b:49:5d:52:81:15:1d:f5:ad:27:19:
                    12:75:ef:d5:c8:3f:34:e4:f2:f9:be:f4:35:83:78:
                    2b:8f:2c:b9:c4:28:98:5f:85
                Exponent: 65537 (0x10001)
    Signature Algorithm: md5WithRSAEncryption
        73:e3:69:d1:44:37:de:2c:d5:0f:bc:f1:5c:f6:59:99:28:8b:
        32:9f:81:ce:fa:28:46:69:7b:77:9d:f5:d4:5a:95:9c:58:d3:
        fd:4a:0a:df:60:87:26:9a:9d:17:c4:5d:69:b7:b5:1b:b9:fc:
        db:34:a5:f3:39:5f:d0:55:2d:50:e1:19:59:c1:5f:ff:ff:fc:
        6f:21:f5:68:0e:fe:36:6f:46:4f:50:4c:36:b5:05:f3:78:0a:
        fa:3b:cf:67:ca:c6:1d:5c:00:c1:55:e9:e0:f3:1a:58:43:a7:
        b4:31:16:b0:d1:aa:ef:2b:30:67:43:66:5e:e2:5d:65:bb:da:
        50:71
-----BEGIN CERTIFICATE-----
MIICvDCCAiUCCQCbJ9fo0boJzTANBgkqhkiG9w0BAQQFADCBlTELMAkGA1UEBhMC
REUxETAPBgNVBAgTCFNhYXJsYW5kMRAwDgYDVQQKEwdNUEktU1dTMSIwIAYDVQQL
ExlEaXN0cmlidXRlZCBTeXN0ZW1zIEdyb3VwMRowGAYDVQQDExFBbmRyZWFzIEhh
ZWJlcmxlbjEhMB8GCSqGSIb3DQEJARYSZGVtb2NhQG9jdGFyaW5lLmRlMB4XDTE1
MDQyMDIwNDcxOFoXDTE2MDQxOTIwNDcxOFowga4xCzAJBgNVBAYTAkRFMREwDwYD
VQQIEwhTYWFybGFuZDEQMA4GA1UEChMHTVBJLVNXUzEiMCAGA1UECxMZRGlzdHJp
YnV0ZWQgU3lzdGVtcyBHcm91cDExMC8GA1UEAxMoMDFlMTE3NmIwMjhiMzc1MDU0
Y2ExNGI5MTE0MGMxYWMzOWU1MDUwMTEjMCEGCSqGSIb3DQEJARYUbm9kZTA1MDFA
b2N0YXJpbmUuZGUwgZ8wDQYJKoZIhvcNAQEBBQADgY0AMIGJAoGBANHGyHVuhzdF
PWX2ahMcqgz62ElwVoZ/Og0u8kgnetmG08jn0F5IRcwKC7d1in9rk922ezShvyrY
mPJvOfHKxqWPXaZEVdk8UtQltl1saxx7ibNI9d58DqvvC3KqpktJXVKBFR31rScZ
EnXv1cg/NOTy+b70NYN4K48sucQomF+FAgMBAAEwDQYJKoZIhvcNAQEEBQADgYEA
c+Np0UQ33izVD7zxXPZZmSiLMp+BzvooRml7d5311FqVnFjT/UoK32CHJpqdF8Rd
abe1G7n82zSl8zlf0FUtUOEZWcFf///8byH1aA7+Nm9GT1BMNrUF83gK+jvPZ8rG
HVwAwVXp4PMaWEOntDEWsNGq7yswZ0NmXuJdZbvaUHE=
-----END CERTIFICATE-----
