Certificate:
    Data:
        Version: 1 (0x0)
        Serial Number:
            9b:27:d7:e8:d1:ba:08:40
        Signature Algorithm: md5WithRSAEncryption
        Issuer: C=DE, ST=Saarland, O=MPI-SWS, OU=Distributed Systems Group, CN=Andreas Haeberlen/emailAddress=democa@octarine.de
        Validity
            Not Before: Apr 20 20:47:01 2015 GMT
            Not After : Apr 19 20:47:01 2016 GMT
        Subject: C=DE, ST=Saarland, O=MPI-SWS, OU=Distributed Systems Group, CN=685fed520b3949ebb24c1a4001dc4b6b3ca2904a/emailAddress=node0104@octarine.de
        Subject Public Key Info:
            Public Key Algorithm: rsaEncryption
            RSA Public Key: (1024 bit)
                Modulus (1024 bit):
                    00:f1:ab:4c:f8:24:2d:84:25:ba:93:e2:2b:d1:f0:
                    c5:63:cb:c9:d4:01:b9:b2:d8:91:2d:2e:3a:3c:1b:
                    63:d9:6c:a3:52:89:25:47:2e:26:3b:08:23:da:6d:
                    50:7b:9c:2f:b9:43:6b:fd:b8:b8:d5:2b:ab:e2:e5:
                    95:aa:93:6d:a7:7c:21:a6:e5:37:d4:2a:01:b8:02:
                    30:88:e1:6e:76:4a:58:9c:fd:7a:bf:b3:30:c8:04:
                    a7:4d:54:a2:7d:82:dc:ea:0b:90:40:68:0e:1e:3c:
                    68:13:bf:74:2a:2f:39:c8:b1:6a:ce:3a:73:08:56:
                    dd:cb:4c:3d:89:67:44:42:65
                Exponent: 65537 (0x10001)
    Signature Algorithm: md5WithRSAEncryption
        5b:f8:53:7c:10:32:35:24:c5:73:5a:09:e0:9d:b1:ce:cd:cc:
        04:de:e7:ef:14:5c:f9:8a:9b:08:da:01:f8:4d:50:ee:d0:14:
        bb:27:69:b7:b1:fc:4a:b3:ff:8e:aa:58:05:da:44:0f:30:22:
        29:b0:35:e2:13:77:e6:47:00:8a:ad:66:82:f2:6a:33:c8:ed:
        f4:90:4c:98:fb:51:d7:6b:e2:39:05:e3:86:22:aa:2a:8d:1b:
        54:ea:92:ad:01:63:8e:ba:9b:94:00:63:15:bb:e4:d1:d5:34:
        57:24:9a:c5:6a:7f:8a:28:8a:27:1d:cf:9f:f4:cb:6a:e7:ef:
        5b:c0
-----BEGIN CERTIFICATE-----
MIICvDCCAiUCCQCbJ9fo0boIQDANBgkqhkiG9w0BAQQFADCBlTELMAkGA1UEBhMC
REUxETAPBgNVBAgTCFNhYXJsYW5kMRAwDgYDVQQKEwdNUEktU1dTMSIwIAYDVQQL
ExlEaXN0cmlidXRlZCBTeXN0ZW1zIEdyb3VwMRowGAYDVQQDExFBbmRyZWFzIEhh
ZWJlcmxlbjEhMB8GCSqGSIb3DQEJARYSZGVtb2NhQG9jdGFyaW5lLmRlMB4XDTE1
MDQyMDIwNDcwMVoXDTE2MDQxOTIwNDcwMVowga4xCzAJBgNVBAYTAkRFMREwDwYD
VQQIEwhTYWFybGFuZDEQMA4GA1UEChMHTVBJLVNXUzEiMCAGA1UECxMZRGlzdHJp
YnV0ZWQgU3lzdGVtcyBHcm91cDExMC8GA1UEAxMoNjg1ZmVkNTIwYjM5NDllYmIy
NGMxYTQwMDFkYzRiNmIzY2EyOTA0YTEjMCEGCSqGSIb3DQEJARYUbm9kZTAxMDRA
b2N0YXJpbmUuZGUwgZ8wDQYJKoZIhvcNAQEBBQADgY0AMIGJAoGBAPGrTPgkLYQl
upPiK9HwxWPLydQBubLYkS0uOjwbY9lso1KJJUcuJjsII9ptUHucL7lDa/24uNUr
q+LllaqTbad8IablN9QqAbgCMIjhbnZKWJz9er+zMMgEp01Uon2C3OoLkEBoDh48
aBO/dCovOcixas46cwhW3ctMPYlnREJlAgMBAAEwDQYJKoZIhvcNAQEEBQADgYEA
W/hTfBAyNSTFc1oJ4J2xzs3MBN7n7xRc+YqbCNoB+E1Q7tAUuydpt7H8SrP/jqpY
BdpEDzAiKbA14hN35kcAiq1mgvJqM8jt9JBMmPtR12viOQXjhiKqKo0bVOqSrQFj
jrqblABjFbvk0dU0VySaxWp/iiiKJx3Pn/TLaufvW8A=
-----END CERTIFICATE-----
