Certificate:
    Data:
        Version: 1 (0x0)
        Serial Number:
            9b:27:d7:e8:d1:ba:0a:12
        Signature Algorithm: md5WithRSAEncryption
        Issuer: C=DE, ST=Saarland, O=MPI-SWS, OU=Distributed Systems Group, CN=Andreas Haeberlen/emailAddress=democa@octarine.de
        Validity
            Not Before: Apr 20 20:47:22 2015 GMT
            Not After : Apr 19 20:47:22 2016 GMT
        Subject: C=DE, ST=Saarland, O=MPI-SWS, OU=Distributed Systems Group, CN=a7f5a3c4820a2e46e342e26ec46f9e8457afb644/emailAddress=node0570@octarine.de
        Subject Public Key Info:
            Public Key Algorithm: rsaEncryption
            RSA Public Key: (1024 bit)
                Modulus (1024 bit):
                    00:a8:ca:df:49:c6:b0:6c:9b:79:0d:60:b3:c2:e3:
                    c2:db:a8:fc:e4:6c:10:1f:6a:72:dc:a5:8e:53:21:
                    6e:00:13:d8:52:6a:a7:01:12:2d:b0:09:92:28:08:
                    f2:64:f3:e3:03:22:82:a9:14:73:59:2d:33:ef:1b:
                    54:ee:1d:35:4e:b0:cd:8e:eb:8e:94:23:c7:9d:f2:
                    b7:c8:14:4f:5f:77:50:90:19:7f:c5:b7:de:6c:1a:
                    a1:05:29:2a:56:11:5e:c6:59:14:74:2a:cf:d0:db:
                    9f:a1:b2:c0:9d:70:d5:e0:cd:a9:1e:94:4c:b2:e2:
                    3a:aa:dc:48:04:fe:78:ab:db
                Exponent: 65537 (0x10001)
    Signature Algorithm: md5WithRSAEncryption
        a6:3c:73:f6:59:e9:22:c4:1c:9d:7e:84:2d:46:d2:be:0c:b3:
        b2:14:8f:e5:49:9e:5e:21:64:08:36:75:65:af:c4:c6:d9:ae:
        33:2a:8d:8f:05:a1:40:5a:97:7e:72:23:2e:64:da:ac:5a:5b:
        9b:cd:c0:41:32:91:06:5d:d3:52:4e:b0:04:9e:8d:9e:bc:e4:
        f0:b9:58:96:9f:89:ef:dc:44:47:ce:19:ee:fc:9f:2d:26:ff:
        96:0d:80:d7:c1:f3:86:fe:37:15:18:d3:1d:29:9f:18:d9:11:
        df:14:08:8b:a1:25:42:90:fa:4a:00:5c:10:d5:95:25:d8:9b:
        ad:02
-----BEGIN CERTIFICATE-----
MIICvDCCAiUCCQCbJ9fo0boKEjANBgkqhkiG9w0BAQQFADCBlTELMAkGA1UEBhMC
REUxETAPBgNVBAgTCFNhYXJsYW5kMRAwDgYDVQQKEwdNUEktU1dTMSIwIAYDVQQL
ExlEaXN0cmlidXRlZCBTeXN0ZW1zIEdyb3VwMRowGAYDVQQDExFBbmRyZWFzIEhh
ZWJlcmxlbjEhMB8GCSqGSIb3DQEJARYSZGVtb2NhQG9jdGFyaW5lLmRlMB4XDTE1
MDQyMDIwNDcyMloXDTE2MDQxOTIwNDcyMlowga4xCzAJBgNVBAYTAkRFMREwDwYD
VQQIEwhTYWFybGFuZDEQMA4GA1UEChMHTVBJLVNXUzEiMCAGA1UECxMZRGlzdHJp
YnV0ZWQgU3lzdGVtcyBHcm91cDExMC8GA1UEAxMoYTdmNWEzYzQ4MjBhMmU0NmUz
NDJlMjZlYzQ2ZjllODQ1N2FmYjY0NDEjMCEGCSqGSIb3DQEJARYUbm9kZTA1NzBA
b2N0YXJpbmUuZGUwgZ8wDQYJKoZIhvcNAQEBBQADgY0AMIGJAoGBAKjK30nGsGyb
eQ1gs8Ljwtuo/ORsEB9qctyljlMhbgAT2FJqpwESLbAJkigI8mTz4wMigqkUc1kt
M+8bVO4dNU6wzY7rjpQjx53yt8gUT193UJAZf8W33mwaoQUpKlYRXsZZFHQqz9Db
n6GywJ1w1eDNqR6UTLLiOqrcSAT+eKvbAgMBAAEwDQYJKoZIhvcNAQEEBQADgYEA
pjxz9lnpIsQcnX6ELUbSvgyzshSP5UmeXiFkCDZ1Za/ExtmuMyqNjwWhQFqXfnIj
LmTarFpbm83AQTKRBl3TUk6wBJ6Nnrzk8LlYlp+J79xER84Z7vyfLSb/lg2A18Hz
hv43FRjTHSmfGNkR3xQIi6ElQpD6SgBcENWVJdibrQI=
-----END CERTIFICATE-----
