Certificate:
    Data:
        Version: 1 (0x0)
        Serial Number:
            9b:27:d7:e8:d1:ba:08:38
        Signature Algorithm: md5WithRSAEncryption
        Issuer: C=DE, ST=Saarland, O=MPI-SWS, OU=Distributed Systems Group, CN=Andreas Haeberlen/emailAddress=democa@octarine.de
        Validity
            Not Before: Apr 20 20:47:01 2015 GMT
            Not After : Apr 19 20:47:01 2016 GMT
        Subject: C=DE, ST=Saarland, O=MPI-SWS, OU=Distributed Systems Group, CN=aaf9d28bcd2484c189ba9ab5a62e228dd87aa056/emailAddress=node0096@octarine.de
        Subject Public Key Info:
            Public Key Algorithm: rsaEncryption
            RSA Public Key: (1024 bit)
                Modulus (1024 bit):
                    00:e4:d7:85:bd:2c:1d:d1:04:5c:60:78:41:96:3b:
                    71:6d:dd:8d:ff:ee:48:ed:58:4b:0c:10:94:9a:9c:
                    1e:5e:b7:49:e4:12:ca:0b:c8:0e:32:7f:6e:22:e2:
                    1c:a7:bb:fa:a2:79:3a:cc:52:1f:3d:ad:e3:97:bc:
                    03:77:a8:cb:2b:e5:85:3c:66:d5:37:58:c2:e4:2f:
                    09:34:18:fc:7b:53:ac:f9:8e:21:94:9e:6f:06:57:
                    bc:0c:95:64:76:f1:6f:92:0a:c8:ec:c0:9d:08:1f:
                    e7:85:d8:2d:ba:25:ef:6f:6a:2d:ee:06:0d:51:33:
                    a6:79:ba:29:9a:52:0a:14:25
                Exponent: 65537 (0x10001)
    Signature Algorithm: md5WithRSAEncryption
        b3:a1:2c:88:2f:f4:5a:8a:a1:40:df:45:c5:62:d7:d7:b7:af:
        2b:cf:c2:01:0f:08:00:a7:aa:89:b0:57:da:5d:90:34:28:65:
        0f:94:8f:73:8e:d7:d5:75:f6:1e:9d:f1:0a:44:40:92:0c:ab:
        3d:31:63:63:e4:e0:f1:92:4a:dd:0a:c8:4a:4e:fc:9b:07:62:
        1b:1e:97:a1:f2:f6:cd:4a:8c:1c:03:34:c3:18:87:24:b5:18:
        bd:54:a0:32:2d:e8:b6:81:c9:46:b8:04:57:44:02:a2:a0:9f:
        05:d9:34:b1:47:cb:f9:e5:c2:8e:ef:4e:78:26:9b:61:7a:da:
        bd:78
-----BEGIN CERTIFICATE-----
MIICvDCCAiUCCQCbJ9fo0boIODANBgkqhkiG9w0BAQQFADCBlTELMAkGA1UEBhMC
REUxETAPBgNVBAgTCFNhYXJsYW5kMRAwDgYDVQQKEwdNUEktU1dTMSIwIAYDVQQL
ExlEaXN0cmlidXRlZCBTeXN0ZW1zIEdyb3VwMRowGAYDVQQDExFBbmRyZWFzIEhh
ZWJlcmxlbjEhMB8GCSqGSIb3DQEJARYSZGVtb2NhQG9jdGFyaW5lLmRlMB4XDTE1
MDQyMDIwNDcwMVoXDTE2MDQxOTIwNDcwMVowga4xCzAJBgNVBAYTAkRFMREwDwYD
VQQIEwhTYWFybGFuZDEQMA4GA1UEChMHTVBJLVNXUzEiMCAGA1UECxMZRGlzdHJp
YnV0ZWQgU3lzdGVtcyBHcm91cDExMC8GA1UEAxMoYWFmOWQyOGJjZDI0ODRjMTg5
YmE5YWI1YTYyZTIyOGRkODdhYTA1NjEjMCEGCSqGSIb3DQEJARYUbm9kZTAwOTZA
b2N0YXJpbmUuZGUwgZ8wDQYJKoZIhvcNAQEBBQADgY0AMIGJAoGBAOTXhb0sHdEE
XGB4QZY7cW3djf/uSO1YSwwQlJqcHl63SeQSygvIDjJ/biLiHKe7+qJ5OsxSHz2t
45e8A3eoyyvlhTxm1TdYwuQvCTQY/HtTrPmOIZSebwZXvAyVZHbxb5IKyOzAnQgf
54XYLbol729qLe4GDVEzpnm6KZpSChQlAgMBAAEwDQYJKoZIhvcNAQEEBQADgYEA
s6EsiC/0WoqhQN9FxWLX17evK8/CAQ8IAKeqibBX2l2QNChlD5SPc47X1XX2Hp3x
CkRAkgyrPTFjY+Tg8ZJK3QrISk78mwdiGx6XofL2zUqMHAM0wxiHJLUYvVSgMi3o
toHJRrgEV0QCoqCfBdk0sUfL+eXCju9OeCabYXravXg=
-----END CERTIFICATE-----
