Certificate:
    Data:
        Version: 1 (0x0)
        Serial Number:
            9b:27:d7:e8:d1:ba:0a:3c
        Signature Algorithm: md5WithRSAEncryption
        Issuer: C=DE, ST=Saarland, O=MPI-SWS, OU=Distributed Systems Group, CN=Andreas Haeberlen/emailAddress=democa@octarine.de
        Validity
            Not Before: Apr 20 20:47:24 2015 GMT
            Not After : Apr 19 20:47:24 2016 GMT
        Subject: C=DE, ST=Saarland, O=MPI-SWS, OU=Distributed Systems Group, CN=9f33d2140afe472cb7bd51caa9d5ff29e5cc8d18/emailAddress=node0612@octarine.de
        Subject Public Key Info:
            Public Key Algorithm: rsaEncryption
            RSA Public Key: (1024 bit)
                Modulus (1024 bit):
                    00:b3:12:86:c4:7f:55:cf:37:f9:04:0d:24:9e:ba:
                    49:98:44:11:b3:bf:e0:4f:98:6c:d3:ce:02:99:e5:
                    4d:cc:83:f6:b3:03:b2:11:5a:42:f7:72:31:1d:e4:
                    5b:66:35:51:6b:22:fb:e4:ef:08:85:01:e7:86:7f:
                    ad:85:87:a4:98:31:ce:1d:04:20:5f:55:d9:c7:52:
                    38:bb:cb:27:28:75:1e:51:0c:2d:68:2b:86:06:05:
                    c0:54:9b:f0:b1:c9:35:64:ea:40:fe:84:93:28:64:
                    32:01:f2:ca:de:d2:cb:c5:58:f1:e4:c5:5b:ef:48:
                    ef:fa:c0:92:e6:f8:5a:c1:7f
                Exponent: 65537 (0x10001)
    Signature Algorithm: md5WithRSAEncryption
        80:6b:27:60:0b:36:ce:54:84:61:62:66:27:be:0f:09:a2:67:
        7c:e7:4f:66:50:2e:9e:a8:f6:50:df:55:94:d9:da:50:e7:f1:
        78:19:4e:2f:15:90:34:c5:b5:51:2f:26:23:58:38:4d:91:25:
        5a:5d:78:cc:b9:6c:52:88:82:22:e8:e0:88:99:12:c5:e8:a1:
        d2:9f:e8:ae:35:bb:bb:33:86:45:e8:a7:e6:1f:0c:d3:c5:18:
        60:c0:56:78:b6:51:25:eb:de:68:54:49:0a:45:22:98:4f:32:
        6a:ee:3c:6d:9b:44:f8:8f:b7:8e:83:e1:35:c7:a0:be:62:b4:
        21:73
-----BEGIN CERTIFICATE-----
MIICvDCCAiUCCQCbJ9fo0boKPDANBgkqhkiG9w0BAQQFADCBlTELMAkGA1UEBhMC
REUxETAPBgNVBAgTCFNhYXJsYW5kMRAwDgYDVQQKEwdNUEktU1dTMSIwIAYDVQQL
ExlEaXN0cmlidXRlZCBTeXN0ZW1zIEdyb3VwMRowGAYDVQQDExFBbmRyZWFzIEhh
ZWJlcmxlbjEhMB8GCSqGSIb3DQEJARYSZGVtb2NhQG9jdGFyaW5lLmRlMB4XDTE1
MDQyMDIwNDcyNFoXDTE2MDQxOTIwNDcyNFowga4xCzAJBgNVBAYTAkRFMREwDwYD
VQQIEwhTYWFybGFuZDEQMA4GA1UEChMHTVBJLVNXUzEiMCAGA1UECxMZRGlzdHJp
YnV0ZWQgU3lzdGVtcyBHcm91cDExMC8GA1UEAxMoOWYzM2QyMTQwYWZlNDcyY2I3
YmQ1MWNhYTlkNWZmMjllNWNjOGQxODEjMCEGCSqGSIb3DQEJARYUbm9kZTA2MTJA
b2N0YXJpbmUuZGUwgZ8wDQYJKoZIhvcNAQEBBQADgY0AMIGJAoGBALMShsR/Vc83
+QQNJJ66SZhEEbO/4E+YbNPOApnlTcyD9rMDshFaQvdyMR3kW2Y1UWsi++TvCIUB
54Z/rYWHpJgxzh0EIF9V2cdSOLvLJyh1HlEMLWgrhgYFwFSb8LHJNWTqQP6Ekyhk
MgHyyt7Sy8VY8eTFW+9I7/rAkub4WsF/AgMBAAEwDQYJKoZIhvcNAQEEBQADgYEA
gGsnYAs2zlSEYWJmJ74PCaJnfOdPZlAunqj2UN9VlNnaUOfxeBlOLxWQNMW1US8m
I1g4TZElWl14zLlsUoiCIujgiJkSxeih0p/orjW7uzOGRein5h8M08UYYMBWeLZR
JeveaFRJCkUimE8yau48bZtE+I+3joPhNcegvmK0IXM=
-----END CERTIFICATE-----
