Certificate:
    Data:
        Version: 1 (0x0)
        Serial Number:
            9b:27:d7:e8:d1:ba:08:92
        Signature Algorithm: md5WithRSAEncryption
        Issuer: C=DE, ST=Saarland, O=MPI-SWS, OU=Distributed Systems Group, CN=Andreas Haeberlen/emailAddress=democa@octarine.de
        Validity
            Not Before: Apr 20 20:47:05 2015 GMT
            Not After : Apr 19 20:47:05 2016 GMT
        Subject: C=DE, ST=Saarland, O=MPI-SWS, OU=Distributed Systems Group, CN=3411f7283bc0768c1610943c189745379489ca10/emailAddress=node0186@octarine.de
        Subject Public Key Info:
            Public Key Algorithm: rsaEncryption
            RSA Public Key: (1024 bit)
                Modulus (1024 bit):
                    00:eb:52:60:f8:dd:aa:9e:6d:8e:22:4a:4b:91:bd:
                    84:40:b4:a4:85:18:fd:68:da:35:89:1d:bb:ef:28:
                    98:80:37:71:71:ef:30:05:84:45:6a:43:66:82:aa:
                    27:a5:d0:8d:bc:c5:39:3f:d4:02:16:a1:ae:fe:20:
                    a4:c5:96:c6:9b:2b:90:81:d1:b1:e6:60:21:8e:25:
                    59:f3:80:90:6a:59:1f:aa:6a:1f:84:92:d3:2f:51:
                    61:9c:6e:c6:ba:5d:78:c1:d7:29:a8:cb:c8:0d:20:
                    27:35:46:7c:8a:da:85:6c:47:92:e4:fa:7e:95:6f:
                    18:7a:40:2e:83:6f:a7:a8:27
                Exponent: 65537 (0x10001)
    Signature Algorithm: md5WithRSAEncryption
        0b:06:b7:ff:2f:20:fe:08:c7:f7:9f:77:f5:ee:07:86:d9:da:
        ef:0e:42:f6:76:e9:6a:d7:de:cc:cc:19:3b:6b:3f:53:7e:82:
        63:6c:ed:9e:05:47:5e:31:7e:77:91:be:86:60:7e:48:b1:31:
        60:a2:7a:a9:b0:8d:b8:87:7e:5d:0c:57:0b:ac:74:b2:7d:b8:
        f4:78:3e:84:47:2a:b8:31:7d:fd:b5:86:69:eb:48:c4:d1:04:
        15:22:32:19:35:fd:dd:c0:c7:9a:a2:e3:a8:8f:3c:ee:b1:57:
        05:86:e9:bb:71:be:ca:1b:b2:e1:16:4f:d6:01:86:27:39:6e:
        8a:82
-----BEGIN CERTIFICATE-----
MIICvDCCAiUCCQCbJ9fo0boIkjANBgkqhkiG9w0BAQQFADCBlTELMAkGA1UEBhMC
REUxETAPBgNVBAgTCFNhYXJsYW5kMRAwDgYDVQQKEwdNUEktU1dTMSIwIAYDVQQL
ExlEaXN0cmlidXRlZCBTeXN0ZW1zIEdyb3VwMRowGAYDVQQDExFBbmRyZWFzIEhh
ZWJlcmxlbjEhMB8GCSqGSIb3DQEJARYSZGVtb2NhQG9jdGFyaW5lLmRlMB4XDTE1
MDQyMDIwNDcwNVoXDTE2MDQxOTIwNDcwNVowga4xCzAJBgNVBAYTAkRFMREwDwYD
VQQIEwhTYWFybGFuZDEQMA4GA1UEChMHTVBJLVNXUzEiMCAGA1UECxMZRGlzdHJp
YnV0ZWQgU3lzdGVtcyBHcm91cDExMC8GA1UEAxMoMzQxMWY3MjgzYmMwNzY4YzE2
MTA5NDNjMTg5NzQ1Mzc5NDg5Y2ExMDEjMCEGCSqGSIb3DQEJARYUbm9kZTAxODZA
b2N0YXJpbmUuZGUwgZ8wDQYJKoZIhvcNAQEBBQADgY0AMIGJAoGBAOtSYPjdqp5t
jiJKS5G9hEC0pIUY/WjaNYkdu+8omIA3cXHvMAWERWpDZoKqJ6XQjbzFOT/UAhah
rv4gpMWWxpsrkIHRseZgIY4lWfOAkGpZH6pqH4SS0y9RYZxuxrpdeMHXKajLyA0g
JzVGfIrahWxHkuT6fpVvGHpALoNvp6gnAgMBAAEwDQYJKoZIhvcNAQEEBQADgYEA
Cwa3/y8g/gjH95939e4Hhtna7w5C9nbpatfezMwZO2s/U36CY2ztngVHXjF+d5G+
hmB+SLExYKJ6qbCNuId+XQxXC6x0sn249Hg+hEcquDF9/bWGaetIxNEEFSIyGTX9
3cDHmqLjqI887rFXBYbpu3G+yhuy4RZP1gGGJzluioI=
-----END CERTIFICATE-----
