Certificate:
    Data:
        Version: 1 (0x0)
        Serial Number:
            9b:27:d7:e8:d1:ba:0a:9f
        Signature Algorithm: md5WithRSAEncryption
        Issuer: C=DE, ST=Saarland, O=MPI-SWS, OU=Distributed Systems Group, CN=Andreas Haeberlen/emailAddress=democa@octarine.de
        Validity
            Not Before: Apr 20 20:47:28 2015 GMT
            Not After : Apr 19 20:47:28 2016 GMT
        Subject: C=DE, ST=Saarland, O=MPI-SWS, OU=Distributed Systems Group, CN=89fb889cc624afc040460ef6751fb7a30af9285f/emailAddress=node0711@octarine.de
        Subject Public Key Info:
            Public Key Algorithm: rsaEncryption
            RSA Public Key: (1024 bit)
                Modulus (1024 bit):
                    00:a6:7d:99:9d:bf:fe:d1:a2:4c:6e:35:a4:1a:5d:
                    eb:e7:0d:ca:f9:d7:02:2e:60:a4:31:81:11:25:d8:
                    cd:a7:76:d1:98:a8:74:d5:b8:a3:90:5d:d4:c7:f6:
                    74:e9:90:11:ce:7c:2d:61:62:c0:3b:e3:7b:7b:6e:
                    9b:49:6d:a5:97:96:2d:2f:51:88:1a:b5:a7:4d:57:
                    37:7e:d1:57:de:99:62:c9:b0:5f:35:8f:40:27:b1:
                    10:19:9b:7f:f7:8d:8e:de:68:a2:8c:da:45:c4:f1:
                    03:fb:82:6c:1a:b4:e6:e7:39:2b:df:db:a1:fd:4a:
                    fe:c2:77:da:84:a0:e5:df:07
                Exponent: 65537 (0x10001)
    Signature Algorithm: md5WithRSAEncryption
        40:48:43:2e:7e:53:9b:70:e8:fd:1f:04:92:88:ff:91:36:fc:
        7d:76:0f:b7:5f:00:7c:dd:7e:99:8c:79:7d:7d:94:3a:d4:f2:
        3f:1c:2f:c0:4b:08:c2:dc:c4:fb:33:1d:c5:f3:bb:d1:37:03:
        21:62:4f:12:49:2a:26:0f:18:77:aa:2c:72:5d:23:a8:6d:f7:
        b7:8b:11:55:6f:d0:40:a5:22:98:58:77:f2:86:73:31:fb:c7:
        b0:c7:70:7c:39:07:98:7f:45:d7:a8:5e:2e:cb:91:93:d0:50:
        5b:d3:32:f6:52:eb:42:5b:31:ae:5f:8f:f2:28:6e:1a:66:2f:
        06:cd
-----BEGIN CERTIFICATE-----
MIICvDCCAiUCCQCbJ9fo0boKnzANBgkqhkiG9w0BAQQFADCBlTELMAkGA1UEBhMC
REUxETAPBgNVBAgTCFNhYXJsYW5kMRAwDgYDVQQKEwdNUEktU1dTMSIwIAYDVQQL
ExlEaXN0cmlidXRlZCBTeXN0ZW1zIEdyb3VwMRowGAYDVQQDExFBbmRyZWFzIEhh
ZWJlcmxlbjEhMB8GCSqGSIb3DQEJARYSZGVtb2NhQG9jdGFyaW5lLmRlMB4XDTE1
MDQyMDIwNDcyOFoXDTE2MDQxOTIwNDcyOFowga4xCzAJBgNVBAYTAkRFMREwDwYD
VQQIEwhTYWFybGFuZDEQMA4GA1UEChMHTVBJLVNXUzEiMCAGA1UECxMZRGlzdHJp
YnV0ZWQgU3lzdGVtcyBHcm91cDExMC8GA1UEAxMoODlmYjg4OWNjNjI0YWZjMDQw
NDYwZWY2NzUxZmI3YTMwYWY5Mjg1ZjEjMCEGCSqGSIb3DQEJARYUbm9kZTA3MTFA
b2N0YXJpbmUuZGUwgZ8wDQYJKoZIhvcNAQEBBQADgY0AMIGJAoGBAKZ9mZ2//tGi
TG41pBpd6+cNyvnXAi5gpDGBESXYzad20ZiodNW4o5Bd1Mf2dOmQEc58LWFiwDvj
e3tum0ltpZeWLS9RiBq1p01XN37RV96ZYsmwXzWPQCexEBmbf/eNjt5ooozaRcTx
A/uCbBq05uc5K9/bof1K/sJ32oSg5d8HAgMBAAEwDQYJKoZIhvcNAQEEBQADgYEA
QEhDLn5Tm3Do/R8Ekoj/kTb8fXYPt18AfN1+mYx5fX2UOtTyPxwvwEsIwtzE+zMd
xfO70TcDIWJPEkkqJg8Yd6oscl0jqG33t4sRVW/QQKUimFh38oZzMfvHsMdwfDkH
mH9F16heLsuRk9BQW9My9lLrQlsxrl+P8ihuGmYvBs0=
-----END CERTIFICATE-----
