Certificate:
    Data:
        Version: 1 (0x0)
        Serial Number:
            9b:27:d7:e8:d1:ba:0a:04
        Signature Algorithm: md5WithRSAEncryption
        Issuer: C=DE, ST=Saarland, O=MPI-SWS, OU=Distributed Systems Group, CN=Andreas Haeberlen/emailAddress=democa@octarine.de
        Validity
            Not Before: Apr 20 20:47:21 2015 GMT
            Not After : Apr 19 20:47:21 2016 GMT
        Subject: C=DE, ST=Saarland, O=MPI-SWS, OU=Distributed Systems Group, CN=acb78962a6138b10405dbd888994273d3f4b9be4/emailAddress=node0556@octarine.de
        Subject Public Key Info:
            Public Key Algorithm: rsaEncryption
            RSA Public Key: (1024 bit)
                Modulus (1024 bit):
                    00:e6:b6:1b:56:df:73:aa:58:4c:d0:14:53:c7:24:
                    c4:54:8d:a6:15:24:38:4e:27:82:29:1f:34:b9:1e:
                    db:91:f5:45:31:9b:df:e4:78:ca:33:ed:ac:fc:1f:
                    1a:d4:6a:bf:2a:9d:6e:82:45:90:64:6a:c8:90:5c:
                    47:37:10:04:e8:6a:e1:52:e3:6a:c0:94:7e:84:b1:
                    5b:e8:21:4b:ad:c1:e2:14:13:e0:ae:1c:0e:68:b3:
                    f2:32:14:d7:b4:04:6a:e9:de:ea:56:d0:72:66:d4:
                    0d:bd:f0:01:a8:d6:ab:8d:2b:a5:5c:65:3f:1f:df:
                    7d:ea:94:6c:12:b2:ff:f0:d9
                Exponent: 65537 (0x10001)
    Signature Algorithm: md5WithRSAEncryption
        00:b8:6d:38:dd:28:5b:d5:d9:bc:65:79:0a:dc:0a:61:27:28:
        f8:1b:8d:87:5d:8e:0b:33:e0:22:c8:2a:e8:b7:32:bc:7a:24:
        63:0d:6f:95:03:3a:c3:81:6b:cf:38:84:6c:c8:07:0d:15:e3:
        8b:47:09:a5:97:45:58:83:d2:7c:69:ef:54:5a:4a:b0:be:ff:
        c2:ec:1f:9c:4c:0c:cc:26:0c:eb:93:83:18:b2:fd:a1:ff:60:
        cc:91:54:af:19:b7:e1:ea:78:92:7a:94:99:05:5d:a9:cd:c4:
        e4:2d:43:39:40:06:f3:97:64:70:b3:81:9d:3d:3d:5c:f9:74:
        c1:da
-----BEGIN CERTIFICATE-----
MIICvDCCAiUCCQCbJ9fo0boKBDANBgkqhkiG9w0BAQQFADCBlTELMAkGA1UEBhMC
REUxETAPBgNVBAgTCFNhYXJsYW5kMRAwDgYDVQQKEwdNUEktU1dTMSIwIAYDVQQL
ExlEaXN0cmlidXRlZCBTeXN0ZW1zIEdyb3VwMRowGAYDVQQDExFBbmRyZWFzIEhh
ZWJlcmxlbjEhMB8GCSqGSIb3DQEJARYSZGVtb2NhQG9jdGFyaW5lLmRlMB4XDTE1
MDQyMDIwNDcyMVoXDTE2MDQxOTIwNDcyMVowga4xCzAJBgNVBAYTAkRFMREwDwYD
VQQIEwhTYWFybGFuZDEQMA4GA1UEChMHTVBJLVNXUzEiMCAGA1UECxMZRGlzdHJp
YnV0ZWQgU3lzdGVtcyBHcm91cDExMC8GA1UEAxMoYWNiNzg5NjJhNjEzOGIxMDQw
NWRiZDg4ODk5NDI3M2QzZjRiOWJlNDEjMCEGCSqGSIb3DQEJARYUbm9kZTA1NTZA
b2N0YXJpbmUuZGUwgZ8wDQYJKoZIhvcNAQEBBQADgY0AMIGJAoGBAOa2G1bfc6pY
TNAUU8ckxFSNphUkOE4ngikfNLke25H1RTGb3+R4yjPtrPwfGtRqvyqdboJFkGRq
yJBcRzcQBOhq4VLjasCUfoSxW+ghS63B4hQT4K4cDmiz8jIU17QEaune6lbQcmbU
Db3wAajWq40rpVxlPx/ffeqUbBKy//DZAgMBAAEwDQYJKoZIhvcNAQEEBQADgYEA
ALhtON0oW9XZvGV5CtwKYSco+BuNh12OCzPgIsgq6LcyvHokYw1vlQM6w4FrzziE
bMgHDRXji0cJpZdFWIPSfGnvVFpKsL7/wuwfnEwMzCYM65ODGLL9of9gzJFUrxm3
4ep4knqUmQVdqc3E5C1DOUAG85dkcLOBnT09XPl0wdo=
-----END CERTIFICATE-----
