Certificate:
    Data:
        Version: 1 (0x0)
        Serial Number:
            9b:27:d7:e8:d1:ba:0a:9e
        Signature Algorithm: md5WithRSAEncryption
        Issuer: C=DE, ST=Saarland, O=MPI-SWS, OU=Distributed Systems Group, CN=Andreas Haeberlen/emailAddress=democa@octarine.de
        Validity
            Not Before: Apr 20 20:47:28 2015 GMT
            Not After : Apr 19 20:47:28 2016 GMT
        Subject: C=DE, ST=Saarland, O=MPI-SWS, OU=Distributed Systems Group, CN=55fe4eeb32243e8d44d573c865442098596a856b/emailAddress=node0710@octarine.de
        Subject Public Key Info:
            Public Key Algorithm: rsaEncryption
            RSA Public Key: (1024 bit)
                Modulus (1024 bit):
                    00:9e:87:a1:35:75:0f:b9:8e:8f:f0:3f:43:e1:af:
                    93:2e:a4:b2:54:1c:47:1e:6e:ef:81:92:eb:74:61:
                    43:07:fa:c0:f8:e1:ee:ea:28:92:5e:e5:d7:26:bf:
                    ad:3b:ce:3c:4b:8f:cf:e2:07:5c:58:ac:4f:0d:58:
                    b9:f1:57:74:00:e6:18:a9:43:51:fa:b6:e7:9b:8c:
                    1d:20:e8:22:ef:3a:ee:5b:93:aa:8a:cb:b8:b2:5c:
                    57:fc:ff:78:40:12:e3:00:93:cc:50:a6:ad:2b:b3:
                    90:87:69:23:83:da:48:e1:01:cd:5c:69:41:23:6d:
                    26:a4:29:a9:d3:8b:9d:0e:1d
                Exponent: 65537 (0x10001)
    Signature Algorithm: md5WithRSAEncryption
        49:ac:82:31:e9:81:d3:d7:29:3f:e4:b4:b9:25:7a:53:27:fd:
        b1:88:41:53:28:de:40:78:6d:6c:18:0c:15:4c:c0:5c:69:d2:
        75:99:9e:2d:fd:93:b3:d9:78:3c:30:c0:0c:c7:63:6d:24:f4:
        01:e2:81:a6:73:f5:79:c0:6e:e1:41:17:c8:29:75:bd:ea:52:
        d4:ef:77:de:b0:b6:82:ae:55:a3:84:c7:8b:8c:cf:9b:09:88:
        1b:c0:64:38:e7:30:15:56:06:40:b3:6f:87:d0:83:9d:32:f7:
        22:9c:55:d3:1e:50:63:0d:e3:ef:b9:6d:f9:e1:ad:26:33:08:
        90:01
-----BEGIN CERTIFICATE-----
MIICvDCCAiUCCQCbJ9fo0boKnjANBgkqhkiG9w0BAQQFADCBlTELMAkGA1UEBhMC
REUxETAPBgNVBAgTCFNhYXJsYW5kMRAwDgYDVQQKEwdNUEktU1dTMSIwIAYDVQQL
ExlEaXN0cmlidXRlZCBTeXN0ZW1zIEdyb3VwMRowGAYDVQQDExFBbmRyZWFzIEhh
ZWJlcmxlbjEhMB8GCSqGSIb3DQEJARYSZGVtb2NhQG9jdGFyaW5lLmRlMB4XDTE1
MDQyMDIwNDcyOFoXDTE2MDQxOTIwNDcyOFowga4xCzAJBgNVBAYTAkRFMREwDwYD
VQQIEwhTYWFybGFuZDEQMA4GA1UEChMHTVBJLVNXUzEiMCAGA1UECxMZRGlzdHJp
YnV0ZWQgU3lzdGVtcyBHcm91cDExMC8GA1UEAxMoNTVmZTRlZWIzMjI0M2U4ZDQ0
ZDU3M2M4NjU0NDIwOTg1OTZhODU2YjEjMCEGCSqGSIb3DQEJARYUbm9kZTA3MTBA
b2N0YXJpbmUuZGUwgZ8wDQYJKoZIhvcNAQEBBQADgY0AMIGJAoGBAJ6HoTV1D7mO
j/A/Q+Gvky6kslQcRx5u74GS63RhQwf6wPjh7uookl7l1ya/rTvOPEuPz+IHXFis
Tw1YufFXdADmGKlDUfq255uMHSDoIu867luTqorLuLJcV/z/eEAS4wCTzFCmrSuz
kIdpI4PaSOEBzVxpQSNtJqQpqdOLnQ4dAgMBAAEwDQYJKoZIhvcNAQEEBQADgYEA
SayCMemB09cpP+S0uSV6Uyf9sYhBUyjeQHhtbBgMFUzAXGnSdZmeLf2Ts9l4PDDA
DMdjbST0AeKBpnP1ecBu4UEXyCl1vepS1O933rC2gq5Vo4THi4zPmwmIG8BkOOcw
FVYGQLNvh9CDnTL3IpxV0x5QYw3j77lt+eGtJjMIkAE=
-----END CERTIFICATE-----
