Certificate:
    Data:
        Version: 1 (0x0)
        Serial Number:
            9b:27:d7:e8:d1:ba:0b:26
        Signature Algorithm: md5WithRSAEncryption
        Issuer: C=DE, ST=Saarland, O=MPI-SWS, OU=Distributed Systems Group, CN=Andreas Haeberlen/emailAddress=democa@octarine.de
        Validity
            Not Before: Apr 20 20:47:34 2015 GMT
            Not After : Apr 19 20:47:34 2016 GMT
        Subject: C=DE, ST=Saarland, O=MPI-SWS, OU=Distributed Systems Group, CN=1f40ded09dde14a4e59b8506412d31750c6eb3e4/emailAddress=node0846@octarine.de
        Subject Public Key Info:
            Public Key Algorithm: rsaEncryption
            RSA Public Key: (1024 bit)
                Modulus (1024 bit):
                    00:e6:1d:12:74:7e:cf:cb:9c:de:79:ca:c3:fd:4a:
                    b3:cb:37:14:6a:ee:be:89:54:5a:ab:5a:fa:c4:ac:
                    65:04:c5:2d:9d:e3:43:1b:a7:b7:bf:da:4b:1c:54:
                    0d:54:eb:ce:a4:39:4f:74:8d:d2:10:ca:e3:2e:51:
                    d8:75:4f:3f:c5:39:4b:9e:7c:ae:4f:5e:2c:d9:03:
                    e4:f2:97:0e:21:91:28:7c:df:d8:b1:9f:b2:c3:ff:
                    4b:83:c4:f5:c3:28:ff:bc:00:5e:88:19:7f:90:bb:
                    2c:08:01:b5:68:37:8a:ca:28:56:f0:58:83:b6:a7:
                    77:04:bc:85:11:70:b3:87:f7
                Exponent: 65537 (0x10001)
    Signature Algorithm: md5WithRSAEncryption
        a0:f0:fa:1e:46:04:ab:8a:ec:29:58:e1:2c:50:b7:b9:8e:cd:
        30:59:d9:09:8f:d9:d4:90:a3:31:39:6d:d9:fd:c6:1f:ee:43:
        bb:9d:5f:52:3f:96:e3:11:08:3c:12:79:1d:75:a2:a8:f8:e2:
        d2:e9:27:ee:5d:82:c9:36:96:a0:d0:76:5f:3c:1f:8a:9d:e1:
        91:ea:c0:a7:fb:33:30:e1:2f:57:d0:68:3b:6e:59:b3:ff:7c:
        e2:a6:61:51:62:dc:04:01:de:81:20:db:bc:5f:bf:a6:76:c6:
        38:4e:9d:65:f8:44:e0:37:86:59:2c:15:de:1c:fb:ae:bc:e9:
        2b:5e
-----BEGIN CERTIFICATE-----
MIICvDCCAiUCCQCbJ9fo0boLJjANBgkqhkiG9w0BAQQFADCBlTELMAkGA1UEBhMC
REUxETAPBgNVBAgTCFNhYXJsYW5kMRAwDgYDVQQKEwdNUEktU1dTMSIwIAYDVQQL
ExlEaXN0cmlidXRlZCBTeXN0ZW1zIEdyb3VwMRowGAYDVQQDExFBbmRyZWFzIEhh
ZWJlcmxlbjEhMB8GCSqGSIb3DQEJARYSZGVtb2NhQG9jdGFyaW5lLmRlMB4XDTE1
MDQyMDIwNDczNFoXDTE2MDQxOTIwNDczNFowga4xCzAJBgNVBAYTAkRFMREwDwYD
VQQIEwhTYWFybGFuZDEQMA4GA1UEChMHTVBJLVNXUzEiMCAGA1UECxMZRGlzdHJp
YnV0ZWQgU3lzdGVtcyBHcm91cDExMC8GA1UEAxMoMWY0MGRlZDA5ZGRlMTRhNGU1
OWI4NTA2NDEyZDMxNzUwYzZlYjNlNDEjMCEGCSqGSIb3DQEJARYUbm9kZTA4NDZA
b2N0YXJpbmUuZGUwgZ8wDQYJKoZIhvcNAQEBBQADgY0AMIGJAoGBAOYdEnR+z8uc
3nnKw/1Ks8s3FGruvolUWqta+sSsZQTFLZ3jQxunt7/aSxxUDVTrzqQ5T3SN0hDK
4y5R2HVPP8U5S558rk9eLNkD5PKXDiGRKHzf2LGfssP/S4PE9cMo/7wAXogZf5C7
LAgBtWg3isooVvBYg7andwS8hRFws4f3AgMBAAEwDQYJKoZIhvcNAQEEBQADgYEA
oPD6HkYEq4rsKVjhLFC3uY7NMFnZCY/Z1JCjMTlt2f3GH+5Du51fUj+W4xEIPBJ5
HXWiqPji0ukn7l2CyTaWoNB2Xzwfip3hkerAp/szMOEvV9BoO25Zs/984qZhUWLc
BAHegSDbvF+/pnbGOE6dZfhE4DeGWSwV3hz7rrzpK14=
-----END CERTIFICATE-----
