Certificate:
    Data:
        Version: 1 (0x0)
        Serial Number:
            9b:27:d7:e8:d1:ba:08:ac
        Signature Algorithm: md5WithRSAEncryption
        Issuer: C=DE, ST=Saarland, O=MPI-SWS, OU=Distributed Systems Group, CN=Andreas Haeberlen/emailAddress=democa@octarine.de
        Validity
            Not Before: Apr 20 20:47:06 2015 GMT
            Not After : Apr 19 20:47:06 2016 GMT
        Subject: C=DE, ST=Saarland, O=MPI-SWS, OU=Distributed Systems Group, CN=e68092738131426e8bbd18823e569667ce851f99/emailAddress=node0212@octarine.de
        Subject Public Key Info:
            Public Key Algorithm: rsaEncryption
            RSA Public Key: (1024 bit)
                Modulus (1024 bit):
                    00:95:80:3a:a7:cd:77:30:51:2b:0a:8c:c5:d3:cb:
                    e8:32:fc:57:28:91:4a:63:1b:e8:30:84:57:1b:7f:
                    63:43:2c:2e:8f:8d:14:8a:fa:0c:42:78:a1:1d:5e:
                    e3:6e:e3:e4:38:43:80:c0:eb:3e:e7:f5:4f:22:81:
                    ce:c4:e9:75:47:cb:d3:ce:aa:0a:84:14:65:d6:54:
                    38:38:c1:eb:c0:5e:9b:54:de:5a:48:fc:c6:0e:ab:
                    d3:65:0e:74:38:87:e6:0d:7a:9f:c3:2b:7c:8e:62:
                    b5:cf:f1:22:63:db:7b:e1:21:8b:85:16:e7:59:18:
                    05:7e:24:a3:b0:9b:73:db:d3
                Exponent: 65537 (0x10001)
    Signature Algorithm: md5WithRSAEncryption
        02:46:f9:e8:14:f6:e2:60:19:f7:55:12:49:a0:db:91:a2:6e:
        18:a5:fd:0d:3f:d9:9d:76:fe:9e:33:37:c1:56:94:50:c1:e0:
        42:58:53:f4:e4:ae:8c:c4:86:74:ee:78:0a:c8:5a:a1:e0:63:
        9c:c2:78:e4:a7:fc:b9:56:4b:ea:7d:f8:62:c6:c2:5f:f8:a9:
        bd:a0:1f:c3:16:55:2b:13:12:bf:98:ba:d2:54:47:28:da:ee:
        20:28:ea:52:02:8e:3c:fa:83:c5:3d:c1:fe:b4:45:0c:ca:99:
        19:71:43:50:90:23:05:05:7e:57:30:17:4f:45:c1:a2:68:03:
        ea:43
-----BEGIN CERTIFICATE-----
MIICvDCCAiUCCQCbJ9fo0boIrDANBgkqhkiG9w0BAQQFADCBlTELMAkGA1UEBhMC
REUxETAPBgNVBAgTCFNhYXJsYW5kMRAwDgYDVQQKEwdNUEktU1dTMSIwIAYDVQQL
ExlEaXN0cmlidXRlZCBTeXN0ZW1zIEdyb3VwMRowGAYDVQQDExFBbmRyZWFzIEhh
ZWJlcmxlbjEhMB8GCSqGSIb3DQEJARYSZGVtb2NhQG9jdGFyaW5lLmRlMB4XDTE1
MDQyMDIwNDcwNloXDTE2MDQxOTIwNDcwNlowga4xCzAJBgNVBAYTAkRFMREwDwYD
VQQIEwhTYWFybGFuZDEQMA4GA1UEChMHTVBJLVNXUzEiMCAGA1UECxMZRGlzdHJp
YnV0ZWQgU3lzdGVtcyBHcm91cDExMC8GA1UEAxMoZTY4MDkyNzM4MTMxNDI2ZThi
YmQxODgyM2U1Njk2NjdjZTg1MWY5OTEjMCEGCSqGSIb3DQEJARYUbm9kZTAyMTJA
b2N0YXJpbmUuZGUwgZ8wDQYJKoZIhvcNAQEBBQADgY0AMIGJAoGBAJWAOqfNdzBR
KwqMxdPL6DL8VyiRSmMb6DCEVxt/Y0MsLo+NFIr6DEJ4oR1e427j5DhDgMDrPuf1
TyKBzsTpdUfL086qCoQUZdZUODjB68Bem1TeWkj8xg6r02UOdDiH5g16n8MrfI5i
tc/xImPbe+Ehi4UW51kYBX4ko7Cbc9vTAgMBAAEwDQYJKoZIhvcNAQEEBQADgYEA
Akb56BT24mAZ91USSaDbkaJuGKX9DT/ZnXb+njM3wVaUUMHgQlhT9OSujMSGdO54
CshaoeBjnMJ45Kf8uVZL6n34YsbCX/ipvaAfwxZVKxMSv5i60lRHKNruICjqUgKO
PPqDxT3B/rRFDMqZGXFDUJAjBQV+VzAXT0XBomgD6kM=
-----END CERTIFICATE-----
