Certificate:
    Data:
        Version: 1 (0x0)
        Serial Number:
            9b:27:d7:e8:d1:ba:0b:06
        Signature Algorithm: md5WithRSAEncryption
        Issuer: C=DE, ST=Saarland, O=MPI-SWS, OU=Distributed Systems Group, CN=Andreas Haeberlen/emailAddress=democa@octarine.de
        Validity
            Not Before: Apr 20 20:47:33 2015 GMT
            Not After : Apr 19 20:47:33 2016 GMT
        Subject: C=DE, ST=Saarland, O=MPI-SWS, OU=Distributed Systems Group, CN=bd0c370655c13e673b263297434c7e43c40fb061/emailAddress=node0814@octarine.de
        Subject Public Key Info:
            Public Key Algorithm: rsaEncryption
            RSA Public Key: (1024 bit)
                Modulus (1024 bit):
                    00:d1:9e:ab:46:12:f1:73:fe:23:6c:f1:00:c4:5a:
                    48:b5:84:16:94:f1:d6:c0:aa:23:b8:db:fd:89:dc:
                    d2:26:69:eb:72:e2:55:2a:15:7a:7d:c2:dd:49:fd:
                    81:32:86:ff:4e:dc:e1:f4:bf:fc:ac:c7:36:96:f2:
                    79:0d:85:ec:3b:95:7a:f1:30:1c:7f:73:cf:aa:a3:
                    bb:5e:96:01:fb:9c:07:cf:b9:f3:c9:bf:6b:e2:31:
                    65:61:57:a7:e1:af:ec:39:26:8a:2a:b6:17:98:9b:
                    0a:54:5b:b8:c3:c0:ec:ac:6b:4c:4c:19:43:9b:7e:
                    e1:86:e4:10:3d:94:df:42:b7
                Exponent: 65537 (0x10001)
    Signature Algorithm: md5WithRSAEncryption
        b7:71:7a:37:b2:bd:b1:3f:10:8b:a2:a2:b5:88:dd:a0:f6:87:
        3c:2a:e0:c7:32:69:c4:af:c0:67:e9:45:eb:a9:86:9a:e6:62:
        d4:b1:8e:ca:e7:96:e3:36:d3:91:13:db:7b:93:0f:01:f8:a4:
        10:7c:4e:b1:08:e9:a5:79:cd:55:c7:e7:d0:8f:e8:6f:a9:cc:
        87:42:c1:e4:0d:f9:6c:5f:f3:e4:40:f1:e7:1f:98:86:c1:31:
        14:1a:a6:73:45:a1:61:c6:47:98:0a:70:af:ed:7a:df:4b:b5:
        df:d2:c4:fd:2a:d8:97:16:4f:b3:86:bc:f7:36:da:14:a7:5b:
        34:51
-----BEGIN CERTIFICATE-----
MIICvDCCAiUCCQCbJ9fo0boLBjANBgkqhkiG9w0BAQQFADCBlTELMAkGA1UEBhMC
REUxETAPBgNVBAgTCFNhYXJsYW5kMRAwDgYDVQQKEwdNUEktU1dTMSIwIAYDVQQL
ExlEaXN0cmlidXRlZCBTeXN0ZW1zIEdyb3VwMRowGAYDVQQDExFBbmRyZWFzIEhh
ZWJlcmxlbjEhMB8GCSqGSIb3DQEJARYSZGVtb2NhQG9jdGFyaW5lLmRlMB4XDTE1
MDQyMDIwNDczM1oXDTE2MDQxOTIwNDczM1owga4xCzAJBgNVBAYTAkRFMREwDwYD
VQQIEwhTYWFybGFuZDEQMA4GA1UEChMHTVBJLVNXUzEiMCAGA1UECxMZRGlzdHJp
YnV0ZWQgU3lzdGVtcyBHcm91cDExMC8GA1UEAxMoYmQwYzM3MDY1NWMxM2U2NzNi
MjYzMjk3NDM0YzdlNDNjNDBmYjA2MTEjMCEGCSqGSIb3DQEJARYUbm9kZTA4MTRA
b2N0YXJpbmUuZGUwgZ8wDQYJKoZIhvcNAQEBBQADgY0AMIGJAoGBANGeq0YS8XP+
I2zxAMRaSLWEFpTx1sCqI7jb/Ync0iZp63LiVSoVen3C3Un9gTKG/07c4fS//KzH
NpbyeQ2F7DuVevEwHH9zz6qju16WAfucB8+588m/a+IxZWFXp+Gv7Dkmiiq2F5ib
ClRbuMPA7KxrTEwZQ5t+4YbkED2U30K3AgMBAAEwDQYJKoZIhvcNAQEEBQADgYEA
t3F6N7K9sT8Qi6KitYjdoPaHPCrgxzJpxK/AZ+lF66mGmuZi1LGOyueW4zbTkRPb
e5MPAfikEHxOsQjppXnNVcfn0I/ob6nMh0LB5A35bF/z5EDx5x+YhsExFBqmc0Wh
YcZHmApwr+1630u139LE/SrYlxZPs4a89zbaFKdbNFE=
-----END CERTIFICATE-----
