Certificate:
    Data:
        Version: 1 (0x0)
        Serial Number:
            9b:27:d7:e8:d1:ba:09:82
        Signature Algorithm: md5WithRSAEncryption
        Issuer: C=DE, ST=Saarland, O=MPI-SWS, OU=Distributed Systems Group, CN=Andreas Haeberlen/emailAddress=democa@octarine.de
        Validity
            Not Before: Apr 20 20:47:15 2015 GMT
            Not After : Apr 19 20:47:15 2016 GMT
        Subject: C=DE, ST=Saarland, O=MPI-SWS, OU=Distributed Systems Group, CN=0ac93c2811b28f463bc67e659f8ff8cf39866af7/emailAddress=node0426@octarine.de
        Subject Public Key Info:
            Public Key Algorithm: rsaEncryption
            RSA Public Key: (1024 bit)
                Modulus (1024 bit):
                    00:c0:cc:c8:d6:8e:c0:22:b8:c6:7e:51:f0:47:da:
                    64:73:de:25:69:0e:f1:a6:56:e5:59:ed:15:6e:7c:
                    9c:81:12:47:63:7d:cf:1d:2f:b4:e7:be:d1:d4:c8:
                    26:50:67:d2:c6:aa:b5:60:59:1d:da:2a:79:9f:30:
                    ed:fb:66:b8:4e:65:a2:3a:dd:c8:ef:4f:08:77:35:
                    af:3e:fa:d2:4a:cb:99:ce:e1:3f:af:dc:53:80:88:
                    e7:f3:06:6c:10:d5:c9:21:be:f0:24:93:40:2e:15:
                    56:a0:20:75:43:94:22:a7:16:c5:f7:67:f5:eb:ae:
                    0a:2a:38:5a:85:47:d7:08:cd
                Exponent: 65537 (0x10001)
    Signature Algorithm: md5WithRSAEncryption
        b6:a8:3f:71:b8:f0:06:a4:6b:39:8d:97:ce:c6:3d:34:99:81:
        26:ad:80:73:ad:e6:1e:05:59:69:bc:76:9d:12:61:c6:24:5a:
        fb:d0:18:8c:a7:f7:09:c1:34:29:8f:b3:c0:ed:4f:34:f4:a6:
        e0:80:13:f9:75:48:ce:2d:11:7f:e6:19:4c:8a:37:01:9d:f3:
        bc:7e:24:bf:31:17:f9:be:d1:00:eb:be:d9:74:c9:d9:fb:dd:
        3d:50:33:28:e3:23:48:06:aa:5d:0e:4e:01:47:41:a0:cb:06:
        be:84:95:c7:ab:d4:05:97:97:b8:18:53:d2:13:94:95:9b:d4:
        83:af
-----BEGIN CERTIFICATE-----
MIICvDCCAiUCCQCbJ9fo0boJgjANBgkqhkiG9w0BAQQFADCBlTELMAkGA1UEBhMC
REUxETAPBgNVBAgTCFNhYXJsYW5kMRAwDgYDVQQKEwdNUEktU1dTMSIwIAYDVQQL
ExlEaXN0cmlidXRlZCBTeXN0ZW1zIEdyb3VwMRowGAYDVQQDExFBbmRyZWFzIEhh
ZWJlcmxlbjEhMB8GCSqGSIb3DQEJARYSZGVtb2NhQG9jdGFyaW5lLmRlMB4XDTE1
MDQyMDIwNDcxNVoXDTE2MDQxOTIwNDcxNVowga4xCzAJBgNVBAYTAkRFMREwDwYD
VQQIEwhTYWFybGFuZDEQMA4GA1UEChMHTVBJLVNXUzEiMCAGA1UECxMZRGlzdHJp
YnV0ZWQgU3lzdGVtcyBHcm91cDExMC8GA1UEAxMoMGFjOTNjMjgxMWIyOGY0NjNi
YzY3ZTY1OWY4ZmY4Y2YzOTg2NmFmNzEjMCEGCSqGSIb3DQEJARYUbm9kZTA0MjZA
b2N0YXJpbmUuZGUwgZ8wDQYJKoZIhvcNAQEBBQADgY0AMIGJAoGBAMDMyNaOwCK4
xn5R8EfaZHPeJWkO8aZW5VntFW58nIESR2N9zx0vtOe+0dTIJlBn0saqtWBZHdoq
eZ8w7ftmuE5lojrdyO9PCHc1rz760krLmc7hP6/cU4CI5/MGbBDVySG+8CSTQC4V
VqAgdUOUIqcWxfdn9euuCio4WoVH1wjNAgMBAAEwDQYJKoZIhvcNAQEEBQADgYEA
tqg/cbjwBqRrOY2XzsY9NJmBJq2Ac63mHgVZabx2nRJhxiRa+9AYjKf3CcE0KY+z
wO1PNPSm4IAT+XVIzi0Rf+YZTIo3AZ3zvH4kvzEX+b7RAOu+2XTJ2fvdPVAzKOMj
SAaqXQ5OAUdBoMsGvoSVx6vUBZeXuBhT0hOUlZvUg68=
-----END CERTIFICATE-----
