Certificate:
    Data:
        Version: 1 (0x0)
        Serial Number:
            9b:27:d7:e8:d1:ba:09:6e
        Signature Algorithm: md5WithRSAEncryption
        Issuer: C=DE, ST=Saarland, O=MPI-SWS, OU=Distributed Systems Group, CN=Andreas Haeberlen/emailAddress=democa@octarine.de
        Validity
            Not Before: Apr 20 20:47:14 2015 GMT
            Not After : Apr 19 20:47:14 2016 GMT
        Subject: C=DE, ST=Saarland, O=MPI-SWS, OU=Distributed Systems Group, CN=6d92a8a57752728432d803a9e278892f6c104c6b/emailAddress=node0406@octarine.de
        Subject Public Key Info:
            Public Key Algorithm: rsaEncryption
            RSA Public Key: (1024 bit)
                Modulus (1024 bit):
                    00:cb:5f:80:b0:be:b7:88:1d:60:06:9d:cd:4c:56:
                    a3:3b:60:11:9d:bd:7e:93:4f:5d:56:cf:1a:5d:15:
                    68:3f:6d:57:a8:a4:a1:5d:57:78:33:6f:1c:18:f0:
                    31:ea:06:e2:5a:5f:e9:a3:20:9d:3f:43:a3:d4:cf:
                    ef:b6:a7:12:27:9f:86:e9:a4:8f:e8:cd:dc:39:52:
                    7e:c5:c9:69:4b:54:49:52:f7:f8:be:c4:19:fb:b7:
                    dd:61:ac:6d:d9:b1:7a:27:7b:03:cf:8d:d4:4f:80:
                    f9:bb:63:42:7d:1e:12:b6:91:a6:51:bd:4f:5f:fc:
                    1a:ab:34:47:9a:45:f0:01:dd
                Exponent: 65537 (0x10001)
    Signature Algorithm: md5WithRSAEncryption
        2f:c7:64:8a:db:c5:df:8a:3c:5f:55:26:6c:ad:e8:1c:66:89:
        16:c4:36:b6:0f:82:8a:64:b9:9f:fa:09:73:74:4b:cf:e0:18:
        b0:8c:8d:f6:51:eb:70:ef:2e:08:db:4d:d6:3f:2f:70:bb:7d:
        13:9c:d0:3a:41:59:6e:12:8c:09:97:ae:6c:03:95:d1:b9:9b:
        4a:e2:2f:e9:00:dc:56:f4:a4:c4:f2:4c:5a:54:d8:be:e2:49:
        79:2b:3e:4f:4c:1a:2c:13:05:19:67:5e:e4:e7:8f:a1:1b:dc:
        6d:62:a9:4f:26:d8:49:46:61:8e:54:4f:a8:db:3a:57:7f:85:
        e7:23
-----BEGIN CERTIFICATE-----
MIICvDCCAiUCCQCbJ9fo0boJbjANBgkqhkiG9w0BAQQFADCBlTELMAkGA1UEBhMC
REUxETAPBgNVBAgTCFNhYXJsYW5kMRAwDgYDVQQKEwdNUEktU1dTMSIwIAYDVQQL
ExlEaXN0cmlidXRlZCBTeXN0ZW1zIEdyb3VwMRowGAYDVQQDExFBbmRyZWFzIEhh
ZWJlcmxlbjEhMB8GCSqGSIb3DQEJARYSZGVtb2NhQG9jdGFyaW5lLmRlMB4XDTE1
MDQyMDIwNDcxNFoXDTE2MDQxOTIwNDcxNFowga4xCzAJBgNVBAYTAkRFMREwDwYD
VQQIEwhTYWFybGFuZDEQMA4GA1UEChMHTVBJLVNXUzEiMCAGA1UECxMZRGlzdHJp
YnV0ZWQgU3lzdGVtcyBHcm91cDExMC8GA1UEAxMoNmQ5MmE4YTU3NzUyNzI4NDMy
ZDgwM2E5ZTI3ODg5MmY2YzEwNGM2YjEjMCEGCSqGSIb3DQEJARYUbm9kZTA0MDZA
b2N0YXJpbmUuZGUwgZ8wDQYJKoZIhvcNAQEBBQADgY0AMIGJAoGBAMtfgLC+t4gd
YAadzUxWoztgEZ29fpNPXVbPGl0VaD9tV6ikoV1XeDNvHBjwMeoG4lpf6aMgnT9D
o9TP77anEiefhumkj+jN3DlSfsXJaUtUSVL3+L7EGfu33WGsbdmxeid7A8+N1E+A
+btjQn0eEraRplG9T1/8Gqs0R5pF8AHdAgMBAAEwDQYJKoZIhvcNAQEEBQADgYEA
L8dkitvF34o8X1UmbK3oHGaJFsQ2tg+CimS5n/oJc3RLz+AYsIyN9lHrcO8uCNtN
1j8vcLt9E5zQOkFZbhKMCZeubAOV0bmbSuIv6QDcVvSkxPJMWlTYvuJJeSs+T0wa
LBMFGWde5OePoRvcbWKpTybYSUZhjlRPqNs6V3+F5yM=
-----END CERTIFICATE-----
