Certificate:
    Data:
        Version: 1 (0x0)
        Serial Number:
            9b:27:d7:e8:d1:ba:08:98
        Signature Algorithm: md5WithRSAEncryption
        Issuer: C=DE, ST=Saarland, O=MPI-SWS, OU=Distributed Systems Group, CN=Andreas Haeberlen/emailAddress=democa@octarine.de
        Validity
            Not Before: Apr 20 20:47:05 2015 GMT
            Not After : Apr 19 20:47:05 2016 GMT
        Subject: C=DE, ST=Saarland, O=MPI-SWS, OU=Distributed Systems Group, CN=2416bc69ff7ed76f3a8ed536718a1904e1b9e13d/emailAddress=node0192@octarine.de
        Subject Public Key Info:
            Public Key Algorithm: rsaEncryption
            RSA Public Key: (1024 bit)
                Modulus (1024 bit):
                    00:97:59:06:08:80:2d:2e:ce:bb:6c:97:48:90:86:
                    da:97:a3:1e:64:7e:90:e3:8f:1d:5b:6e:c8:05:ce:
                    7b:5d:03:b4:51:94:fd:ce:4f:01:6d:3e:87:d7:58:
                    06:51:0b:55:57:ed:ae:a8:4b:ba:c4:9d:ce:43:a2:
                    a8:9e:03:f6:c6:40:b2:58:10:3b:21:a8:f6:58:e5:
                    da:9e:c8:23:f0:a2:73:3d:9c:0c:22:2f:49:c6:60:
                    84:95:75:9a:e7:04:9e:e3:1a:aa:41:62:e8:52:cc:
                    f7:3e:32:fe:1c:f7:33:3d:e0:e7:ab:79:38:8a:9b:
                    98:a0:d4:e0:d4:b9:f5:2d:13
                Exponent: 65537 (0x10001)
    Signature Algorithm: md5WithRSAEncryption
        90:d7:1d:19:f8:0e:a3:94:0e:f1:1a:af:78:ae:23:56:2e:f7:
        11:80:3e:13:9b:60:bc:22:ec:68:6f:ea:0e:52:a1:fa:60:f0:
        d9:90:d3:21:27:d1:33:e3:4b:2b:ad:f0:70:82:23:ae:12:83:
        61:56:e3:05:19:a3:43:4b:30:9d:86:ea:33:f9:3e:aa:5f:77:
        f5:19:14:b6:17:38:db:d2:67:d1:b1:95:ec:cd:3c:01:58:4d:
        e3:7f:5b:1f:ad:29:41:44:88:0d:d8:3d:ff:aa:0c:dd:9f:56:
        73:00:20:ae:2a:1d:99:7f:51:7e:6f:99:98:d4:b5:86:f5:2b:
        c5:b1
-----BEGIN CERTIFICATE-----
MIICvDCCAiUCCQCbJ9fo0boImDANBgkqhkiG9w0BAQQFADCBlTELMAkGA1UEBhMC
REUxETAPBgNVBAgTCFNhYXJsYW5kMRAwDgYDVQQKEwdNUEktU1dTMSIwIAYDVQQL
ExlEaXN0cmlidXRlZCBTeXN0ZW1zIEdyb3VwMRowGAYDVQQDExFBbmRyZWFzIEhh
ZWJlcmxlbjEhMB8GCSqGSIb3DQEJARYSZGVtb2NhQG9jdGFyaW5lLmRlMB4XDTE1
MDQyMDIwNDcwNVoXDTE2MDQxOTIwNDcwNVowga4xCzAJBgNVBAYTAkRFMREwDwYD
VQQIEwhTYWFybGFuZDEQMA4GA1UEChMHTVBJLVNXUzEiMCAGA1UECxMZRGlzdHJp
YnV0ZWQgU3lzdGVtcyBHcm91cDExMC8GA1UEAxMoMjQxNmJjNjlmZjdlZDc2ZjNh
OGVkNTM2NzE4YTE5MDRlMWI5ZTEzZDEjMCEGCSqGSIb3DQEJARYUbm9kZTAxOTJA
b2N0YXJpbmUuZGUwgZ8wDQYJKoZIhvcNAQEBBQADgY0AMIGJAoGBAJdZBgiALS7O
u2yXSJCG2pejHmR+kOOPHVtuyAXOe10DtFGU/c5PAW0+h9dYBlELVVftrqhLusSd
zkOiqJ4D9sZAslgQOyGo9ljl2p7II/Cicz2cDCIvScZghJV1mucEnuMaqkFi6FLM
9z4y/hz3Mz3g56t5OIqbmKDU4NS59S0TAgMBAAEwDQYJKoZIhvcNAQEEBQADgYEA
kNcdGfgOo5QO8RqveK4jVi73EYA+E5tgvCLsaG/qDlKh+mDw2ZDTISfRM+NLK63w
cIIjrhKDYVbjBRmjQ0swnYbqM/k+ql939RkUthc429Jn0bGV7M08AVhN439bH60p
QUSIDdg9/6oM3Z9WcwAgriodmX9Rfm+ZmNS1hvUrxbE=
-----END CERTIFICATE-----
