Certificate:
    Data:
        Version: 1 (0x0)
        Serial Number:
            9b:27:d7:e8:d1:ba:0b:63
        Signature Algorithm: md5WithRSAEncryption
        Issuer: C=DE, ST=Saarland, O=MPI-SWS, OU=Distributed Systems Group, CN=Andreas Haeberlen/emailAddress=democa@octarine.de
        Validity
            Not Before: Apr 20 20:47:37 2015 GMT
            Not After : Apr 19 20:47:37 2016 GMT
        Subject: C=DE, ST=Saarland, O=MPI-SWS, OU=Distributed Systems Group, CN=90411b8537a4bc0f2c63af31b5ff184a89c944f7/emailAddress=node0907@octarine.de
        Subject Public Key Info:
            Public Key Algorithm: rsaEncryption
            RSA Public Key: (1024 bit)
                Modulus (1024 bit):
                    00:ee:5e:1c:6c:7f:13:25:0f:c5:c4:d4:95:95:eb:
                    59:62:64:b5:33:15:09:15:0b:b5:46:52:c3:a0:11:
                    ac:30:6c:f2:fa:dc:50:ea:fd:c1:8d:c4:e1:7f:0d:
                    58:41:ec:7e:d6:70:43:ca:ef:f3:2c:8b:d8:8d:15:
                    50:20:f4:9c:9e:fd:a6:6b:61:9a:75:37:bb:b1:12:
                    50:3c:15:02:f8:05:a1:a4:da:67:9e:51:10:b6:8e:
                    66:3e:01:b7:f3:a0:e3:c9:19:f3:5c:f5:11:3d:ea:
                    1c:7d:57:d8:6d:0d:4f:5c:2e:c1:6d:7e:34:9d:70:
                    f7:6c:ea:da:54:f3:76:15:5d
                Exponent: 65537 (0x10001)
    Signature Algorithm: md5WithRSAEncryption
        62:17:57:e2:91:79:53:56:45:f1:a1:ba:8a:5a:db:cd:83:51:
        3e:9b:ee:c3:df:51:c4:18:96:67:3a:d3:c0:1a:eb:cf:ab:04:
        d2:3a:a5:cf:cb:d3:d6:5c:74:06:56:ae:5f:16:ed:d0:e7:a2:
        1e:23:69:13:31:b1:45:50:7e:6e:19:95:b1:09:6c:11:b0:ce:
        ed:93:d4:52:b9:44:92:8f:ad:db:03:d4:ff:a0:6b:a6:c9:b5:
        46:a5:ad:82:cf:54:72:96:ea:a7:20:e0:0a:96:e0:2a:57:0f:
        d5:67:64:d0:15:1b:a4:ad:f8:5c:a0:80:76:4c:cd:8f:c3:88:
        20:69
-----BEGIN CERTIFICATE-----
MIICvDCCAiUCCQCbJ9fo0boLYzANBgkqhkiG9w0BAQQFADCBlTELMAkGA1UEBhMC
REUxETAPBgNVBAgTCFNhYXJsYW5kMRAwDgYDVQQKEwdNUEktU1dTMSIwIAYDVQQL
ExlEaXN0cmlidXRlZCBTeXN0ZW1zIEdyb3VwMRowGAYDVQQDExFBbmRyZWFzIEhh
ZWJlcmxlbjEhMB8GCSqGSIb3DQEJARYSZGVtb2NhQG9jdGFyaW5lLmRlMB4XDTE1
MDQyMDIwNDczN1oXDTE2MDQxOTIwNDczN1owga4xCzAJBgNVBAYTAkRFMREwDwYD
VQQIEwhTYWFybGFuZDEQMA4GA1UEChMHTVBJLVNXUzEiMCAGA1UECxMZRGlzdHJp
YnV0ZWQgU3lzdGVtcyBHcm91cDExMC8GA1UEAxMoOTA0MTFiODUzN2E0YmMwZjJj
NjNhZjMxYjVmZjE4NGE4OWM5NDRmNzEjMCEGCSqGSIb3DQEJARYUbm9kZTA5MDdA
b2N0YXJpbmUuZGUwgZ8wDQYJKoZIhvcNAQEBBQADgY0AMIGJAoGBAO5eHGx/EyUP
xcTUlZXrWWJktTMVCRULtUZSw6ARrDBs8vrcUOr9wY3E4X8NWEHsftZwQ8rv8yyL
2I0VUCD0nJ79pmthmnU3u7ESUDwVAvgFoaTaZ55RELaOZj4Bt/Og48kZ81z1ET3q
HH1X2G0NT1wuwW1+NJ1w92zq2lTzdhVdAgMBAAEwDQYJKoZIhvcNAQEEBQADgYEA
YhdX4pF5U1ZF8aG6ilrbzYNRPpvuw99RxBiWZzrTwBrrz6sE0jqlz8vT1lx0Blau
Xxbt0OeiHiNpEzGxRVB+bhmVsQlsEbDO7ZPUUrlEko+t2wPU/6Brpsm1RqWtgs9U
cpbqpyDgCpbgKlcP1Wdk0BUbpK34XKCAdkzNj8OIIGk=
-----END CERTIFICATE-----
