Certificate:
    Data:
        Version: 1 (0x0)
        Serial Number:
            9b:27:d7:e8:d1:ba:08:3f
        Signature Algorithm: md5WithRSAEncryption
        Issuer: C=DE, ST=Saarland, O=MPI-SWS, OU=Distributed Systems Group, CN=Andreas Haeberlen/emailAddress=democa@octarine.de
        Validity
            Not Before: Apr 20 20:47:01 2015 GMT
            Not After : Apr 19 20:47:01 2016 GMT
        Subject: C=DE, ST=Saarland, O=MPI-SWS, OU=Distributed Systems Group, CN=7004e650c4bc85753251885572480e58e6ddc2d9/emailAddress=node0103@octarine.de
        Subject Public Key Info:
            Public Key Algorithm: rsaEncryption
            RSA Public Key: (1024 bit)
                Modulus (1024 bit):
                    00:cf:1a:59:92:33:61:a1:d1:a6:7d:9b:7c:37:39:
                    89:52:25:80:ce:00:a1:9f:7a:23:df:19:f3:2e:4e:
                    08:d6:57:b7:ec:ca:47:13:ca:61:de:0d:31:a6:6b:
                    e0:12:6f:f7:99:45:b7:a7:2b:89:87:7f:48:f8:49:
                    ac:9d:1e:0f:2f:7a:45:f4:98:1b:70:ca:6c:e1:9d:
                    a8:e2:36:34:14:83:e0:70:b9:16:32:0e:af:54:c1:
                    b5:78:43:2c:28:b6:b7:c6:a3:46:05:8e:43:09:78:
                    e7:a5:c8:b1:e9:10:8c:c0:7c:97:6d:72:18:52:86:
                    7b:bd:2e:ad:b2:86:b2:db:49
                Exponent: 65537 (0x10001)
    Signature Algorithm: md5WithRSAEncryption
        89:30:fc:2d:2b:60:e3:36:bd:9b:69:12:0d:4d:20:0f:28:92:
        4b:be:6e:84:aa:13:eb:c9:6f:d0:b9:f3:18:3b:2e:21:e7:01:
        85:00:21:c6:3d:bf:1b:87:58:62:69:29:6d:a9:7b:69:fb:cf:
        51:46:08:46:99:fe:0e:1d:10:bb:0d:f5:0e:dd:64:9f:be:33:
        1f:ba:c0:95:fe:2d:ae:31:67:b3:21:df:d7:0d:5b:06:c7:bd:
        4a:ce:c1:20:48:f6:e1:fe:4a:92:f4:97:e6:df:4a:a2:9f:af:
        82:ab:77:b9:64:73:fb:00:6c:c8:cb:13:2b:85:fc:d1:84:d4:
        5d:96
-----BEGIN CERTIFICATE-----
MIICvDCCAiUCCQCbJ9fo0boIPzANBgkqhkiG9w0BAQQFADCBlTELMAkGA1UEBhMC
REUxETAPBgNVBAgTCFNhYXJsYW5kMRAwDgYDVQQKEwdNUEktU1dTMSIwIAYDVQQL
ExlEaXN0cmlidXRlZCBTeXN0ZW1zIEdyb3VwMRowGAYDVQQDExFBbmRyZWFzIEhh
ZWJlcmxlbjEhMB8GCSqGSIb3DQEJARYSZGVtb2NhQG9jdGFyaW5lLmRlMB4XDTE1
MDQyMDIwNDcwMVoXDTE2MDQxOTIwNDcwMVowga4xCzAJBgNVBAYTAkRFMREwDwYD
VQQIEwhTYWFybGFuZDEQMA4GA1UEChMHTVBJLVNXUzEiMCAGA1UECxMZRGlzdHJp
YnV0ZWQgU3lzdGVtcyBHcm91cDExMC8GA1UEAxMoNzAwNGU2NTBjNGJjODU3NTMy
NTE4ODU1NzI0ODBlNThlNmRkYzJkOTEjMCEGCSqGSIb3DQEJARYUbm9kZTAxMDNA
b2N0YXJpbmUuZGUwgZ8wDQYJKoZIhvcNAQEBBQADgY0AMIGJAoGBAM8aWZIzYaHR
pn2bfDc5iVIlgM4AoZ96I98Z8y5OCNZXt+zKRxPKYd4NMaZr4BJv95lFt6criYd/
SPhJrJ0eDy96RfSYG3DKbOGdqOI2NBSD4HC5FjIOr1TBtXhDLCi2t8ajRgWOQwl4
56XIsekQjMB8l21yGFKGe70urbKGsttJAgMBAAEwDQYJKoZIhvcNAQEEBQADgYEA
iTD8LStg4za9m2kSDU0gDyiSS75uhKoT68lv0LnzGDsuIecBhQAhxj2/G4dYYmkp
bal7afvPUUYIRpn+Dh0Quw31Dt1kn74zH7rAlf4trjFnsyHf1w1bBse9Ss7BIEj2
4f5KkvSX5t9Kop+vgqt3uWRz+wBsyMsTK4X80YTUXZY=
-----END CERTIFICATE-----
