Certificate:
    Data:
        Version: 1 (0x0)
        Serial Number:
            9b:27:d7:e8:d1:ba:0a:fe
        Signature Algorithm: md5WithRSAEncryption
        Issuer: C=DE, ST=Saarland, O=MPI-SWS, OU=Distributed Systems Group, CN=Andreas Haeberlen/emailAddress=democa@octarine.de
        Validity
            Not Before: Apr 20 20:47:32 2015 GMT
            Not After : Apr 19 20:47:32 2016 GMT
        Subject: C=DE, ST=Saarland, O=MPI-SWS, OU=Distributed Systems Group, CN=1b8296c9dfcb80b4c40b6232608f3224ea77140e/emailAddress=node0806@octarine.de
        Subject Public Key Info:
            Public Key Algorithm: rsaEncryption
            RSA Public Key: (1024 bit)
                Modulus (1024 bit):
                    00:b7:fb:7e:b1:28:2b:2f:a7:2d:79:0c:93:16:3f:
                    7f:45:02:df:dc:3f:bd:ac:a5:49:89:13:05:3f:15:
                    d0:01:a5:7d:ba:f6:95:fb:7c:d9:b5:58:23:d3:ec:
                    7a:7b:c8:92:47:cb:70:6d:ed:57:91:70:86:06:07:
                    0e:b6:a4:90:61:35:31:ff:9f:13:59:e1:95:fd:7d:
                    9a:3e:e0:70:c6:47:3a:0b:60:df:3a:0c:96:51:fd:
                    a9:37:7b:4c:4b:d0:4c:3a:6e:fb:69:4f:3a:9f:e5:
                    15:c9:0e:75:08:37:85:42:5f:a5:3d:8c:72:3a:93:
                    4a:38:97:50:1e:16:1f:b0:15
                Exponent: 65537 (0x10001)
    Signature Algorithm: md5WithRSAEncryption
        19:2b:f5:20:9d:34:c5:80:14:c2:75:5f:e9:fc:84:0b:a3:28:
        a5:61:d8:00:7f:cc:f9:ec:c3:80:6d:59:fc:61:d1:bc:d3:b8:
        af:28:b9:d5:72:8f:87:ec:73:77:db:3b:55:62:51:40:e7:4f:
        d1:82:28:d5:7f:22:69:7e:8a:c8:67:60:22:ee:73:d6:ae:29:
        df:a7:cf:28:a2:f9:ee:2c:f0:09:a7:52:da:04:c9:fe:38:29:
        2d:a3:57:ec:32:e6:3f:58:b5:39:d2:22:73:81:e4:eb:4b:f6:
        f1:b5:d9:36:23:9b:16:6b:75:1b:2b:c0:86:7c:0a:52:c3:68:
        6a:40
-----BEGIN CERTIFICATE-----
MIICvDCCAiUCCQCbJ9fo0boK/jANBgkqhkiG9w0BAQQFADCBlTELMAkGA1UEBhMC
REUxETAPBgNVBAgTCFNhYXJsYW5kMRAwDgYDVQQKEwdNUEktU1dTMSIwIAYDVQQL
ExlEaXN0cmlidXRlZCBTeXN0ZW1zIEdyb3VwMRowGAYDVQQDExFBbmRyZWFzIEhh
ZWJlcmxlbjEhMB8GCSqGSIb3DQEJARYSZGVtb2NhQG9jdGFyaW5lLmRlMB4XDTE1
MDQyMDIwNDczMloXDTE2MDQxOTIwNDczMlowga4xCzAJBgNVBAYTAkRFMREwDwYD
VQQIEwhTYWFybGFuZDEQMA4GA1UEChMHTVBJLVNXUzEiMCAGA1UECxMZRGlzdHJp
YnV0ZWQgU3lzdGVtcyBHcm91cDExMC8GA1UEAxMoMWI4Mjk2YzlkZmNiODBiNGM0
MGI2MjMyNjA4ZjMyMjRlYTc3MTQwZTEjMCEGCSqGSIb3DQEJARYUbm9kZTA4MDZA
b2N0YXJpbmUuZGUwgZ8wDQYJKoZIhvcNAQEBBQADgY0AMIGJAoGBALf7frEoKy+n
LXkMkxY/f0UC39w/vaylSYkTBT8V0AGlfbr2lft82bVYI9PsenvIkkfLcG3tV5Fw
hgYHDrakkGE1Mf+fE1nhlf19mj7gcMZHOgtg3zoMllH9qTd7TEvQTDpu+2lPOp/l
FckOdQg3hUJfpT2McjqTSjiXUB4WH7AVAgMBAAEwDQYJKoZIhvcNAQEEBQADgYEA
GSv1IJ00xYAUwnVf6fyEC6MopWHYAH/M+ezDgG1Z/GHRvNO4ryi51XKPh+xzd9s7
VWJRQOdP0YIo1X8iaX6KyGdgIu5z1q4p36fPKKL57izwCadS2gTJ/jgpLaNX7DLm
P1i1OdIic4Hk60v28bXZNiObFmt1GyvAhnwKUsNoakA=
-----END CERTIFICATE-----
