Certificate:
    Data:
        Version: 1 (0x0)
        Serial Number:
            9b:27:d7:e8:d1:ba:0a:4c
        Signature Algorithm: md5WithRSAEncryption
        Issuer: C=DE, ST=Saarland, O=MPI-SWS, OU=Distributed Systems Group, CN=Andreas Haeberlen/emailAddress=democa@octarine.de
        Validity
            Not Before: Apr 20 20:47:24 2015 GMT
            Not After : Apr 19 20:47:24 2016 GMT
        Subject: C=DE, ST=Saarland, O=MPI-SWS, OU=Distributed Systems Group, CN=c8695c1dda69ba0932929e972418cb2939386453/emailAddress=node0628@octarine.de
        Subject Public Key Info:
            Public Key Algorithm: rsaEncryption
            RSA Public Key: (1024 bit)
                Modulus (1024 bit):
                    00:a9:92:85:27:62:d3:4e:3b:62:d3:13:aa:54:7e:
                    ae:42:1e:1e:78:33:e7:d9:96:fa:75:1f:7a:e9:6b:
                    8a:21:9a:55:9b:2d:6f:b7:62:42:7c:4b:d4:3a:c5:
                    83:64:5c:b8:c0:ba:eb:a0:e2:e5:33:9d:e0:de:32:
                    9a:a1:21:d2:aa:4c:cb:91:a6:81:e7:3c:e3:5d:cd:
                    ba:a9:62:0e:49:ee:ac:54:8a:26:7a:bd:93:40:73:
                    e8:cb:44:53:22:88:4b:8f:ef:b3:11:99:e0:3d:4a:
                    8c:66:43:90:cb:dc:ca:74:69:18:84:09:09:75:29:
                    0a:e6:9c:73:19:aa:6e:07:15
                Exponent: 65537 (0x10001)
    Signature Algorithm: md5WithRSAEncryption
        a1:42:fe:db:7c:83:d0:7e:c0:62:2d:8d:01:4e:de:13:77:0b:
        a9:10:ce:7b:02:3a:c8:b6:e7:89:d3:d7:44:b9:bf:a8:71:07:
        c1:18:ae:4d:26:94:cc:dc:d1:9b:62:52:d4:ed:7f:24:1e:90:
        1e:da:b9:28:bb:3d:9b:10:0c:ee:df:6d:08:e2:73:93:f1:e3:
        ce:9b:99:7e:77:0b:5f:7e:24:b5:56:da:80:91:99:52:7c:4a:
        9e:4f:07:de:8b:21:0d:b1:a9:6a:fa:5f:14:44:24:a9:e2:66:
        6f:b3:05:21:13:70:53:9c:ec:40:e1:39:96:0f:f3:2b:95:0c:
        4e:0a
-----BEGIN CERTIFICATE-----
MIICvDCCAiUCCQCbJ9fo0boKTDANBgkqhkiG9w0BAQQFADCBlTELMAkGA1UEBhMC
REUxETAPBgNVBAgTCFNhYXJsYW5kMRAwDgYDVQQKEwdNUEktU1dTMSIwIAYDVQQL
ExlEaXN0cmlidXRlZCBTeXN0ZW1zIEdyb3VwMRowGAYDVQQDExFBbmRyZWFzIEhh
ZWJlcmxlbjEhMB8GCSqGSIb3DQEJARYSZGVtb2NhQG9jdGFyaW5lLmRlMB4XDTE1
MDQyMDIwNDcyNFoXDTE2MDQxOTIwNDcyNFowga4xCzAJBgNVBAYTAkRFMREwDwYD
VQQIEwhTYWFybGFuZDEQMA4GA1UEChMHTVBJLVNXUzEiMCAGA1UECxMZRGlzdHJp
YnV0ZWQgU3lzdGVtcyBHcm91cDExMC8GA1UEAxMoYzg2OTVjMWRkYTY5YmEwOTMy
OTI5ZTk3MjQxOGNiMjkzOTM4NjQ1MzEjMCEGCSqGSIb3DQEJARYUbm9kZTA2MjhA
b2N0YXJpbmUuZGUwgZ8wDQYJKoZIhvcNAQEBBQADgY0AMIGJAoGBAKmShSdi0047
YtMTqlR+rkIeHngz59mW+nUfeulriiGaVZstb7diQnxL1DrFg2RcuMC666Di5TOd
4N4ymqEh0qpMy5Gmgec8413NuqliDknurFSKJnq9k0Bz6MtEUyKIS4/vsxGZ4D1K
jGZDkMvcynRpGIQJCXUpCuaccxmqbgcVAgMBAAEwDQYJKoZIhvcNAQEEBQADgYEA
oUL+23yD0H7AYi2NAU7eE3cLqRDOewI6yLbnidPXRLm/qHEHwRiuTSaUzNzRm2JS
1O1/JB6QHtq5KLs9mxAM7t9tCOJzk/HjzpuZfncLX34ktVbagJGZUnxKnk8H3osh
DbGpavpfFEQkqeJmb7MFIRNwU5zsQOE5lg/zK5UMTgo=
-----END CERTIFICATE-----
