Certificate:
    Data:
        Version: 1 (0x0)
        Serial Number:
            9b:27:d7:e8:d1:ba:08:fd
        Signature Algorithm: md5WithRSAEncryption
        Issuer: C=DE, ST=Saarland, O=MPI-SWS, OU=Distributed Systems Group, CN=Andreas Haeberlen/emailAddress=democa@octarine.de
        Validity
            Not Before: Apr 20 20:47:09 2015 GMT
            Not After : Apr 19 20:47:09 2016 GMT
        Subject: C=DE, ST=Saarland, O=MPI-SWS, OU=Distributed Systems Group, CN=785de68000b8d2245b34b0b06c7d06a7e05d6dd7/emailAddress=node0293@octarine.de
        Subject Public Key Info:
            Public Key Algorithm: rsaEncryption
            RSA Public Key: (1024 bit)
                Modulus (1024 bit):
                    00:c7:cf:48:c7:85:7d:ed:ae:4e:5c:53:4f:f3:3e:
                    be:29:5e:b8:9c:be:ff:f2:96:c6:a4:08:f6:fd:8b:
                    c3:01:3c:28:6f:63:30:9d:0d:53:b1:7f:fb:22:8a:
                    a7:15:56:05:d9:fe:16:07:56:5e:1d:7c:8f:80:52:
                    cb:f4:b6:5f:ca:de:4d:01:7d:f8:22:a5:e9:2a:9b:
                    fa:0f:1b:0a:c0:64:1c:98:96:48:59:32:3a:72:a1:
                    e3:bd:10:1a:b2:55:36:04:6c:00:a9:4c:38:ec:79:
                    fa:39:6c:97:38:78:25:69:c2:7f:ea:cc:87:6b:b7:
                    0c:e4:1f:70:b0:0e:71:13:c5
                Exponent: 65537 (0x10001)
    Signature Algorithm: md5WithRSAEncryption
        4a:e1:49:46:b3:77:4e:c2:24:82:eb:2c:ca:07:bd:ff:a5:1a:
        75:35:65:7c:d2:2f:1f:ba:3b:80:01:a1:52:3f:fd:56:fd:13:
        2b:7e:b9:6f:87:61:c4:38:80:44:c1:89:d5:87:d4:ba:21:44:
        ed:08:d3:fb:b0:9f:a5:84:61:6b:e4:55:2a:44:7c:e2:82:c4:
        66:0f:1e:fd:eb:40:8b:d4:fb:bd:9d:a2:92:7c:0a:d7:5e:51:
        75:4d:63:4d:c3:36:71:39:c9:29:58:ca:27:18:d3:e2:b9:12:
        2a:2a:fd:78:15:e8:70:2c:2f:c8:c8:3d:1c:2d:8a:3a:05:72:
        cf:73
-----BEGIN CERTIFICATE-----
MIICvDCCAiUCCQCbJ9fo0boI/TANBgkqhkiG9w0BAQQFADCBlTELMAkGA1UEBhMC
REUxETAPBgNVBAgTCFNhYXJsYW5kMRAwDgYDVQQKEwdNUEktU1dTMSIwIAYDVQQL
ExlEaXN0cmlidXRlZCBTeXN0ZW1zIEdyb3VwMRowGAYDVQQDExFBbmRyZWFzIEhh
ZWJlcmxlbjEhMB8GCSqGSIb3DQEJARYSZGVtb2NhQG9jdGFyaW5lLmRlMB4XDTE1
MDQyMDIwNDcwOVoXDTE2MDQxOTIwNDcwOVowga4xCzAJBgNVBAYTAkRFMREwDwYD
VQQIEwhTYWFybGFuZDEQMA4GA1UEChMHTVBJLVNXUzEiMCAGA1UECxMZRGlzdHJp
YnV0ZWQgU3lzdGVtcyBHcm91cDExMC8GA1UEAxMoNzg1ZGU2ODAwMGI4ZDIyNDVi
MzRiMGIwNmM3ZDA2YTdlMDVkNmRkNzEjMCEGCSqGSIb3DQEJARYUbm9kZTAyOTNA
b2N0YXJpbmUuZGUwgZ8wDQYJKoZIhvcNAQEBBQADgY0AMIGJAoGBAMfPSMeFfe2u
TlxTT/M+vileuJy+//KWxqQI9v2LwwE8KG9jMJ0NU7F/+yKKpxVWBdn+FgdWXh18
j4BSy/S2X8reTQF9+CKl6Sqb+g8bCsBkHJiWSFkyOnKh470QGrJVNgRsAKlMOOx5
+jlslzh4JWnCf+rMh2u3DOQfcLAOcRPFAgMBAAEwDQYJKoZIhvcNAQEEBQADgYEA
SuFJRrN3TsIkgussyge9/6UadTVlfNIvH7o7gAGhUj/9Vv0TK365b4dhxDiARMGJ
1YfUuiFE7QjT+7CfpYRha+RVKkR84oLEZg8e/etAi9T7vZ2iknwK115RdU1jTcM2
cTnJKVjKJxjT4rkSKir9eBXocCwvyMg9HC2KOgVyz3M=
-----END CERTIFICATE-----
