Certificate:
    Data:
        Version: 1 (0x0)
        Serial Number:
            9b:27:d7:e8:d1:ba:08:c7
        Signature Algorithm: md5WithRSAEncryption
        Issuer: C=DE, ST=Saarland, O=MPI-SWS, OU=Distributed Systems Group, CN=Andreas Haeberlen/emailAddress=democa@octarine.de
        Validity
            Not Before: Apr 20 20:47:07 2015 GMT
            Not After : Apr 19 20:47:07 2016 GMT
        Subject: C=DE, ST=Saarland, O=MPI-SWS, OU=Distributed Systems Group, CN=4576b30873488b1deb2e95460cfbe8a3d299591c/emailAddress=node0239@octarine.de
        Subject Public Key Info:
            Public Key Algorithm: rsaEncryption
            RSA Public Key: (1024 bit)
                Modulus (1024 bit):
                    00:e5:c6:14:a3:fc:a0:2a:4b:de:53:ae:bb:49:37:
                    46:87:50:a1:67:1d:0e:e3:3d:bb:0f:93:d6:9a:75:
                    21:5c:b2:57:63:ff:da:d1:63:73:d4:32:ae:25:1b:
                    f1:bd:99:2c:98:6a:c4:57:9b:44:3f:d7:b8:52:e7:
                    29:81:c8:8d:38:40:24:7d:10:99:98:9b:ef:d0:ad:
                    dc:e4:d3:ef:05:56:4e:b4:ef:8e:ec:0c:77:e5:5b:
                    73:64:3d:62:f5:05:63:d0:41:aa:c7:1f:ec:7c:74:
                    cf:04:11:6a:fb:ca:d2:15:f4:64:41:7b:74:47:80:
                    2d:d3:06:2c:52:2e:90:f3:b1
                Exponent: 65537 (0x10001)
    Signature Algorithm: md5WithRSAEncryption
        75:39:66:8f:0e:06:59:4b:d6:db:13:4d:d2:7e:a8:9b:ba:b0:
        5b:d8:6f:18:53:07:47:f5:b3:75:53:d4:1f:28:51:a8:44:f8:
        4e:c3:69:ee:7d:5f:a0:d4:f1:dc:ae:9c:f0:5e:a3:18:c9:34:
        cc:ee:70:4c:d9:34:02:4a:32:1e:2e:81:78:c1:0b:a3:23:d6:
        f9:68:7c:53:98:50:1d:0a:b0:aa:f1:7e:ee:06:4b:7f:f5:7d:
        6f:7c:a3:1e:bb:6c:8d:fb:9f:e1:4c:37:e0:09:d9:6a:cc:a0:
        e0:38:a1:71:31:cc:cf:3e:14:b2:6b:19:89:f2:a8:75:1e:ed:
        ad:06
-----BEGIN CERTIFICATE-----
MIICvDCCAiUCCQCbJ9fo0boIxzANBgkqhkiG9w0BAQQFADCBlTELMAkGA1UEBhMC
REUxETAPBgNVBAgTCFNhYXJsYW5kMRAwDgYDVQQKEwdNUEktU1dTMSIwIAYDVQQL
ExlEaXN0cmlidXRlZCBTeXN0ZW1zIEdyb3VwMRowGAYDVQQDExFBbmRyZWFzIEhh
ZWJlcmxlbjEhMB8GCSqGSIb3DQEJARYSZGVtb2NhQG9jdGFyaW5lLmRlMB4XDTE1
MDQyMDIwNDcwN1oXDTE2MDQxOTIwNDcwN1owga4xCzAJBgNVBAYTAkRFMREwDwYD
VQQIEwhTYWFybGFuZDEQMA4GA1UEChMHTVBJLVNXUzEiMCAGA1UECxMZRGlzdHJp
YnV0ZWQgU3lzdGVtcyBHcm91cDExMC8GA1UEAxMoNDU3NmIzMDg3MzQ4OGIxZGVi
MmU5NTQ2MGNmYmU4YTNkMjk5NTkxYzEjMCEGCSqGSIb3DQEJARYUbm9kZTAyMzlA
b2N0YXJpbmUuZGUwgZ8wDQYJKoZIhvcNAQEBBQADgY0AMIGJAoGBAOXGFKP8oCpL
3lOuu0k3RodQoWcdDuM9uw+T1pp1IVyyV2P/2tFjc9QyriUb8b2ZLJhqxFebRD/X
uFLnKYHIjThAJH0QmZib79Ct3OTT7wVWTrTvjuwMd+Vbc2Q9YvUFY9BBqscf7Hx0
zwQRavvK0hX0ZEF7dEeALdMGLFIukPOxAgMBAAEwDQYJKoZIhvcNAQEEBQADgYEA
dTlmjw4GWUvW2xNN0n6om7qwW9hvGFMHR/WzdVPUHyhRqET4TsNp7n1foNTx3K6c
8F6jGMk0zO5wTNk0AkoyHi6BeMELoyPW+Wh8U5hQHQqwqvF+7gZLf/V9b3yjHrts
jfuf4Uw34AnZasyg4DihcTHMzz4UsmsZifKodR7trQY=
-----END CERTIFICATE-----
