Certificate:
    Data:
        Version: 1 (0x0)
        Serial Number:
            9b:27:d7:e8:d1:ba:0b:0a
        Signature Algorithm: md5WithRSAEncryption
        Issuer: C=DE, ST=Saarland, O=MPI-SWS, OU=Distributed Systems Group, CN=Andreas Haeberlen/emailAddress=democa@octarine.de
        Validity
            Not Before: Apr 20 20:47:33 2015 GMT
            Not After : Apr 19 20:47:33 2016 GMT
        Subject: C=DE, ST=Saarland, O=MPI-SWS, OU=Distributed Systems Group, CN=4f0b7303ca7da94875d6b922229ec05006c89cb6/emailAddress=node0818@octarine.de
        Subject Public Key Info:
            Public Key Algorithm: rsaEncryption
            RSA Public Key: (1024 bit)
                Modulus (1024 bit):
                    00:de:f1:43:c9:a7:5f:7a:3f:ab:a5:db:c1:09:72:
                    2f:0e:84:2f:91:f2:67:9e:5a:8c:10:06:e7:f0:26:
                    24:de:f3:fa:64:ea:2c:f1:f0:ae:44:b5:00:0d:90:
                    5c:b3:1f:68:db:02:cd:21:1e:30:df:8b:32:c2:43:
                    53:76:5c:97:e3:10:8a:90:82:05:fe:e9:ce:47:93:
                    f3:f2:40:e5:7b:1f:b0:91:c5:f6:bf:6f:fa:26:76:
                    ea:bf:99:e2:4d:7d:ab:06:5f:cb:49:c9:69:41:b6:
                    da:ad:6f:d7:d3:49:91:d0:2b:4b:d7:8c:bf:8f:31:
                    fd:05:c9:ec:cf:4c:c6:ce:e5
                Exponent: 65537 (0x10001)
    Signature Algorithm: md5WithRSAEncryption
        34:e4:e2:16:46:3b:99:73:d5:b6:bc:c5:fc:6e:79:9c:ee:cf:
        9b:3e:5f:a8:25:2d:23:7a:93:e1:fb:ee:6f:4f:b5:68:be:81:
        ec:e8:30:aa:01:22:e9:ab:45:b5:8a:18:79:3e:bb:e8:56:eb:
        1d:54:df:89:8f:bb:f6:06:16:7e:c1:ee:5a:01:13:e5:18:ad:
        e4:74:d5:f1:42:88:41:22:6c:90:ea:a5:49:06:e4:b5:91:f2:
        17:7d:43:d8:ba:9b:7d:fb:08:10:4a:c6:3c:07:88:48:2e:20:
        7b:a1:5b:8f:e0:ab:0d:65:cb:23:71:10:4c:d2:72:bc:6a:e4:
        c1:f8
-----BEGIN CERTIFICATE-----
MIICvDCCAiUCCQCbJ9fo0boLCjANBgkqhkiG9w0BAQQFADCBlTELMAkGA1UEBhMC
REUxETAPBgNVBAgTCFNhYXJsYW5kMRAwDgYDVQQKEwdNUEktU1dTMSIwIAYDVQQL
ExlEaXN0cmlidXRlZCBTeXN0ZW1zIEdyb3VwMRowGAYDVQQDExFBbmRyZWFzIEhh
ZWJlcmxlbjEhMB8GCSqGSIb3DQEJARYSZGVtb2NhQG9jdGFyaW5lLmRlMB4XDTE1
MDQyMDIwNDczM1oXDTE2MDQxOTIwNDczM1owga4xCzAJBgNVBAYTAkRFMREwDwYD
VQQIEwhTYWFybGFuZDEQMA4GA1UEChMHTVBJLVNXUzEiMCAGA1UECxMZRGlzdHJp
YnV0ZWQgU3lzdGVtcyBHcm91cDExMC8GA1UEAxMoNGYwYjczMDNjYTdkYTk0ODc1
ZDZiOTIyMjI5ZWMwNTAwNmM4OWNiNjEjMCEGCSqGSIb3DQEJARYUbm9kZTA4MThA
b2N0YXJpbmUuZGUwgZ8wDQYJKoZIhvcNAQEBBQADgY0AMIGJAoGBAN7xQ8mnX3o/
q6XbwQlyLw6EL5HyZ55ajBAG5/AmJN7z+mTqLPHwrkS1AA2QXLMfaNsCzSEeMN+L
MsJDU3Zcl+MQipCCBf7pzkeT8/JA5XsfsJHF9r9v+iZ26r+Z4k19qwZfy0nJaUG2
2q1v19NJkdArS9eMv48x/QXJ7M9Mxs7lAgMBAAEwDQYJKoZIhvcNAQEEBQADgYEA
NOTiFkY7mXPVtrzF/G55nO7Pmz5fqCUtI3qT4fvub0+1aL6B7OgwqgEi6atFtYoY
eT676FbrHVTfiY+79gYWfsHuWgET5Rit5HTV8UKIQSJskOqlSQbktZHyF31D2Lqb
ffsIEErGPAeISC4ge6Fbj+CrDWXLI3EQTNJyvGrkwfg=
-----END CERTIFICATE-----
