Certificate:
    Data:
        Version: 1 (0x0)
        Serial Number:
            9b:27:d7:e8:d1:ba:07:df
        Signature Algorithm: md5WithRSAEncryption
        Issuer: C=DE, ST=Saarland, O=MPI-SWS, OU=Distributed Systems Group, CN=Andreas Haeberlen/emailAddress=democa@octarine.de
        Validity
            Not Before: Apr 20 20:46:57 2015 GMT
            Not After : Apr 19 20:46:57 2016 GMT
        Subject: C=DE, ST=Saarland, O=MPI-SWS, OU=Distributed Systems Group, CN=209e89a9649bddae0ce0a760e103bedde6c7f716/emailAddress=node0007@octarine.de
        Subject Public Key Info:
            Public Key Algorithm: rsaEncryption
            RSA Public Key: (1024 bit)
                Modulus (1024 bit):
                    00:b6:f2:17:29:69:cf:72:c8:56:1f:da:46:82:62:
                    88:a2:1f:35:ac:1c:dd:e4:a9:d8:ec:98:2f:27:c7:
                    21:82:0e:a1:86:b5:b6:58:bf:5d:1b:22:9c:d5:e0:
                    f8:97:fa:6a:83:f1:45:b3:c7:d7:bf:6b:8b:1c:8b:
                    2e:e1:97:13:58:58:8d:5f:12:32:8e:24:f7:9d:4c:
                    ed:4e:46:48:24:8d:b6:42:31:1f:fd:05:29:f0:e4:
                    44:3b:f1:ce:01:74:0d:0c:d9:c3:a3:cb:59:ee:24:
                    d6:db:ec:26:ce:11:22:20:0c:76:d0:7e:58:c4:fd:
                    f2:b9:ca:09:70:2a:54:34:09
                Exponent: 65537 (0x10001)
    Signature Algorithm: md5WithRSAEncryption
        1b:35:4c:2c:64:40:7c:31:65:1b:29:e2:6e:c0:60:0f:43:45:
        ca:7b:47:db:16:19:cd:c6:80:8e:11:ff:61:07:51:9a:a8:63:
        2c:07:c1:32:d5:5d:c7:06:2a:51:eb:bf:d6:7f:5e:94:a8:06:
        5a:97:30:46:86:fe:9d:c9:9f:f3:52:51:08:93:74:02:49:7f:
        55:c5:d5:f0:dd:2c:2c:14:b6:1e:e6:ad:d8:49:ed:81:4b:ba:
        a9:61:0c:84:8b:6d:05:3a:2e:e4:6e:96:9d:3e:cd:84:e3:ef:
        ef:b4:de:cb:17:54:5e:19:2c:fc:36:b8:18:fc:8f:77:dc:24:
        b4:e8
-----BEGIN CERTIFICATE-----
MIICvDCCAiUCCQCbJ9fo0boH3zANBgkqhkiG9w0BAQQFADCBlTELMAkGA1UEBhMC
REUxETAPBgNVBAgTCFNhYXJsYW5kMRAwDgYDVQQKEwdNUEktU1dTMSIwIAYDVQQL
ExlEaXN0cmlidXRlZCBTeXN0ZW1zIEdyb3VwMRowGAYDVQQDExFBbmRyZWFzIEhh
ZWJlcmxlbjEhMB8GCSqGSIb3DQEJARYSZGVtb2NhQG9jdGFyaW5lLmRlMB4XDTE1
MDQyMDIwNDY1N1oXDTE2MDQxOTIwNDY1N1owga4xCzAJBgNVBAYTAkRFMREwDwYD
VQQIEwhTYWFybGFuZDEQMA4GA1UEChMHTVBJLVNXUzEiMCAGA1UECxMZRGlzdHJp
YnV0ZWQgU3lzdGVtcyBHcm91cDExMC8GA1UEAxMoMjA5ZTg5YTk2NDliZGRhZTBj
ZTBhNzYwZTEwM2JlZGRlNmM3ZjcxNjEjMCEGCSqGSIb3DQEJARYUbm9kZTAwMDdA
b2N0YXJpbmUuZGUwgZ8wDQYJKoZIhvcNAQEBBQADgY0AMIGJAoGBALbyFylpz3LI
Vh/aRoJiiKIfNawc3eSp2OyYLyfHIYIOoYa1tli/XRsinNXg+Jf6aoPxRbPH179r
ixyLLuGXE1hYjV8SMo4k951M7U5GSCSNtkIxH/0FKfDkRDvxzgF0DQzZw6PLWe4k
1tvsJs4RIiAMdtB+WMT98rnKCXAqVDQJAgMBAAEwDQYJKoZIhvcNAQEEBQADgYEA
GzVMLGRAfDFlGynibsBgD0NFyntH2xYZzcaAjhH/YQdRmqhjLAfBMtVdxwYqUeu/
1n9elKgGWpcwRob+ncmf81JRCJN0Akl/VcXV8N0sLBS2Huat2EntgUu6qWEMhItt
BTou5G6WnT7NhOPv77TeyxdUXhks/Da4GPyPd9wktOg=
-----END CERTIFICATE-----
