Certificate:
    Data:
        Version: 1 (0x0)
        Serial Number:
            9b:27:d7:e8:d1:ba:0a:bf
        Signature Algorithm: md5WithRSAEncryption
        Issuer: C=DE, ST=Saarland, O=MPI-SWS, OU=Distributed Systems Group, CN=Andreas Haeberlen/emailAddress=democa@octarine.de
        Validity
            Not Before: Apr 20 20:47:30 2015 GMT
            Not After : Apr 19 20:47:30 2016 GMT
        Subject: C=DE, ST=Saarland, O=MPI-SWS, OU=Distributed Systems Group, CN=78e89bf913ac1a7c2ad3da0424b4d254b3d4fde1/emailAddress=node0743@octarine.de
        Subject Public Key Info:
            Public Key Algorithm: rsaEncryption
            RSA Public Key: (1024 bit)
                Modulus (1024 bit):
                    00:d9:1c:ca:92:6f:93:73:e3:68:88:13:d7:10:a2:
                    f6:a1:e9:64:b8:c0:51:f2:e2:13:3e:e1:9e:73:b7:
                    dd:68:0e:5c:9e:bf:76:a8:97:20:b5:e1:4f:52:8e:
                    51:90:69:6d:5f:11:e3:83:6a:ba:42:c3:10:c3:bf:
                    3d:93:c3:95:3d:ee:7d:af:e0:db:15:1f:6c:31:6d:
                    a6:01:67:e4:50:46:60:46:4f:27:04:4d:92:e0:03:
                    fe:06:ef:68:30:6b:b9:5a:e4:02:67:79:66:35:f4:
                    b7:df:a4:ab:d6:0c:97:4b:08:b9:c0:a2:73:ad:f3:
                    00:21:9f:80:d8:8d:c3:bc:c3
                Exponent: 65537 (0x10001)
    Signature Algorithm: md5WithRSAEncryption
        18:5f:3b:d0:5f:22:c6:ae:59:b7:a2:08:51:ee:70:6c:f8:65:
        ee:b4:5a:fc:84:1f:92:d9:0a:6b:02:d3:2d:71:d5:b8:8e:ef:
        96:1a:e4:d9:98:49:69:ec:61:1b:d5:5f:71:e1:18:24:ad:db:
        95:ed:c8:50:e7:c4:e5:72:ce:6e:45:3e:79:9a:bb:de:3d:56:
        d0:f9:69:d9:1c:74:0b:e7:60:66:bb:32:d1:ef:0d:e7:2d:68:
        cd:f2:f6:36:bf:3e:ee:55:10:84:9c:83:31:6d:07:8d:91:da:
        49:c7:6d:c3:9a:d8:09:7a:6c:4f:3c:a0:cf:9d:cf:0e:fb:c8:
        84:a6
-----BEGIN CERTIFICATE-----
MIICvDCCAiUCCQCbJ9fo0boKvzANBgkqhkiG9w0BAQQFADCBlTELMAkGA1UEBhMC
REUxETAPBgNVBAgTCFNhYXJsYW5kMRAwDgYDVQQKEwdNUEktU1dTMSIwIAYDVQQL
ExlEaXN0cmlidXRlZCBTeXN0ZW1zIEdyb3VwMRowGAYDVQQDExFBbmRyZWFzIEhh
ZWJlcmxlbjEhMB8GCSqGSIb3DQEJARYSZGVtb2NhQG9jdGFyaW5lLmRlMB4XDTE1
MDQyMDIwNDczMFoXDTE2MDQxOTIwNDczMFowga4xCzAJBgNVBAYTAkRFMREwDwYD
VQQIEwhTYWFybGFuZDEQMA4GA1UEChMHTVBJLVNXUzEiMCAGA1UECxMZRGlzdHJp
YnV0ZWQgU3lzdGVtcyBHcm91cDExMC8GA1UEAxMoNzhlODliZjkxM2FjMWE3YzJh
ZDNkYTA0MjRiNGQyNTRiM2Q0ZmRlMTEjMCEGCSqGSIb3DQEJARYUbm9kZTA3NDNA
b2N0YXJpbmUuZGUwgZ8wDQYJKoZIhvcNAQEBBQADgY0AMIGJAoGBANkcypJvk3Pj
aIgT1xCi9qHpZLjAUfLiEz7hnnO33WgOXJ6/dqiXILXhT1KOUZBpbV8R44NqukLD
EMO/PZPDlT3ufa/g2xUfbDFtpgFn5FBGYEZPJwRNkuAD/gbvaDBruVrkAmd5ZjX0
t9+kq9YMl0sIucCic63zACGfgNiNw7zDAgMBAAEwDQYJKoZIhvcNAQEEBQADgYEA
GF870F8ixq5Zt6IIUe5wbPhl7rRa/IQfktkKawLTLXHVuI7vlhrk2ZhJaexhG9Vf
ceEYJK3ble3IUOfE5XLObkU+eZq73j1W0Plp2Rx0C+dgZrsy0e8N5y1ozfL2Nr8+
7lUQhJyDMW0HjZHaScdtw5rYCXpsTzygz53PDvvIhKY=
-----END CERTIFICATE-----
