Certificate:
    Data:
        Version: 1 (0x0)
        Serial Number:
            9b:27:d7:e8:d1:ba:0a:98
        Signature Algorithm: md5WithRSAEncryption
        Issuer: C=DE, ST=Saarland, O=MPI-SWS, OU=Distributed Systems Group, CN=Andreas Haeberlen/emailAddress=democa@octarine.de
        Validity
            Not Before: Apr 20 20:47:28 2015 GMT
            Not After : Apr 19 20:47:28 2016 GMT
        Subject: C=DE, ST=Saarland, O=MPI-SWS, OU=Distributed Systems Group, CN=81255f42e5c29377d29ab7757713d26539b98fb7/emailAddress=node0704@octarine.de
        Subject Public Key Info:
            Public Key Algorithm: rsaEncryption
            RSA Public Key: (1024 bit)
                Modulus (1024 bit):
                    00:c2:36:fa:68:a0:7e:49:96:64:c1:20:5b:fe:cb:
                    a9:25:e1:93:a0:89:58:4a:0b:da:54:82:9f:a8:a2:
                    06:20:97:ac:ca:60:f7:1c:8a:a6:53:d5:7e:ed:64:
                    f7:51:c6:6a:8e:aa:52:fc:fc:62:88:f3:4f:6e:32:
                    94:f1:6c:42:ef:a8:eb:1b:7e:ec:06:5a:56:bd:48:
                    51:64:2c:7c:60:80:09:6e:74:2c:9e:ab:6c:e1:13:
                    ff:bf:80:dc:9b:bb:67:cd:1c:36:05:d3:e7:19:84:
                    f3:0f:bf:6b:4f:a4:28:95:f1:5c:d6:9b:4c:fe:1f:
                    0f:9f:bc:aa:a4:37:c8:66:bf
                Exponent: 65537 (0x10001)
    Signature Algorithm: md5WithRSAEncryption
        95:1b:f6:a1:c0:54:b0:c5:ab:d3:3c:fb:ad:1f:3a:21:da:30:
        3f:3c:34:da:8e:3e:5f:74:77:c5:88:5e:54:dc:bd:94:ac:32:
        65:9e:04:df:2b:6a:a9:a0:a2:2e:f5:75:66:88:fd:24:60:91:
        b4:62:2a:cb:98:91:9a:a0:f5:54:ea:ad:04:00:e4:20:94:db:
        c0:b7:62:51:c5:cc:ab:eb:b9:2b:1c:3d:2a:a7:54:bd:ac:66:
        ad:67:5c:d3:3f:cb:69:99:60:dd:fa:59:43:f8:d1:bf:6f:29:
        c9:60:82:ec:74:5b:d2:d5:85:3e:81:97:66:f4:30:b2:1a:4d:
        40:bd
-----BEGIN CERTIFICATE-----
MIICvDCCAiUCCQCbJ9fo0boKmDANBgkqhkiG9w0BAQQFADCBlTELMAkGA1UEBhMC
REUxETAPBgNVBAgTCFNhYXJsYW5kMRAwDgYDVQQKEwdNUEktU1dTMSIwIAYDVQQL
ExlEaXN0cmlidXRlZCBTeXN0ZW1zIEdyb3VwMRowGAYDVQQDExFBbmRyZWFzIEhh
ZWJlcmxlbjEhMB8GCSqGSIb3DQEJARYSZGVtb2NhQG9jdGFyaW5lLmRlMB4XDTE1
MDQyMDIwNDcyOFoXDTE2MDQxOTIwNDcyOFowga4xCzAJBgNVBAYTAkRFMREwDwYD
VQQIEwhTYWFybGFuZDEQMA4GA1UEChMHTVBJLVNXUzEiMCAGA1UECxMZRGlzdHJp
YnV0ZWQgU3lzdGVtcyBHcm91cDExMC8GA1UEAxMoODEyNTVmNDJlNWMyOTM3N2Qy
OWFiNzc1NzcxM2QyNjUzOWI5OGZiNzEjMCEGCSqGSIb3DQEJARYUbm9kZTA3MDRA
b2N0YXJpbmUuZGUwgZ8wDQYJKoZIhvcNAQEBBQADgY0AMIGJAoGBAMI2+migfkmW
ZMEgW/7LqSXhk6CJWEoL2lSCn6iiBiCXrMpg9xyKplPVfu1k91HGao6qUvz8Yojz
T24ylPFsQu+o6xt+7AZaVr1IUWQsfGCACW50LJ6rbOET/7+A3Ju7Z80cNgXT5xmE
8w+/a0+kKJXxXNabTP4fD5+8qqQ3yGa/AgMBAAEwDQYJKoZIhvcNAQEEBQADgYEA
lRv2ocBUsMWr0zz7rR86IdowPzw02o4+X3R3xYheVNy9lKwyZZ4E3ytqqaCiLvV1
Zoj9JGCRtGIqy5iRmqD1VOqtBADkIJTbwLdiUcXMq+u5Kxw9KqdUvaxmrWdc0z/L
aZlg3fpZQ/jRv28pyWCC7HRb0tWFPoGXZvQwshpNQL0=
-----END CERTIFICATE-----
