Certificate:
    Data:
        Version: 1 (0x0)
        Serial Number:
            9b:27:d7:e8:d1:ba:07:dd
        Signature Algorithm: md5WithRSAEncryption
        Issuer: C=DE, ST=Saarland, O=MPI-SWS, OU=Distributed Systems Group, CN=Andreas Haeberlen/emailAddress=democa@octarine.de
        Validity
            Not Before: Apr 20 20:46:57 2015 GMT
            Not After : Apr 19 20:46:57 2016 GMT
        Subject: C=DE, ST=Saarland, O=MPI-SWS, OU=Distributed Systems Group, CN=6089970996a512f74694b440facde8f498d3fec8/emailAddress=node0005@octarine.de
        Subject Public Key Info:
            Public Key Algorithm: rsaEncryption
            RSA Public Key: (1024 bit)
                Modulus (1024 bit):
                    00:f1:e8:77:5b:b3:19:4b:f9:bd:d0:e9:da:1e:55:
                    34:2f:c3:11:f6:fc:9d:f6:f9:2f:20:a8:58:5e:7e:
                    b0:75:81:e8:d6:b8:c2:1d:a7:77:42:90:e4:78:be:
                    46:ed:70:56:bc:b6:63:56:4e:a3:ac:b7:07:1e:f7:
                    39:58:ac:0d:c1:03:8a:32:1e:ee:c8:d7:99:f3:8b:
                    f8:e0:70:4a:12:e9:24:62:19:ca:df:c0:f4:30:0c:
                    26:37:54:0a:4f:4c:c7:de:fa:2c:e7:77:c8:9e:e0:
                    2c:7d:8b:92:78:e9:dd:8e:1b:a2:52:4d:8d:8a:f8:
                    54:6e:22:36:2b:23:a1:53:f1
                Exponent: 65537 (0x10001)
    Signature Algorithm: md5WithRSAEncryption
        ae:44:3f:eb:c3:e1:ba:65:6e:2e:fc:ff:05:e8:b8:9a:a0:02:
        29:8f:37:84:d0:41:f6:18:ab:41:21:25:d2:df:9f:c6:a2:96:
        b7:ae:ad:80:55:cc:c4:45:c2:ea:90:70:fb:6e:b4:31:8f:12:
        be:9f:91:f2:f2:da:a3:9c:e0:20:1b:b0:1b:9f:18:f3:5e:13:
        c9:c5:5c:ea:84:d2:de:85:48:2e:ac:28:6d:7f:b4:8a:e4:b5:
        85:5b:f0:79:9e:d7:59:8b:8a:a8:aa:63:22:5d:b1:46:ab:c3:
        73:65:76:21:30:dc:e0:07:60:66:2b:ee:d7:21:5a:43:b0:ad:
        92:76
-----BEGIN CERTIFICATE-----
MIICvDCCAiUCCQCbJ9fo0boH3TANBgkqhkiG9w0BAQQFADCBlTELMAkGA1UEBhMC
REUxETAPBgNVBAgTCFNhYXJsYW5kMRAwDgYDVQQKEwdNUEktU1dTMSIwIAYDVQQL
ExlEaXN0cmlidXRlZCBTeXN0ZW1zIEdyb3VwMRowGAYDVQQDExFBbmRyZWFzIEhh
ZWJlcmxlbjEhMB8GCSqGSIb3DQEJARYSZGVtb2NhQG9jdGFyaW5lLmRlMB4XDTE1
MDQyMDIwNDY1N1oXDTE2MDQxOTIwNDY1N1owga4xCzAJBgNVBAYTAkRFMREwDwYD
VQQIEwhTYWFybGFuZDEQMA4GA1UEChMHTVBJLVNXUzEiMCAGA1UECxMZRGlzdHJp
YnV0ZWQgU3lzdGVtcyBHcm91cDExMC8GA1UEAxMoNjA4OTk3MDk5NmE1MTJmNzQ2
OTRiNDQwZmFjZGU4ZjQ5OGQzZmVjODEjMCEGCSqGSIb3DQEJARYUbm9kZTAwMDVA
b2N0YXJpbmUuZGUwgZ8wDQYJKoZIhvcNAQEBBQADgY0AMIGJAoGBAPHod1uzGUv5
vdDp2h5VNC/DEfb8nfb5LyCoWF5+sHWB6Na4wh2nd0KQ5Hi+Ru1wVry2Y1ZOo6y3
Bx73OVisDcEDijIe7sjXmfOL+OBwShLpJGIZyt/A9DAMJjdUCk9Mx976LOd3yJ7g
LH2Lknjp3Y4bolJNjYr4VG4iNisjoVPxAgMBAAEwDQYJKoZIhvcNAQEEBQADgYEA
rkQ/68PhumVuLvz/Bei4mqACKY83hNBB9hirQSEl0t+fxqKWt66tgFXMxEXC6pBw
+260MY8Svp+R8vLao5zgIBuwG58Y814TycVc6oTS3oVILqwobX+0iuS1hVvweZ7X
WYuKqKpjIl2xRqvDc2V2ITDc4AdgZivu1yFaQ7CtknY=
-----END CERTIFICATE-----
