Certificate:
    Data:
        Version: 1 (0x0)
        Serial Number:
            9b:27:d7:e8:d1:ba:08:d3
        Signature Algorithm: md5WithRSAEncryption
        Issuer: C=DE, ST=Saarland, O=MPI-SWS, OU=Distributed Systems Group, CN=Andreas Haeberlen/emailAddress=democa@octarine.de
        Validity
            Not Before: Apr 20 20:47:08 2015 GMT
            Not After : Apr 19 20:47:08 2016 GMT
        Subject: C=DE, ST=Saarland, O=MPI-SWS, OU=Distributed Systems Group, CN=f092ad329afc77585ee3808e45f9cb4cbdf6a294/emailAddress=node0251@octarine.de
        Subject Public Key Info:
            Public Key Algorithm: rsaEncryption
            RSA Public Key: (1024 bit)
                Modulus (1024 bit):
                    00:ba:a5:f1:07:29:4e:1e:85:34:c1:ab:3a:0b:31:
                    44:33:d4:5f:3d:aa:bb:c8:17:6b:68:7e:21:c2:55:
                    f1:9a:b6:c0:8f:b5:7e:64:40:15:63:93:ff:47:5e:
                    1c:01:f9:fc:ca:b8:24:8d:d0:1b:4e:2c:20:16:98:
                    ea:da:d1:86:ad:80:50:18:e8:0b:42:36:09:8b:62:
                    a3:2f:87:ef:69:85:14:d4:e4:57:14:70:3b:7e:ff:
                    76:24:69:38:65:12:5f:fe:da:b9:88:14:ee:38:d0:
                    f2:5a:12:20:01:0d:96:2e:bd:3e:19:95:36:66:46:
                    44:bb:bb:01:95:c7:c2:75:91
                Exponent: 65537 (0x10001)
    Signature Algorithm: md5WithRSAEncryption
        98:fa:66:1c:07:ec:b5:ba:b1:b8:6c:2b:5e:19:9f:b4:d2:4f:
        86:e1:e8:db:2f:61:53:ea:ac:18:e9:34:0d:b8:59:0f:54:08:
        ef:e6:bb:22:c4:77:91:4f:36:39:50:4a:99:65:a9:f3:2f:56:
        92:c4:fd:19:23:50:07:2d:10:b7:1f:54:f8:9a:50:fa:a0:47:
        00:78:81:e9:42:a5:a8:28:1a:a5:18:98:2e:b8:6f:db:c3:b6:
        4a:74:cb:80:bb:cb:3d:f8:8b:58:ef:6c:df:a2:1d:70:85:59:
        a6:8a:3c:4d:1e:3e:65:9b:7c:e2:8b:3f:91:bb:09:71:e8:a7:
        3f:79
-----BEGIN CERTIFICATE-----
MIICvDCCAiUCCQCbJ9fo0boI0zANBgkqhkiG9w0BAQQFADCBlTELMAkGA1UEBhMC
REUxETAPBgNVBAgTCFNhYXJsYW5kMRAwDgYDVQQKEwdNUEktU1dTMSIwIAYDVQQL
ExlEaXN0cmlidXRlZCBTeXN0ZW1zIEdyb3VwMRowGAYDVQQDExFBbmRyZWFzIEhh
ZWJlcmxlbjEhMB8GCSqGSIb3DQEJARYSZGVtb2NhQG9jdGFyaW5lLmRlMB4XDTE1
MDQyMDIwNDcwOFoXDTE2MDQxOTIwNDcwOFowga4xCzAJBgNVBAYTAkRFMREwDwYD
VQQIEwhTYWFybGFuZDEQMA4GA1UEChMHTVBJLVNXUzEiMCAGA1UECxMZRGlzdHJp
YnV0ZWQgU3lzdGVtcyBHcm91cDExMC8GA1UEAxMoZjA5MmFkMzI5YWZjNzc1ODVl
ZTM4MDhlNDVmOWNiNGNiZGY2YTI5NDEjMCEGCSqGSIb3DQEJARYUbm9kZTAyNTFA
b2N0YXJpbmUuZGUwgZ8wDQYJKoZIhvcNAQEBBQADgY0AMIGJAoGBALql8QcpTh6F
NMGrOgsxRDPUXz2qu8gXa2h+IcJV8Zq2wI+1fmRAFWOT/0deHAH5/Mq4JI3QG04s
IBaY6trRhq2AUBjoC0I2CYtioy+H72mFFNTkVxRwO37/diRpOGUSX/7auYgU7jjQ
8loSIAENli69PhmVNmZGRLu7AZXHwnWRAgMBAAEwDQYJKoZIhvcNAQEEBQADgYEA
mPpmHAfstbqxuGwrXhmftNJPhuHo2y9hU+qsGOk0DbhZD1QI7+a7IsR3kU82OVBK
mWWp8y9WksT9GSNQBy0Qtx9U+JpQ+qBHAHiB6UKlqCgapRiYLrhv28O2SnTLgLvL
PfiLWO9s36IdcIVZpoo8TR4+ZZt84os/kbsJceinP3k=
-----END CERTIFICATE-----
