Certificate:
    Data:
        Version: 1 (0x0)
        Serial Number:
            9b:27:d7:e8:d1:ba:08:97
        Signature Algorithm: md5WithRSAEncryption
        Issuer: C=DE, ST=Saarland, O=MPI-SWS, OU=Distributed Systems Group, CN=Andreas Haeberlen/emailAddress=democa@octarine.de
        Validity
            Not Before: Apr 20 20:47:05 2015 GMT
            Not After : Apr 19 20:47:05 2016 GMT
        Subject: C=DE, ST=Saarland, O=MPI-SWS, OU=Distributed Systems Group, CN=96698f10323b36bfe29dfd072b48b3c492e12016/emailAddress=node0191@octarine.de
        Subject Public Key Info:
            Public Key Algorithm: rsaEncryption
            RSA Public Key: (1024 bit)
                Modulus (1024 bit):
                    00:bc:db:05:31:f7:17:19:f6:c1:f9:26:3b:ed:7a:
                    a4:d0:e1:f4:1b:74:6f:e6:32:b7:f4:dd:43:2d:1c:
                    fb:af:c7:2a:d1:45:f0:0e:aa:2c:12:61:7a:75:b0:
                    e0:ef:69:3a:54:c8:5c:93:be:bd:f3:0d:86:2b:a5:
                    83:fe:e6:b3:8b:e7:17:74:cb:1b:75:d6:f2:87:22:
                    87:72:72:20:d7:56:f1:28:69:2a:a0:eb:5e:e4:d8:
                    92:30:a6:73:ed:13:c3:26:85:16:b7:a0:c3:fb:28:
                    86:ee:31:0d:21:c5:c9:c4:8e:4d:6d:c0:d1:a9:98:
                    38:72:a4:d3:92:53:52:90:af
                Exponent: 65537 (0x10001)
    Signature Algorithm: md5WithRSAEncryption
        a1:d4:3b:60:96:62:43:0e:f7:0f:81:59:76:43:46:a6:36:c7:
        ec:62:37:55:e5:12:75:10:6d:6d:fa:5e:c4:b5:15:f0:f2:97:
        0f:be:c4:8c:58:32:5f:92:b1:3c:53:13:fa:94:31:57:49:00:
        b0:63:93:bd:96:f6:51:b4:bf:0d:6b:4f:3d:76:39:99:87:92:
        42:44:2e:54:7f:0c:40:60:13:24:a1:74:ef:e4:00:f2:db:6f:
        63:f1:7f:a8:00:95:5c:b5:ab:7d:48:82:73:3f:c3:c5:de:4c:
        c6:a3:f8:cf:75:ba:59:d7:cb:1f:c4:81:ff:1f:b7:7c:b9:d8:
        6c:32
-----BEGIN CERTIFICATE-----
MIICvDCCAiUCCQCbJ9fo0boIlzANBgkqhkiG9w0BAQQFADCBlTELMAkGA1UEBhMC
REUxETAPBgNVBAgTCFNhYXJsYW5kMRAwDgYDVQQKEwdNUEktU1dTMSIwIAYDVQQL
ExlEaXN0cmlidXRlZCBTeXN0ZW1zIEdyb3VwMRowGAYDVQQDExFBbmRyZWFzIEhh
ZWJlcmxlbjEhMB8GCSqGSIb3DQEJARYSZGVtb2NhQG9jdGFyaW5lLmRlMB4XDTE1
MDQyMDIwNDcwNVoXDTE2MDQxOTIwNDcwNVowga4xCzAJBgNVBAYTAkRFMREwDwYD
VQQIEwhTYWFybGFuZDEQMA4GA1UEChMHTVBJLVNXUzEiMCAGA1UECxMZRGlzdHJp
YnV0ZWQgU3lzdGVtcyBHcm91cDExMC8GA1UEAxMoOTY2OThmMTAzMjNiMzZiZmUy
OWRmZDA3MmI0OGIzYzQ5MmUxMjAxNjEjMCEGCSqGSIb3DQEJARYUbm9kZTAxOTFA
b2N0YXJpbmUuZGUwgZ8wDQYJKoZIhvcNAQEBBQADgY0AMIGJAoGBALzbBTH3Fxn2
wfkmO+16pNDh9Bt0b+Yyt/TdQy0c+6/HKtFF8A6qLBJhenWw4O9pOlTIXJO+vfMN
hiulg/7ms4vnF3TLG3XW8ocih3JyINdW8ShpKqDrXuTYkjCmc+0TwyaFFregw/so
hu4xDSHFycSOTW3A0amYOHKk05JTUpCvAgMBAAEwDQYJKoZIhvcNAQEEBQADgYEA
odQ7YJZiQw73D4FZdkNGpjbH7GI3VeUSdRBtbfpexLUV8PKXD77EjFgyX5KxPFMT
+pQxV0kAsGOTvZb2UbS/DWtPPXY5mYeSQkQuVH8MQGATJKF07+QA8ttvY/F/qACV
XLWrfUiCcz/Dxd5MxqP4z3W6WdfLH8SB/x+3fLnYbDI=
-----END CERTIFICATE-----
