Certificate:
    Data:
        Version: 1 (0x0)
        Serial Number:
            9b:27:d7:e8:d1:ba:09:29
        Signature Algorithm: md5WithRSAEncryption
        Issuer: C=DE, ST=Saarland, O=MPI-SWS, OU=Distributed Systems Group, CN=Andreas Haeberlen/emailAddress=democa@octarine.de
        Validity
            Not Before: Apr 20 20:47:11 2015 GMT
            Not After : Apr 19 20:47:11 2016 GMT
        Subject: C=DE, ST=Saarland, O=MPI-SWS, OU=Distributed Systems Group, CN=1042710d0bf8b5e0a452aaafe330200415686757/emailAddress=node0337@octarine.de
        Subject Public Key Info:
            Public Key Algorithm: rsaEncryption
            RSA Public Key: (1024 bit)
                Modulus (1024 bit):
                    00:a5:25:d4:d4:91:40:8b:e8:a7:e3:94:d1:e2:29:
                    dc:26:48:6a:6a:8a:be:c0:2a:f4:ab:fc:4b:a5:f6:
                    25:87:b1:d1:95:80:fd:e1:0e:41:7b:f6:3c:2c:40:
                    fa:9a:82:82:4a:e9:3d:f1:20:22:7d:1e:45:dc:97:
                    15:28:35:8b:7f:ee:5e:bd:e0:7d:47:83:04:79:79:
                    2e:e4:24:1d:ae:11:26:5c:fa:69:6e:2f:b6:fc:2b:
                    9f:bb:2b:bc:12:e6:06:d3:a3:0b:d1:ea:d1:e5:f7:
                    0b:0d:a9:f1:85:d7:6f:20:5b:86:96:b2:9f:66:3b:
                    73:f7:c1:87:27:b9:b7:71:f1
                Exponent: 65537 (0x10001)
    Signature Algorithm: md5WithRSAEncryption
        48:09:09:28:08:0d:f2:47:1e:13:71:90:64:f7:84:98:14:9a:
        6a:e8:54:af:a0:30:5d:b1:5c:d2:3f:fa:6a:62:c3:0a:31:86:
        70:dc:73:56:7b:53:b4:c3:4b:78:16:7f:4a:ee:d3:30:e0:ec:
        69:62:52:df:87:04:91:d2:1f:7b:62:a1:fd:00:32:4f:be:59:
        a8:59:eb:68:b6:b3:29:ec:6b:19:21:c2:cf:29:79:d8:b7:8e:
        2a:29:06:af:55:36:5f:57:12:5b:eb:06:f1:07:17:82:ac:16:
        5d:53:66:21:c6:ff:b5:37:c8:5a:29:f0:98:8a:31:5d:ad:73:
        b8:6d
-----BEGIN CERTIFICATE-----
MIICvDCCAiUCCQCbJ9fo0boJKTANBgkqhkiG9w0BAQQFADCBlTELMAkGA1UEBhMC
REUxETAPBgNVBAgTCFNhYXJsYW5kMRAwDgYDVQQKEwdNUEktU1dTMSIwIAYDVQQL
ExlEaXN0cmlidXRlZCBTeXN0ZW1zIEdyb3VwMRowGAYDVQQDExFBbmRyZWFzIEhh
ZWJlcmxlbjEhMB8GCSqGSIb3DQEJARYSZGVtb2NhQG9jdGFyaW5lLmRlMB4XDTE1
MDQyMDIwNDcxMVoXDTE2MDQxOTIwNDcxMVowga4xCzAJBgNVBAYTAkRFMREwDwYD
VQQIEwhTYWFybGFuZDEQMA4GA1UEChMHTVBJLVNXUzEiMCAGA1UECxMZRGlzdHJp
YnV0ZWQgU3lzdGVtcyBHcm91cDExMC8GA1UEAxMoMTA0MjcxMGQwYmY4YjVlMGE0
NTJhYWFmZTMzMDIwMDQxNTY4Njc1NzEjMCEGCSqGSIb3DQEJARYUbm9kZTAzMzdA
b2N0YXJpbmUuZGUwgZ8wDQYJKoZIhvcNAQEBBQADgY0AMIGJAoGBAKUl1NSRQIvo
p+OU0eIp3CZIamqKvsAq9Kv8S6X2JYex0ZWA/eEOQXv2PCxA+pqCgkrpPfEgIn0e
RdyXFSg1i3/uXr3gfUeDBHl5LuQkHa4RJlz6aW4vtvwrn7srvBLmBtOjC9Hq0eX3
Cw2p8YXXbyBbhpayn2Y7c/fBhye5t3HxAgMBAAEwDQYJKoZIhvcNAQEEBQADgYEA
SAkJKAgN8kceE3GQZPeEmBSaauhUr6AwXbFc0j/6amLDCjGGcNxzVntTtMNLeBZ/
Su7TMODsaWJS34cEkdIfe2Kh/QAyT75ZqFnraLazKexrGSHCzyl52LeOKikGr1U2
X1cSW+sG8QcXgqwWXVNmIcb/tTfIWinwmIoxXa1zuG0=
-----END CERTIFICATE-----
