Certificate:
    Data:
        Version: 1 (0x0)
        Serial Number:
            9b:27:d7:e8:d1:ba:07:f6
        Signature Algorithm: md5WithRSAEncryption
        Issuer: C=DE, ST=Saarland, O=MPI-SWS, OU=Distributed Systems Group, CN=Andreas Haeberlen/emailAddress=democa@octarine.de
        Validity
            Not Before: Apr 20 20:46:58 2015 GMT
            Not After : Apr 19 20:46:58 2016 GMT
        Subject: C=DE, ST=Saarland, O=MPI-SWS, OU=Distributed Systems Group, CN=e1ba000a22178ba07704750c709073355ff5f001/emailAddress=node0030@octarine.de
        Subject Public Key Info:
            Public Key Algorithm: rsaEncryption
            RSA Public Key: (1024 bit)
                Modulus (1024 bit):
                    00:b8:a2:b8:78:f2:a9:bc:81:af:a9:87:45:84:d7:
                    09:9f:f5:c8:3c:d3:6c:f9:27:ea:95:86:19:14:6f:
                    72:bd:6e:e0:15:fd:76:d9:f6:aa:93:98:95:bb:e4:
                    36:67:f4:e1:14:c6:4f:6c:eb:ab:a7:34:4f:af:ba:
                    4e:dc:25:a7:31:12:ca:96:db:8c:33:ce:60:7f:2e:
                    bc:7a:70:43:a4:75:f0:47:51:59:86:57:cd:e2:96:
                    5b:ad:f9:45:c5:c5:c8:58:10:b5:26:b9:4c:66:90:
                    45:e2:e9:02:67:55:8b:26:8f:15:22:81:17:fe:8d:
                    38:6f:bc:e7:66:1d:f1:f9:85
                Exponent: 65537 (0x10001)
    Signature Algorithm: md5WithRSAEncryption
        c4:05:6f:13:ea:dc:9c:a8:67:cf:8a:dd:9e:43:8e:63:07:10:
        dc:cc:8c:26:4a:7d:19:3d:82:cf:f0:9e:ff:3d:7a:d6:fd:77:
        47:0a:aa:db:3d:42:ec:9d:52:06:04:ed:38:7b:99:c7:8d:b0:
        86:8f:45:57:21:3c:f9:5e:9c:c7:44:39:6b:be:30:b0:7d:83:
        71:8f:c7:75:8d:6a:3b:7a:df:15:f5:7e:ab:95:dc:b9:dc:e5:
        1c:d3:fb:86:a2:ee:29:2f:63:80:5a:19:72:ec:b1:08:92:79:
        36:a6:50:14:8d:fb:f1:97:6a:c5:77:89:13:d0:ee:12:da:11:
        92:ad
-----BEGIN CERTIFICATE-----
MIICvDCCAiUCCQCbJ9fo0boH9jANBgkqhkiG9w0BAQQFADCBlTELMAkGA1UEBhMC
REUxETAPBgNVBAgTCFNhYXJsYW5kMRAwDgYDVQQKEwdNUEktU1dTMSIwIAYDVQQL
ExlEaXN0cmlidXRlZCBTeXN0ZW1zIEdyb3VwMRowGAYDVQQDExFBbmRyZWFzIEhh
ZWJlcmxlbjEhMB8GCSqGSIb3DQEJARYSZGVtb2NhQG9jdGFyaW5lLmRlMB4XDTE1
MDQyMDIwNDY1OFoXDTE2MDQxOTIwNDY1OFowga4xCzAJBgNVBAYTAkRFMREwDwYD
VQQIEwhTYWFybGFuZDEQMA4GA1UEChMHTVBJLVNXUzEiMCAGA1UECxMZRGlzdHJp
YnV0ZWQgU3lzdGVtcyBHcm91cDExMC8GA1UEAxMoZTFiYTAwMGEyMjE3OGJhMDc3
MDQ3NTBjNzA5MDczMzU1ZmY1ZjAwMTEjMCEGCSqGSIb3DQEJARYUbm9kZTAwMzBA
b2N0YXJpbmUuZGUwgZ8wDQYJKoZIhvcNAQEBBQADgY0AMIGJAoGBALiiuHjyqbyB
r6mHRYTXCZ/1yDzTbPkn6pWGGRRvcr1u4BX9dtn2qpOYlbvkNmf04RTGT2zrq6c0
T6+6TtwlpzESypbbjDPOYH8uvHpwQ6R18EdRWYZXzeKWW635RcXFyFgQtSa5TGaQ
ReLpAmdViyaPFSKBF/6NOG+852Yd8fmFAgMBAAEwDQYJKoZIhvcNAQEEBQADgYEA
xAVvE+rcnKhnz4rdnkOOYwcQ3MyMJkp9GT2Cz/Ce/z161v13Rwqq2z1C7J1SBgTt
OHuZx42who9FVyE8+V6cx0Q5a74wsH2DcY/HdY1qO3rfFfV+q5XcudzlHNP7hqLu
KS9jgFoZcuyxCJJ5NqZQFI378ZdqxXeJE9DuEtoRkq0=
-----END CERTIFICATE-----
