Certificate:
    Data:
        Version: 1 (0x0)
        Serial Number:
            9b:27:d7:e8:d1:ba:09:72
        Signature Algorithm: md5WithRSAEncryption
        Issuer: C=DE, ST=Saarland, O=MPI-SWS, OU=Distributed Systems Group, CN=Andreas Haeberlen/emailAddress=democa@octarine.de
        Validity
            Not Before: Apr 20 20:47:14 2015 GMT
            Not After : Apr 19 20:47:14 2016 GMT
        Subject: C=DE, ST=Saarland, O=MPI-SWS, OU=Distributed Systems Group, CN=9541aa25971b48962deab6f8ab620ee933bede36/emailAddress=node0410@octarine.de
        Subject Public Key Info:
            Public Key Algorithm: rsaEncryption
            RSA Public Key: (1024 bit)
                Modulus (1024 bit):
                    00:d7:7f:1f:9a:4b:17:ab:49:b4:ef:a6:dd:e3:4e:
                    ae:7a:46:e1:13:28:03:41:71:f4:25:80:c4:39:de:
                    f4:5d:f5:67:76:c0:f9:c5:6e:22:f1:2d:f3:be:f3:
                    b5:1a:8d:76:92:1b:64:0e:f5:66:23:8e:88:11:e0:
                    e1:f5:a4:68:5e:c5:ec:cc:47:a7:b6:2f:f8:7e:40:
                    a5:89:c1:03:07:e7:94:07:0f:0f:49:b4:1c:63:1c:
                    ed:d5:3d:01:5b:ae:d9:69:11:de:da:3b:71:5d:db:
                    3d:71:b3:52:cc:18:85:16:97:c2:15:9e:9f:17:75:
                    7f:d7:5a:24:70:91:b0:e2:79
                Exponent: 65537 (0x10001)
    Signature Algorithm: md5WithRSAEncryption
        2a:0e:34:ff:16:d7:e4:40:11:24:01:d0:6f:b3:6a:b0:6c:35:
        43:ad:b0:af:f1:89:71:da:f2:da:b2:65:0c:0d:fc:30:77:fe:
        d7:31:e3:7f:cf:3d:56:52:6b:02:4a:87:5d:65:23:d8:2d:cb:
        55:94:7a:9d:69:be:ba:05:2b:18:f0:14:b4:3b:1e:74:8f:ab:
        c2:32:09:ad:71:fa:ed:ce:90:6f:6d:26:1d:45:f0:ce:f0:46:
        b2:13:10:d4:55:24:d3:b0:05:a7:aa:d8:79:52:81:ce:d4:9b:
        ab:48:eb:cb:87:f8:ba:d5:86:5d:72:13:1c:44:0a:8d:3f:d9:
        ad:03
-----BEGIN CERTIFICATE-----
MIICvDCCAiUCCQCbJ9fo0boJcjANBgkqhkiG9w0BAQQFADCBlTELMAkGA1UEBhMC
REUxETAPBgNVBAgTCFNhYXJsYW5kMRAwDgYDVQQKEwdNUEktU1dTMSIwIAYDVQQL
ExlEaXN0cmlidXRlZCBTeXN0ZW1zIEdyb3VwMRowGAYDVQQDExFBbmRyZWFzIEhh
ZWJlcmxlbjEhMB8GCSqGSIb3DQEJARYSZGVtb2NhQG9jdGFyaW5lLmRlMB4XDTE1
MDQyMDIwNDcxNFoXDTE2MDQxOTIwNDcxNFowga4xCzAJBgNVBAYTAkRFMREwDwYD
VQQIEwhTYWFybGFuZDEQMA4GA1UEChMHTVBJLVNXUzEiMCAGA1UECxMZRGlzdHJp
YnV0ZWQgU3lzdGVtcyBHcm91cDExMC8GA1UEAxMoOTU0MWFhMjU5NzFiNDg5NjJk
ZWFiNmY4YWI2MjBlZTkzM2JlZGUzNjEjMCEGCSqGSIb3DQEJARYUbm9kZTA0MTBA
b2N0YXJpbmUuZGUwgZ8wDQYJKoZIhvcNAQEBBQADgY0AMIGJAoGBANd/H5pLF6tJ
tO+m3eNOrnpG4RMoA0Fx9CWAxDne9F31Z3bA+cVuIvEt877ztRqNdpIbZA71ZiOO
iBHg4fWkaF7F7MxHp7Yv+H5ApYnBAwfnlAcPD0m0HGMc7dU9AVuu2WkR3to7cV3b
PXGzUswYhRaXwhWenxd1f9daJHCRsOJ5AgMBAAEwDQYJKoZIhvcNAQEEBQADgYEA
Kg40/xbX5EARJAHQb7NqsGw1Q62wr/GJcdry2rJlDA38MHf+1zHjf889VlJrAkqH
XWUj2C3LVZR6nWm+ugUrGPAUtDsedI+rwjIJrXH67c6Qb20mHUXwzvBGshMQ1FUk
07AFp6rYeVKBztSbq0jry4f4utWGXXITHEQKjT/ZrQM=
-----END CERTIFICATE-----
