Certificate:
    Data:
        Version: 1 (0x0)
        Serial Number:
            9b:27:d7:e8:d1:ba:0b:a2
        Signature Algorithm: md5WithRSAEncryption
        Issuer: C=DE, ST=Saarland, O=MPI-SWS, OU=Distributed Systems Group, CN=Andreas Haeberlen/emailAddress=democa@octarine.de
        Validity
            Not Before: Apr 20 20:47:40 2015 GMT
            Not After : Apr 19 20:47:40 2016 GMT
        Subject: C=DE, ST=Saarland, O=MPI-SWS, OU=Distributed Systems Group, CN=6c36cc627c9a6e95714d4e9a46c2643c063c3aea/emailAddress=node0970@octarine.de
        Subject Public Key Info:
            Public Key Algorithm: rsaEncryption
            RSA Public Key: (1024 bit)
                Modulus (1024 bit):
                    00:e1:b4:58:35:ca:b7:16:42:bf:fa:c4:62:8c:ea:
                    06:2a:58:30:c8:5e:b3:a9:3d:c0:dd:b8:39:96:0e:
                    5d:68:67:14:90:09:20:85:36:2a:ac:30:b4:ff:ca:
                    ba:d9:ce:67:d5:67:ec:35:01:de:5f:18:2e:ce:e5:
                    f7:7f:7f:7b:4f:cc:b9:4f:97:ca:ec:46:d3:38:21:
                    1c:56:2d:5b:2b:4c:12:e1:6f:ac:21:03:5a:7e:90:
                    da:53:b8:31:92:1a:e2:d3:d6:bf:28:cf:90:24:80:
                    86:d5:71:cc:62:3f:ee:81:63:ef:ee:1f:04:ea:90:
                    56:fd:88:e4:53:43:ca:0f:cf
                Exponent: 65537 (0x10001)
    Signature Algorithm: md5WithRSAEncryption
        97:c7:a3:2d:9f:8e:03:70:fd:2f:a1:3a:db:65:7c:cf:3e:68:
        55:ef:30:de:22:85:17:a7:9e:d3:ef:dc:5e:91:2d:1f:f5:f0:
        ab:08:2e:ad:bb:d2:60:fc:25:32:33:50:81:c4:64:22:a0:dd:
        b4:e9:27:d4:2e:35:6f:1c:f0:7d:47:e6:08:f1:9f:df:0f:5c:
        42:a4:1b:18:42:54:14:d5:15:0b:3c:73:cc:49:13:b6:87:3d:
        f6:da:ea:75:50:93:e9:3f:bb:10:24:31:62:f1:05:b0:4a:fd:
        6d:42:2e:21:b9:c1:65:56:0e:0d:7f:c5:f1:40:9a:ea:4c:f3:
        9e:36
-----BEGIN CERTIFICATE-----
MIICvDCCAiUCCQCbJ9fo0boLojANBgkqhkiG9w0BAQQFADCBlTELMAkGA1UEBhMC
REUxETAPBgNVBAgTCFNhYXJsYW5kMRAwDgYDVQQKEwdNUEktU1dTMSIwIAYDVQQL
ExlEaXN0cmlidXRlZCBTeXN0ZW1zIEdyb3VwMRowGAYDVQQDExFBbmRyZWFzIEhh
ZWJlcmxlbjEhMB8GCSqGSIb3DQEJARYSZGVtb2NhQG9jdGFyaW5lLmRlMB4XDTE1
MDQyMDIwNDc0MFoXDTE2MDQxOTIwNDc0MFowga4xCzAJBgNVBAYTAkRFMREwDwYD
VQQIEwhTYWFybGFuZDEQMA4GA1UEChMHTVBJLVNXUzEiMCAGA1UECxMZRGlzdHJp
YnV0ZWQgU3lzdGVtcyBHcm91cDExMC8GA1UEAxMoNmMzNmNjNjI3YzlhNmU5NTcx
NGQ0ZTlhNDZjMjY0M2MwNjNjM2FlYTEjMCEGCSqGSIb3DQEJARYUbm9kZTA5NzBA
b2N0YXJpbmUuZGUwgZ8wDQYJKoZIhvcNAQEBBQADgY0AMIGJAoGBAOG0WDXKtxZC
v/rEYozqBipYMMhes6k9wN24OZYOXWhnFJAJIIU2KqwwtP/KutnOZ9Vn7DUB3l8Y
Ls7l939/e0/MuU+XyuxG0zghHFYtWytMEuFvrCEDWn6Q2lO4MZIa4tPWvyjPkCSA
htVxzGI/7oFj7+4fBOqQVv2I5FNDyg/PAgMBAAEwDQYJKoZIhvcNAQEEBQADgYEA
l8ejLZ+OA3D9L6E622V8zz5oVe8w3iKFF6ee0+/cXpEtH/XwqwgurbvSYPwlMjNQ
gcRkIqDdtOkn1C41bxzwfUfmCPGf3w9cQqQbGEJUFNUVCzxzzEkTtoc99trqdVCT
6T+7ECQxYvEFsEr9bUIuIbnBZVYODX/F8UCa6kzznjY=
-----END CERTIFICATE-----
