Certificate:
    Data:
        Version: 1 (0x0)
        Serial Number:
            9b:27:d7:e8:d1:ba:08:dc
        Signature Algorithm: md5WithRSAEncryption
        Issuer: C=DE, ST=Saarland, O=MPI-SWS, OU=Distributed Systems Group, CN=Andreas Haeberlen/emailAddress=democa@octarine.de
        Validity
            Not Before: Apr 20 20:47:08 2015 GMT
            Not After : Apr 19 20:47:08 2016 GMT
        Subject: C=DE, ST=Saarland, O=MPI-SWS, OU=Distributed Systems Group, CN=2023d3516d4617aead267ecb00bc2175298fde14/emailAddress=node0260@octarine.de
        Subject Public Key Info:
            Public Key Algorithm: rsaEncryption
            RSA Public Key: (1024 bit)
                Modulus (1024 bit):
                    00:cf:8b:04:64:56:b5:1c:33:ec:30:35:f6:c6:83:
                    3d:d7:cb:34:9a:10:e7:2d:41:a4:dd:ed:97:8a:85:
                    c0:c9:40:a2:f0:d1:1f:c1:06:8d:b1:f8:27:89:6c:
                    77:8c:15:d8:43:ed:38:c4:53:51:82:cc:3e:7f:96:
                    00:34:52:4c:ab:76:0f:36:f3:ea:06:fb:09:f2:3d:
                    4b:2a:a0:cb:bb:68:6a:95:49:e1:c6:bd:77:09:97:
                    a5:92:57:8c:2c:db:80:f7:1f:62:37:8f:59:2d:4d:
                    b2:6f:c8:ba:0e:d0:f4:69:39:06:7d:3b:6f:23:57:
                    b8:7e:e5:9e:39:10:5d:54:01
                Exponent: 65537 (0x10001)
    Signature Algorithm: md5WithRSAEncryption
        ba:6a:d2:d4:ff:ed:9d:ad:6f:be:d0:b3:9c:6a:3e:1d:4e:09:
        31:c5:6f:93:bc:0b:23:5b:40:4a:75:95:dd:67:1e:be:84:71:
        de:73:2c:37:64:69:49:2c:04:85:e7:5f:cd:98:f0:f8:70:0f:
        22:09:9d:ce:c6:de:f9:2a:19:a7:d8:f8:05:0b:4f:0f:d5:4a:
        02:58:39:f1:09:31:db:aa:5b:ec:b3:ac:44:b9:9c:0c:24:5a:
        cc:32:e7:6c:e1:ce:a1:d5:fe:de:ab:79:f4:e2:9a:c0:6b:8a:
        83:41:06:85:31:e4:6a:16:7d:c3:a8:f9:7a:2b:a5:53:f8:33:
        18:be
-----BEGIN CERTIFICATE-----
MIICvDCCAiUCCQCbJ9fo0boI3DANBgkqhkiG9w0BAQQFADCBlTELMAkGA1UEBhMC
REUxETAPBgNVBAgTCFNhYXJsYW5kMRAwDgYDVQQKEwdNUEktU1dTMSIwIAYDVQQL
ExlEaXN0cmlidXRlZCBTeXN0ZW1zIEdyb3VwMRowGAYDVQQDExFBbmRyZWFzIEhh
ZWJlcmxlbjEhMB8GCSqGSIb3DQEJARYSZGVtb2NhQG9jdGFyaW5lLmRlMB4XDTE1
MDQyMDIwNDcwOFoXDTE2MDQxOTIwNDcwOFowga4xCzAJBgNVBAYTAkRFMREwDwYD
VQQIEwhTYWFybGFuZDEQMA4GA1UEChMHTVBJLVNXUzEiMCAGA1UECxMZRGlzdHJp
YnV0ZWQgU3lzdGVtcyBHcm91cDExMC8GA1UEAxMoMjAyM2QzNTE2ZDQ2MTdhZWFk
MjY3ZWNiMDBiYzIxNzUyOThmZGUxNDEjMCEGCSqGSIb3DQEJARYUbm9kZTAyNjBA
b2N0YXJpbmUuZGUwgZ8wDQYJKoZIhvcNAQEBBQADgY0AMIGJAoGBAM+LBGRWtRwz
7DA19saDPdfLNJoQ5y1BpN3tl4qFwMlAovDRH8EGjbH4J4lsd4wV2EPtOMRTUYLM
Pn+WADRSTKt2Dzbz6gb7CfI9Syqgy7toapVJ4ca9dwmXpZJXjCzbgPcfYjePWS1N
sm/Iug7Q9Gk5Bn07byNXuH7lnjkQXVQBAgMBAAEwDQYJKoZIhvcNAQEEBQADgYEA
umrS1P/tna1vvtCznGo+HU4JMcVvk7wLI1tASnWV3WcevoRx3nMsN2RpSSwEhedf
zZjw+HAPIgmdzsbe+SoZp9j4BQtPD9VKAlg58Qkx26pb7LOsRLmcDCRazDLnbOHO
odX+3qt59OKawGuKg0EGhTHkahZ9w6j5eiulU/gzGL4=
-----END CERTIFICATE-----
