Certificate:
    Data:
        Version: 1 (0x0)
        Serial Number:
            9b:27:d7:e8:d1:ba:0b:be
        Signature Algorithm: md5WithRSAEncryption
        Issuer: C=DE, ST=Saarland, O=MPI-SWS, OU=Distributed Systems Group, CN=Andreas Haeberlen/emailAddress=democa@octarine.de
        Validity
            Not Before: Apr 20 20:47:41 2015 GMT
            Not After : Apr 19 20:47:41 2016 GMT
        Subject: C=DE, ST=Saarland, O=MPI-SWS, OU=Distributed Systems Group, CN=345500588b6493552edc3d1caa51ceb030530ab8/emailAddress=node0998@octarine.de
        Subject Public Key Info:
            Public Key Algorithm: rsaEncryption
            RSA Public Key: (1024 bit)
                Modulus (1024 bit):
                    00:e3:cf:ff:f4:0f:b7:6f:38:dd:65:33:a6:bd:9d:
                    fa:bb:79:f9:75:d7:ec:cf:d4:de:05:c3:48:29:c2:
                    ee:44:4e:f6:41:9c:a0:46:88:86:40:f9:92:ee:24:
                    db:7b:34:20:7e:91:b3:d1:f4:16:ea:ab:26:5b:16:
                    dc:23:16:68:b5:d8:c1:d3:72:92:0e:d0:b5:c3:e3:
                    aa:4a:ae:af:3b:62:23:3e:56:fd:83:58:c0:f7:46:
                    30:d2:9a:e2:84:6e:f5:7b:f0:5e:36:81:99:7a:35:
                    fa:13:b1:99:51:4a:e5:a0:2e:e0:86:7a:d3:6c:c8:
                    d5:91:2a:7f:85:d2:e7:f2:bd
                Exponent: 65537 (0x10001)
    Signature Algorithm: md5WithRSAEncryption
        8a:1c:6c:c5:fd:d7:1d:48:2b:48:5f:68:f6:d3:26:dc:b7:b4:
        ad:85:83:5f:1c:f4:f6:5e:de:f9:1f:68:ad:4d:ea:0b:00:14:
        21:d2:2d:8c:5a:34:5c:5f:ad:eb:cf:6a:ff:2c:8f:6b:d1:49:
        f1:93:74:42:ac:42:85:d3:28:77:bb:d7:7d:46:ee:9a:17:54:
        55:8f:1e:9d:c0:36:da:8b:51:c7:c4:79:32:85:15:d8:eb:16:
        fb:9e:9a:3a:d1:b6:0f:2e:0a:fb:5f:49:10:d1:0a:55:03:a0:
        4d:51:a7:28:60:f5:c2:99:f5:7f:45:d9:e5:7c:41:8a:e8:c1:
        e0:ba
-----BEGIN CERTIFICATE-----
MIICvDCCAiUCCQCbJ9fo0boLvjANBgkqhkiG9w0BAQQFADCBlTELMAkGA1UEBhMC
REUxETAPBgNVBAgTCFNhYXJsYW5kMRAwDgYDVQQKEwdNUEktU1dTMSIwIAYDVQQL
ExlEaXN0cmlidXRlZCBTeXN0ZW1zIEdyb3VwMRowGAYDVQQDExFBbmRyZWFzIEhh
ZWJlcmxlbjEhMB8GCSqGSIb3DQEJARYSZGVtb2NhQG9jdGFyaW5lLmRlMB4XDTE1
MDQyMDIwNDc0MVoXDTE2MDQxOTIwNDc0MVowga4xCzAJBgNVBAYTAkRFMREwDwYD
VQQIEwhTYWFybGFuZDEQMA4GA1UEChMHTVBJLVNXUzEiMCAGA1UECxMZRGlzdHJp
YnV0ZWQgU3lzdGVtcyBHcm91cDExMC8GA1UEAxMoMzQ1NTAwNTg4YjY0OTM1NTJl
ZGMzZDFjYWE1MWNlYjAzMDUzMGFiODEjMCEGCSqGSIb3DQEJARYUbm9kZTA5OThA
b2N0YXJpbmUuZGUwgZ8wDQYJKoZIhvcNAQEBBQADgY0AMIGJAoGBAOPP//QPt284
3WUzpr2d+rt5+XXX7M/U3gXDSCnC7kRO9kGcoEaIhkD5ku4k23s0IH6Rs9H0Fuqr
JlsW3CMWaLXYwdNykg7QtcPjqkqurztiIz5W/YNYwPdGMNKa4oRu9XvwXjaBmXo1
+hOxmVFK5aAu4IZ602zI1ZEqf4XS5/K9AgMBAAEwDQYJKoZIhvcNAQEEBQADgYEA
ihxsxf3XHUgrSF9o9tMm3Le0rYWDXxz09l7e+R9orU3qCwAUIdItjFo0XF+t689q
/yyPa9FJ8ZN0QqxChdMod7vXfUbumhdUVY8encA22otRx8R5MoUV2OsW+56aOtG2
Dy4K+19JENEKVQOgTVGnKGD1wpn1f0XZ5XxBiujB4Lo=
-----END CERTIFICATE-----
