Certificate:
    Data:
        Version: 1 (0x0)
        Serial Number:
            9b:27:d7:e8:d1:ba:0b:55
        Signature Algorithm: md5WithRSAEncryption
        Issuer: C=DE, ST=Saarland, O=MPI-SWS, OU=Distributed Systems Group, CN=Andreas Haeberlen/emailAddress=democa@octarine.de
        Validity
            Not Before: Apr 20 20:47:36 2015 GMT
            Not After : Apr 19 20:47:36 2016 GMT
        Subject: C=DE, ST=Saarland, O=MPI-SWS, OU=Distributed Systems Group, CN=022f4b3c16b5dec8bd55d2576a8de0ef21e7d24e/emailAddress=node0893@octarine.de
        Subject Public Key Info:
            Public Key Algorithm: rsaEncryption
            RSA Public Key: (1024 bit)
                Modulus (1024 bit):
                    00:bf:eb:fb:53:12:63:71:46:f5:77:80:d6:6b:b0:
                    4e:90:77:01:e5:3e:c8:94:db:f5:74:40:9e:17:a5:
                    2a:be:87:58:29:b5:8a:5a:0a:11:57:ca:98:ce:70:
                    10:95:13:02:10:af:d1:53:b3:01:d4:8e:5b:cb:7d:
                    42:78:03:56:42:05:48:14:a8:3c:bc:f4:d2:7e:2f:
                    e3:f8:27:89:75:81:27:d7:9b:7c:1c:2d:eb:c6:0b:
                    5b:9f:5c:e3:2f:39:35:19:84:1f:b3:68:af:75:50:
                    9f:6b:15:cb:b8:9b:d1:ee:d2:7e:cb:4d:b6:4b:07:
                    85:a5:3a:a3:5f:65:3e:fb:45
                Exponent: 65537 (0x10001)
    Signature Algorithm: md5WithRSAEncryption
        b3:40:7f:57:6e:ca:0c:34:b2:13:25:c5:42:d0:46:55:51:72:
        30:f1:74:75:e1:81:97:d2:2b:ec:c4:b5:1e:d0:51:c3:3a:e1:
        93:06:24:f4:d2:ef:a6:11:e1:3b:2d:58:17:c7:5c:86:3d:e6:
        78:ac:40:a0:90:45:d2:ee:80:21:cf:17:fd:59:c8:4a:7e:2f:
        79:d3:30:b9:d8:87:08:8d:ea:40:2c:52:45:b4:53:60:2c:c3:
        16:c6:4e:d5:e2:4d:f0:20:90:54:05:22:d1:5b:a2:4e:4c:52:
        20:b0:a4:98:12:8d:58:70:4e:be:cf:0b:15:43:68:36:87:5e:
        10:5a
-----BEGIN CERTIFICATE-----
MIICvDCCAiUCCQCbJ9fo0boLVTANBgkqhkiG9w0BAQQFADCBlTELMAkGA1UEBhMC
REUxETAPBgNVBAgTCFNhYXJsYW5kMRAwDgYDVQQKEwdNUEktU1dTMSIwIAYDVQQL
ExlEaXN0cmlidXRlZCBTeXN0ZW1zIEdyb3VwMRowGAYDVQQDExFBbmRyZWFzIEhh
ZWJlcmxlbjEhMB8GCSqGSIb3DQEJARYSZGVtb2NhQG9jdGFyaW5lLmRlMB4XDTE1
MDQyMDIwNDczNloXDTE2MDQxOTIwNDczNlowga4xCzAJBgNVBAYTAkRFMREwDwYD
VQQIEwhTYWFybGFuZDEQMA4GA1UEChMHTVBJLVNXUzEiMCAGA1UECxMZRGlzdHJp
YnV0ZWQgU3lzdGVtcyBHcm91cDExMC8GA1UEAxMoMDIyZjRiM2MxNmI1ZGVjOGJk
NTVkMjU3NmE4ZGUwZWYyMWU3ZDI0ZTEjMCEGCSqGSIb3DQEJARYUbm9kZTA4OTNA
b2N0YXJpbmUuZGUwgZ8wDQYJKoZIhvcNAQEBBQADgY0AMIGJAoGBAL/r+1MSY3FG
9XeA1muwTpB3AeU+yJTb9XRAnhelKr6HWCm1iloKEVfKmM5wEJUTAhCv0VOzAdSO
W8t9QngDVkIFSBSoPLz00n4v4/gniXWBJ9ebfBwt68YLW59c4y85NRmEH7Nor3VQ
n2sVy7ib0e7SfstNtksHhaU6o19lPvtFAgMBAAEwDQYJKoZIhvcNAQEEBQADgYEA
s0B/V27KDDSyEyXFQtBGVVFyMPF0deGBl9Ir7MS1HtBRwzrhkwYk9NLvphHhOy1Y
F8dchj3meKxAoJBF0u6AIc8X/VnISn4vedMwudiHCI3qQCxSRbRTYCzDFsZO1eJN
8CCQVAUi0VuiTkxSILCkmBKNWHBOvs8LFUNoNodeEFo=
-----END CERTIFICATE-----
