Certificate:
    Data:
        Version: 1 (0x0)
        Serial Number:
            9b:27:d7:e8:d1:ba:0a:93
        Signature Algorithm: md5WithRSAEncryption
        Issuer: C=DE, ST=Saarland, O=MPI-SWS, OU=Distributed Systems Group, CN=Andreas Haeberlen/emailAddress=democa@octarine.de
        Validity
            Not Before: Apr 20 20:47:28 2015 GMT
            Not After : Apr 19 20:47:28 2016 GMT
        Subject: C=DE, ST=Saarland, O=MPI-SWS, OU=Distributed Systems Group, CN=b1f89905571c90358eef285f6ca3bb56d5f6f0c4/emailAddress=node0699@octarine.de
        Subject Public Key Info:
            Public Key Algorithm: rsaEncryption
            RSA Public Key: (1024 bit)
                Modulus (1024 bit):
                    00:c0:41:4d:23:fa:8a:64:58:05:e2:ec:80:77:79:
                    d6:4d:bb:71:c1:c6:e4:b4:50:f3:dd:36:ef:78:f2:
                    4d:6e:f8:dc:bb:db:14:c2:db:85:fd:7c:6f:7d:c1:
                    49:a4:66:1a:19:f2:d8:aa:3c:1b:f6:8e:d6:32:7e:
                    0b:30:17:08:7f:c9:66:22:e4:dc:e0:24:81:c1:58:
                    a3:e4:43:39:f3:42:10:e0:a7:53:3c:0b:be:5b:b6:
                    34:6a:a4:3d:1f:55:dc:1e:8c:5e:c6:d3:6d:9b:ee:
                    a3:a3:3d:91:e0:55:28:70:0c:1a:ab:ff:aa:2a:d8:
                    1c:7b:fe:7d:10:07:44:81:55
                Exponent: 65537 (0x10001)
    Signature Algorithm: md5WithRSAEncryption
        10:e5:60:f9:30:d8:f3:12:3c:ae:d0:33:31:5d:03:47:ea:c5:
        a2:a2:0d:ea:9c:24:52:ce:7f:d1:8f:fe:5a:bf:0d:b8:13:5d:
        4a:27:03:35:ac:44:65:ff:94:58:52:56:d3:28:38:ff:fa:fb:
        b4:db:cc:77:7f:0d:e8:c7:07:4c:75:4a:37:3a:64:1f:ab:8e:
        a6:b6:a3:d3:36:bf:46:a5:06:2f:35:eb:e3:84:f2:30:c2:3a:
        5d:6c:0e:8e:93:cb:f9:53:f6:9f:68:e8:2b:ea:91:24:8b:0d:
        7f:ba:0d:80:10:4c:24:c1:cb:ae:b4:02:22:ca:5a:e2:0a:e2:
        f8:65
-----BEGIN CERTIFICATE-----
MIICvDCCAiUCCQCbJ9fo0boKkzANBgkqhkiG9w0BAQQFADCBlTELMAkGA1UEBhMC
REUxETAPBgNVBAgTCFNhYXJsYW5kMRAwDgYDVQQKEwdNUEktU1dTMSIwIAYDVQQL
ExlEaXN0cmlidXRlZCBTeXN0ZW1zIEdyb3VwMRowGAYDVQQDExFBbmRyZWFzIEhh
ZWJlcmxlbjEhMB8GCSqGSIb3DQEJARYSZGVtb2NhQG9jdGFyaW5lLmRlMB4XDTE1
MDQyMDIwNDcyOFoXDTE2MDQxOTIwNDcyOFowga4xCzAJBgNVBAYTAkRFMREwDwYD
VQQIEwhTYWFybGFuZDEQMA4GA1UEChMHTVBJLVNXUzEiMCAGA1UECxMZRGlzdHJp
YnV0ZWQgU3lzdGVtcyBHcm91cDExMC8GA1UEAxMoYjFmODk5MDU1NzFjOTAzNThl
ZWYyODVmNmNhM2JiNTZkNWY2ZjBjNDEjMCEGCSqGSIb3DQEJARYUbm9kZTA2OTlA
b2N0YXJpbmUuZGUwgZ8wDQYJKoZIhvcNAQEBBQADgY0AMIGJAoGBAMBBTSP6imRY
BeLsgHd51k27ccHG5LRQ890273jyTW743LvbFMLbhf18b33BSaRmGhny2Ko8G/aO
1jJ+CzAXCH/JZiLk3OAkgcFYo+RDOfNCEOCnUzwLvlu2NGqkPR9V3B6MXsbTbZvu
o6M9keBVKHAMGqv/qirYHHv+fRAHRIFVAgMBAAEwDQYJKoZIhvcNAQEEBQADgYEA
EOVg+TDY8xI8rtAzMV0DR+rFoqIN6pwkUs5/0Y/+Wr8NuBNdSicDNaxEZf+UWFJW
0yg4//r7tNvMd38N6McHTHVKNzpkH6uOpraj0za/RqUGLzXr44TyMMI6XWwOjpPL
+VP2n2joK+qRJIsNf7oNgBBMJMHLrrQCIspa4gri+GU=
-----END CERTIFICATE-----
