Certificate:
    Data:
        Version: 1 (0x0)
        Serial Number:
            9b:27:d7:e8:d1:ba:0a:a7
        Signature Algorithm: md5WithRSAEncryption
        Issuer: C=DE, ST=Saarland, O=MPI-SWS, OU=Distributed Systems Group, CN=Andreas Haeberlen/emailAddress=democa@octarine.de
        Validity
            Not Before: Apr 20 20:47:28 2015 GMT
            Not After : Apr 19 20:47:28 2016 GMT
        Subject: C=DE, ST=Saarland, O=MPI-SWS, OU=Distributed Systems Group, CN=530a26ac1439186c6f2c78448abdf805b1fe79b9/emailAddress=node0719@octarine.de
        Subject Public Key Info:
            Public Key Algorithm: rsaEncryption
            RSA Public Key: (1024 bit)
                Modulus (1024 bit):
                    00:b6:2d:b9:ca:cf:1c:89:a2:fa:35:9c:97:87:f9:
                    06:2e:44:40:2e:24:5e:22:df:53:5d:44:12:b1:b6:
                    20:84:4c:cc:b4:10:8e:58:15:6d:2f:c9:ac:a6:01:
                    a3:3c:39:2b:ae:9d:53:ad:0c:c4:40:89:71:fc:67:
                    2b:4c:cb:47:a2:51:85:ec:30:d2:b8:10:4f:46:6e:
                    4d:6a:48:e6:c1:7f:e8:48:33:9e:1d:37:78:66:56:
                    02:d1:b8:a2:d3:42:43:18:c2:5f:5d:b5:b3:63:a2:
                    ef:fe:cd:8a:eb:7a:f3:66:f7:f6:f3:6f:4d:5f:c4:
                    b1:68:6d:05:27:3f:2d:82:41
                Exponent: 65537 (0x10001)
    Signature Algorithm: md5WithRSAEncryption
        c9:a6:ab:f3:e2:42:d3:36:02:79:06:dd:f9:e2:d4:79:9c:ff:
        92:e8:97:23:7b:4f:bf:3f:60:27:be:23:38:0d:9e:1d:a8:2d:
        ad:89:68:c8:25:9c:68:18:92:64:38:c1:f4:90:e3:9b:83:07:
        62:94:f7:cb:f7:d7:fc:d3:98:66:7c:ec:8f:40:8c:e9:43:f7:
        9c:3f:3a:8a:35:fa:c2:78:48:2c:d2:e8:36:3b:d6:d0:b9:2d:
        10:a8:76:f2:71:cc:97:74:7c:e8:80:fd:0a:f2:a7:e5:d6:c3:
        f8:17:15:3c:6e:78:69:d1:f3:a9:9d:d1:8e:0d:0e:6f:af:c5:
        a3:9c
-----BEGIN CERTIFICATE-----
MIICvDCCAiUCCQCbJ9fo0boKpzANBgkqhkiG9w0BAQQFADCBlTELMAkGA1UEBhMC
REUxETAPBgNVBAgTCFNhYXJsYW5kMRAwDgYDVQQKEwdNUEktU1dTMSIwIAYDVQQL
ExlEaXN0cmlidXRlZCBTeXN0ZW1zIEdyb3VwMRowGAYDVQQDExFBbmRyZWFzIEhh
ZWJlcmxlbjEhMB8GCSqGSIb3DQEJARYSZGVtb2NhQG9jdGFyaW5lLmRlMB4XDTE1
MDQyMDIwNDcyOFoXDTE2MDQxOTIwNDcyOFowga4xCzAJBgNVBAYTAkRFMREwDwYD
VQQIEwhTYWFybGFuZDEQMA4GA1UEChMHTVBJLVNXUzEiMCAGA1UECxMZRGlzdHJp
YnV0ZWQgU3lzdGVtcyBHcm91cDExMC8GA1UEAxMoNTMwYTI2YWMxNDM5MTg2YzZm
MmM3ODQ0OGFiZGY4MDViMWZlNzliOTEjMCEGCSqGSIb3DQEJARYUbm9kZTA3MTlA
b2N0YXJpbmUuZGUwgZ8wDQYJKoZIhvcNAQEBBQADgY0AMIGJAoGBALYtucrPHImi
+jWcl4f5Bi5EQC4kXiLfU11EErG2IIRMzLQQjlgVbS/JrKYBozw5K66dU60MxECJ
cfxnK0zLR6JRheww0rgQT0ZuTWpI5sF/6Egznh03eGZWAtG4otNCQxjCX121s2Oi
7/7Niut682b39vNvTV/EsWhtBSc/LYJBAgMBAAEwDQYJKoZIhvcNAQEEBQADgYEA
yaar8+JC0zYCeQbd+eLUeZz/kuiXI3tPvz9gJ74jOA2eHagtrYloyCWcaBiSZDjB
9JDjm4MHYpT3y/fX/NOYZnzsj0CM6UP3nD86ijX6wnhILNLoNjvW0LktEKh28nHM
l3R86ID9CvKn5dbD+BcVPG54adHzqZ3Rjg0Ob6/Fo5w=
-----END CERTIFICATE-----
