Certificate:
    Data:
        Version: 1 (0x0)
        Serial Number:
            9b:27:d7:e8:d1:ba:09:65
        Signature Algorithm: md5WithRSAEncryption
        Issuer: C=DE, ST=Saarland, O=MPI-SWS, OU=Distributed Systems Group, CN=Andreas Haeberlen/emailAddress=democa@octarine.de
        Validity
            Not Before: Apr 20 20:47:14 2015 GMT
            Not After : Apr 19 20:47:14 2016 GMT
        Subject: C=DE, ST=Saarland, O=MPI-SWS, OU=Distributed Systems Group, CN=86f32b49ceae2f9146e39c0921cada451493fddc/emailAddress=node0397@octarine.de
        Subject Public Key Info:
            Public Key Algorithm: rsaEncryption
            RSA Public Key: (1024 bit)
                Modulus (1024 bit):
                    00:d6:64:12:21:ca:bc:b9:bf:87:0c:40:40:b8:a4:
                    0e:62:f1:53:5a:d9:5b:99:ac:20:ae:8d:ac:5b:ca:
                    5b:8f:a6:66:65:8d:34:b6:c2:cb:ed:66:4a:1c:48:
                    31:b3:b5:f3:a4:ba:14:77:41:8a:57:f7:ba:95:5c:
                    a4:94:ca:b4:33:8e:d2:85:b4:12:e4:f7:a7:a9:3f:
                    3d:72:fe:ff:d6:6e:4f:8e:b8:ad:73:ad:93:89:df:
                    db:3e:06:53:c7:9c:8c:8d:f7:32:bd:97:4f:89:cf:
                    74:fb:dd:00:06:dc:28:71:33:7e:87:bc:ab:fd:bd:
                    00:5c:1e:25:3f:da:7e:7a:49
                Exponent: 65537 (0x10001)
    Signature Algorithm: md5WithRSAEncryption
        a7:48:df:1e:f0:95:32:4f:4a:66:39:57:9e:b2:ad:32:ef:94:
        69:0a:74:8a:ef:90:33:4c:9e:f8:d3:cf:fb:bf:91:4b:fd:ff:
        ad:8d:a2:5f:15:17:08:85:05:f0:8e:9b:df:61:bd:cf:0b:46:
        1c:5c:21:8d:88:21:c5:88:09:29:89:7d:6d:8c:06:b7:08:06:
        84:37:33:b3:52:47:39:8a:f1:49:94:9d:7b:30:8d:b9:98:aa:
        71:5c:7c:e8:d5:f5:7f:bd:75:cf:f0:8b:df:5a:8f:4e:fb:04:
        7f:dd:f7:df:20:2a:2d:91:1a:ad:93:ff:65:81:6d:14:ab:a9:
        b3:52
-----BEGIN CERTIFICATE-----
MIICvDCCAiUCCQCbJ9fo0boJZTANBgkqhkiG9w0BAQQFADCBlTELMAkGA1UEBhMC
REUxETAPBgNVBAgTCFNhYXJsYW5kMRAwDgYDVQQKEwdNUEktU1dTMSIwIAYDVQQL
ExlEaXN0cmlidXRlZCBTeXN0ZW1zIEdyb3VwMRowGAYDVQQDExFBbmRyZWFzIEhh
ZWJlcmxlbjEhMB8GCSqGSIb3DQEJARYSZGVtb2NhQG9jdGFyaW5lLmRlMB4XDTE1
MDQyMDIwNDcxNFoXDTE2MDQxOTIwNDcxNFowga4xCzAJBgNVBAYTAkRFMREwDwYD
VQQIEwhTYWFybGFuZDEQMA4GA1UEChMHTVBJLVNXUzEiMCAGA1UECxMZRGlzdHJp
YnV0ZWQgU3lzdGVtcyBHcm91cDExMC8GA1UEAxMoODZmMzJiNDljZWFlMmY5MTQ2
ZTM5YzA5MjFjYWRhNDUxNDkzZmRkYzEjMCEGCSqGSIb3DQEJARYUbm9kZTAzOTdA
b2N0YXJpbmUuZGUwgZ8wDQYJKoZIhvcNAQEBBQADgY0AMIGJAoGBANZkEiHKvLm/
hwxAQLikDmLxU1rZW5msIK6NrFvKW4+mZmWNNLbCy+1mShxIMbO186S6FHdBilf3
upVcpJTKtDOO0oW0EuT3p6k/PXL+/9ZuT464rXOtk4nf2z4GU8ecjI33Mr2XT4nP
dPvdAAbcKHEzfoe8q/29AFweJT/afnpJAgMBAAEwDQYJKoZIhvcNAQEEBQADgYEA
p0jfHvCVMk9KZjlXnrKtMu+UaQp0iu+QM0ye+NPP+7+RS/3/rY2iXxUXCIUF8I6b
32G9zwtGHFwhjYghxYgJKYl9bYwGtwgGhDczs1JHOYrxSZSdezCNuZiqcVx86NX1
f711z/CL31qPTvsEf9333yAqLZEarZP/ZYFtFKups1I=
-----END CERTIFICATE-----
