Certificate:
    Data:
        Version: 1 (0x0)
        Serial Number:
            9b:27:d7:e8:d1:ba:0b:7e
        Signature Algorithm: md5WithRSAEncryption
        Issuer: C=DE, ST=Saarland, O=MPI-SWS, OU=Distributed Systems Group, CN=Andreas Haeberlen/emailAddress=democa@octarine.de
        Validity
            Not Before: Apr 20 20:47:38 2015 GMT
            Not After : Apr 19 20:47:38 2016 GMT
        Subject: C=DE, ST=Saarland, O=MPI-SWS, OU=Distributed Systems Group, CN=9614cc84dc81f5681e3c237d37574e7e48314b51/emailAddress=node0934@octarine.de
        Subject Public Key Info:
            Public Key Algorithm: rsaEncryption
            RSA Public Key: (1024 bit)
                Modulus (1024 bit):
                    00:b7:8c:12:e0:8e:6a:7b:a1:c1:7a:5e:60:b0:6b:
                    9a:6f:73:29:04:69:4b:a8:4e:0b:aa:c0:2c:70:05:
                    99:54:4f:2f:f3:c7:77:e2:a4:48:7e:a7:4e:58:71:
                    af:58:63:8e:25:5b:f2:f7:d3:ec:b1:48:7d:c3:93:
                    09:d4:39:bf:cf:ad:77:84:9f:55:c7:4c:c7:13:36:
                    d0:4d:56:c9:c6:af:63:26:73:fd:83:4c:52:9e:e3:
                    12:81:35:fd:7d:dc:04:de:f8:ce:4e:50:3c:e5:39:
                    64:6f:95:b0:6f:dc:22:c8:a0:56:75:27:6d:c2:d1:
                    0a:df:25:91:4b:88:8f:99:61
                Exponent: 65537 (0x10001)
    Signature Algorithm: md5WithRSAEncryption
        2b:e8:b7:c2:c0:a4:d5:fe:bc:b2:59:6b:6d:da:e4:79:59:0d:
        0b:11:23:5b:4a:80:d8:2d:19:14:de:2d:43:3f:ea:ce:cd:fc:
        ef:1e:86:da:41:fd:34:0e:40:92:2f:ac:dd:92:bc:4b:f9:95:
        b9:c5:c4:08:42:47:80:61:dd:fc:95:ff:4a:1d:9f:6e:cf:8b:
        24:69:25:2e:b5:91:6b:5d:36:4b:c3:11:2b:d0:3b:0a:2f:8e:
        db:f5:37:f4:68:27:ae:a1:f5:50:8d:e0:92:eb:a0:af:44:87:
        43:f3:4f:50:59:9c:ae:39:de:b6:0f:e2:89:28:bd:f7:42:72:
        90:d4
-----BEGIN CERTIFICATE-----
MIICvDCCAiUCCQCbJ9fo0boLfjANBgkqhkiG9w0BAQQFADCBlTELMAkGA1UEBhMC
REUxETAPBgNVBAgTCFNhYXJsYW5kMRAwDgYDVQQKEwdNUEktU1dTMSIwIAYDVQQL
ExlEaXN0cmlidXRlZCBTeXN0ZW1zIEdyb3VwMRowGAYDVQQDExFBbmRyZWFzIEhh
ZWJlcmxlbjEhMB8GCSqGSIb3DQEJARYSZGVtb2NhQG9jdGFyaW5lLmRlMB4XDTE1
MDQyMDIwNDczOFoXDTE2MDQxOTIwNDczOFowga4xCzAJBgNVBAYTAkRFMREwDwYD
VQQIEwhTYWFybGFuZDEQMA4GA1UEChMHTVBJLVNXUzEiMCAGA1UECxMZRGlzdHJp
YnV0ZWQgU3lzdGVtcyBHcm91cDExMC8GA1UEAxMoOTYxNGNjODRkYzgxZjU2ODFl
M2MyMzdkMzc1NzRlN2U0ODMxNGI1MTEjMCEGCSqGSIb3DQEJARYUbm9kZTA5MzRA
b2N0YXJpbmUuZGUwgZ8wDQYJKoZIhvcNAQEBBQADgY0AMIGJAoGBALeMEuCOanuh
wXpeYLBrmm9zKQRpS6hOC6rALHAFmVRPL/PHd+KkSH6nTlhxr1hjjiVb8vfT7LFI
fcOTCdQ5v8+td4SfVcdMxxM20E1WycavYyZz/YNMUp7jEoE1/X3cBN74zk5QPOU5
ZG+VsG/cIsigVnUnbcLRCt8lkUuIj5lhAgMBAAEwDQYJKoZIhvcNAQEEBQADgYEA
K+i3wsCk1f68sllrbdrkeVkNCxEjW0qA2C0ZFN4tQz/qzs387x6G2kH9NA5Aki+s
3ZK8S/mVucXECEJHgGHd/JX/Sh2fbs+LJGklLrWRa102S8MRK9A7Ci+O2/U39Ggn
rqH1UI3gkuugr0SHQ/NPUFmcrjnetg/iiSi990JykNQ=
-----END CERTIFICATE-----
