Certificate:
    Data:
        Version: 1 (0x0)
        Serial Number:
            9b:27:d7:e8:d1:ba:08:66
        Signature Algorithm: md5WithRSAEncryption
        Issuer: C=DE, ST=Saarland, O=MPI-SWS, OU=Distributed Systems Group, CN=Andreas Haeberlen/emailAddress=democa@octarine.de
        Validity
            Not Before: Apr 20 20:47:03 2015 GMT
            Not After : Apr 19 20:47:03 2016 GMT
        Subject: C=DE, ST=Saarland, O=MPI-SWS, OU=Distributed Systems Group, CN=24755c27c306e9603c2c786753ae908c5f1ac418/emailAddress=node0142@octarine.de
        Subject Public Key Info:
            Public Key Algorithm: rsaEncryption
            RSA Public Key: (1024 bit)
                Modulus (1024 bit):
                    00:d7:1b:d5:3b:86:bc:5d:fa:55:25:cc:7e:28:31:
                    8c:6d:1c:ba:b9:7e:65:1c:98:39:3d:f9:26:66:e6:
                    1e:39:20:d0:95:a6:da:21:48:1e:9c:56:b6:1e:a7:
                    17:dc:c0:29:94:9e:9d:70:44:c0:ba:83:e5:80:21:
                    b5:14:87:36:9b:e9:ee:36:94:68:ab:a0:a5:d5:c3:
                    59:54:d8:cf:14:71:b1:21:c4:fa:53:2d:d0:f2:2e:
                    a2:f4:fd:bb:8c:ee:ab:72:4e:17:a7:3b:b5:bd:41:
                    38:ff:b4:ba:71:bb:e7:48:90:9d:8c:a4:2f:53:60:
                    26:d0:21:44:70:f6:a5:68:55
                Exponent: 65537 (0x10001)
    Signature Algorithm: md5WithRSAEncryption
        2c:68:b0:76:36:b8:3a:e0:a2:23:5d:a2:80:29:07:65:d3:31:
        a9:8c:c2:a9:d1:83:ac:34:58:5c:46:cf:fc:e5:08:52:ab:5f:
        03:93:f9:2e:4c:e4:9b:9d:2c:36:7f:66:a7:eb:98:dc:ea:2f:
        a4:8a:89:ad:0f:c3:f9:06:a6:07:1f:f2:53:4d:69:ae:d4:82:
        ea:99:3d:ee:35:27:8c:02:29:69:87:81:a2:00:a3:9c:f0:10:
        4c:0c:41:55:96:2d:e7:46:5a:1e:4c:fe:78:51:2d:d9:73:87:
        98:2d:c7:69:bb:fb:60:61:87:12:fa:81:d8:f9:21:c4:f2:1c:
        95:59
-----BEGIN CERTIFICATE-----
MIICvDCCAiUCCQCbJ9fo0boIZjANBgkqhkiG9w0BAQQFADCBlTELMAkGA1UEBhMC
REUxETAPBgNVBAgTCFNhYXJsYW5kMRAwDgYDVQQKEwdNUEktU1dTMSIwIAYDVQQL
ExlEaXN0cmlidXRlZCBTeXN0ZW1zIEdyb3VwMRowGAYDVQQDExFBbmRyZWFzIEhh
ZWJlcmxlbjEhMB8GCSqGSIb3DQEJARYSZGVtb2NhQG9jdGFyaW5lLmRlMB4XDTE1
MDQyMDIwNDcwM1oXDTE2MDQxOTIwNDcwM1owga4xCzAJBgNVBAYTAkRFMREwDwYD
VQQIEwhTYWFybGFuZDEQMA4GA1UEChMHTVBJLVNXUzEiMCAGA1UECxMZRGlzdHJp
YnV0ZWQgU3lzdGVtcyBHcm91cDExMC8GA1UEAxMoMjQ3NTVjMjdjMzA2ZTk2MDNj
MmM3ODY3NTNhZTkwOGM1ZjFhYzQxODEjMCEGCSqGSIb3DQEJARYUbm9kZTAxNDJA
b2N0YXJpbmUuZGUwgZ8wDQYJKoZIhvcNAQEBBQADgY0AMIGJAoGBANcb1TuGvF36
VSXMfigxjG0curl+ZRyYOT35JmbmHjkg0JWm2iFIHpxWth6nF9zAKZSenXBEwLqD
5YAhtRSHNpvp7jaUaKugpdXDWVTYzxRxsSHE+lMt0PIuovT9u4zuq3JOF6c7tb1B
OP+0unG750iQnYykL1NgJtAhRHD2pWhVAgMBAAEwDQYJKoZIhvcNAQEEBQADgYEA
LGiwdja4OuCiI12igCkHZdMxqYzCqdGDrDRYXEbP/OUIUqtfA5P5Lkzkm50sNn9m
p+uY3OovpIqJrQ/D+QamBx/yU01prtSC6pk97jUnjAIpaYeBogCjnPAQTAxBVZYt
50ZaHkz+eFEt2XOHmC3Habv7YGGHEvqB2PkhxPIclVk=
-----END CERTIFICATE-----
