Certificate:
    Data:
        Version: 1 (0x0)
        Serial Number:
            9b:27:d7:e8:d1:ba:0a:27
        Signature Algorithm: md5WithRSAEncryption
        Issuer: C=DE, ST=Saarland, O=MPI-SWS, OU=Distributed Systems Group, CN=Andreas Haeberlen/emailAddress=democa@octarine.de
        Validity
            Not Before: Apr 20 20:47:23 2015 GMT
            Not After : Apr 19 20:47:23 2016 GMT
        Subject: C=DE, ST=Saarland, O=MPI-SWS, OU=Distributed Systems Group, CN=8740e25313214ccaccb4e7423ce273afbf0915d3/emailAddress=node0591@octarine.de
        Subject Public Key Info:
            Public Key Algorithm: rsaEncryption
            RSA Public Key: (1024 bit)
                Modulus (1024 bit):
                    00:b4:45:e5:eb:49:0b:e3:95:08:d0:02:23:a1:a3:
                    5d:a8:e7:59:ea:fd:ec:e3:6d:ca:5a:83:05:d9:fa:
                    b6:d4:1d:f4:b3:c3:6c:af:1e:92:5a:a7:18:7f:e3:
                    9a:7b:4e:26:8a:25:2f:e1:8b:74:5b:55:aa:10:f2:
                    79:1e:fa:28:4f:54:ef:c3:ef:81:5a:b7:a6:6f:92:
                    9a:d3:f7:db:ce:33:47:25:86:b1:e0:a0:f9:2b:6e:
                    1d:b4:d7:66:12:53:51:1f:84:2a:a9:92:56:7b:ca:
                    76:77:32:b9:c0:71:51:9d:d7:74:67:15:d9:70:df:
                    c5:1c:57:d8:45:c9:5e:b2:bd
                Exponent: 65537 (0x10001)
    Signature Algorithm: md5WithRSAEncryption
        8e:7e:e0:f9:b0:ca:d3:d6:d4:7a:cc:b7:e3:78:ef:7a:b3:6f:
        25:97:7a:e2:c4:c0:0c:00:0d:40:50:54:d8:21:31:f1:2b:b8:
        7e:29:99:ea:67:f2:99:a2:51:73:e9:31:c5:c6:2c:52:1d:91:
        81:0d:16:5d:63:c1:ea:0b:89:45:4c:c4:e2:d4:c6:d7:80:a8:
        82:e7:f7:67:15:b1:df:3a:6a:62:80:59:20:a7:8f:06:cc:ee:
        df:8a:29:d8:f5:20:4c:0d:d0:07:e2:b6:85:5c:13:d4:e8:46:
        d5:6d:f0:41:85:e7:69:98:16:8e:d4:ef:78:4b:0a:a2:20:35:
        ee:15
-----BEGIN CERTIFICATE-----
MIICvDCCAiUCCQCbJ9fo0boKJzANBgkqhkiG9w0BAQQFADCBlTELMAkGA1UEBhMC
REUxETAPBgNVBAgTCFNhYXJsYW5kMRAwDgYDVQQKEwdNUEktU1dTMSIwIAYDVQQL
ExlEaXN0cmlidXRlZCBTeXN0ZW1zIEdyb3VwMRowGAYDVQQDExFBbmRyZWFzIEhh
ZWJlcmxlbjEhMB8GCSqGSIb3DQEJARYSZGVtb2NhQG9jdGFyaW5lLmRlMB4XDTE1
MDQyMDIwNDcyM1oXDTE2MDQxOTIwNDcyM1owga4xCzAJBgNVBAYTAkRFMREwDwYD
VQQIEwhTYWFybGFuZDEQMA4GA1UEChMHTVBJLVNXUzEiMCAGA1UECxMZRGlzdHJp
YnV0ZWQgU3lzdGVtcyBHcm91cDExMC8GA1UEAxMoODc0MGUyNTMxMzIxNGNjYWNj
YjRlNzQyM2NlMjczYWZiZjA5MTVkMzEjMCEGCSqGSIb3DQEJARYUbm9kZTA1OTFA
b2N0YXJpbmUuZGUwgZ8wDQYJKoZIhvcNAQEBBQADgY0AMIGJAoGBALRF5etJC+OV
CNACI6GjXajnWer97ONtylqDBdn6ttQd9LPDbK8eklqnGH/jmntOJoolL+GLdFtV
qhDyeR76KE9U78PvgVq3pm+SmtP3284zRyWGseCg+StuHbTXZhJTUR+EKqmSVnvK
dncyucBxUZ3XdGcV2XDfxRxX2EXJXrK9AgMBAAEwDQYJKoZIhvcNAQEEBQADgYEA
jn7g+bDK09bUesy343jverNvJZd64sTADAANQFBU2CEx8Su4fimZ6mfymaJRc+kx
xcYsUh2RgQ0WXWPB6guJRUzE4tTG14Coguf3ZxWx3zpqYoBZIKePBszu34op2PUg
TA3QB+K2hVwT1OhG1W3wQYXnaZgWjtTveEsKoiA17hU=
-----END CERTIFICATE-----
