Certificate:
    Data:
        Version: 1 (0x0)
        Serial Number:
            9b:27:d7:e8:d1:ba:0a:c2
        Signature Algorithm: md5WithRSAEncryption
        Issuer: C=DE, ST=Saarland, O=MPI-SWS, OU=Distributed Systems Group, CN=Andreas Haeberlen/emailAddress=democa@octarine.de
        Validity
            Not Before: Apr 20 20:47:30 2015 GMT
            Not After : Apr 19 20:47:30 2016 GMT
        Subject: C=DE, ST=Saarland, O=MPI-SWS, OU=Distributed Systems Group, CN=87827a45bdebe2355664b2ca54f1574dfd0775d2/emailAddress=node0746@octarine.de
        Subject Public Key Info:
            Public Key Algorithm: rsaEncryption
            RSA Public Key: (1024 bit)
                Modulus (1024 bit):
                    00:d7:d9:03:7b:c6:9c:56:b7:a7:c3:08:89:7c:2c:
                    d8:bb:74:a5:ed:0f:7b:a6:b3:37:9d:3e:33:d2:f9:
                    6f:d8:25:ed:4a:37:6c:26:50:31:67:88:90:8a:22:
                    63:5e:f4:85:19:a1:58:3d:6a:02:38:4f:79:58:cc:
                    3b:bc:55:29:6e:80:83:36:eb:36:2b:5b:ba:e3:82:
                    4c:02:1c:d3:8b:41:42:a4:0c:77:97:7e:9b:cf:96:
                    79:91:b6:6f:2c:16:b0:5f:e0:80:af:75:f9:e3:43:
                    4c:54:65:8c:5d:46:d8:f6:e5:c1:80:0c:15:0b:bc:
                    a6:7a:9c:da:13:01:d3:bb:89
                Exponent: 65537 (0x10001)
    Signature Algorithm: md5WithRSAEncryption
        67:e2:83:4d:cd:25:c1:37:a7:33:90:84:ef:98:4a:a4:31:49:
        ff:a3:29:a2:84:2e:60:a6:be:fe:6e:2d:b1:17:3f:0c:d6:da:
        04:ab:c8:29:ae:26:75:86:ee:82:41:6a:87:34:de:8d:6d:65:
        70:96:b1:dc:96:df:5d:22:c1:fe:d6:d5:79:d8:14:6f:8c:69:
        ff:bb:44:9a:5c:c3:27:85:95:18:7c:b9:ae:fc:62:c8:85:18:
        50:fb:c6:c8:a3:fc:bc:64:47:39:64:9f:ba:ce:dd:65:32:f8:
        08:2b:ef:65:a1:89:59:ec:f4:3b:bd:51:1e:25:1b:56:46:5d:
        99:cc
-----BEGIN CERTIFICATE-----
MIICvDCCAiUCCQCbJ9fo0boKwjANBgkqhkiG9w0BAQQFADCBlTELMAkGA1UEBhMC
REUxETAPBgNVBAgTCFNhYXJsYW5kMRAwDgYDVQQKEwdNUEktU1dTMSIwIAYDVQQL
ExlEaXN0cmlidXRlZCBTeXN0ZW1zIEdyb3VwMRowGAYDVQQDExFBbmRyZWFzIEhh
ZWJlcmxlbjEhMB8GCSqGSIb3DQEJARYSZGVtb2NhQG9jdGFyaW5lLmRlMB4XDTE1
MDQyMDIwNDczMFoXDTE2MDQxOTIwNDczMFowga4xCzAJBgNVBAYTAkRFMREwDwYD
VQQIEwhTYWFybGFuZDEQMA4GA1UEChMHTVBJLVNXUzEiMCAGA1UECxMZRGlzdHJp
YnV0ZWQgU3lzdGVtcyBHcm91cDExMC8GA1UEAxMoODc4MjdhNDViZGViZTIzNTU2
NjRiMmNhNTRmMTU3NGRmZDA3NzVkMjEjMCEGCSqGSIb3DQEJARYUbm9kZTA3NDZA
b2N0YXJpbmUuZGUwgZ8wDQYJKoZIhvcNAQEBBQADgY0AMIGJAoGBANfZA3vGnFa3
p8MIiXws2Lt0pe0Pe6azN50+M9L5b9gl7Uo3bCZQMWeIkIoiY170hRmhWD1qAjhP
eVjMO7xVKW6AgzbrNitbuuOCTAIc04tBQqQMd5d+m8+WeZG2bywWsF/ggK91+eND
TFRljF1G2PblwYAMFQu8pnqc2hMB07uJAgMBAAEwDQYJKoZIhvcNAQEEBQADgYEA
Z+KDTc0lwTenM5CE75hKpDFJ/6MpooQuYKa+/m4tsRc/DNbaBKvIKa4mdYbugkFq
hzTejW1lcJax3JbfXSLB/tbVedgUb4xp/7tEmlzDJ4WVGHy5rvxiyIUYUPvGyKP8
vGRHOWSfus7dZTL4CCvvZaGJWez0O71RHiUbVkZdmcw=
-----END CERTIFICATE-----
