Certificate:
    Data:
        Version: 1 (0x0)
        Serial Number:
            9b:27:d7:e8:d1:ba:09:e1
        Signature Algorithm: md5WithRSAEncryption
        Issuer: C=DE, ST=Saarland, O=MPI-SWS, OU=Distributed Systems Group, CN=Andreas Haeberlen/emailAddress=democa@octarine.de
        Validity
            Not Before: Apr 20 20:47:19 2015 GMT
            Not After : Apr 19 20:47:19 2016 GMT
        Subject: C=DE, ST=Saarland, O=MPI-SWS, OU=Distributed Systems Group, CN=5d3b9dbb2fc7c7cb28e93948e58c7b3c968333f6/emailAddress=node0521@octarine.de
        Subject Public Key Info:
            Public Key Algorithm: rsaEncryption
            RSA Public Key: (1024 bit)
                Modulus (1024 bit):
                    00:c0:e7:ca:83:72:c2:61:d2:94:c5:3d:47:0d:5d:
                    29:77:8c:8a:7b:c1:7d:86:98:f9:41:a4:bf:74:a6:
                    45:c3:ff:a0:3d:4c:5f:3c:e0:37:8f:9a:f3:ec:8d:
                    6c:40:be:a5:15:fa:ba:c4:dc:58:83:e4:23:08:00:
                    14:db:2a:a8:a1:69:5b:df:d1:8c:b7:14:05:d6:8d:
                    a6:bc:b2:2d:f5:8d:3e:2a:c1:7a:04:ca:b9:d0:42:
                    43:8d:27:43:bd:84:a6:13:87:ec:4c:fb:2c:fd:70:
                    43:8b:6b:41:d3:8b:ab:39:de:0a:51:bc:af:3d:44:
                    4a:30:1c:12:67:7a:d6:05:95
                Exponent: 65537 (0x10001)
    Signature Algorithm: md5WithRSAEncryption
        c7:0a:db:21:85:d5:9b:de:7d:34:01:81:70:9b:cf:fd:9d:67:
        af:c9:18:43:27:62:ec:5d:83:02:a8:04:45:ed:99:3b:1f:9d:
        f6:f6:ab:8f:6e:36:82:6a:d8:bc:06:ef:53:62:3f:9e:09:31:
        de:66:cf:1a:5d:f0:05:9b:4b:7c:ae:bc:06:74:66:1a:8c:50:
        f6:7f:cc:14:01:9a:11:63:22:a7:2b:3b:81:5c:16:0f:01:23:
        83:2a:97:94:1a:45:b5:20:6d:4e:53:5c:7e:6c:9f:68:2a:21:
        5c:2a:15:eb:f6:d7:bd:4f:ec:72:2f:fb:76:90:6f:2b:17:e0:
        a5:1d
-----BEGIN CERTIFICATE-----
MIICvDCCAiUCCQCbJ9fo0boJ4TANBgkqhkiG9w0BAQQFADCBlTELMAkGA1UEBhMC
REUxETAPBgNVBAgTCFNhYXJsYW5kMRAwDgYDVQQKEwdNUEktU1dTMSIwIAYDVQQL
ExlEaXN0cmlidXRlZCBTeXN0ZW1zIEdyb3VwMRowGAYDVQQDExFBbmRyZWFzIEhh
ZWJlcmxlbjEhMB8GCSqGSIb3DQEJARYSZGVtb2NhQG9jdGFyaW5lLmRlMB4XDTE1
MDQyMDIwNDcxOVoXDTE2MDQxOTIwNDcxOVowga4xCzAJBgNVBAYTAkRFMREwDwYD
VQQIEwhTYWFybGFuZDEQMA4GA1UEChMHTVBJLVNXUzEiMCAGA1UECxMZRGlzdHJp
YnV0ZWQgU3lzdGVtcyBHcm91cDExMC8GA1UEAxMoNWQzYjlkYmIyZmM3YzdjYjI4
ZTkzOTQ4ZTU4YzdiM2M5NjgzMzNmNjEjMCEGCSqGSIb3DQEJARYUbm9kZTA1MjFA
b2N0YXJpbmUuZGUwgZ8wDQYJKoZIhvcNAQEBBQADgY0AMIGJAoGBAMDnyoNywmHS
lMU9Rw1dKXeMinvBfYaY+UGkv3SmRcP/oD1MXzzgN4+a8+yNbEC+pRX6usTcWIPk
IwgAFNsqqKFpW9/RjLcUBdaNpryyLfWNPirBegTKudBCQ40nQ72EphOH7Ez7LP1w
Q4trQdOLqzneClG8rz1ESjAcEmd61gWVAgMBAAEwDQYJKoZIhvcNAQEEBQADgYEA
xwrbIYXVm959NAGBcJvP/Z1nr8kYQydi7F2DAqgERe2ZOx+d9varj242gmrYvAbv
U2I/ngkx3mbPGl3wBZtLfK68BnRmGoxQ9n/MFAGaEWMipys7gVwWDwEjgyqXlBpF
tSBtTlNcfmyfaCohXCoV6/bXvU/sci/7dpBvKxfgpR0=
-----END CERTIFICATE-----
