Certificate:
    Data:
        Version: 1 (0x0)
        Serial Number:
            9b:27:d7:e8:d1:ba:08:22
        Signature Algorithm: md5WithRSAEncryption
        Issuer: C=DE, ST=Saarland, O=MPI-SWS, OU=Distributed Systems Group, CN=Andreas Haeberlen/emailAddress=democa@octarine.de
        Validity
            Not Before: Apr 20 20:47:00 2015 GMT
            Not After : Apr 19 20:47:00 2016 GMT
        Subject: C=DE, ST=Saarland, O=MPI-SWS, OU=Distributed Systems Group, CN=8ec3cbd3ed73b1b0c7bddc0274f5daa586942680/emailAddress=node0074@octarine.de
        Subject Public Key Info:
            Public Key Algorithm: rsaEncryption
            RSA Public Key: (1024 bit)
                Modulus (1024 bit):
                    00:aa:1d:05:f7:fc:7e:65:ba:9c:f6:e5:6b:ef:af:
                    5f:e2:b7:ee:18:c8:f9:4f:0d:65:00:16:ac:b1:38:
                    99:5b:ba:19:e4:6a:8e:71:4c:f5:29:56:a8:d6:ea:
                    f9:06:39:e7:1c:5a:c6:29:ad:95:f5:ec:02:c8:b1:
                    29:4d:79:b5:b9:ab:86:5d:ff:2b:a2:02:8f:df:a0:
                    7f:b8:23:cb:04:ff:b2:aa:a4:8d:f5:79:44:e4:f2:
                    51:cc:80:03:a9:20:40:05:88:5a:70:e9:33:04:19:
                    f3:c0:81:b2:d7:42:0e:29:4d:9c:35:89:98:f8:4a:
                    ee:46:73:f7:75:65:04:32:db
                Exponent: 65537 (0x10001)
    Signature Algorithm: md5WithRSAEncryption
        39:a2:85:dc:80:d8:4f:9f:f7:5b:76:c1:fc:c9:41:40:b1:4f:
        e3:21:66:74:c1:60:12:de:e7:45:b4:12:30:33:ad:37:c3:f5:
        da:26:02:7b:3c:a9:03:14:be:b3:42:d3:0b:19:a4:d7:a1:aa:
        51:74:fb:f3:1e:3b:c6:3b:14:ba:95:bf:a0:3d:5e:07:9a:3e:
        2e:79:65:8d:93:4a:2e:9d:5f:86:0d:c7:15:b1:f2:b4:51:35:
        e4:c9:35:96:8b:bb:22:4d:a3:db:51:f6:22:e7:b7:49:7f:3f:
        1a:d7:94:e1:29:d5:61:7f:3d:75:23:71:52:72:32:a2:02:18:
        48:5c
-----BEGIN CERTIFICATE-----
MIICvDCCAiUCCQCbJ9fo0boIIjANBgkqhkiG9w0BAQQFADCBlTELMAkGA1UEBhMC
REUxETAPBgNVBAgTCFNhYXJsYW5kMRAwDgYDVQQKEwdNUEktU1dTMSIwIAYDVQQL
ExlEaXN0cmlidXRlZCBTeXN0ZW1zIEdyb3VwMRowGAYDVQQDExFBbmRyZWFzIEhh
ZWJlcmxlbjEhMB8GCSqGSIb3DQEJARYSZGVtb2NhQG9jdGFyaW5lLmRlMB4XDTE1
MDQyMDIwNDcwMFoXDTE2MDQxOTIwNDcwMFowga4xCzAJBgNVBAYTAkRFMREwDwYD
VQQIEwhTYWFybGFuZDEQMA4GA1UEChMHTVBJLVNXUzEiMCAGA1UECxMZRGlzdHJp
YnV0ZWQgU3lzdGVtcyBHcm91cDExMC8GA1UEAxMoOGVjM2NiZDNlZDczYjFiMGM3
YmRkYzAyNzRmNWRhYTU4Njk0MjY4MDEjMCEGCSqGSIb3DQEJARYUbm9kZTAwNzRA
b2N0YXJpbmUuZGUwgZ8wDQYJKoZIhvcNAQEBBQADgY0AMIGJAoGBAKodBff8fmW6
nPbla++vX+K37hjI+U8NZQAWrLE4mVu6GeRqjnFM9SlWqNbq+QY55xxaximtlfXs
AsixKU15tbmrhl3/K6ICj9+gf7gjywT/sqqkjfV5ROTyUcyAA6kgQAWIWnDpMwQZ
88CBstdCDilNnDWJmPhK7kZz93VlBDLbAgMBAAEwDQYJKoZIhvcNAQEEBQADgYEA
OaKF3IDYT5/3W3bB/MlBQLFP4yFmdMFgEt7nRbQSMDOtN8P12iYCezypAxS+s0LT
Cxmk16GqUXT78x47xjsUupW/oD1eB5o+LnlljZNKLp1fhg3HFbHytFE15Mk1lou7
Ik2j21H2Iue3SX8/GteU4SnVYX89dSNxUnIyogIYSFw=
-----END CERTIFICATE-----
