Certificate:
    Data:
        Version: 1 (0x0)
        Serial Number:
            9b:27:d7:e8:d1:ba:09:d1
        Signature Algorithm: md5WithRSAEncryption
        Issuer: C=DE, ST=Saarland, O=MPI-SWS, OU=Distributed Systems Group, CN=Andreas Haeberlen/emailAddress=democa@octarine.de
        Validity
            Not Before: Apr 20 20:47:19 2015 GMT
            Not After : Apr 19 20:47:19 2016 GMT
        Subject: C=DE, ST=Saarland, O=MPI-SWS, OU=Distributed Systems Group, CN=f76a1d376e2976a31f7e849504ae5445cb0d834f/emailAddress=node0505@octarine.de
        Subject Public Key Info:
            Public Key Algorithm: rsaEncryption
            RSA Public Key: (1024 bit)
                Modulus (1024 bit):
                    00:a1:7c:9c:f0:1e:48:73:1b:65:1e:48:80:3c:ea:
                    ca:b3:56:e4:3b:77:01:18:42:51:2d:88:eb:d0:85:
                    70:39:fc:4b:57:26:3c:72:8f:75:73:49:07:6d:f1:
                    32:2f:b8:b6:e2:0b:72:61:1e:5d:9a:95:fb:a0:1f:
                    3f:b7:e9:41:83:f4:dc:62:66:93:c2:d8:91:91:2a:
                    4d:07:af:3f:54:b1:05:d3:c3:95:aa:13:59:fa:78:
                    68:29:43:3e:df:b5:8d:21:8e:8a:51:5e:18:5a:81:
                    33:5c:5a:b5:5e:b7:3f:2c:9e:4f:2d:a4:36:e3:a6:
                    d1:84:b7:24:6b:03:78:86:c5
                Exponent: 65537 (0x10001)
    Signature Algorithm: md5WithRSAEncryption
        4f:d8:fd:54:ba:2b:f5:b1:44:17:8b:04:b0:c4:c3:73:50:f1:
        8f:2b:71:64:73:5d:8f:7a:64:6b:a2:c9:11:7a:da:38:26:c2:
        34:b6:29:b3:63:4e:c2:24:78:24:e6:92:01:67:06:98:30:2f:
        f7:a3:47:7e:11:f6:0b:68:74:e6:87:9e:3e:39:ae:50:b8:01:
        56:41:13:cd:2b:b9:db:4a:28:0c:cf:d9:e2:e9:34:15:a1:02:
        e6:6e:ce:1f:07:cc:dc:12:99:15:75:12:de:17:85:34:8e:75:
        a2:1f:f1:03:af:c3:4a:88:36:c6:6d:1d:bc:67:21:c7:c1:59:
        66:d1
-----BEGIN CERTIFICATE-----
MIICvDCCAiUCCQCbJ9fo0boJ0TANBgkqhkiG9w0BAQQFADCBlTELMAkGA1UEBhMC
REUxETAPBgNVBAgTCFNhYXJsYW5kMRAwDgYDVQQKEwdNUEktU1dTMSIwIAYDVQQL
ExlEaXN0cmlidXRlZCBTeXN0ZW1zIEdyb3VwMRowGAYDVQQDExFBbmRyZWFzIEhh
ZWJlcmxlbjEhMB8GCSqGSIb3DQEJARYSZGVtb2NhQG9jdGFyaW5lLmRlMB4XDTE1
MDQyMDIwNDcxOVoXDTE2MDQxOTIwNDcxOVowga4xCzAJBgNVBAYTAkRFMREwDwYD
VQQIEwhTYWFybGFuZDEQMA4GA1UEChMHTVBJLVNXUzEiMCAGA1UECxMZRGlzdHJp
YnV0ZWQgU3lzdGVtcyBHcm91cDExMC8GA1UEAxMoZjc2YTFkMzc2ZTI5NzZhMzFm
N2U4NDk1MDRhZTU0NDVjYjBkODM0ZjEjMCEGCSqGSIb3DQEJARYUbm9kZTA1MDVA
b2N0YXJpbmUuZGUwgZ8wDQYJKoZIhvcNAQEBBQADgY0AMIGJAoGBAKF8nPAeSHMb
ZR5IgDzqyrNW5Dt3ARhCUS2I69CFcDn8S1cmPHKPdXNJB23xMi+4tuILcmEeXZqV
+6AfP7fpQYP03GJmk8LYkZEqTQevP1SxBdPDlaoTWfp4aClDPt+1jSGOilFeGFqB
M1xatV63PyyeTy2kNuOm0YS3JGsDeIbFAgMBAAEwDQYJKoZIhvcNAQEEBQADgYEA
T9j9VLor9bFEF4sEsMTDc1DxjytxZHNdj3pka6LJEXraOCbCNLYps2NOwiR4JOaS
AWcGmDAv96NHfhH2C2h05oeePjmuULgBVkETzSu520ooDM/Z4uk0FaEC5m7OHwfM
3BKZFXUS3heFNI51oh/xA6/DSog2xm0dvGchx8FZZtE=
-----END CERTIFICATE-----
