Certificate:
    Data:
        Version: 1 (0x0)
        Serial Number:
            9b:27:d7:e8:d1:ba:08:fa
        Signature Algorithm: md5WithRSAEncryption
        Issuer: C=DE, ST=Saarland, O=MPI-SWS, OU=Distributed Systems Group, CN=Andreas Haeberlen/emailAddress=democa@octarine.de
        Validity
            Not Before: Apr 20 20:47:09 2015 GMT
            Not After : Apr 19 20:47:09 2016 GMT
        Subject: C=DE, ST=Saarland, O=MPI-SWS, OU=Distributed Systems Group, CN=ffc15926bfe2395a98f855dc69f6c94b90dea055/emailAddress=node0290@octarine.de
        Subject Public Key Info:
            Public Key Algorithm: rsaEncryption
            RSA Public Key: (1024 bit)
                Modulus (1024 bit):
                    00:e2:05:13:a8:ec:64:76:09:cf:3b:00:ba:4a:f5:
                    bd:be:ec:9d:87:25:d8:c7:00:d8:86:8a:21:34:48:
                    1a:87:59:fc:da:be:ff:3b:b1:01:93:c3:24:43:7e:
                    d0:20:ef:b2:5d:de:a8:66:27:24:dc:aa:53:a6:25:
                    34:19:c2:87:cf:19:28:25:7a:ed:58:08:7e:6c:78:
                    92:b3:ff:78:50:79:45:c5:8a:5d:06:be:08:fe:2e:
                    e2:e9:7e:db:92:76:29:fe:93:89:f2:56:d7:f7:5b:
                    08:f5:12:e6:4b:be:52:de:99:f7:0d:26:99:35:9c:
                    38:b4:2b:46:b2:f5:e7:b1:63
                Exponent: 65537 (0x10001)
    Signature Algorithm: md5WithRSAEncryption
        0b:a9:f7:48:aa:88:45:35:d8:34:83:19:80:3f:06:e9:5f:cb:
        0d:88:32:0d:14:a3:9c:c0:56:10:96:36:eb:1b:d5:f7:10:1e:
        9c:e9:27:cb:26:f2:f8:22:06:9c:a6:3d:01:ac:9c:a2:f3:f6:
        25:37:48:2e:74:35:97:16:68:87:77:9b:d2:63:04:48:2c:33:
        97:40:4b:c4:50:52:fd:4a:96:db:fa:cc:47:16:88:bd:39:a7:
        c3:97:26:b9:74:4c:81:ad:2f:73:82:48:f8:4b:05:04:4c:8e:
        cc:68:84:d6:ab:2d:9e:f2:3c:9a:01:6c:c0:84:d3:e5:b4:05:
        75:c4
-----BEGIN CERTIFICATE-----
MIICvDCCAiUCCQCbJ9fo0boI+jANBgkqhkiG9w0BAQQFADCBlTELMAkGA1UEBhMC
REUxETAPBgNVBAgTCFNhYXJsYW5kMRAwDgYDVQQKEwdNUEktU1dTMSIwIAYDVQQL
ExlEaXN0cmlidXRlZCBTeXN0ZW1zIEdyb3VwMRowGAYDVQQDExFBbmRyZWFzIEhh
ZWJlcmxlbjEhMB8GCSqGSIb3DQEJARYSZGVtb2NhQG9jdGFyaW5lLmRlMB4XDTE1
MDQyMDIwNDcwOVoXDTE2MDQxOTIwNDcwOVowga4xCzAJBgNVBAYTAkRFMREwDwYD
VQQIEwhTYWFybGFuZDEQMA4GA1UEChMHTVBJLVNXUzEiMCAGA1UECxMZRGlzdHJp
YnV0ZWQgU3lzdGVtcyBHcm91cDExMC8GA1UEAxMoZmZjMTU5MjZiZmUyMzk1YTk4
Zjg1NWRjNjlmNmM5NGI5MGRlYTA1NTEjMCEGCSqGSIb3DQEJARYUbm9kZTAyOTBA
b2N0YXJpbmUuZGUwgZ8wDQYJKoZIhvcNAQEBBQADgY0AMIGJAoGBAOIFE6jsZHYJ
zzsAukr1vb7snYcl2McA2IaKITRIGodZ/Nq+/zuxAZPDJEN+0CDvsl3eqGYnJNyq
U6YlNBnCh88ZKCV67VgIfmx4krP/eFB5RcWKXQa+CP4u4ul+25J2Kf6TifJW1/db
CPUS5ku+Ut6Z9w0mmTWcOLQrRrL157FjAgMBAAEwDQYJKoZIhvcNAQEEBQADgYEA
C6n3SKqIRTXYNIMZgD8G6V/LDYgyDRSjnMBWEJY26xvV9xAenOknyyby+CIGnKY9
AaycovP2JTdILnQ1lxZoh3eb0mMESCwzl0BLxFBS/UqW2/rMRxaIvTmnw5cmuXRM
ga0vc4JI+EsFBEyOzGiE1qstnvI8mgFswITT5bQFdcQ=
-----END CERTIFICATE-----
