Certificate:
    Data:
        Version: 1 (0x0)
        Serial Number:
            9b:27:d7:e8:d1:ba:07:f5
        Signature Algorithm: md5WithRSAEncryption
        Issuer: C=DE, ST=Saarland, O=MPI-SWS, OU=Distributed Systems Group, CN=Andreas Haeberlen/emailAddress=democa@octarine.de
        Validity
            Not Before: Apr 20 20:46:58 2015 GMT
            Not After : Apr 19 20:46:58 2016 GMT
        Subject: C=DE, ST=Saarland, O=MPI-SWS, OU=Distributed Systems Group, CN=05d3877d9678be46a21645a37cc0cf4c51fd97a3/emailAddress=node0029@octarine.de
        Subject Public Key Info:
            Public Key Algorithm: rsaEncryption
            RSA Public Key: (1024 bit)
                Modulus (1024 bit):
                    00:dd:25:be:ae:49:8f:1e:c1:1a:e7:9c:07:5f:18:
                    21:46:0c:4d:4c:37:12:c8:36:50:05:d6:61:71:a1:
                    79:5b:2c:e9:40:13:0f:9b:e1:e6:a8:82:af:c7:b4:
                    ed:c5:06:43:a5:7a:52:79:05:4f:f1:aa:83:30:fb:
                    96:e8:66:62:2a:39:d4:51:e0:69:7d:26:83:1c:8b:
                    7d:6f:53:1a:c8:f2:3d:c3:04:d2:0a:e6:c4:ee:34:
                    62:26:50:98:f8:c1:3b:57:2b:4b:50:e1:f4:40:91:
                    4d:27:a4:6c:1f:a7:01:e9:d1:56:ed:26:f2:68:3b:
                    a5:4b:bc:b1:2f:c7:9a:f2:67
                Exponent: 65537 (0x10001)
    Signature Algorithm: md5WithRSAEncryption
        bb:72:95:5d:7b:46:44:fc:7c:bb:fa:db:69:b9:7c:dd:b9:17:
        68:bd:7c:ef:59:da:14:28:c6:fc:e0:0e:20:6d:2b:47:81:91:
        bf:05:73:de:86:dc:d4:0f:48:ab:6f:46:1f:d5:5e:e0:81:8a:
        21:94:de:2d:97:58:03:67:69:89:8f:c5:f5:de:60:94:93:96:
        ed:75:9c:dd:43:ad:38:4e:94:96:79:9d:45:6b:48:8a:12:4d:
        03:93:35:01:a5:92:b5:43:d4:ed:00:a9:ac:11:7a:27:ca:85:
        c7:71:12:ad:f7:ff:b2:d8:bc:8f:71:2e:58:aa:36:3d:81:ba:
        5d:ae
-----BEGIN CERTIFICATE-----
MIICvDCCAiUCCQCbJ9fo0boH9TANBgkqhkiG9w0BAQQFADCBlTELMAkGA1UEBhMC
REUxETAPBgNVBAgTCFNhYXJsYW5kMRAwDgYDVQQKEwdNUEktU1dTMSIwIAYDVQQL
ExlEaXN0cmlidXRlZCBTeXN0ZW1zIEdyb3VwMRowGAYDVQQDExFBbmRyZWFzIEhh
ZWJlcmxlbjEhMB8GCSqGSIb3DQEJARYSZGVtb2NhQG9jdGFyaW5lLmRlMB4XDTE1
MDQyMDIwNDY1OFoXDTE2MDQxOTIwNDY1OFowga4xCzAJBgNVBAYTAkRFMREwDwYD
VQQIEwhTYWFybGFuZDEQMA4GA1UEChMHTVBJLVNXUzEiMCAGA1UECxMZRGlzdHJp
YnV0ZWQgU3lzdGVtcyBHcm91cDExMC8GA1UEAxMoMDVkMzg3N2Q5Njc4YmU0NmEy
MTY0NWEzN2NjMGNmNGM1MWZkOTdhMzEjMCEGCSqGSIb3DQEJARYUbm9kZTAwMjlA
b2N0YXJpbmUuZGUwgZ8wDQYJKoZIhvcNAQEBBQADgY0AMIGJAoGBAN0lvq5Jjx7B
GuecB18YIUYMTUw3Esg2UAXWYXGheVss6UATD5vh5qiCr8e07cUGQ6V6UnkFT/Gq
gzD7luhmYio51FHgaX0mgxyLfW9TGsjyPcME0grmxO40YiZQmPjBO1crS1Dh9ECR
TSekbB+nAenRVu0m8mg7pUu8sS/HmvJnAgMBAAEwDQYJKoZIhvcNAQEEBQADgYEA
u3KVXXtGRPx8u/rbabl83bkXaL1871naFCjG/OAOIG0rR4GRvwVz3obc1A9Iq29G
H9Ve4IGKIZTeLZdYA2dpiY/F9d5glJOW7XWc3UOtOE6UlnmdRWtIihJNA5M1AaWS
tUPU7QCprBF6J8qFx3ESrff/sti8j3EuWKo2PYG6Xa4=
-----END CERTIFICATE-----
