Certificate:
    Data:
        Version: 1 (0x0)
        Serial Number:
            9b:27:d7:e8:d1:ba:08:37
        Signature Algorithm: md5WithRSAEncryption
        Issuer: C=DE, ST=Saarland, O=MPI-SWS, OU=Distributed Systems Group, CN=Andreas Haeberlen/emailAddress=democa@octarine.de
        Validity
            Not Before: Apr 20 20:47:01 2015 GMT
            Not After : Apr 19 20:47:01 2016 GMT
        Subject: C=DE, ST=Saarland, O=MPI-SWS, OU=Distributed Systems Group, CN=fb1a13036fa4f23ee9568a2893c920f1b0bc3b0a/emailAddress=node0095@octarine.de
        Subject Public Key Info:
            Public Key Algorithm: rsaEncryption
            RSA Public Key: (1024 bit)
                Modulus (1024 bit):
                    00:cb:49:d9:e8:f0:c6:f2:00:1a:6f:2d:f4:8c:0c:
                    ef:67:90:9f:65:d1:b9:80:5e:30:1c:f5:0b:17:c7:
                    3f:5d:ea:7a:69:96:f9:88:79:45:26:f1:35:8e:6f:
                    65:ec:74:4b:75:fd:cc:64:1d:33:0e:77:d3:f9:cc:
                    38:76:ee:df:06:39:e5:92:76:71:f4:f0:96:a6:0f:
                    40:f1:bf:f5:62:ae:39:d1:3d:31:3a:dd:12:a6:da:
                    68:d6:26:b7:41:03:23:68:d9:54:6d:6d:82:b1:1f:
                    76:45:66:2e:07:84:8b:82:1a:ef:46:f4:2a:e4:8d:
                    4a:91:d5:61:02:ec:09:c6:6d
                Exponent: 65537 (0x10001)
    Signature Algorithm: md5WithRSAEncryption
        a1:92:d8:de:fe:2e:27:f0:b8:18:04:06:16:39:59:3c:bc:8f:
        52:f5:0c:20:c1:8b:5a:14:72:c9:42:e9:21:2c:d1:f0:03:49:
        60:dc:bc:ef:0e:48:ed:7d:92:21:f2:d4:4b:43:6c:46:ca:35:
        81:55:c0:24:dc:a4:f0:86:a7:49:78:38:1b:bc:dc:fb:8f:26:
        1e:6b:a1:d1:50:40:90:60:0c:e5:ad:2a:2d:a4:b2:4e:f6:17:
        23:5a:37:7f:bc:44:1d:07:4b:b9:9b:ba:05:87:30:4a:68:b6:
        73:0f:78:80:6a:b8:28:a2:5e:70:6e:ec:ab:ff:1b:e1:b6:56:
        32:4c
-----BEGIN CERTIFICATE-----
MIICvDCCAiUCCQCbJ9fo0boINzANBgkqhkiG9w0BAQQFADCBlTELMAkGA1UEBhMC
REUxETAPBgNVBAgTCFNhYXJsYW5kMRAwDgYDVQQKEwdNUEktU1dTMSIwIAYDVQQL
ExlEaXN0cmlidXRlZCBTeXN0ZW1zIEdyb3VwMRowGAYDVQQDExFBbmRyZWFzIEhh
ZWJlcmxlbjEhMB8GCSqGSIb3DQEJARYSZGVtb2NhQG9jdGFyaW5lLmRlMB4XDTE1
MDQyMDIwNDcwMVoXDTE2MDQxOTIwNDcwMVowga4xCzAJBgNVBAYTAkRFMREwDwYD
VQQIEwhTYWFybGFuZDEQMA4GA1UEChMHTVBJLVNXUzEiMCAGA1UECxMZRGlzdHJp
YnV0ZWQgU3lzdGVtcyBHcm91cDExMC8GA1UEAxMoZmIxYTEzMDM2ZmE0ZjIzZWU5
NTY4YTI4OTNjOTIwZjFiMGJjM2IwYTEjMCEGCSqGSIb3DQEJARYUbm9kZTAwOTVA
b2N0YXJpbmUuZGUwgZ8wDQYJKoZIhvcNAQEBBQADgY0AMIGJAoGBAMtJ2ejwxvIA
Gm8t9IwM72eQn2XRuYBeMBz1CxfHP13qemmW+Yh5RSbxNY5vZex0S3X9zGQdMw53
0/nMOHbu3wY55ZJ2cfTwlqYPQPG/9WKuOdE9MTrdEqbaaNYmt0EDI2jZVG1tgrEf
dkVmLgeEi4Ia70b0KuSNSpHVYQLsCcZtAgMBAAEwDQYJKoZIhvcNAQEEBQADgYEA
oZLY3v4uJ/C4GAQGFjlZPLyPUvUMIMGLWhRyyULpISzR8ANJYNy87w5I7X2SIfLU
S0NsRso1gVXAJNyk8IanSXg4G7zc+48mHmuh0VBAkGAM5a0qLaSyTvYXI1o3f7xE
HQdLuZu6BYcwSmi2cw94gGq4KKJecG7sq/8b4bZWMkw=
-----END CERTIFICATE-----
