Certificate:
    Data:
        Version: 1 (0x0)
        Serial Number:
            9b:27:d7:e8:d1:ba:0b:8c
        Signature Algorithm: md5WithRSAEncryption
        Issuer: C=DE, ST=Saarland, O=MPI-SWS, OU=Distributed Systems Group, CN=Andreas Haeberlen/emailAddress=democa@octarine.de
        Validity
            Not Before: Apr 20 20:47:39 2015 GMT
            Not After : Apr 19 20:47:39 2016 GMT
        Subject: C=DE, ST=Saarland, O=MPI-SWS, OU=Distributed Systems Group, CN=9363f4bf514df81599c108b03030e4677db62767/emailAddress=node0948@octarine.de
        Subject Public Key Info:
            Public Key Algorithm: rsaEncryption
            RSA Public Key: (1024 bit)
                Modulus (1024 bit):
                    00:ae:52:d1:31:b1:b9:8a:97:06:a3:d8:dc:4f:00:
                    3d:14:1e:10:27:f1:a3:38:7c:79:5b:0f:bf:07:d5:
                    8c:79:8c:45:31:3b:7f:3f:69:9b:39:05:77:c1:79:
                    1c:77:a2:b5:40:a5:0a:27:c1:07:85:5c:09:cd:8d:
                    b1:bd:49:f8:e3:fc:4f:91:ab:49:79:6f:f1:09:b3:
                    80:8b:5d:8a:24:8c:a6:3e:d9:25:29:d3:9d:ce:98:
                    04:74:b3:8c:23:00:4b:04:99:1f:48:dc:9e:95:c6:
                    bc:6e:de:d4:57:ea:48:8c:50:45:0f:6f:0c:bb:7a:
                    17:7f:9c:cd:ef:ff:31:25:61
                Exponent: 65537 (0x10001)
    Signature Algorithm: md5WithRSAEncryption
        aa:b2:4e:d5:f0:41:bd:1f:92:f5:eb:15:e0:c7:fa:88:66:1a:
        32:1b:43:2f:97:44:b4:b7:ff:d9:d8:27:a0:6c:37:a4:08:55:
        27:23:da:9a:5b:24:76:04:c1:8c:7d:7a:66:96:56:a1:c7:e3:
        18:be:bf:a5:49:e2:41:fc:4c:b8:5f:d5:8e:6f:47:9d:ac:4f:
        be:d2:43:d2:5c:d0:1b:2f:ed:87:de:8c:25:eb:28:85:4c:ff:
        f9:4c:5b:18:fa:32:5a:e8:ac:03:cf:1a:60:c7:91:d7:94:15:
        8f:48:b7:77:74:fe:6d:f5:ec:f7:5c:73:4e:dd:7e:02:7a:d0:
        ad:68
-----BEGIN CERTIFICATE-----
MIICvDCCAiUCCQCbJ9fo0boLjDANBgkqhkiG9w0BAQQFADCBlTELMAkGA1UEBhMC
REUxETAPBgNVBAgTCFNhYXJsYW5kMRAwDgYDVQQKEwdNUEktU1dTMSIwIAYDVQQL
ExlEaXN0cmlidXRlZCBTeXN0ZW1zIEdyb3VwMRowGAYDVQQDExFBbmRyZWFzIEhh
ZWJlcmxlbjEhMB8GCSqGSIb3DQEJARYSZGVtb2NhQG9jdGFyaW5lLmRlMB4XDTE1
MDQyMDIwNDczOVoXDTE2MDQxOTIwNDczOVowga4xCzAJBgNVBAYTAkRFMREwDwYD
VQQIEwhTYWFybGFuZDEQMA4GA1UEChMHTVBJLVNXUzEiMCAGA1UECxMZRGlzdHJp
YnV0ZWQgU3lzdGVtcyBHcm91cDExMC8GA1UEAxMoOTM2M2Y0YmY1MTRkZjgxNTk5
YzEwOGIwMzAzMGU0Njc3ZGI2Mjc2NzEjMCEGCSqGSIb3DQEJARYUbm9kZTA5NDhA
b2N0YXJpbmUuZGUwgZ8wDQYJKoZIhvcNAQEBBQADgY0AMIGJAoGBAK5S0TGxuYqX
BqPY3E8APRQeECfxozh8eVsPvwfVjHmMRTE7fz9pmzkFd8F5HHeitUClCifBB4Vc
Cc2Nsb1J+OP8T5GrSXlv8QmzgItdiiSMpj7ZJSnTnc6YBHSzjCMASwSZH0jcnpXG
vG7e1FfqSIxQRQ9vDLt6F3+cze//MSVhAgMBAAEwDQYJKoZIhvcNAQEEBQADgYEA
qrJO1fBBvR+S9esV4Mf6iGYaMhtDL5dEtLf/2dgnoGw3pAhVJyPamlskdgTBjH16
ZpZWocfjGL6/pUniQfxMuF/Vjm9HnaxPvtJD0lzQGy/th96MJesohUz/+UxbGPoy
WuisA88aYMeR15QVj0i3d3T+bfXs91xzTt1+AnrQrWg=
-----END CERTIFICATE-----
