Certificate:
    Data:
        Version: 1 (0x0)
        Serial Number:
            9b:27:d7:e8:d1:ba:09:28
        Signature Algorithm: md5WithRSAEncryption
        Issuer: C=DE, ST=Saarland, O=MPI-SWS, OU=Distributed Systems Group, CN=Andreas Haeberlen/emailAddress=democa@octarine.de
        Validity
            Not Before: Apr 20 20:47:11 2015 GMT
            Not After : Apr 19 20:47:11 2016 GMT
        Subject: C=DE, ST=Saarland, O=MPI-SWS, OU=Distributed Systems Group, CN=0fe1df59d23406ce6fb27f555555765853932fdf/emailAddress=node0336@octarine.de
        Subject Public Key Info:
            Public Key Algorithm: rsaEncryption
            RSA Public Key: (1024 bit)
                Modulus (1024 bit):
                    00:c3:d5:81:60:5b:15:47:a0:d6:9e:8b:4b:93:66:
                    59:aa:8d:fe:0d:eb:8a:31:93:4d:45:23:e4:35:3b:
                    35:a1:a5:a4:04:8d:6c:cf:28:91:2e:59:c1:19:cf:
                    bf:d7:72:38:09:8d:88:63:5c:e6:f3:7e:02:7d:59:
                    07:c8:77:15:8a:1e:19:eb:e2:c0:89:14:d4:6c:5b:
                    fb:83:d6:d4:63:68:25:8e:1c:99:39:d8:d4:a5:eb:
                    1e:7e:7e:b5:fb:f4:57:0b:71:3b:72:d7:15:ad:42:
                    6d:ec:46:3e:37:55:33:20:7a:96:d4:35:a6:ec:a7:
                    ce:b4:48:db:35:f3:d6:1b:e5
                Exponent: 65537 (0x10001)
    Signature Algorithm: md5WithRSAEncryption
        b3:0a:df:0f:cf:a1:4f:58:1e:0f:62:ed:ff:36:96:0a:0f:95:
        2b:b2:71:60:34:cd:d9:b6:b9:b8:64:d7:9f:68:82:7a:a5:59:
        ac:61:cd:99:8c:94:4c:a6:e4:69:de:6e:ad:f0:6c:a9:22:65:
        93:20:ff:44:7f:5b:4d:f4:3c:eb:d3:58:72:a2:1b:7b:77:f0:
        da:82:14:85:44:e6:2f:b6:a5:29:7a:85:d8:86:14:ff:50:46:
        e5:e0:cd:b9:9a:55:cc:e6:06:c9:2d:aa:fe:27:2a:38:89:85:
        cc:44:6f:0a:d4:91:43:50:ea:18:96:2a:4c:6e:2f:59:88:07:
        eb:38
-----BEGIN CERTIFICATE-----
MIICvDCCAiUCCQCbJ9fo0boJKDANBgkqhkiG9w0BAQQFADCBlTELMAkGA1UEBhMC
REUxETAPBgNVBAgTCFNhYXJsYW5kMRAwDgYDVQQKEwdNUEktU1dTMSIwIAYDVQQL
ExlEaXN0cmlidXRlZCBTeXN0ZW1zIEdyb3VwMRowGAYDVQQDExFBbmRyZWFzIEhh
ZWJlcmxlbjEhMB8GCSqGSIb3DQEJARYSZGVtb2NhQG9jdGFyaW5lLmRlMB4XDTE1
MDQyMDIwNDcxMVoXDTE2MDQxOTIwNDcxMVowga4xCzAJBgNVBAYTAkRFMREwDwYD
VQQIEwhTYWFybGFuZDEQMA4GA1UEChMHTVBJLVNXUzEiMCAGA1UECxMZRGlzdHJp
YnV0ZWQgU3lzdGVtcyBHcm91cDExMC8GA1UEAxMoMGZlMWRmNTlkMjM0MDZjZTZm
YjI3ZjU1NTU1NTc2NTg1MzkzMmZkZjEjMCEGCSqGSIb3DQEJARYUbm9kZTAzMzZA
b2N0YXJpbmUuZGUwgZ8wDQYJKoZIhvcNAQEBBQADgY0AMIGJAoGBAMPVgWBbFUeg
1p6LS5NmWaqN/g3rijGTTUUj5DU7NaGlpASNbM8okS5ZwRnPv9dyOAmNiGNc5vN+
An1ZB8h3FYoeGeviwIkU1Gxb+4PW1GNoJY4cmTnY1KXrHn5+tfv0VwtxO3LXFa1C
bexGPjdVMyB6ltQ1puynzrRI2zXz1hvlAgMBAAEwDQYJKoZIhvcNAQEEBQADgYEA
swrfD8+hT1geD2Lt/zaWCg+VK7JxYDTN2ba5uGTXn2iCeqVZrGHNmYyUTKbkad5u
rfBsqSJlkyD/RH9bTfQ869NYcqIbe3fw2oIUhUTmL7alKXqF2IYU/1BG5eDNuZpV
zOYGyS2q/icqOImFzERvCtSRQ1DqGJYqTG4vWYgH6zg=
-----END CERTIFICATE-----
