Certificate:
    Data:
        Version: 1 (0x0)
        Serial Number:
            9b:27:d7:e8:d1:ba:08:52
        Signature Algorithm: md5WithRSAEncryption
        Issuer: C=DE, ST=Saarland, O=MPI-SWS, OU=Distributed Systems Group, CN=Andreas Haeberlen/emailAddress=democa@octarine.de
        Validity
            Not Before: Apr 20 20:47:02 2015 GMT
            Not After : Apr 19 20:47:02 2016 GMT
        Subject: C=DE, ST=Saarland, O=MPI-SWS, OU=Distributed Systems Group, CN=a373b3e63bac3cb296189115f11a8953cd6805e4/emailAddress=node0122@octarine.de
        Subject Public Key Info:
            Public Key Algorithm: rsaEncryption
            RSA Public Key: (1024 bit)
                Modulus (1024 bit):
                    00:a5:5b:59:9e:95:9b:3d:2b:db:6b:c9:9c:25:ec:
                    31:57:a6:b0:9b:e1:c5:ff:7d:62:a3:e3:7b:3a:c8:
                    74:78:66:e7:ee:5d:fa:e4:e2:07:76:12:e1:d9:83:
                    6e:7e:ea:00:73:d9:fa:9f:a5:ff:83:3d:35:e4:a2:
                    59:5e:64:d7:82:08:26:6b:44:9d:44:8f:76:70:e4:
                    12:07:44:32:85:6a:be:51:12:80:8e:73:ca:4d:e0:
                    66:f5:b6:0b:b5:06:06:56:fc:30:4d:06:16:e8:41:
                    29:21:b5:b6:47:05:3d:c1:0c:b5:bc:fb:5a:b8:0d:
                    08:ed:69:3e:ba:4d:c7:29:79
                Exponent: 65537 (0x10001)
    Signature Algorithm: md5WithRSAEncryption
        4d:d3:1f:7a:69:9d:38:e7:fa:89:f7:a9:78:38:2e:b9:1c:66:
        e4:28:87:bd:7f:cf:5b:77:26:58:90:26:11:a3:b3:e6:69:b9:
        5b:49:54:ff:bf:4b:ee:2a:02:2d:a7:cd:0b:76:02:97:7c:7d:
        d0:63:8d:21:e3:36:11:16:4d:40:a3:a6:a6:42:77:2a:44:d5:
        e0:f7:cd:a3:30:0d:5f:48:b9:35:d9:3b:f6:a8:25:54:3e:de:
        05:e4:f9:8c:fd:c3:d4:13:6d:32:c8:a2:fa:9d:43:6f:15:0d:
        87:8f:4c:44:0f:46:c1:d3:44:20:ed:e9:1e:6c:d0:60:ca:2e:
        c5:ab
-----BEGIN CERTIFICATE-----
MIICvDCCAiUCCQCbJ9fo0boIUjANBgkqhkiG9w0BAQQFADCBlTELMAkGA1UEBhMC
REUxETAPBgNVBAgTCFNhYXJsYW5kMRAwDgYDVQQKEwdNUEktU1dTMSIwIAYDVQQL
ExlEaXN0cmlidXRlZCBTeXN0ZW1zIEdyb3VwMRowGAYDVQQDExFBbmRyZWFzIEhh
ZWJlcmxlbjEhMB8GCSqGSIb3DQEJARYSZGVtb2NhQG9jdGFyaW5lLmRlMB4XDTE1
MDQyMDIwNDcwMloXDTE2MDQxOTIwNDcwMlowga4xCzAJBgNVBAYTAkRFMREwDwYD
VQQIEwhTYWFybGFuZDEQMA4GA1UEChMHTVBJLVNXUzEiMCAGA1UECxMZRGlzdHJp
YnV0ZWQgU3lzdGVtcyBHcm91cDExMC8GA1UEAxMoYTM3M2IzZTYzYmFjM2NiMjk2
MTg5MTE1ZjExYTg5NTNjZDY4MDVlNDEjMCEGCSqGSIb3DQEJARYUbm9kZTAxMjJA
b2N0YXJpbmUuZGUwgZ8wDQYJKoZIhvcNAQEBBQADgY0AMIGJAoGBAKVbWZ6Vmz0r
22vJnCXsMVemsJvhxf99YqPjezrIdHhm5+5d+uTiB3YS4dmDbn7qAHPZ+p+l/4M9
NeSiWV5k14IIJmtEnUSPdnDkEgdEMoVqvlESgI5zyk3gZvW2C7UGBlb8ME0GFuhB
KSG1tkcFPcEMtbz7WrgNCO1pPrpNxyl5AgMBAAEwDQYJKoZIhvcNAQEEBQADgYEA
TdMfemmdOOf6ifepeDguuRxm5CiHvX/PW3cmWJAmEaOz5mm5W0lU/79L7ioCLafN
C3YCl3x90GONIeM2ERZNQKOmpkJ3KkTV4PfNozANX0i5Ndk79qglVD7eBeT5jP3D
1BNtMsii+p1DbxUNh49MRA9GwdNEIO3pHmzQYMouxas=
-----END CERTIFICATE-----
