Certificate:
    Data:
        Version: 1 (0x0)
        Serial Number:
            9b:27:d7:e8:d1:ba:09:56
        Signature Algorithm: md5WithRSAEncryption
        Issuer: C=DE, ST=Saarland, O=MPI-SWS, OU=Distributed Systems Group, CN=Andreas Haeberlen/emailAddress=democa@octarine.de
        Validity
            Not Before: Apr 20 20:47:13 2015 GMT
            Not After : Apr 19 20:47:13 2016 GMT
        Subject: C=DE, ST=Saarland, O=MPI-SWS, OU=Distributed Systems Group, CN=4ebe2ef42bb2475e7dddb26689710bd4993c821a/emailAddress=node0382@octarine.de
        Subject Public Key Info:
            Public Key Algorithm: rsaEncryption
            RSA Public Key: (1024 bit)
                Modulus (1024 bit):
                    00:c7:e9:e1:27:1c:f1:77:95:86:4f:ba:ae:cf:85:
                    7e:93:8d:aa:4f:a1:d9:02:2f:4f:2c:25:47:80:7d:
                    04:35:eb:4e:73:b0:9c:39:95:9a:2f:e0:50:91:40:
                    e4:f2:d4:81:51:5f:33:14:b0:dd:b5:66:99:17:9b:
                    ad:42:39:ed:e0:e0:62:64:82:0a:35:3e:bd:18:c4:
                    cc:a0:15:16:5a:16:1f:72:e9:7e:ab:ba:e7:af:43:
                    f2:74:ac:9a:ee:f5:7f:69:36:b2:8e:bd:8d:4c:fb:
                    47:e3:2d:be:73:39:89:32:e5:dd:0f:bb:e4:14:90:
                    6a:de:0c:32:c8:53:7d:19:6f
                Exponent: 65537 (0x10001)
    Signature Algorithm: md5WithRSAEncryption
        cb:43:91:d1:52:0d:a2:5b:dc:62:21:39:b0:15:cb:b0:86:26:
        c9:8b:dd:f0:d8:8e:da:5c:12:c3:8a:5d:44:29:a5:e4:3f:6e:
        1d:49:f4:09:7d:9f:f2:f1:a1:fe:74:e1:32:b4:4a:0a:90:ff:
        a0:39:75:6c:30:35:50:7e:66:db:32:47:a4:9c:5a:8b:11:e3:
        ef:d6:2d:80:0f:ee:4c:60:d1:3c:6c:79:4a:86:cf:97:82:76:
        67:55:b7:79:52:50:2f:aa:59:d5:b8:ba:ed:ed:83:be:53:32:
        93:c1:51:65:4a:15:35:d0:62:92:94:d3:fd:33:6f:07:c7:bd:
        1c:55
-----BEGIN CERTIFICATE-----
MIICvDCCAiUCCQCbJ9fo0boJVjANBgkqhkiG9w0BAQQFADCBlTELMAkGA1UEBhMC
REUxETAPBgNVBAgTCFNhYXJsYW5kMRAwDgYDVQQKEwdNUEktU1dTMSIwIAYDVQQL
ExlEaXN0cmlidXRlZCBTeXN0ZW1zIEdyb3VwMRowGAYDVQQDExFBbmRyZWFzIEhh
ZWJlcmxlbjEhMB8GCSqGSIb3DQEJARYSZGVtb2NhQG9jdGFyaW5lLmRlMB4XDTE1
MDQyMDIwNDcxM1oXDTE2MDQxOTIwNDcxM1owga4xCzAJBgNVBAYTAkRFMREwDwYD
VQQIEwhTYWFybGFuZDEQMA4GA1UEChMHTVBJLVNXUzEiMCAGA1UECxMZRGlzdHJp
YnV0ZWQgU3lzdGVtcyBHcm91cDExMC8GA1UEAxMoNGViZTJlZjQyYmIyNDc1ZTdk
ZGRiMjY2ODk3MTBiZDQ5OTNjODIxYTEjMCEGCSqGSIb3DQEJARYUbm9kZTAzODJA
b2N0YXJpbmUuZGUwgZ8wDQYJKoZIhvcNAQEBBQADgY0AMIGJAoGBAMfp4Scc8XeV
hk+6rs+FfpONqk+h2QIvTywlR4B9BDXrTnOwnDmVmi/gUJFA5PLUgVFfMxSw3bVm
mRebrUI57eDgYmSCCjU+vRjEzKAVFloWH3Lpfqu6569D8nSsmu71f2k2so69jUz7
R+MtvnM5iTLl3Q+75BSQat4MMshTfRlvAgMBAAEwDQYJKoZIhvcNAQEEBQADgYEA
y0OR0VINolvcYiE5sBXLsIYmyYvd8NiO2lwSw4pdRCml5D9uHUn0CX2f8vGh/nTh
MrRKCpD/oDl1bDA1UH5m2zJHpJxaixHj79YtgA/uTGDRPGx5SobPl4J2Z1W3eVJQ
L6pZ1bi67e2DvlMyk8FRZUoVNdBikpTT/TNvB8e9HFU=
-----END CERTIFICATE-----
