Certificate:
    Data:
        Version: 1 (0x0)
        Serial Number:
            9b:27:d7:e8:d1:ba:0b:a9
        Signature Algorithm: md5WithRSAEncryption
        Issuer: C=DE, ST=Saarland, O=MPI-SWS, OU=Distributed Systems Group, CN=Andreas Haeberlen/emailAddress=democa@octarine.de
        Validity
            Not Before: Apr 20 20:47:40 2015 GMT
            Not After : Apr 19 20:47:40 2016 GMT
        Subject: C=DE, ST=Saarland, O=MPI-SWS, OU=Distributed Systems Group, CN=cdaacbcb8d7aae2d7c0b76ace550e0cbd759315b/emailAddress=node0977@octarine.de
        Subject Public Key Info:
            Public Key Algorithm: rsaEncryption
            RSA Public Key: (1024 bit)
                Modulus (1024 bit):
                    00:d4:12:d0:83:be:17:8f:8d:48:76:34:b5:85:53:
                    4e:98:e2:71:65:9b:2a:f8:c2:72:37:d2:03:cb:a1:
                    70:e6:bf:2a:c2:53:af:87:63:3a:0e:03:35:69:5b:
                    e1:10:18:d7:d8:e8:1c:5a:45:5d:0f:9c:4f:2d:1f:
                    77:34:55:3c:22:3a:d4:5a:a0:b4:b1:6e:73:64:56:
                    7c:7f:9b:49:7b:f1:4d:9d:a1:bb:a4:d8:7b:f5:da:
                    f0:c2:36:19:a0:57:f0:5d:41:02:04:4b:ab:d2:1f:
                    e3:c6:56:e4:22:9c:25:cd:45:65:a2:93:7f:74:c4:
                    be:05:29:d7:39:6a:6b:1c:db
                Exponent: 65537 (0x10001)
    Signature Algorithm: md5WithRSAEncryption
        27:72:45:f0:4f:2c:1c:06:d2:38:3a:d6:2d:e8:c3:db:21:ee:
        08:ac:79:d1:46:50:2d:4f:f5:a8:02:6f:29:0e:23:f6:5e:dd:
        88:ff:eb:22:00:d2:55:d5:9e:3c:fe:8f:a7:62:20:9a:ab:9c:
        2a:4d:c7:e8:d9:36:29:fc:5f:78:b4:00:e0:d3:47:5d:9f:80:
        c2:fc:f9:86:25:ac:d5:f4:c0:ad:6f:ce:4e:02:13:64:26:8a:
        58:4e:46:a8:87:d5:6e:cc:89:8a:9a:46:f9:39:1c:0d:57:7a:
        4c:5d:c4:fc:6a:18:a4:e5:00:19:6d:f7:0d:8f:f6:ae:67:1b:
        ba:90
-----BEGIN CERTIFICATE-----
MIICvDCCAiUCCQCbJ9fo0boLqTANBgkqhkiG9w0BAQQFADCBlTELMAkGA1UEBhMC
REUxETAPBgNVBAgTCFNhYXJsYW5kMRAwDgYDVQQKEwdNUEktU1dTMSIwIAYDVQQL
ExlEaXN0cmlidXRlZCBTeXN0ZW1zIEdyb3VwMRowGAYDVQQDExFBbmRyZWFzIEhh
ZWJlcmxlbjEhMB8GCSqGSIb3DQEJARYSZGVtb2NhQG9jdGFyaW5lLmRlMB4XDTE1
MDQyMDIwNDc0MFoXDTE2MDQxOTIwNDc0MFowga4xCzAJBgNVBAYTAkRFMREwDwYD
VQQIEwhTYWFybGFuZDEQMA4GA1UEChMHTVBJLVNXUzEiMCAGA1UECxMZRGlzdHJp
YnV0ZWQgU3lzdGVtcyBHcm91cDExMC8GA1UEAxMoY2RhYWNiY2I4ZDdhYWUyZDdj
MGI3NmFjZTU1MGUwY2JkNzU5MzE1YjEjMCEGCSqGSIb3DQEJARYUbm9kZTA5NzdA
b2N0YXJpbmUuZGUwgZ8wDQYJKoZIhvcNAQEBBQADgY0AMIGJAoGBANQS0IO+F4+N
SHY0tYVTTpjicWWbKvjCcjfSA8uhcOa/KsJTr4djOg4DNWlb4RAY19joHFpFXQ+c
Ty0fdzRVPCI61FqgtLFuc2RWfH+bSXvxTZ2hu6TYe/Xa8MI2GaBX8F1BAgRLq9If
48ZW5CKcJc1FZaKTf3TEvgUp1zlqaxzbAgMBAAEwDQYJKoZIhvcNAQEEBQADgYEA
J3JF8E8sHAbSODrWLejD2yHuCKx50UZQLU/1qAJvKQ4j9l7diP/rIgDSVdWePP6P
p2IgmqucKk3H6Nk2KfxfeLQA4NNHXZ+Awvz5hiWs1fTArW/OTgITZCaKWE5GqIfV
bsyJippG+TkcDVd6TF3E/GoYpOUAGW33DY/2rmcbupA=
-----END CERTIFICATE-----
