Certificate:
    Data:
        Version: 1 (0x0)
        Serial Number:
            9b:27:d7:e8:d1:ba:08:b3
        Signature Algorithm: md5WithRSAEncryption
        Issuer: C=DE, ST=Saarland, O=MPI-SWS, OU=Distributed Systems Group, CN=Andreas Haeberlen/emailAddress=democa@octarine.de
        Validity
            Not Before: Apr 20 20:47:06 2015 GMT
            Not After : Apr 19 20:47:06 2016 GMT
        Subject: C=DE, ST=Saarland, O=MPI-SWS, OU=Distributed Systems Group, CN=45e4190a47da8639fc0118de92b9557aa5ecef73/emailAddress=node0219@octarine.de
        Subject Public Key Info:
            Public Key Algorithm: rsaEncryption
            RSA Public Key: (1024 bit)
                Modulus (1024 bit):
                    00:ba:78:9e:a8:74:9f:73:74:d6:83:5d:1e:67:b2:
                    4f:04:93:f7:55:74:c3:cb:4f:50:d8:ac:e9:f4:b4:
                    7a:4f:2a:b8:ab:f9:3e:bf:77:12:42:98:57:2b:9e:
                    0b:6e:9f:d9:0b:78:c1:11:0b:ab:fc:4f:a9:29:b4:
                    5c:83:ff:89:d5:91:45:9c:ee:45:c5:15:8a:83:6a:
                    7a:ce:a7:76:c4:05:6c:50:a2:b8:b7:5d:39:c2:d7:
                    19:ba:a7:27:51:19:0f:85:ad:c4:a4:4a:3a:22:f9:
                    ef:09:63:11:07:7b:6d:d2:ec:5e:8f:43:99:ff:4f:
                    e1:81:ec:6b:3d:77:a7:ad:6d
                Exponent: 65537 (0x10001)
    Signature Algorithm: md5WithRSAEncryption
        ab:4b:b7:f8:76:bb:cc:31:bd:f0:07:2e:be:1f:3f:e3:3e:e9:
        94:a5:cc:84:4e:9a:33:5f:e2:dd:dd:65:7d:c1:bd:ef:d4:dd:
        b1:59:91:1e:33:6b:4c:ce:eb:aa:a0:70:99:bd:ee:00:14:20:
        63:cd:4d:bf:e5:b2:d1:21:7a:23:d4:d8:d1:f3:03:e7:cd:10:
        0a:81:fd:d4:24:5b:1b:fd:44:0f:4b:8c:54:86:29:7d:d5:74:
        b1:ae:8c:47:3c:ab:44:b0:77:e7:2a:5a:ad:42:f0:f9:b5:03:
        fb:7c:61:2d:b0:2d:d9:df:dc:56:a5:21:01:0d:cb:49:48:33:
        81:d1
-----BEGIN CERTIFICATE-----
MIICvDCCAiUCCQCbJ9fo0boIszANBgkqhkiG9w0BAQQFADCBlTELMAkGA1UEBhMC
REUxETAPBgNVBAgTCFNhYXJsYW5kMRAwDgYDVQQKEwdNUEktU1dTMSIwIAYDVQQL
ExlEaXN0cmlidXRlZCBTeXN0ZW1zIEdyb3VwMRowGAYDVQQDExFBbmRyZWFzIEhh
ZWJlcmxlbjEhMB8GCSqGSIb3DQEJARYSZGVtb2NhQG9jdGFyaW5lLmRlMB4XDTE1
MDQyMDIwNDcwNloXDTE2MDQxOTIwNDcwNlowga4xCzAJBgNVBAYTAkRFMREwDwYD
VQQIEwhTYWFybGFuZDEQMA4GA1UEChMHTVBJLVNXUzEiMCAGA1UECxMZRGlzdHJp
YnV0ZWQgU3lzdGVtcyBHcm91cDExMC8GA1UEAxMoNDVlNDE5MGE0N2RhODYzOWZj
MDExOGRlOTJiOTU1N2FhNWVjZWY3MzEjMCEGCSqGSIb3DQEJARYUbm9kZTAyMTlA
b2N0YXJpbmUuZGUwgZ8wDQYJKoZIhvcNAQEBBQADgY0AMIGJAoGBALp4nqh0n3N0
1oNdHmeyTwST91V0w8tPUNis6fS0ek8quKv5Pr93EkKYVyueC26f2Qt4wRELq/xP
qSm0XIP/idWRRZzuRcUVioNqes6ndsQFbFCiuLddOcLXGbqnJ1EZD4WtxKRKOiL5
7wljEQd7bdLsXo9Dmf9P4YHsaz13p61tAgMBAAEwDQYJKoZIhvcNAQEEBQADgYEA
q0u3+Ha7zDG98Acuvh8/4z7plKXMhE6aM1/i3d1lfcG979TdsVmRHjNrTM7rqqBw
mb3uABQgY81Nv+Wy0SF6I9TY0fMD580QCoH91CRbG/1ED0uMVIYpfdV0sa6MRzyr
RLB35yparULw+bUD+3xhLbAt2d/cVqUhAQ3LSUgzgdE=
-----END CERTIFICATE-----
