Certificate:
    Data:
        Version: 1 (0x0)
        Serial Number:
            9b:27:d7:e8:d1:ba:09:a4
        Signature Algorithm: md5WithRSAEncryption
        Issuer: C=DE, ST=Saarland, O=MPI-SWS, OU=Distributed Systems Group, CN=Andreas Haeberlen/emailAddress=democa@octarine.de
        Validity
            Not Before: Apr 20 20:47:17 2015 GMT
            Not After : Apr 19 20:47:17 2016 GMT
        Subject: C=DE, ST=Saarland, O=MPI-SWS, OU=Distributed Systems Group, CN=0a15265cce31e0f720cfdb574233880831e68334/emailAddress=node0460@octarine.de
        Subject Public Key Info:
            Public Key Algorithm: rsaEncryption
            RSA Public Key: (1024 bit)
                Modulus (1024 bit):
                    00:d4:47:38:94:64:49:99:ce:ee:b3:8c:82:9d:2f:
                    5d:44:d9:62:64:9f:43:51:c6:97:ca:4d:34:cd:b2:
                    68:b8:54:85:c6:73:ef:cc:99:c1:64:0f:55:b8:07:
                    25:9d:32:2f:cc:c8:2f:bf:f8:e0:0f:f8:0e:d4:cb:
                    a5:30:cd:cb:59:ab:a4:e6:9f:6d:b5:64:54:80:3d:
                    28:1f:7b:4c:47:e1:ee:1a:c7:67:0d:99:2a:f6:d4:
                    da:fa:44:b4:05:e7:e3:b3:fd:05:05:a1:16:c7:a9:
                    30:0d:1a:9d:51:1f:03:12:47:35:72:1a:3e:ff:71:
                    de:44:37:08:02:c3:36:98:0b
                Exponent: 65537 (0x10001)
    Signature Algorithm: md5WithRSAEncryption
        98:34:d6:6f:b1:65:e3:bb:74:48:f0:81:ed:aa:c8:27:96:1a:
        8b:72:67:45:b7:91:44:60:e6:58:8a:de:83:36:28:1b:90:b1:
        c6:b0:53:32:de:ed:60:fe:a1:f5:f4:a0:f4:28:34:ef:8b:85:
        4d:94:0b:33:6e:27:45:76:ea:71:8f:ee:7b:26:d9:4b:10:66:
        f6:cc:76:a9:1c:83:0f:59:23:c6:46:1e:c0:11:b9:02:e5:c8:
        b8:ff:50:a2:e6:02:25:c8:71:56:fd:52:d7:ae:5c:f1:57:72:
        3c:f5:92:0e:b8:38:d0:62:2f:16:13:ec:e5:d8:fb:8b:dc:0d:
        52:30
-----BEGIN CERTIFICATE-----
MIICvDCCAiUCCQCbJ9fo0boJpDANBgkqhkiG9w0BAQQFADCBlTELMAkGA1UEBhMC
REUxETAPBgNVBAgTCFNhYXJsYW5kMRAwDgYDVQQKEwdNUEktU1dTMSIwIAYDVQQL
ExlEaXN0cmlidXRlZCBTeXN0ZW1zIEdyb3VwMRowGAYDVQQDExFBbmRyZWFzIEhh
ZWJlcmxlbjEhMB8GCSqGSIb3DQEJARYSZGVtb2NhQG9jdGFyaW5lLmRlMB4XDTE1
MDQyMDIwNDcxN1oXDTE2MDQxOTIwNDcxN1owga4xCzAJBgNVBAYTAkRFMREwDwYD
VQQIEwhTYWFybGFuZDEQMA4GA1UEChMHTVBJLVNXUzEiMCAGA1UECxMZRGlzdHJp
YnV0ZWQgU3lzdGVtcyBHcm91cDExMC8GA1UEAxMoMGExNTI2NWNjZTMxZTBmNzIw
Y2ZkYjU3NDIzMzg4MDgzMWU2ODMzNDEjMCEGCSqGSIb3DQEJARYUbm9kZTA0NjBA
b2N0YXJpbmUuZGUwgZ8wDQYJKoZIhvcNAQEBBQADgY0AMIGJAoGBANRHOJRkSZnO
7rOMgp0vXUTZYmSfQ1HGl8pNNM2yaLhUhcZz78yZwWQPVbgHJZ0yL8zIL7/44A/4
DtTLpTDNy1mrpOafbbVkVIA9KB97TEfh7hrHZw2ZKvbU2vpEtAXn47P9BQWhFsep
MA0anVEfAxJHNXIaPv9x3kQ3CALDNpgLAgMBAAEwDQYJKoZIhvcNAQEEBQADgYEA
mDTWb7Fl47t0SPCB7arIJ5Yai3JnRbeRRGDmWIregzYoG5CxxrBTMt7tYP6h9fSg
9Cg074uFTZQLM24nRXbqcY/ueybZSxBm9sx2qRyDD1kjxkYewBG5AuXIuP9QouYC
JchxVv1S165c8VdyPPWSDrg40GIvFhPs5dj7i9wNUjA=
-----END CERTIFICATE-----
