Certificate:
    Data:
        Version: 1 (0x0)
        Serial Number:
            9b:27:d7:e8:d1:ba:08:4b
        Signature Algorithm: md5WithRSAEncryption
        Issuer: C=DE, ST=Saarland, O=MPI-SWS, OU=Distributed Systems Group, CN=Andreas Haeberlen/emailAddress=democa@octarine.de
        Validity
            Not Before: Apr 20 20:47:02 2015 GMT
            Not After : Apr 19 20:47:02 2016 GMT
        Subject: C=DE, ST=Saarland, O=MPI-SWS, OU=Distributed Systems Group, CN=7245032438169738e3dc5015e4f484cf604746c7/emailAddress=node0115@octarine.de
        Subject Public Key Info:
            Public Key Algorithm: rsaEncryption
            RSA Public Key: (1024 bit)
                Modulus (1024 bit):
                    00:c4:db:d6:15:18:dd:a2:2a:17:5e:ac:d5:05:d7:
                    14:c6:ac:4b:76:97:d9:d4:90:87:a2:22:47:57:54:
                    d7:1b:3b:74:e0:00:d2:b7:d7:bc:0b:f6:e5:37:42:
                    d7:63:c3:1f:3a:82:fa:46:10:a2:13:17:07:4f:f1:
                    f8:29:93:d1:eb:7c:4a:af:e9:9f:af:9b:57:47:d5:
                    0b:df:38:94:6b:18:98:82:2f:fa:6f:64:81:57:ca:
                    2a:6a:57:58:95:d2:b7:27:1a:b1:c4:89:ae:74:d0:
                    6e:13:87:ea:9a:76:4a:61:96:65:e2:da:2b:63:57:
                    9b:3c:42:e0:b2:8e:d7:ee:2f
                Exponent: 65537 (0x10001)
    Signature Algorithm: md5WithRSAEncryption
        75:f9:f8:11:0b:20:cd:7e:08:0e:80:86:28:cb:6b:08:8c:25:
        24:11:0e:4e:ca:98:2b:42:b9:f6:0f:59:4c:b6:0e:ed:5b:bc:
        9c:ad:06:f5:57:f9:e5:58:19:ab:41:1e:16:ed:36:8a:2c:2a:
        39:99:84:5a:92:13:61:f9:2e:d2:51:25:09:63:a8:43:47:1e:
        a9:e9:4e:61:c2:59:99:5f:64:63:57:57:e4:e8:dd:06:03:f7:
        09:4c:6d:16:e5:b1:e9:51:bf:6e:72:07:32:ff:5e:a2:ca:e2:
        d6:df:08:bc:2e:e4:78:02:8d:f9:0c:b7:1d:73:7b:98:8b:84:
        a2:a9
-----BEGIN CERTIFICATE-----
MIICvDCCAiUCCQCbJ9fo0boISzANBgkqhkiG9w0BAQQFADCBlTELMAkGA1UEBhMC
REUxETAPBgNVBAgTCFNhYXJsYW5kMRAwDgYDVQQKEwdNUEktU1dTMSIwIAYDVQQL
ExlEaXN0cmlidXRlZCBTeXN0ZW1zIEdyb3VwMRowGAYDVQQDExFBbmRyZWFzIEhh
ZWJlcmxlbjEhMB8GCSqGSIb3DQEJARYSZGVtb2NhQG9jdGFyaW5lLmRlMB4XDTE1
MDQyMDIwNDcwMloXDTE2MDQxOTIwNDcwMlowga4xCzAJBgNVBAYTAkRFMREwDwYD
VQQIEwhTYWFybGFuZDEQMA4GA1UEChMHTVBJLVNXUzEiMCAGA1UECxMZRGlzdHJp
YnV0ZWQgU3lzdGVtcyBHcm91cDExMC8GA1UEAxMoNzI0NTAzMjQzODE2OTczOGUz
ZGM1MDE1ZTRmNDg0Y2Y2MDQ3NDZjNzEjMCEGCSqGSIb3DQEJARYUbm9kZTAxMTVA
b2N0YXJpbmUuZGUwgZ8wDQYJKoZIhvcNAQEBBQADgY0AMIGJAoGBAMTb1hUY3aIq
F16s1QXXFMasS3aX2dSQh6IiR1dU1xs7dOAA0rfXvAv25TdC12PDHzqC+kYQohMX
B0/x+CmT0et8Sq/pn6+bV0fVC984lGsYmIIv+m9kgVfKKmpXWJXStycascSJrnTQ
bhOH6pp2SmGWZeLaK2NXmzxC4LKO1+4vAgMBAAEwDQYJKoZIhvcNAQEEBQADgYEA
dfn4EQsgzX4IDoCGKMtrCIwlJBEOTsqYK0K59g9ZTLYO7Vu8nK0G9Vf55VgZq0Ee
Fu02iiwqOZmEWpITYfku0lElCWOoQ0ceqelOYcJZmV9kY1dX5OjdBgP3CUxtFuWx
6VG/bnIHMv9eosri1t8IvC7keAKN+Qy3HXN7mIuEoqk=
-----END CERTIFICATE-----
