Certificate:
    Data:
        Version: 1 (0x0)
        Serial Number:
            9b:27:d7:e8:d1:ba:08:96
        Signature Algorithm: md5WithRSAEncryption
        Issuer: C=DE, ST=Saarland, O=MPI-SWS, OU=Distributed Systems Group, CN=Andreas Haeberlen/emailAddress=democa@octarine.de
        Validity
            Not Before: Apr 20 20:47:05 2015 GMT
            Not After : Apr 19 20:47:05 2016 GMT
        Subject: C=DE, ST=Saarland, O=MPI-SWS, OU=Distributed Systems Group, CN=39f96231d97202978412703fc869ed4274bd6fe3/emailAddress=node0190@octarine.de
        Subject Public Key Info:
            Public Key Algorithm: rsaEncryption
            RSA Public Key: (1024 bit)
                Modulus (1024 bit):
                    00:bf:37:d6:bc:b7:0d:2c:20:7f:4b:12:0f:a2:e3:
                    74:37:7e:9e:a6:37:52:53:55:10:bf:55:97:24:23:
                    f3:b9:35:66:d0:c6:29:63:b1:4f:1a:8b:2e:f5:7c:
                    a0:6b:41:86:a0:86:30:38:80:6d:9b:c1:f5:68:85:
                    9b:3e:76:f7:7a:75:98:49:f5:f2:69:c8:89:13:c4:
                    24:0a:47:16:33:5b:46:ae:8d:7f:01:e5:a1:de:a1:
                    fa:03:8a:45:3b:45:4b:94:72:34:5d:0c:52:36:5f:
                    28:e6:97:92:f5:1c:59:ce:c1:6a:1d:30:a6:b7:d9:
                    ab:3b:0e:8e:52:c7:e7:3e:b3
                Exponent: 65537 (0x10001)
    Signature Algorithm: md5WithRSAEncryption
        90:b8:19:b8:75:55:0e:9e:e7:90:37:bc:1f:2f:81:70:d7:4a:
        2a:dd:b0:40:b2:93:12:76:23:79:87:46:f9:78:0b:7d:dd:95:
        6b:52:87:0b:0f:5c:f7:bf:3c:38:75:35:a4:c9:e6:15:17:9f:
        49:0f:aa:58:6c:41:da:41:ee:79:53:a0:2a:24:ac:ec:b8:77:
        0b:ab:82:14:21:cc:20:a5:b2:16:d9:d5:44:ec:5d:33:bc:c9:
        fb:b7:4f:6f:d5:2d:15:50:b3:16:0c:95:da:69:66:1e:d2:2d:
        30:dc:f7:27:0b:a0:d5:b9:06:c5:a7:f6:f2:32:e5:b4:2e:4d:
        21:d3
-----BEGIN CERTIFICATE-----
MIICvDCCAiUCCQCbJ9fo0boIljANBgkqhkiG9w0BAQQFADCBlTELMAkGA1UEBhMC
REUxETAPBgNVBAgTCFNhYXJsYW5kMRAwDgYDVQQKEwdNUEktU1dTMSIwIAYDVQQL
ExlEaXN0cmlidXRlZCBTeXN0ZW1zIEdyb3VwMRowGAYDVQQDExFBbmRyZWFzIEhh
ZWJlcmxlbjEhMB8GCSqGSIb3DQEJARYSZGVtb2NhQG9jdGFyaW5lLmRlMB4XDTE1
MDQyMDIwNDcwNVoXDTE2MDQxOTIwNDcwNVowga4xCzAJBgNVBAYTAkRFMREwDwYD
VQQIEwhTYWFybGFuZDEQMA4GA1UEChMHTVBJLVNXUzEiMCAGA1UECxMZRGlzdHJp
YnV0ZWQgU3lzdGVtcyBHcm91cDExMC8GA1UEAxMoMzlmOTYyMzFkOTcyMDI5Nzg0
MTI3MDNmYzg2OWVkNDI3NGJkNmZlMzEjMCEGCSqGSIb3DQEJARYUbm9kZTAxOTBA
b2N0YXJpbmUuZGUwgZ8wDQYJKoZIhvcNAQEBBQADgY0AMIGJAoGBAL831ry3DSwg
f0sSD6LjdDd+nqY3UlNVEL9VlyQj87k1ZtDGKWOxTxqLLvV8oGtBhqCGMDiAbZvB
9WiFmz5293p1mEn18mnIiRPEJApHFjNbRq6NfwHlod6h+gOKRTtFS5RyNF0MUjZf
KOaXkvUcWc7Bah0wprfZqzsOjlLH5z6zAgMBAAEwDQYJKoZIhvcNAQEEBQADgYEA
kLgZuHVVDp7nkDe8Hy+BcNdKKt2wQLKTEnYjeYdG+XgLfd2Va1KHCw9c9788OHU1
pMnmFRefSQ+qWGxB2kHueVOgKiSs7Lh3C6uCFCHMIKWyFtnVROxdM7zJ+7dPb9Ut
FVCzFgyV2mlmHtItMNz3Jwug1bkGxaf28jLltC5NIdM=
-----END CERTIFICATE-----
