Certificate:
    Data:
        Version: 1 (0x0)
        Serial Number:
            9b:27:d7:e8:d1:ba:08:2e
        Signature Algorithm: md5WithRSAEncryption
        Issuer: C=DE, ST=Saarland, O=MPI-SWS, OU=Distributed Systems Group, CN=Andreas Haeberlen/emailAddress=democa@octarine.de
        Validity
            Not Before: Apr 20 20:47:00 2015 GMT
            Not After : Apr 19 20:47:00 2016 GMT
        Subject: C=DE, ST=Saarland, O=MPI-SWS, OU=Distributed Systems Group, CN=35179c3b7e404740575bc666f1263bf711ead255/emailAddress=node0086@octarine.de
        Subject Public Key Info:
            Public Key Algorithm: rsaEncryption
            RSA Public Key: (1024 bit)
                Modulus (1024 bit):
                    00:c6:65:77:d6:3a:4a:e4:75:98:f7:62:81:44:64:
                    7d:ae:83:bd:8b:f0:b2:fe:df:62:28:91:cb:b1:ae:
                    0c:35:1b:af:23:46:ff:6e:c3:72:6b:36:12:e6:ae:
                    12:6e:32:c3:1b:50:63:89:f7:4f:ee:a1:56:79:3f:
                    fe:28:79:0d:17:b4:02:52:da:ae:d8:95:99:e7:11:
                    4c:f4:24:d6:ad:a2:06:f7:97:83:b9:03:b6:cf:f4:
                    7b:7f:a7:df:cd:a5:fc:04:46:c9:a4:29:ca:4a:b4:
                    da:53:ff:fe:5d:ac:d7:40:0e:4e:27:c3:16:67:ea:
                    04:25:f8:1f:0a:70:21:88:89
                Exponent: 65537 (0x10001)
    Signature Algorithm: md5WithRSAEncryption
        53:78:13:bf:8d:99:1e:b9:61:56:95:06:d0:63:e2:6d:47:00:
        f3:bd:94:d6:6e:a8:81:0c:85:2b:54:04:a9:29:e1:dc:a0:1d:
        65:ef:64:69:b7:07:61:c4:3e:e1:8d:20:b1:43:c8:3f:9d:27:
        0d:e1:08:03:c2:09:aa:9d:b8:a6:2f:a2:50:1c:fc:d5:99:2d:
        0b:89:04:9d:66:0a:06:a4:47:dc:e9:69:9c:68:3b:6c:c2:20:
        54:ad:4a:2f:ed:54:09:c1:d6:dd:ad:32:cd:bc:e1:70:55:5d:
        f4:a7:4f:03:d9:9a:e2:ac:01:d3:f6:44:4c:7a:bd:31:65:b3:
        84:27
-----BEGIN CERTIFICATE-----
MIICvDCCAiUCCQCbJ9fo0boILjANBgkqhkiG9w0BAQQFADCBlTELMAkGA1UEBhMC
REUxETAPBgNVBAgTCFNhYXJsYW5kMRAwDgYDVQQKEwdNUEktU1dTMSIwIAYDVQQL
ExlEaXN0cmlidXRlZCBTeXN0ZW1zIEdyb3VwMRowGAYDVQQDExFBbmRyZWFzIEhh
ZWJlcmxlbjEhMB8GCSqGSIb3DQEJARYSZGVtb2NhQG9jdGFyaW5lLmRlMB4XDTE1
MDQyMDIwNDcwMFoXDTE2MDQxOTIwNDcwMFowga4xCzAJBgNVBAYTAkRFMREwDwYD
VQQIEwhTYWFybGFuZDEQMA4GA1UEChMHTVBJLVNXUzEiMCAGA1UECxMZRGlzdHJp
YnV0ZWQgU3lzdGVtcyBHcm91cDExMC8GA1UEAxMoMzUxNzljM2I3ZTQwNDc0MDU3
NWJjNjY2ZjEyNjNiZjcxMWVhZDI1NTEjMCEGCSqGSIb3DQEJARYUbm9kZTAwODZA
b2N0YXJpbmUuZGUwgZ8wDQYJKoZIhvcNAQEBBQADgY0AMIGJAoGBAMZld9Y6SuR1
mPdigURkfa6DvYvwsv7fYiiRy7GuDDUbryNG/27Dcms2EuauEm4ywxtQY4n3T+6h
Vnk//ih5DRe0AlLartiVmecRTPQk1q2iBveXg7kDts/0e3+n382l/ARGyaQpykq0
2lP//l2s10AOTifDFmfqBCX4HwpwIYiJAgMBAAEwDQYJKoZIhvcNAQEEBQADgYEA
U3gTv42ZHrlhVpUG0GPibUcA872U1m6ogQyFK1QEqSnh3KAdZe9kabcHYcQ+4Y0g
sUPIP50nDeEIA8IJqp24pi+iUBz81ZktC4kEnWYKBqRH3OlpnGg7bMIgVK1KL+1U
CcHW3a0yzbzhcFVd9KdPA9ma4qwB0/ZETHq9MWWzhCc=
-----END CERTIFICATE-----
