Certificate:
    Data:
        Version: 1 (0x0)
        Serial Number:
            9b:27:d7:e8:d1:ba:0b:28
        Signature Algorithm: md5WithRSAEncryption
        Issuer: C=DE, ST=Saarland, O=MPI-SWS, OU=Distributed Systems Group, CN=Andreas Haeberlen/emailAddress=democa@octarine.de
        Validity
            Not Before: Apr 20 20:47:34 2015 GMT
            Not After : Apr 19 20:47:34 2016 GMT
        Subject: C=DE, ST=Saarland, O=MPI-SWS, OU=Distributed Systems Group, CN=7abc5d512c18b7e633e27a279487c87422080693/emailAddress=node0848@octarine.de
        Subject Public Key Info:
            Public Key Algorithm: rsaEncryption
            RSA Public Key: (1024 bit)
                Modulus (1024 bit):
                    00:bf:c0:53:4c:dc:ec:02:2d:eb:ec:74:1f:f1:03:
                    0e:d6:43:c1:f2:99:e4:68:57:6e:8e:52:c1:5f:49:
                    63:02:51:98:66:d9:43:77:ae:42:d0:5d:50:35:d2:
                    e1:31:fa:3a:29:dc:a6:3e:69:9d:55:d5:fa:fd:ea:
                    7f:dc:ed:94:89:84:d6:54:43:c8:12:0b:f2:41:36:
                    a5:b4:72:d5:13:4e:0c:ff:12:e2:60:eb:42:63:e8:
                    d1:09:09:8d:71:c8:52:f6:a9:30:3c:3b:ee:38:5f:
                    51:07:43:92:a0:ac:db:5d:94:d8:ff:2f:30:21:c0:
                    de:13:05:d7:64:d9:82:3b:77
                Exponent: 65537 (0x10001)
    Signature Algorithm: md5WithRSAEncryption
        42:a4:1c:10:ce:be:c4:ab:73:6b:d6:d5:a3:a8:c2:dc:9f:44:
        be:a6:15:a1:01:68:0a:e4:a8:c9:47:bb:52:98:77:5d:65:f0:
        f1:03:43:61:3a:fd:43:e7:9f:4a:9e:78:7e:90:39:d2:25:b3:
        da:1b:10:da:67:79:56:de:d8:02:17:bd:b8:14:8b:b8:89:27:
        79:a8:1d:ce:2c:21:7a:2a:5f:0a:a4:46:7a:9a:56:af:1e:b7:
        c4:35:e4:3c:53:6d:fa:68:fd:66:01:aa:ff:35:8d:20:3b:80:
        c0:91:51:17:80:53:dd:87:12:45:0f:28:45:25:54:1a:65:7b:
        1b:ae
-----BEGIN CERTIFICATE-----
MIICvDCCAiUCCQCbJ9fo0boLKDANBgkqhkiG9w0BAQQFADCBlTELMAkGA1UEBhMC
REUxETAPBgNVBAgTCFNhYXJsYW5kMRAwDgYDVQQKEwdNUEktU1dTMSIwIAYDVQQL
ExlEaXN0cmlidXRlZCBTeXN0ZW1zIEdyb3VwMRowGAYDVQQDExFBbmRyZWFzIEhh
ZWJlcmxlbjEhMB8GCSqGSIb3DQEJARYSZGVtb2NhQG9jdGFyaW5lLmRlMB4XDTE1
MDQyMDIwNDczNFoXDTE2MDQxOTIwNDczNFowga4xCzAJBgNVBAYTAkRFMREwDwYD
VQQIEwhTYWFybGFuZDEQMA4GA1UEChMHTVBJLVNXUzEiMCAGA1UECxMZRGlzdHJp
YnV0ZWQgU3lzdGVtcyBHcm91cDExMC8GA1UEAxMoN2FiYzVkNTEyYzE4YjdlNjMz
ZTI3YTI3OTQ4N2M4NzQyMjA4MDY5MzEjMCEGCSqGSIb3DQEJARYUbm9kZTA4NDhA
b2N0YXJpbmUuZGUwgZ8wDQYJKoZIhvcNAQEBBQADgY0AMIGJAoGBAL/AU0zc7AIt
6+x0H/EDDtZDwfKZ5GhXbo5SwV9JYwJRmGbZQ3euQtBdUDXS4TH6Oincpj5pnVXV
+v3qf9ztlImE1lRDyBIL8kE2pbRy1RNODP8S4mDrQmPo0QkJjXHIUvapMDw77jhf
UQdDkqCs212U2P8vMCHA3hMF12TZgjt3AgMBAAEwDQYJKoZIhvcNAQEEBQADgYEA
QqQcEM6+xKtza9bVo6jC3J9EvqYVoQFoCuSoyUe7Uph3XWXw8QNDYTr9Q+efSp54
fpA50iWz2hsQ2md5Vt7YAhe9uBSLuIkneagdziwheipfCqRGeppWrx63xDXkPFNt
+mj9ZgGq/zWNIDuAwJFRF4BT3YcSRQ8oRSVUGmV7G64=
-----END CERTIFICATE-----
