Certificate:
    Data:
        Version: 1 (0x0)
        Serial Number:
            9b:27:d7:e8:d1:ba:09:71
        Signature Algorithm: md5WithRSAEncryption
        Issuer: C=DE, ST=Saarland, O=MPI-SWS, OU=Distributed Systems Group, CN=Andreas Haeberlen/emailAddress=democa@octarine.de
        Validity
            Not Before: Apr 20 20:47:14 2015 GMT
            Not After : Apr 19 20:47:14 2016 GMT
        Subject: C=DE, ST=Saarland, O=MPI-SWS, OU=Distributed Systems Group, CN=dec7238854e78560ae4b2c6d2a487e74c4ce747c/emailAddress=node0409@octarine.de
        Subject Public Key Info:
            Public Key Algorithm: rsaEncryption
            RSA Public Key: (1024 bit)
                Modulus (1024 bit):
                    00:d5:8f:bc:8d:49:22:e0:41:4d:31:45:3c:df:6e:
                    b9:33:6b:43:71:ef:6a:57:28:5e:83:d5:e0:3d:4b:
                    72:bc:a2:05:4c:c6:17:1c:36:d4:4b:6f:b8:2b:3c:
                    01:bf:be:88:58:6d:b8:1a:e4:fa:e1:93:2a:3e:55:
                    a7:7a:b7:7a:5a:df:3d:05:50:69:80:f7:f9:25:f0:
                    28:af:0e:12:4b:f4:6b:df:d4:1e:09:b3:50:50:94:
                    1a:38:dd:ad:59:6c:f7:4a:c6:22:82:c0:84:83:34:
                    b8:92:ab:5d:06:2b:a0:90:d5:58:7d:65:00:57:c3:
                    ed:24:f9:9c:81:ea:30:93:55
                Exponent: 65537 (0x10001)
    Signature Algorithm: md5WithRSAEncryption
        76:02:5e:4b:29:c0:d6:0a:a2:ed:c7:65:f3:46:c8:df:26:71:
        c4:52:1b:01:12:ca:9b:bc:4d:b0:1e:53:68:ca:73:1a:18:2f:
        02:4e:ec:67:2c:e0:01:05:60:43:fe:22:ae:8e:bf:a1:25:06:
        ea:7c:01:4f:8b:90:2c:af:96:f2:33:df:90:45:10:0d:b6:79:
        87:f3:6b:4d:66:b9:1e:ba:af:d1:61:37:79:ac:fd:40:d4:77:
        b5:47:bc:ba:97:0c:05:99:b5:69:1d:9e:49:1e:7b:a2:9e:3f:
        b1:ae:70:ec:c4:39:9f:51:b6:c2:fe:90:8f:ee:f5:4d:d6:31:
        03:5c
-----BEGIN CERTIFICATE-----
MIICvDCCAiUCCQCbJ9fo0boJcTANBgkqhkiG9w0BAQQFADCBlTELMAkGA1UEBhMC
REUxETAPBgNVBAgTCFNhYXJsYW5kMRAwDgYDVQQKEwdNUEktU1dTMSIwIAYDVQQL
ExlEaXN0cmlidXRlZCBTeXN0ZW1zIEdyb3VwMRowGAYDVQQDExFBbmRyZWFzIEhh
ZWJlcmxlbjEhMB8GCSqGSIb3DQEJARYSZGVtb2NhQG9jdGFyaW5lLmRlMB4XDTE1
MDQyMDIwNDcxNFoXDTE2MDQxOTIwNDcxNFowga4xCzAJBgNVBAYTAkRFMREwDwYD
VQQIEwhTYWFybGFuZDEQMA4GA1UEChMHTVBJLVNXUzEiMCAGA1UECxMZRGlzdHJp
YnV0ZWQgU3lzdGVtcyBHcm91cDExMC8GA1UEAxMoZGVjNzIzODg1NGU3ODU2MGFl
NGIyYzZkMmE0ODdlNzRjNGNlNzQ3YzEjMCEGCSqGSIb3DQEJARYUbm9kZTA0MDlA
b2N0YXJpbmUuZGUwgZ8wDQYJKoZIhvcNAQEBBQADgY0AMIGJAoGBANWPvI1JIuBB
TTFFPN9uuTNrQ3HvalcoXoPV4D1LcryiBUzGFxw21EtvuCs8Ab++iFhtuBrk+uGT
Kj5Vp3q3elrfPQVQaYD3+SXwKK8OEkv0a9/UHgmzUFCUGjjdrVls90rGIoLAhIM0
uJKrXQYroJDVWH1lAFfD7ST5nIHqMJNVAgMBAAEwDQYJKoZIhvcNAQEEBQADgYEA
dgJeSynA1gqi7cdl80bI3yZxxFIbARLKm7xNsB5TaMpzGhgvAk7sZyzgAQVgQ/4i
ro6/oSUG6nwBT4uQLK+W8jPfkEUQDbZ5h/NrTWa5Hrqv0WE3eaz9QNR3tUe8upcM
BZm1aR2eSR57op4/sa5w7MQ5n1G2wv6Qj+71TdYxA1w=
-----END CERTIFICATE-----
