Certificate:
    Data:
        Version: 1 (0x0)
        Serial Number:
            9b:27:d7:e8:d1:ba:0b:24
        Signature Algorithm: md5WithRSAEncryption
        Issuer: C=DE, ST=Saarland, O=MPI-SWS, OU=Distributed Systems Group, CN=Andreas Haeberlen/emailAddress=democa@octarine.de
        Validity
            Not Before: Apr 20 20:47:34 2015 GMT
            Not After : Apr 19 20:47:34 2016 GMT
        Subject: C=DE, ST=Saarland, O=MPI-SWS, OU=Distributed Systems Group, CN=1aa6823a532d324749cf7fc0f4f29b4b6f1e1486/emailAddress=node0844@octarine.de
        Subject Public Key Info:
            Public Key Algorithm: rsaEncryption
            RSA Public Key: (1024 bit)
                Modulus (1024 bit):
                    00:d1:7b:d1:6c:2a:35:d7:90:08:62:dc:b1:30:c8:
                    c0:be:14:0c:2c:16:e7:24:2c:64:77:db:5f:ca:f1:
                    c4:f8:fd:5b:30:0f:12:9c:73:a9:65:84:ef:0a:d2:
                    67:44:94:47:53:a9:94:1f:0a:e5:2b:59:70:4e:a9:
                    82:41:c2:00:e3:08:42:ce:3f:6b:ef:30:5c:3f:c9:
                    0a:6a:02:42:cc:7c:51:ba:21:f7:95:3b:39:eb:76:
                    cc:b0:74:6b:54:5c:e8:3f:1a:2e:09:76:4e:b3:86:
                    e6:51:1f:94:44:25:cf:f9:78:5f:f6:df:4b:bd:2e:
                    de:ea:e7:eb:03:4e:6b:99:73
                Exponent: 65537 (0x10001)
    Signature Algorithm: md5WithRSAEncryption
        91:e1:ac:7f:6a:79:6f:e7:27:d8:79:9c:dd:00:e9:54:8c:c1:
        1f:38:c5:fc:d4:3d:64:1f:66:51:85:6d:f7:50:bc:2b:60:2a:
        7e:26:9a:4a:b5:f0:8e:5f:9a:23:54:eb:e3:b9:af:90:c6:ed:
        e0:16:9b:fd:26:1a:99:54:c9:57:e5:06:1a:12:96:18:3a:46:
        71:d2:6b:72:a0:8d:0d:8e:ad:a5:4a:fd:3f:1c:6a:2e:4d:35:
        aa:12:a1:3b:93:07:8a:1f:cf:bb:9c:e8:12:1f:ff:e1:e6:7e:
        7c:17:ab:68:64:fc:d7:d0:c8:0e:5f:e8:b3:25:2d:de:02:98:
        ea:33
-----BEGIN CERTIFICATE-----
MIICvDCCAiUCCQCbJ9fo0boLJDANBgkqhkiG9w0BAQQFADCBlTELMAkGA1UEBhMC
REUxETAPBgNVBAgTCFNhYXJsYW5kMRAwDgYDVQQKEwdNUEktU1dTMSIwIAYDVQQL
ExlEaXN0cmlidXRlZCBTeXN0ZW1zIEdyb3VwMRowGAYDVQQDExFBbmRyZWFzIEhh
ZWJlcmxlbjEhMB8GCSqGSIb3DQEJARYSZGVtb2NhQG9jdGFyaW5lLmRlMB4XDTE1
MDQyMDIwNDczNFoXDTE2MDQxOTIwNDczNFowga4xCzAJBgNVBAYTAkRFMREwDwYD
VQQIEwhTYWFybGFuZDEQMA4GA1UEChMHTVBJLVNXUzEiMCAGA1UECxMZRGlzdHJp
YnV0ZWQgU3lzdGVtcyBHcm91cDExMC8GA1UEAxMoMWFhNjgyM2E1MzJkMzI0NzQ5
Y2Y3ZmMwZjRmMjliNGI2ZjFlMTQ4NjEjMCEGCSqGSIb3DQEJARYUbm9kZTA4NDRA
b2N0YXJpbmUuZGUwgZ8wDQYJKoZIhvcNAQEBBQADgY0AMIGJAoGBANF70WwqNdeQ
CGLcsTDIwL4UDCwW5yQsZHfbX8rxxPj9WzAPEpxzqWWE7wrSZ0SUR1OplB8K5StZ
cE6pgkHCAOMIQs4/a+8wXD/JCmoCQsx8Uboh95U7Oet2zLB0a1Rc6D8aLgl2TrOG
5lEflEQlz/l4X/bfS70u3urn6wNOa5lzAgMBAAEwDQYJKoZIhvcNAQEEBQADgYEA
keGsf2p5b+cn2Hmc3QDpVIzBHzjF/NQ9ZB9mUYVt91C8K2AqfiaaSrXwjl+aI1Tr
47mvkMbt4Bab/SYamVTJV+UGGhKWGDpGcdJrcqCNDY6tpUr9PxxqLk01qhKhO5MH
ih/Pu5zoEh//4eZ+fBeraGT819DIDl/osyUt3gKY6jM=
-----END CERTIFICATE-----
