Certificate:
    Data:
        Version: 1 (0x0)
        Serial Number:
            9b:27:d7:e8:d1:ba:0a:f8
        Signature Algorithm: md5WithRSAEncryption
        Issuer: C=DE, ST=Saarland, O=MPI-SWS, OU=Distributed Systems Group, CN=Andreas Haeberlen/emailAddress=democa@octarine.de
        Validity
            Not Before: Apr 20 20:47:32 2015 GMT
            Not After : Apr 19 20:47:32 2016 GMT
        Subject: C=DE, ST=Saarland, O=MPI-SWS, OU=Distributed Systems Group, CN=86b3e161e45248f6b98b35e02a3701b886c67285/emailAddress=node0800@octarine.de
        Subject Public Key Info:
            Public Key Algorithm: rsaEncryption
            RSA Public Key: (1024 bit)
                Modulus (1024 bit):
                    00:bb:ff:ac:99:43:29:52:5e:b1:7a:35:2b:91:f5:
                    e1:1f:ac:1b:47:9f:2f:b1:44:58:cf:fa:f3:a3:89:
                    96:27:eb:45:16:8b:1a:fe:46:b0:25:81:cd:7f:60:
                    bf:40:08:5c:f7:aa:9d:bc:bc:e5:39:c1:e6:a2:4f:
                    95:f4:ec:61:27:6d:85:7c:e4:d4:0c:f6:7a:a7:55:
                    23:d0:4d:2b:c2:69:42:ef:5d:66:41:ba:39:e8:f6:
                    46:ac:1b:b6:9d:8d:0d:14:ca:8d:76:ce:b7:6f:83:
                    4e:10:3a:58:71:6e:94:99:6e:52:d7:fe:e2:71:48:
                    0a:82:96:db:04:bb:c9:01:63
                Exponent: 65537 (0x10001)
    Signature Algorithm: md5WithRSAEncryption
        b9:77:f3:c3:b1:03:a9:b6:00:c0:1e:64:2e:ea:f1:78:78:c3:
        c1:22:e3:08:df:02:0e:31:1c:16:d2:74:e9:c7:85:78:4a:bc:
        ca:ea:9a:3b:e3:d0:3e:7e:e1:4b:b4:d5:4b:a9:15:7f:7b:19:
        a6:13:c7:93:1b:77:dd:00:ce:9e:7f:77:13:0f:c9:1d:95:ee:
        12:7e:4a:08:1c:0e:85:8b:24:f4:7b:46:3b:74:8f:7a:36:48:
        05:ed:20:27:17:5c:c3:b6:94:d5:0a:73:22:19:e2:fb:a3:23:
        45:21:40:48:d5:d7:d6:75:b9:30:b0:f2:8f:a5:cc:ed:88:7b:
        25:37
-----BEGIN CERTIFICATE-----
MIICvDCCAiUCCQCbJ9fo0boK+DANBgkqhkiG9w0BAQQFADCBlTELMAkGA1UEBhMC
REUxETAPBgNVBAgTCFNhYXJsYW5kMRAwDgYDVQQKEwdNUEktU1dTMSIwIAYDVQQL
ExlEaXN0cmlidXRlZCBTeXN0ZW1zIEdyb3VwMRowGAYDVQQDExFBbmRyZWFzIEhh
ZWJlcmxlbjEhMB8GCSqGSIb3DQEJARYSZGVtb2NhQG9jdGFyaW5lLmRlMB4XDTE1
MDQyMDIwNDczMloXDTE2MDQxOTIwNDczMlowga4xCzAJBgNVBAYTAkRFMREwDwYD
VQQIEwhTYWFybGFuZDEQMA4GA1UEChMHTVBJLVNXUzEiMCAGA1UECxMZRGlzdHJp
YnV0ZWQgU3lzdGVtcyBHcm91cDExMC8GA1UEAxMoODZiM2UxNjFlNDUyNDhmNmI5
OGIzNWUwMmEzNzAxYjg4NmM2NzI4NTEjMCEGCSqGSIb3DQEJARYUbm9kZTA4MDBA
b2N0YXJpbmUuZGUwgZ8wDQYJKoZIhvcNAQEBBQADgY0AMIGJAoGBALv/rJlDKVJe
sXo1K5H14R+sG0efL7FEWM/686OJlifrRRaLGv5GsCWBzX9gv0AIXPeqnby85TnB
5qJPlfTsYSdthXzk1Az2eqdVI9BNK8JpQu9dZkG6Oej2Rqwbtp2NDRTKjXbOt2+D
ThA6WHFulJluUtf+4nFICoKW2wS7yQFjAgMBAAEwDQYJKoZIhvcNAQEEBQADgYEA
uXfzw7EDqbYAwB5kLurxeHjDwSLjCN8CDjEcFtJ06ceFeEq8yuqaO+PQPn7hS7TV
S6kVf3sZphPHkxt33QDOnn93Ew/JHZXuEn5KCBwOhYsk9HtGO3SPejZIBe0gJxdc
w7aU1QpzIhni+6MjRSFASNXX1nW5MLDyj6XM7Yh7JTc=
-----END CERTIFICATE-----
