Certificate:
    Data:
        Version: 1 (0x0)
        Serial Number:
            9b:27:d7:e8:d1:ba:0a:1f
        Signature Algorithm: md5WithRSAEncryption
        Issuer: C=DE, ST=Saarland, O=MPI-SWS, OU=Distributed Systems Group, CN=Andreas Haeberlen/emailAddress=democa@octarine.de
        Validity
            Not Before: Apr 20 20:47:22 2015 GMT
            Not After : Apr 19 20:47:22 2016 GMT
        Subject: C=DE, ST=Saarland, O=MPI-SWS, OU=Distributed Systems Group, CN=16ad9c688ed0c2dee1d9f23641755fe6684f5b8d/emailAddress=node0583@octarine.de
        Subject Public Key Info:
            Public Key Algorithm: rsaEncryption
            RSA Public Key: (1024 bit)
                Modulus (1024 bit):
                    00:b3:47:74:93:b9:27:08:94:41:8d:d9:07:05:75:
                    a3:ce:ac:24:44:77:87:81:28:81:72:f5:e8:45:96:
                    2f:fd:24:7c:21:1c:80:df:38:7f:7a:0b:89:63:a9:
                    90:29:08:e3:27:c7:20:d7:e3:1e:d5:91:f9:1b:77:
                    f4:83:84:69:9d:c3:e7:b2:ab:fe:5d:25:25:7b:a6:
                    c2:ae:4f:ec:63:8a:b0:8f:38:7b:ef:83:c4:d6:86:
                    4e:7c:f7:be:b4:c5:ed:32:0d:ed:aa:27:9e:5d:7b:
                    72:48:f0:63:6f:67:5f:34:2c:03:7f:c7:f0:c1:01:
                    6a:8b:d5:42:02:cf:97:d2:f5
                Exponent: 65537 (0x10001)
    Signature Algorithm: md5WithRSAEncryption
        a4:a7:9e:8b:f3:cc:b4:86:5c:0b:c9:7d:0f:f9:2a:eb:59:11:
        6e:7a:83:51:bc:f6:df:c1:80:d5:bf:10:4c:08:1e:d3:c2:2d:
        14:2b:43:ea:cd:ee:8f:03:52:83:a7:59:48:16:50:81:d4:cf:
        d5:86:db:ff:74:13:92:fa:ec:46:57:8c:4f:8e:f3:b3:a1:c9:
        f8:78:bd:8b:61:3f:f8:bf:e2:5e:18:61:16:59:fc:e2:03:7a:
        4a:89:91:fc:7e:c2:c4:a0:38:a8:fe:06:ee:97:90:4e:4e:ae:
        27:2c:14:66:fe:7b:73:53:d3:e5:67:ff:fd:a8:32:8b:c1:58:
        98:a4
-----BEGIN CERTIFICATE-----
MIICvDCCAiUCCQCbJ9fo0boKHzANBgkqhkiG9w0BAQQFADCBlTELMAkGA1UEBhMC
REUxETAPBgNVBAgTCFNhYXJsYW5kMRAwDgYDVQQKEwdNUEktU1dTMSIwIAYDVQQL
ExlEaXN0cmlidXRlZCBTeXN0ZW1zIEdyb3VwMRowGAYDVQQDExFBbmRyZWFzIEhh
ZWJlcmxlbjEhMB8GCSqGSIb3DQEJARYSZGVtb2NhQG9jdGFyaW5lLmRlMB4XDTE1
MDQyMDIwNDcyMloXDTE2MDQxOTIwNDcyMlowga4xCzAJBgNVBAYTAkRFMREwDwYD
VQQIEwhTYWFybGFuZDEQMA4GA1UEChMHTVBJLVNXUzEiMCAGA1UECxMZRGlzdHJp
YnV0ZWQgU3lzdGVtcyBHcm91cDExMC8GA1UEAxMoMTZhZDljNjg4ZWQwYzJkZWUx
ZDlmMjM2NDE3NTVmZTY2ODRmNWI4ZDEjMCEGCSqGSIb3DQEJARYUbm9kZTA1ODNA
b2N0YXJpbmUuZGUwgZ8wDQYJKoZIhvcNAQEBBQADgY0AMIGJAoGBALNHdJO5JwiU
QY3ZBwV1o86sJER3h4EogXL16EWWL/0kfCEcgN84f3oLiWOpkCkI4yfHINfjHtWR
+Rt39IOEaZ3D57Kr/l0lJXumwq5P7GOKsI84e++DxNaGTnz3vrTF7TIN7aonnl17
ckjwY29nXzQsA3/H8MEBaovVQgLPl9L1AgMBAAEwDQYJKoZIhvcNAQEEBQADgYEA
pKeei/PMtIZcC8l9D/kq61kRbnqDUbz238GA1b8QTAge08ItFCtD6s3ujwNSg6dZ
SBZQgdTP1Ybb/3QTkvrsRleMT47zs6HJ+Hi9i2E/+L/iXhhhFln84gN6SomR/H7C
xKA4qP4G7peQTk6uJywUZv57c1PT5Wf//agyi8FYmKQ=
-----END CERTIFICATE-----
