Certificate:
    Data:
        Version: 1 (0x0)
        Serial Number:
            9b:27:d7:e8:d1:ba:09:20
        Signature Algorithm: md5WithRSAEncryption
        Issuer: C=DE, ST=Saarland, O=MPI-SWS, OU=Distributed Systems Group, CN=Andreas Haeberlen/emailAddress=democa@octarine.de
        Validity
            Not Before: Apr 20 20:47:11 2015 GMT
            Not After : Apr 19 20:47:11 2016 GMT
        Subject: C=DE, ST=Saarland, O=MPI-SWS, OU=Distributed Systems Group, CN=f82e9fd53ca273bbf6b72f7ec11e3d52571f7e4a/emailAddress=node0328@octarine.de
        Subject Public Key Info:
            Public Key Algorithm: rsaEncryption
            RSA Public Key: (1024 bit)
                Modulus (1024 bit):
                    00:c2:75:23:14:01:94:89:09:2b:24:a4:6a:2b:32:
                    44:db:82:7b:02:44:bb:20:0b:81:d0:d1:2d:63:82:
                    02:23:db:b3:d3:f4:f5:13:a3:cc:3e:72:31:d5:fa:
                    e8:be:84:5f:d0:45:62:c9:d2:b1:c9:d9:51:bd:5e:
                    96:3e:d3:8f:af:f5:9e:e0:47:67:ae:fa:82:b5:15:
                    ff:4b:16:f9:26:32:20:43:9a:c1:70:02:20:08:97:
                    a6:3a:48:5c:65:64:39:4a:dc:c6:36:44:22:0e:27:
                    73:f4:14:1d:37:22:51:aa:8e:9c:e5:d2:f8:3d:6a:
                    11:8e:01:3d:de:2f:c2:17:69
                Exponent: 65537 (0x10001)
    Signature Algorithm: md5WithRSAEncryption
        4b:02:c0:76:74:40:5d:a7:b4:f3:3f:33:eb:34:5f:f7:30:32:
        7a:7f:15:34:7f:c6:ff:c0:4f:36:73:4f:7d:cc:a1:cc:0e:35:
        24:a0:f2:e5:f2:e0:bd:69:8b:cb:78:d6:34:f8:f8:49:a3:97:
        e3:a4:f6:0e:0b:f9:c2:63:ab:5e:9e:28:c1:fb:5b:c9:dc:be:
        53:ee:66:1c:4e:c6:5c:95:d1:39:0f:a9:09:fa:20:3c:f4:3f:
        5c:41:c1:bf:5a:0d:0b:33:be:96:bd:cd:e7:6a:02:b5:7a:9e:
        e9:8a:bf:17:f0:98:25:54:07:8d:c5:f8:a8:df:eb:17:5b:b8:
        a6:23
-----BEGIN CERTIFICATE-----
MIICvDCCAiUCCQCbJ9fo0boJIDANBgkqhkiG9w0BAQQFADCBlTELMAkGA1UEBhMC
REUxETAPBgNVBAgTCFNhYXJsYW5kMRAwDgYDVQQKEwdNUEktU1dTMSIwIAYDVQQL
ExlEaXN0cmlidXRlZCBTeXN0ZW1zIEdyb3VwMRowGAYDVQQDExFBbmRyZWFzIEhh
ZWJlcmxlbjEhMB8GCSqGSIb3DQEJARYSZGVtb2NhQG9jdGFyaW5lLmRlMB4XDTE1
MDQyMDIwNDcxMVoXDTE2MDQxOTIwNDcxMVowga4xCzAJBgNVBAYTAkRFMREwDwYD
VQQIEwhTYWFybGFuZDEQMA4GA1UEChMHTVBJLVNXUzEiMCAGA1UECxMZRGlzdHJp
YnV0ZWQgU3lzdGVtcyBHcm91cDExMC8GA1UEAxMoZjgyZTlmZDUzY2EyNzNiYmY2
YjcyZjdlYzExZTNkNTI1NzFmN2U0YTEjMCEGCSqGSIb3DQEJARYUbm9kZTAzMjhA
b2N0YXJpbmUuZGUwgZ8wDQYJKoZIhvcNAQEBBQADgY0AMIGJAoGBAMJ1IxQBlIkJ
KySkaisyRNuCewJEuyALgdDRLWOCAiPbs9P09ROjzD5yMdX66L6EX9BFYsnSscnZ
Ub1elj7Tj6/1nuBHZ676grUV/0sW+SYyIEOawXACIAiXpjpIXGVkOUrcxjZEIg4n
c/QUHTciUaqOnOXS+D1qEY4BPd4vwhdpAgMBAAEwDQYJKoZIhvcNAQEEBQADgYEA
SwLAdnRAXae08z8z6zRf9zAyen8VNH/G/8BPNnNPfcyhzA41JKDy5fLgvWmLy3jW
NPj4SaOX46T2Dgv5wmOrXp4owftbydy+U+5mHE7GXJXROQ+pCfogPPQ/XEHBv1oN
CzO+lr3N52oCtXqe6Yq/F/CYJVQHjcX4qN/rF1u4piM=
-----END CERTIFICATE-----
