Certificate:
    Data:
        Version: 1 (0x0)
        Serial Number:
            9b:27:d7:e8:d1:ba:08:c5
        Signature Algorithm: md5WithRSAEncryption
        Issuer: C=DE, ST=Saarland, O=MPI-SWS, OU=Distributed Systems Group, CN=Andreas Haeberlen/emailAddress=democa@octarine.de
        Validity
            Not Before: Apr 20 20:47:07 2015 GMT
            Not After : Apr 19 20:47:07 2016 GMT
        Subject: C=DE, ST=Saarland, O=MPI-SWS, OU=Distributed Systems Group, CN=ba0eae32f7a8cd97439b4ea28589fd0b71a1fe4e/emailAddress=node0237@octarine.de
        Subject Public Key Info:
            Public Key Algorithm: rsaEncryption
            RSA Public Key: (1024 bit)
                Modulus (1024 bit):
                    00:ac:59:23:bf:5e:44:2c:de:37:8f:f3:63:3f:32:
                    7a:32:54:92:2b:5d:c7:54:37:4f:6c:8e:35:11:63:
                    d0:37:33:66:7e:c2:47:d9:77:cb:4e:3f:48:63:c5:
                    ed:ae:64:a5:72:e8:61:28:d4:e9:5e:3e:21:1a:e4:
                    16:82:c8:14:f7:b7:41:3f:2b:94:14:21:62:46:4f:
                    4e:43:a1:32:24:e7:98:51:99:79:5a:af:50:15:3d:
                    32:04:65:8c:dc:c1:c1:6c:04:3d:57:83:15:90:69:
                    6b:76:44:63:26:04:62:ce:cc:86:8a:1a:48:2e:ea:
                    77:08:eb:64:85:14:5f:f4:c9
                Exponent: 65537 (0x10001)
    Signature Algorithm: md5WithRSAEncryption
        a4:54:0c:22:4a:08:fd:9f:20:eb:e5:3b:9e:b7:73:8e:e0:38:
        9f:4c:11:ce:75:07:ca:ee:2f:ac:d8:15:5c:ef:81:0c:d4:c9:
        3a:35:8d:93:79:dd:16:eb:fc:e2:75:e0:d7:82:b7:5a:bd:ba:
        5e:0f:db:e6:34:b5:98:87:ee:29:8e:a8:85:d6:97:c9:ff:56:
        65:17:70:01:05:e7:92:eb:1c:ed:2e:e7:02:61:b2:3c:59:c6:
        8a:7f:ed:cb:6f:ed:a7:d7:ba:3d:b1:8f:92:ee:7e:37:09:15:
        c2:26:be:e1:83:ae:29:23:24:9c:36:3a:38:52:26:df:cf:c5:
        ac:cb
-----BEGIN CERTIFICATE-----
MIICvDCCAiUCCQCbJ9fo0boIxTANBgkqhkiG9w0BAQQFADCBlTELMAkGA1UEBhMC
REUxETAPBgNVBAgTCFNhYXJsYW5kMRAwDgYDVQQKEwdNUEktU1dTMSIwIAYDVQQL
ExlEaXN0cmlidXRlZCBTeXN0ZW1zIEdyb3VwMRowGAYDVQQDExFBbmRyZWFzIEhh
ZWJlcmxlbjEhMB8GCSqGSIb3DQEJARYSZGVtb2NhQG9jdGFyaW5lLmRlMB4XDTE1
MDQyMDIwNDcwN1oXDTE2MDQxOTIwNDcwN1owga4xCzAJBgNVBAYTAkRFMREwDwYD
VQQIEwhTYWFybGFuZDEQMA4GA1UEChMHTVBJLVNXUzEiMCAGA1UECxMZRGlzdHJp
YnV0ZWQgU3lzdGVtcyBHcm91cDExMC8GA1UEAxMoYmEwZWFlMzJmN2E4Y2Q5NzQz
OWI0ZWEyODU4OWZkMGI3MWExZmU0ZTEjMCEGCSqGSIb3DQEJARYUbm9kZTAyMzdA
b2N0YXJpbmUuZGUwgZ8wDQYJKoZIhvcNAQEBBQADgY0AMIGJAoGBAKxZI79eRCze
N4/zYz8yejJUkitdx1Q3T2yONRFj0DczZn7CR9l3y04/SGPF7a5kpXLoYSjU6V4+
IRrkFoLIFPe3QT8rlBQhYkZPTkOhMiTnmFGZeVqvUBU9MgRljNzBwWwEPVeDFZBp
a3ZEYyYEYs7MhooaSC7qdwjrZIUUX/TJAgMBAAEwDQYJKoZIhvcNAQEEBQADgYEA
pFQMIkoI/Z8g6+U7nrdzjuA4n0wRznUHyu4vrNgVXO+BDNTJOjWNk3ndFuv84nXg
14K3Wr26Xg/b5jS1mIfuKY6ohdaXyf9WZRdwAQXnkusc7S7nAmGyPFnGin/ty2/t
p9e6PbGPku5+NwkVwia+4YOuKSMknDY6OFIm38/FrMs=
-----END CERTIFICATE-----
