Certificate:
    Data:
        Version: 1 (0x0)
        Serial Number:
            9b:27:d7:e8:d1:ba:0a:1e
        Signature Algorithm: md5WithRSAEncryption
        Issuer: C=DE, ST=Saarland, O=MPI-SWS, OU=Distributed Systems Group, CN=Andreas Haeberlen/emailAddress=democa@octarine.de
        Validity
            Not Before: Apr 20 20:47:22 2015 GMT
            Not After : Apr 19 20:47:22 2016 GMT
        Subject: C=DE, ST=Saarland, O=MPI-SWS, OU=Distributed Systems Group, CN=fae39d558ef1b229eb748e4c2c3ead4a72e10378/emailAddress=node0582@octarine.de
        Subject Public Key Info:
            Public Key Algorithm: rsaEncryption
            RSA Public Key: (1024 bit)
                Modulus (1024 bit):
                    00:c2:24:61:23:0c:49:a0:a6:79:83:d8:51:0d:09:
                    36:14:16:ab:9c:3f:98:b0:ab:c5:7a:79:2d:8b:a3:
                    d2:db:2a:71:3f:bb:c8:d5:73:ab:40:a8:f9:fa:53:
                    df:a3:5e:3a:f9:27:dd:46:fe:a3:5b:50:06:56:bc:
                    07:40:56:8b:f0:a9:8f:23:e4:e8:c1:80:54:f7:ef:
                    51:f9:c6:9a:9c:9c:6a:0e:7f:76:da:96:73:88:0c:
                    0a:8e:21:a7:ea:1b:0f:61:80:a6:b3:1e:4d:b0:1d:
                    20:12:35:3a:90:c2:2c:93:47:59:40:a9:fb:42:ee:
                    d3:36:76:f4:4f:24:8f:13:4b
                Exponent: 65537 (0x10001)
    Signature Algorithm: md5WithRSAEncryption
        71:b9:3b:65:d6:b9:b5:d1:39:a9:1f:ff:34:c6:ad:4f:d4:e7:
        0d:65:05:8c:14:70:d2:d8:4e:99:2e:a4:70:17:2c:5b:1f:d2:
        c1:9c:52:c9:0d:07:93:4c:c1:0a:a2:62:a7:04:5f:b5:9c:19:
        1f:2f:6a:8c:80:5a:69:f7:cd:76:d2:06:69:24:62:7e:c6:ae:
        37:09:5a:c4:36:4b:af:89:85:13:42:a8:f2:f6:c0:c1:f9:48:
        0e:72:73:b4:29:ee:5a:ab:7f:cc:77:f1:fc:cb:85:70:e5:7d:
        5e:1b:76:6b:0a:21:5a:aa:cf:c7:51:9e:4e:09:f0:f0:6b:34:
        64:14
-----BEGIN CERTIFICATE-----
MIICvDCCAiUCCQCbJ9fo0boKHjANBgkqhkiG9w0BAQQFADCBlTELMAkGA1UEBhMC
REUxETAPBgNVBAgTCFNhYXJsYW5kMRAwDgYDVQQKEwdNUEktU1dTMSIwIAYDVQQL
ExlEaXN0cmlidXRlZCBTeXN0ZW1zIEdyb3VwMRowGAYDVQQDExFBbmRyZWFzIEhh
ZWJlcmxlbjEhMB8GCSqGSIb3DQEJARYSZGVtb2NhQG9jdGFyaW5lLmRlMB4XDTE1
MDQyMDIwNDcyMloXDTE2MDQxOTIwNDcyMlowga4xCzAJBgNVBAYTAkRFMREwDwYD
VQQIEwhTYWFybGFuZDEQMA4GA1UEChMHTVBJLVNXUzEiMCAGA1UECxMZRGlzdHJp
YnV0ZWQgU3lzdGVtcyBHcm91cDExMC8GA1UEAxMoZmFlMzlkNTU4ZWYxYjIyOWVi
NzQ4ZTRjMmMzZWFkNGE3MmUxMDM3ODEjMCEGCSqGSIb3DQEJARYUbm9kZTA1ODJA
b2N0YXJpbmUuZGUwgZ8wDQYJKoZIhvcNAQEBBQADgY0AMIGJAoGBAMIkYSMMSaCm
eYPYUQ0JNhQWq5w/mLCrxXp5LYuj0tsqcT+7yNVzq0Co+fpT36NeOvkn3Ub+o1tQ
Bla8B0BWi/CpjyPk6MGAVPfvUfnGmpycag5/dtqWc4gMCo4hp+obD2GAprMeTbAd
IBI1OpDCLJNHWUCp+0Lu0zZ29E8kjxNLAgMBAAEwDQYJKoZIhvcNAQEEBQADgYEA
cbk7Zda5tdE5qR//NMatT9TnDWUFjBRw0thOmS6kcBcsWx/SwZxSyQ0Hk0zBCqJi
pwRftZwZHy9qjIBaaffNdtIGaSRifsauNwlaxDZLr4mFE0Ko8vbAwflIDnJztCnu
Wqt/zHfx/MuFcOV9Xht2awohWqrPx1GeTgnw8Gs0ZBQ=
-----END CERTIFICATE-----
