Certificate:
    Data:
        Version: 1 (0x0)
        Serial Number:
            9b:27:d7:e8:d1:ba:09:0f
        Signature Algorithm: md5WithRSAEncryption
        Issuer: C=DE, ST=Saarland, O=MPI-SWS, OU=Distributed Systems Group, CN=Andreas Haeberlen/emailAddress=democa@octarine.de
        Validity
            Not Before: Apr 20 20:47:10 2015 GMT
            Not After : Apr 19 20:47:10 2016 GMT
        Subject: C=DE, ST=Saarland, O=MPI-SWS, OU=Distributed Systems Group, CN=d579d28b89cf28d0185e92802e189be7060e8890/emailAddress=node0311@octarine.de
        Subject Public Key Info:
            Public Key Algorithm: rsaEncryption
            RSA Public Key: (1024 bit)
                Modulus (1024 bit):
                    00:c2:dc:4c:da:8d:81:a5:2a:23:57:85:42:86:de:
                    7e:c5:d8:f6:bf:b2:46:f6:0b:7d:d9:dc:0d:c0:31:
                    bf:62:97:ca:2a:eb:69:16:3f:45:dd:2e:f1:83:e0:
                    a2:03:73:da:cd:dd:ea:58:f3:41:8a:a8:57:70:71:
                    00:de:ba:db:cf:4e:61:51:82:27:d8:b6:b5:52:82:
                    43:e9:7b:e3:30:82:8d:8e:1a:fe:b3:dd:57:fc:ea:
                    10:e4:90:cf:63:0a:fa:87:a3:09:b1:60:3f:f4:4d:
                    59:53:6d:7f:87:22:6a:66:53:e5:9f:23:07:46:b4:
                    22:21:56:9f:ea:1a:35:00:e3
                Exponent: 65537 (0x10001)
    Signature Algorithm: md5WithRSAEncryption
        68:a9:d8:61:f5:af:e8:76:7f:87:cf:b0:e1:47:92:55:d7:d4:
        19:68:37:d0:12:38:89:c9:18:79:e7:da:11:90:59:7b:5d:4c:
        d2:8a:80:86:9f:43:19:a7:c7:66:cf:85:cb:08:0e:2c:ad:df:
        6b:5c:e1:9a:7a:e5:f6:5d:5b:77:e4:87:2a:be:07:03:c5:22:
        67:7f:9c:b9:b9:df:88:ec:1f:04:1b:0d:d5:9b:da:b1:bf:00:
        94:06:8b:fd:e3:74:0c:ae:d1:50:a1:0a:88:bb:61:8f:a1:7f:
        ca:2e:1b:f1:a0:ee:09:74:79:4d:19:d2:3c:ea:cf:d7:0b:22:
        d7:fa
-----BEGIN CERTIFICATE-----
MIICvDCCAiUCCQCbJ9fo0boJDzANBgkqhkiG9w0BAQQFADCBlTELMAkGA1UEBhMC
REUxETAPBgNVBAgTCFNhYXJsYW5kMRAwDgYDVQQKEwdNUEktU1dTMSIwIAYDVQQL
ExlEaXN0cmlidXRlZCBTeXN0ZW1zIEdyb3VwMRowGAYDVQQDExFBbmRyZWFzIEhh
ZWJlcmxlbjEhMB8GCSqGSIb3DQEJARYSZGVtb2NhQG9jdGFyaW5lLmRlMB4XDTE1
MDQyMDIwNDcxMFoXDTE2MDQxOTIwNDcxMFowga4xCzAJBgNVBAYTAkRFMREwDwYD
VQQIEwhTYWFybGFuZDEQMA4GA1UEChMHTVBJLVNXUzEiMCAGA1UECxMZRGlzdHJp
YnV0ZWQgU3lzdGVtcyBHcm91cDExMC8GA1UEAxMoZDU3OWQyOGI4OWNmMjhkMDE4
NWU5MjgwMmUxODliZTcwNjBlODg5MDEjMCEGCSqGSIb3DQEJARYUbm9kZTAzMTFA
b2N0YXJpbmUuZGUwgZ8wDQYJKoZIhvcNAQEBBQADgY0AMIGJAoGBAMLcTNqNgaUq
I1eFQobefsXY9r+yRvYLfdncDcAxv2KXyirraRY/Rd0u8YPgogNz2s3d6ljzQYqo
V3BxAN66289OYVGCJ9i2tVKCQ+l74zCCjY4a/rPdV/zqEOSQz2MK+oejCbFgP/RN
WVNtf4ciamZT5Z8jB0a0IiFWn+oaNQDjAgMBAAEwDQYJKoZIhvcNAQEEBQADgYEA
aKnYYfWv6HZ/h8+w4UeSVdfUGWg30BI4ickYeefaEZBZe11M0oqAhp9DGafHZs+F
ywgOLK3fa1zhmnrl9l1bd+SHKr4HA8UiZ3+cubnfiOwfBBsN1Zvasb8AlAaL/eN0
DK7RUKEKiLthj6F/yi4b8aDuCXR5TRnSPOrP1wsi1/o=
-----END CERTIFICATE-----
