Certificate:
    Data:
        Version: 1 (0x0)
        Serial Number:
            9b:27:d7:e8:d1:ba:08:cd
        Signature Algorithm: md5WithRSAEncryption
        Issuer: C=DE, ST=Saarland, O=MPI-SWS, OU=Distributed Systems Group, CN=Andreas Haeberlen/emailAddress=democa@octarine.de
        Validity
            Not Before: Apr 20 20:47:07 2015 GMT
            Not After : Apr 19 20:47:07 2016 GMT
        Subject: C=DE, ST=Saarland, O=MPI-SWS, OU=Distributed Systems Group, CN=3277190da47c051c048ddb37f4736adad41ee2b8/emailAddress=node0245@octarine.de
        Subject Public Key Info:
            Public Key Algorithm: rsaEncryption
            RSA Public Key: (1024 bit)
                Modulus (1024 bit):
                    00:b9:a5:f0:66:13:af:22:31:89:90:ee:2b:74:c2:
                    14:d6:2c:c3:f2:81:fb:b9:b1:9a:b9:ca:7a:ef:6d:
                    db:ea:fa:01:46:0e:58:ef:b9:9f:b4:ed:3e:ea:0c:
                    36:de:4c:27:2c:49:f3:c7:09:69:7d:11:e1:c2:2f:
                    e4:0d:71:e3:a8:f1:1d:98:a2:56:6a:e4:c9:91:5b:
                    3a:fc:00:a8:66:27:0a:4a:fb:e0:b5:6e:03:ec:84:
                    61:94:74:05:40:e0:c1:76:ba:b2:cd:2a:d9:0c:49:
                    10:4f:40:53:be:4a:ca:9c:b4:c5:60:5c:bc:ce:ee:
                    44:27:13:a3:ba:81:b7:bc:85
                Exponent: 65537 (0x10001)
    Signature Algorithm: md5WithRSAEncryption
        1f:53:3a:55:a6:b8:55:5a:52:7e:be:59:51:0b:88:46:cd:bd:
        bd:83:e2:4a:1c:85:7d:01:5d:b2:84:5a:3a:44:75:16:25:f2:
        33:1e:27:d8:35:8f:30:0e:57:8e:5c:9a:7e:08:c5:c6:96:40:
        ce:22:6d:11:b3:a3:99:a7:63:54:64:56:a0:e6:b9:8d:f1:f2:
        0e:2f:0d:33:92:1f:5d:70:e3:69:2e:00:a2:4f:df:d1:d4:4e:
        ab:e9:fd:8c:b5:e4:81:38:ce:53:20:fc:d4:fe:ae:63:2c:30:
        8a:28:e3:fe:2a:83:de:1d:30:bf:80:04:51:28:43:fc:e0:80:
        32:cc
-----BEGIN CERTIFICATE-----
MIICvDCCAiUCCQCbJ9fo0boIzTANBgkqhkiG9w0BAQQFADCBlTELMAkGA1UEBhMC
REUxETAPBgNVBAgTCFNhYXJsYW5kMRAwDgYDVQQKEwdNUEktU1dTMSIwIAYDVQQL
ExlEaXN0cmlidXRlZCBTeXN0ZW1zIEdyb3VwMRowGAYDVQQDExFBbmRyZWFzIEhh
ZWJlcmxlbjEhMB8GCSqGSIb3DQEJARYSZGVtb2NhQG9jdGFyaW5lLmRlMB4XDTE1
MDQyMDIwNDcwN1oXDTE2MDQxOTIwNDcwN1owga4xCzAJBgNVBAYTAkRFMREwDwYD
VQQIEwhTYWFybGFuZDEQMA4GA1UEChMHTVBJLVNXUzEiMCAGA1UECxMZRGlzdHJp
YnV0ZWQgU3lzdGVtcyBHcm91cDExMC8GA1UEAxMoMzI3NzE5MGRhNDdjMDUxYzA0
OGRkYjM3ZjQ3MzZhZGFkNDFlZTJiODEjMCEGCSqGSIb3DQEJARYUbm9kZTAyNDVA
b2N0YXJpbmUuZGUwgZ8wDQYJKoZIhvcNAQEBBQADgY0AMIGJAoGBALml8GYTryIx
iZDuK3TCFNYsw/KB+7mxmrnKeu9t2+r6AUYOWO+5n7TtPuoMNt5MJyxJ88cJaX0R
4cIv5A1x46jxHZiiVmrkyZFbOvwAqGYnCkr74LVuA+yEYZR0BUDgwXa6ss0q2QxJ
EE9AU75Kypy0xWBcvM7uRCcTo7qBt7yFAgMBAAEwDQYJKoZIhvcNAQEEBQADgYEA
H1M6Vaa4VVpSfr5ZUQuIRs29vYPiShyFfQFdsoRaOkR1FiXyMx4n2DWPMA5Xjlya
fgjFxpZAziJtEbOjmadjVGRWoOa5jfHyDi8NM5IfXXDjaS4Aok/f0dROq+n9jLXk
gTjOUyD81P6uYywwiijj/iqD3h0wv4AEUShD/OCAMsw=
-----END CERTIFICATE-----
