Certificate:
    Data:
        Version: 1 (0x0)
        Serial Number:
            9b:27:d7:e8:d1:ba:09:4e
        Signature Algorithm: md5WithRSAEncryption
        Issuer: C=DE, ST=Saarland, O=MPI-SWS, OU=Distributed Systems Group, CN=Andreas Haeberlen/emailAddress=democa@octarine.de
        Validity
            Not Before: Apr 20 20:47:13 2015 GMT
            Not After : Apr 19 20:47:13 2016 GMT
        Subject: C=DE, ST=Saarland, O=MPI-SWS, OU=Distributed Systems Group, CN=4d3777ee0afd4421451e102c7a550145f8d6fb4f/emailAddress=node0374@octarine.de
        Subject Public Key Info:
            Public Key Algorithm: rsaEncryption
            RSA Public Key: (1024 bit)
                Modulus (1024 bit):
                    00:df:ce:19:9f:45:dd:8e:a2:6d:7e:fb:1c:49:f8:
                    8f:e7:f9:cb:b4:f6:78:d4:31:f1:7b:11:4d:4c:58:
                    70:16:bb:ce:19:6d:41:30:15:a0:71:6a:fd:33:a7:
                    ec:96:17:bc:59:5b:19:cb:ce:51:a8:40:b1:e5:4a:
                    1d:8a:85:1c:aa:a8:5e:51:da:24:23:17:24:cb:5f:
                    fa:33:74:27:ec:ae:f9:5d:d6:96:3d:bd:07:5d:02:
                    27:86:5f:52:a0:cd:2a:38:d6:31:4c:a0:eb:a6:1c:
                    7e:72:33:c8:a5:83:aa:01:ca:6f:bf:a0:42:4a:1f:
                    1c:e2:9a:ed:5e:9d:f3:7f:e3
                Exponent: 65537 (0x10001)
    Signature Algorithm: md5WithRSAEncryption
        74:7f:20:18:f7:1b:5c:f8:7e:4e:50:75:91:10:fd:f6:ab:d0:
        69:63:f1:ab:51:f9:9e:6f:4f:78:a4:f2:cb:6a:83:6e:78:c8:
        23:cf:eb:e7:4e:e1:1e:ca:a9:d9:71:e9:a1:81:8d:11:2a:20:
        60:55:3c:bf:87:84:35:46:46:72:cc:43:8b:99:aa:c0:7a:57:
        af:b8:cf:41:fb:e9:67:81:fe:b6:4e:be:d2:30:e8:3b:e1:75:
        c9:87:14:fc:c6:76:ca:58:02:27:98:88:c9:65:06:b7:bd:67:
        6e:60:a5:87:30:df:58:15:ac:b4:6f:4c:21:9b:9a:b9:0d:38:
        07:06
-----BEGIN CERTIFICATE-----
MIICvDCCAiUCCQCbJ9fo0boJTjANBgkqhkiG9w0BAQQFADCBlTELMAkGA1UEBhMC
REUxETAPBgNVBAgTCFNhYXJsYW5kMRAwDgYDVQQKEwdNUEktU1dTMSIwIAYDVQQL
ExlEaXN0cmlidXRlZCBTeXN0ZW1zIEdyb3VwMRowGAYDVQQDExFBbmRyZWFzIEhh
ZWJlcmxlbjEhMB8GCSqGSIb3DQEJARYSZGVtb2NhQG9jdGFyaW5lLmRlMB4XDTE1
MDQyMDIwNDcxM1oXDTE2MDQxOTIwNDcxM1owga4xCzAJBgNVBAYTAkRFMREwDwYD
VQQIEwhTYWFybGFuZDEQMA4GA1UEChMHTVBJLVNXUzEiMCAGA1UECxMZRGlzdHJp
YnV0ZWQgU3lzdGVtcyBHcm91cDExMC8GA1UEAxMoNGQzNzc3ZWUwYWZkNDQyMTQ1
MWUxMDJjN2E1NTAxNDVmOGQ2ZmI0ZjEjMCEGCSqGSIb3DQEJARYUbm9kZTAzNzRA
b2N0YXJpbmUuZGUwgZ8wDQYJKoZIhvcNAQEBBQADgY0AMIGJAoGBAN/OGZ9F3Y6i
bX77HEn4j+f5y7T2eNQx8XsRTUxYcBa7zhltQTAVoHFq/TOn7JYXvFlbGcvOUahA
seVKHYqFHKqoXlHaJCMXJMtf+jN0J+yu+V3Wlj29B10CJ4ZfUqDNKjjWMUyg66Yc
fnIzyKWDqgHKb7+gQkofHOKa7V6d83/jAgMBAAEwDQYJKoZIhvcNAQEEBQADgYEA
dH8gGPcbXPh+TlB1kRD99qvQaWPxq1H5nm9PeKTyy2qDbnjII8/r507hHsqp2XHp
oYGNESogYFU8v4eENUZGcsxDi5mqwHpXr7jPQfvpZ4H+tk6+0jDoO+F1yYcU/MZ2
ylgCJ5iIyWUGt71nbmClhzDfWBWstG9MIZuauQ04BwY=
-----END CERTIFICATE-----
