Certificate:
    Data:
        Version: 1 (0x0)
        Serial Number:
            9b:27:d7:e8:d1:ba:0b:15
        Signature Algorithm: md5WithRSAEncryption
        Issuer: C=DE, ST=Saarland, O=MPI-SWS, OU=Distributed Systems Group, CN=Andreas Haeberlen/emailAddress=democa@octarine.de
        Validity
            Not Before: Apr 20 20:47:33 2015 GMT
            Not After : Apr 19 20:47:33 2016 GMT
        Subject: C=DE, ST=Saarland, O=MPI-SWS, OU=Distributed Systems Group, CN=d8e5f8e097ae25df3614576d3b3c1c5f5344b355/emailAddress=node0829@octarine.de
        Subject Public Key Info:
            Public Key Algorithm: rsaEncryption
            RSA Public Key: (1024 bit)
                Modulus (1024 bit):
                    00:e8:4f:f4:ff:57:4a:2d:b7:ba:ad:2f:82:24:82:
                    d5:10:0e:45:a4:85:37:f5:ce:86:c4:12:1f:d8:e2:
                    f9:ae:2c:8b:ac:a6:92:57:b3:5a:ec:e3:98:1b:e8:
                    ac:dd:e6:6d:1d:a2:8d:60:36:1b:be:fa:a5:ba:06:
                    6c:3b:c1:af:5b:2f:5f:da:1c:37:bf:ff:2e:07:65:
                    da:37:f7:b3:fc:77:69:92:f8:4c:c5:4f:82:a8:eb:
                    09:69:00:77:2e:96:35:ba:3f:1a:f8:4b:20:71:a5:
                    02:af:69:95:c0:d1:e6:77:e6:01:57:00:85:d3:a2:
                    33:2e:54:65:79:d0:81:d8:27
                Exponent: 65537 (0x10001)
    Signature Algorithm: md5WithRSAEncryption
        79:e3:21:d0:31:c3:ab:78:aa:fa:e1:b4:71:06:3e:1e:18:48:
        b5:ff:bb:a4:02:dc:10:bf:41:56:fa:06:b1:c7:7b:d4:78:c2:
        2c:b3:4e:69:78:f3:50:c2:1e:be:e1:07:b0:1b:73:93:19:6a:
        f8:11:be:1b:5f:fa:84:78:09:f3:a8:83:0c:54:81:cb:3f:11:
        04:e6:5c:60:36:82:71:ca:67:ca:cd:1b:d5:11:f6:e3:83:7e:
        14:34:29:c6:4f:e7:b5:b3:b3:8a:aa:5d:30:9e:5c:4a:65:04:
        45:72:0f:8d:91:2f:9e:80:56:30:bb:d3:f9:be:3a:59:1e:b8:
        57:ca
-----BEGIN CERTIFICATE-----
MIICvDCCAiUCCQCbJ9fo0boLFTANBgkqhkiG9w0BAQQFADCBlTELMAkGA1UEBhMC
REUxETAPBgNVBAgTCFNhYXJsYW5kMRAwDgYDVQQKEwdNUEktU1dTMSIwIAYDVQQL
ExlEaXN0cmlidXRlZCBTeXN0ZW1zIEdyb3VwMRowGAYDVQQDExFBbmRyZWFzIEhh
ZWJlcmxlbjEhMB8GCSqGSIb3DQEJARYSZGVtb2NhQG9jdGFyaW5lLmRlMB4XDTE1
MDQyMDIwNDczM1oXDTE2MDQxOTIwNDczM1owga4xCzAJBgNVBAYTAkRFMREwDwYD
VQQIEwhTYWFybGFuZDEQMA4GA1UEChMHTVBJLVNXUzEiMCAGA1UECxMZRGlzdHJp
YnV0ZWQgU3lzdGVtcyBHcm91cDExMC8GA1UEAxMoZDhlNWY4ZTA5N2FlMjVkZjM2
MTQ1NzZkM2IzYzFjNWY1MzQ0YjM1NTEjMCEGCSqGSIb3DQEJARYUbm9kZTA4MjlA
b2N0YXJpbmUuZGUwgZ8wDQYJKoZIhvcNAQEBBQADgY0AMIGJAoGBAOhP9P9XSi23
uq0vgiSC1RAORaSFN/XOhsQSH9ji+a4si6ymklezWuzjmBvorN3mbR2ijWA2G776
pboGbDvBr1svX9ocN7//Lgdl2jf3s/x3aZL4TMVPgqjrCWkAdy6WNbo/GvhLIHGl
Aq9plcDR5nfmAVcAhdOiMy5UZXnQgdgnAgMBAAEwDQYJKoZIhvcNAQEEBQADgYEA
eeMh0DHDq3iq+uG0cQY+HhhItf+7pALcEL9BVvoGscd71HjCLLNOaXjzUMIevuEH
sBtzkxlq+BG+G1/6hHgJ86iDDFSByz8RBOZcYDaCccpnys0b1RH244N+FDQpxk/n
tbOziqpdMJ5cSmUERXIPjZEvnoBWMLvT+b46WR64V8o=
-----END CERTIFICATE-----
