Certificate:
    Data:
        Version: 1 (0x0)
        Serial Number:
            9b:27:d7:e8:d1:ba:0b:3d
        Signature Algorithm: md5WithRSAEncryption
        Issuer: C=DE, ST=Saarland, O=MPI-SWS, OU=Distributed Systems Group, CN=Andreas Haeberlen/emailAddress=democa@octarine.de
        Validity
            Not Before: Apr 20 20:47:35 2015 GMT
            Not After : Apr 19 20:47:35 2016 GMT
        Subject: C=DE, ST=Saarland, O=MPI-SWS, OU=Distributed Systems Group, CN=a6c366e4278ea68b2195f6908b847811ed4543a6/emailAddress=node0869@octarine.de
        Subject Public Key Info:
            Public Key Algorithm: rsaEncryption
            RSA Public Key: (1024 bit)
                Modulus (1024 bit):
                    00:dc:77:ea:f8:63:22:2b:7f:35:4e:34:b6:97:ff:
                    85:84:af:f1:dc:15:e1:e5:40:a3:16:99:14:d8:4d:
                    2b:d6:80:47:a3:bb:2e:25:55:f7:f6:91:6a:1f:fc:
                    cf:71:e3:8b:92:75:e4:1d:e4:a5:8d:99:e3:2d:35:
                    0d:35:7b:54:55:b5:97:6e:74:1e:86:92:e4:4c:4d:
                    cd:c3:a4:e7:43:22:08:b6:f8:7f:dc:56:4a:5a:1a:
                    c9:37:e1:d2:76:fd:17:ed:8d:d0:32:05:01:18:76:
                    28:24:de:c1:ae:38:85:4d:47:e1:33:ff:4b:73:a5:
                    68:fc:07:a0:ca:de:82:47:c1
                Exponent: 65537 (0x10001)
    Signature Algorithm: md5WithRSAEncryption
        1f:7c:c0:cd:62:c9:5d:88:3f:09:59:de:3f:57:fe:5a:b9:66:
        66:d8:1b:1e:43:f2:9b:0a:3d:c5:f1:b1:49:6c:b2:c4:61:17:
        3d:73:9b:98:49:de:ca:c9:87:4f:0c:27:60:31:30:96:66:5f:
        61:6c:6a:11:2b:92:de:ed:5f:07:92:46:6c:4d:fe:82:bb:64:
        8a:26:c5:24:64:fd:86:7a:f9:e4:39:3e:9c:88:33:1a:c7:8c:
        1d:76:86:b3:b0:54:f7:1f:14:af:2b:4e:ef:e9:a7:37:2a:a4:
        ee:ad:49:49:65:5b:e5:0c:4f:da:10:38:18:30:ad:85:ce:6c:
        38:ec
-----BEGIN CERTIFICATE-----
MIICvDCCAiUCCQCbJ9fo0boLPTANBgkqhkiG9w0BAQQFADCBlTELMAkGA1UEBhMC
REUxETAPBgNVBAgTCFNhYXJsYW5kMRAwDgYDVQQKEwdNUEktU1dTMSIwIAYDVQQL
ExlEaXN0cmlidXRlZCBTeXN0ZW1zIEdyb3VwMRowGAYDVQQDExFBbmRyZWFzIEhh
ZWJlcmxlbjEhMB8GCSqGSIb3DQEJARYSZGVtb2NhQG9jdGFyaW5lLmRlMB4XDTE1
MDQyMDIwNDczNVoXDTE2MDQxOTIwNDczNVowga4xCzAJBgNVBAYTAkRFMREwDwYD
VQQIEwhTYWFybGFuZDEQMA4GA1UEChMHTVBJLVNXUzEiMCAGA1UECxMZRGlzdHJp
YnV0ZWQgU3lzdGVtcyBHcm91cDExMC8GA1UEAxMoYTZjMzY2ZTQyNzhlYTY4YjIx
OTVmNjkwOGI4NDc4MTFlZDQ1NDNhNjEjMCEGCSqGSIb3DQEJARYUbm9kZTA4NjlA
b2N0YXJpbmUuZGUwgZ8wDQYJKoZIhvcNAQEBBQADgY0AMIGJAoGBANx36vhjIit/
NU40tpf/hYSv8dwV4eVAoxaZFNhNK9aAR6O7LiVV9/aRah/8z3Hji5J15B3kpY2Z
4y01DTV7VFW1l250HoaS5ExNzcOk50MiCLb4f9xWSloayTfh0nb9F+2N0DIFARh2
KCTewa44hU1H4TP/S3OlaPwHoMregkfBAgMBAAEwDQYJKoZIhvcNAQEEBQADgYEA
H3zAzWLJXYg/CVneP1f+WrlmZtgbHkPymwo9xfGxSWyyxGEXPXObmEneysmHTwwn
YDEwlmZfYWxqESuS3u1fB5JGbE3+grtkiibFJGT9hnr55Dk+nIgzGseMHXaGs7BU
9x8UrytO7+mnNyqk7q1JSWVb5QxP2hA4GDCthc5sOOw=
-----END CERTIFICATE-----
