Certificate:
    Data:
        Version: 1 (0x0)
        Serial Number:
            9b:27:d7:e8:d1:ba:0a:20
        Signature Algorithm: md5WithRSAEncryption
        Issuer: C=DE, ST=Saarland, O=MPI-SWS, OU=Distributed Systems Group, CN=Andreas Haeberlen/emailAddress=democa@octarine.de
        Validity
            Not Before: Apr 20 20:47:22 2015 GMT
            Not After : Apr 19 20:47:22 2016 GMT
        Subject: C=DE, ST=Saarland, O=MPI-SWS, OU=Distributed Systems Group, CN=95e67c45d2ec42394be9ad00550a087ad60525b0/emailAddress=node0584@octarine.de
        Subject Public Key Info:
            Public Key Algorithm: rsaEncryption
            RSA Public Key: (1024 bit)
                Modulus (1024 bit):
                    00:c2:a4:70:cc:d8:df:27:7e:89:24:35:5f:1c:51:
                    b5:07:bc:97:46:95:1d:70:b8:19:fb:a2:17:84:f4:
                    28:f3:1d:84:89:2e:3c:39:08:9f:69:2c:62:cd:15:
                    da:f2:8e:f1:1a:19:fa:2c:29:72:20:e6:4e:77:d5:
                    a5:e9:01:9c:94:c9:26:6e:87:85:b8:3e:07:4b:b0:
                    cb:b2:84:14:88:25:f4:f5:56:f4:ff:88:6d:7a:01:
                    bd:18:9c:3e:cf:a0:eb:29:63:76:7e:69:88:5a:54:
                    84:0a:a3:90:df:fe:e8:1d:07:e4:7a:3c:9a:60:5d:
                    9b:7f:76:9c:60:72:6b:f4:0f
                Exponent: 65537 (0x10001)
    Signature Algorithm: md5WithRSAEncryption
        18:95:88:67:b9:fe:b6:ed:38:a6:c9:ee:85:d1:a4:5f:24:39:
        72:4f:8b:87:e6:bd:de:fd:21:5e:2c:9b:2d:3b:9c:20:e5:5c:
        02:b7:f0:02:ab:e5:2d:4d:0d:db:e5:dc:8a:5d:eb:33:cd:14:
        66:26:c2:f5:29:e2:ec:d5:20:a5:6b:a3:85:65:98:89:fb:5e:
        ed:0b:be:1a:5b:3f:3a:5e:1e:2c:08:6f:c6:d7:a2:18:c8:cd:
        f0:3c:4a:44:4d:de:79:f8:52:93:98:0f:09:53:05:aa:cf:99:
        6d:12:8f:74:eb:14:d8:b9:06:0b:b9:74:bf:da:de:ef:02:2e:
        a2:79
-----BEGIN CERTIFICATE-----
MIICvDCCAiUCCQCbJ9fo0boKIDANBgkqhkiG9w0BAQQFADCBlTELMAkGA1UEBhMC
REUxETAPBgNVBAgTCFNhYXJsYW5kMRAwDgYDVQQKEwdNUEktU1dTMSIwIAYDVQQL
ExlEaXN0cmlidXRlZCBTeXN0ZW1zIEdyb3VwMRowGAYDVQQDExFBbmRyZWFzIEhh
ZWJlcmxlbjEhMB8GCSqGSIb3DQEJARYSZGVtb2NhQG9jdGFyaW5lLmRlMB4XDTE1
MDQyMDIwNDcyMloXDTE2MDQxOTIwNDcyMlowga4xCzAJBgNVBAYTAkRFMREwDwYD
VQQIEwhTYWFybGFuZDEQMA4GA1UEChMHTVBJLVNXUzEiMCAGA1UECxMZRGlzdHJp
YnV0ZWQgU3lzdGVtcyBHcm91cDExMC8GA1UEAxMoOTVlNjdjNDVkMmVjNDIzOTRi
ZTlhZDAwNTUwYTA4N2FkNjA1MjViMDEjMCEGCSqGSIb3DQEJARYUbm9kZTA1ODRA
b2N0YXJpbmUuZGUwgZ8wDQYJKoZIhvcNAQEBBQADgY0AMIGJAoGBAMKkcMzY3yd+
iSQ1XxxRtQe8l0aVHXC4GfuiF4T0KPMdhIkuPDkIn2ksYs0V2vKO8RoZ+iwpciDm
TnfVpekBnJTJJm6Hhbg+B0uwy7KEFIgl9PVW9P+IbXoBvRicPs+g6yljdn5piFpU
hAqjkN/+6B0H5Ho8mmBdm392nGBya/QPAgMBAAEwDQYJKoZIhvcNAQEEBQADgYEA
GJWIZ7n+tu04psnuhdGkXyQ5ck+Lh+a93v0hXiybLTucIOVcArfwAqvlLU0N2+Xc
il3rM80UZibC9Sni7NUgpWujhWWYifte7Qu+Gls/Ol4eLAhvxteiGMjN8DxKRE3e
efhSk5gPCVMFqs+ZbRKPdOsU2LkGC7l0v9re7wIuonk=
-----END CERTIFICATE-----
