Certificate:
    Data:
        Version: 1 (0x0)
        Serial Number:
            9b:27:d7:e8:d1:ba:08:86
        Signature Algorithm: md5WithRSAEncryption
        Issuer: C=DE, ST=Saarland, O=MPI-SWS, OU=Distributed Systems Group, CN=Andreas Haeberlen/emailAddress=democa@octarine.de
        Validity
            Not Before: Apr 20 20:47:04 2015 GMT
            Not After : Apr 19 20:47:04 2016 GMT
        Subject: C=DE, ST=Saarland, O=MPI-SWS, OU=Distributed Systems Group, CN=b0dcd094c9ece4e30dccc11f6ea1075b837531a0/emailAddress=node0174@octarine.de
        Subject Public Key Info:
            Public Key Algorithm: rsaEncryption
            RSA Public Key: (1024 bit)
                Modulus (1024 bit):
                    00:f5:64:88:51:db:bb:1b:c3:08:44:7a:55:b3:91:
                    49:95:20:ad:4e:4b:ee:10:3a:08:58:0a:e5:70:c7:
                    5f:5c:d9:9e:b9:fa:3b:96:8f:43:50:22:27:26:13:
                    8a:b0:63:70:f5:0a:bd:98:03:2b:c1:e3:c2:04:12:
                    d7:15:7e:16:e6:e2:92:29:1d:8d:3d:86:3b:34:ea:
                    08:5f:dc:77:ac:8c:bc:be:dc:ec:a4:9b:49:e0:c7:
                    a1:78:c4:44:6e:7a:b4:59:88:bc:1b:91:07:79:70:
                    31:30:78:9e:cc:8f:76:46:14:d0:22:d6:3d:7c:14:
                    24:c5:06:2b:30:6e:59:77:bb
                Exponent: 65537 (0x10001)
    Signature Algorithm: md5WithRSAEncryption
        c8:ed:73:55:16:3d:06:d7:38:3a:8b:35:3f:18:17:34:de:0d:
        24:4b:b5:18:b6:d1:36:d8:d9:10:03:cb:29:e1:4f:d3:dd:6b:
        fb:5e:16:43:ac:23:54:8c:a5:0f:b8:e5:ea:ae:09:f2:ff:d1:
        28:70:5b:78:fd:3b:98:f7:fb:fd:49:b9:1f:d9:15:fd:dc:a6:
        90:a9:a5:ef:9d:ee:f1:fb:85:e5:be:7f:8f:6b:4a:81:48:88:
        ae:89:d0:87:cf:7a:d3:d8:bb:ae:46:2a:ef:21:0f:05:f3:35:
        e9:73:79:84:74:d2:32:82:08:3c:18:47:da:9c:a3:a6:fd:62:
        01:18
-----BEGIN CERTIFICATE-----
MIICvDCCAiUCCQCbJ9fo0boIhjANBgkqhkiG9w0BAQQFADCBlTELMAkGA1UEBhMC
REUxETAPBgNVBAgTCFNhYXJsYW5kMRAwDgYDVQQKEwdNUEktU1dTMSIwIAYDVQQL
ExlEaXN0cmlidXRlZCBTeXN0ZW1zIEdyb3VwMRowGAYDVQQDExFBbmRyZWFzIEhh
ZWJlcmxlbjEhMB8GCSqGSIb3DQEJARYSZGVtb2NhQG9jdGFyaW5lLmRlMB4XDTE1
MDQyMDIwNDcwNFoXDTE2MDQxOTIwNDcwNFowga4xCzAJBgNVBAYTAkRFMREwDwYD
VQQIEwhTYWFybGFuZDEQMA4GA1UEChMHTVBJLVNXUzEiMCAGA1UECxMZRGlzdHJp
YnV0ZWQgU3lzdGVtcyBHcm91cDExMC8GA1UEAxMoYjBkY2QwOTRjOWVjZTRlMzBk
Y2NjMTFmNmVhMTA3NWI4Mzc1MzFhMDEjMCEGCSqGSIb3DQEJARYUbm9kZTAxNzRA
b2N0YXJpbmUuZGUwgZ8wDQYJKoZIhvcNAQEBBQADgY0AMIGJAoGBAPVkiFHbuxvD
CER6VbORSZUgrU5L7hA6CFgK5XDHX1zZnrn6O5aPQ1AiJyYTirBjcPUKvZgDK8Hj
wgQS1xV+FubikikdjT2GOzTqCF/cd6yMvL7c7KSbSeDHoXjERG56tFmIvBuRB3lw
MTB4nsyPdkYU0CLWPXwUJMUGKzBuWXe7AgMBAAEwDQYJKoZIhvcNAQEEBQADgYEA
yO1zVRY9Btc4Oos1PxgXNN4NJEu1GLbRNtjZEAPLKeFP091r+14WQ6wjVIylD7jl
6q4J8v/RKHBbeP07mPf7/Um5H9kV/dymkKml753u8fuF5b5/j2tKgUiIronQh896
09i7rkYq7yEPBfM16XN5hHTSMoIIPBhH2pyjpv1iARg=
-----END CERTIFICATE-----
