Certificate:
    Data:
        Version: 1 (0x0)
        Serial Number:
            9b:27:d7:e8:d1:ba:0a:25
        Signature Algorithm: md5WithRSAEncryption
        Issuer: C=DE, ST=Saarland, O=MPI-SWS, OU=Distributed Systems Group, CN=Andreas Haeberlen/emailAddress=democa@octarine.de
        Validity
            Not Before: Apr 20 20:47:23 2015 GMT
            Not After : Apr 19 20:47:23 2016 GMT
        Subject: C=DE, ST=Saarland, O=MPI-SWS, OU=Distributed Systems Group, CN=093aa53c0e04f52c06892b41cd09a11aa555b91b/emailAddress=node0589@octarine.de
        Subject Public Key Info:
            Public Key Algorithm: rsaEncryption
            RSA Public Key: (1024 bit)
                Modulus (1024 bit):
                    00:c9:cd:f8:f8:06:88:55:2f:60:42:70:fa:22:21:
                    a0:00:ea:54:4b:e0:c1:19:c3:01:81:d7:4f:2b:40:
                    77:b2:d8:61:26:96:2a:d9:63:80:ed:60:38:e1:89:
                    99:ef:79:1a:fc:6c:91:b4:fb:d1:b2:7d:0c:1d:4f:
                    f5:c8:83:ec:7b:df:17:3c:ab:cb:eb:9f:cb:90:37:
                    2a:89:74:0f:90:a0:3d:6a:1f:69:94:61:db:e4:c9:
                    aa:52:36:2f:e4:2e:d5:e2:a9:59:4a:12:e5:ab:bc:
                    8e:0b:e9:a1:42:4c:d9:b9:18:d6:93:a8:9d:51:73:
                    73:e6:af:2a:c2:c1:a5:3a:77
                Exponent: 65537 (0x10001)
    Signature Algorithm: md5WithRSAEncryption
        1f:8c:f4:09:6e:0c:08:f2:a6:6f:db:34:e1:d8:92:ce:6a:7e:
        ba:10:6a:f8:0a:49:80:f9:36:33:91:f3:8a:80:e1:72:9c:3c:
        69:73:81:38:1d:66:5e:d5:72:38:70:f8:93:dd:46:66:5b:2a:
        e6:33:13:39:2b:17:29:a7:c2:97:bb:90:62:77:85:2c:b1:f8:
        6f:96:4a:0a:27:31:49:6e:7a:f4:37:35:c9:7f:75:4f:ff:94:
        65:eb:e7:77:21:d5:86:dd:ec:84:34:90:7a:4f:b7:5c:5e:59:
        31:b9:8b:0b:b3:84:b8:d1:50:39:59:9a:05:2c:eb:85:e9:ef:
        62:4d
-----BEGIN CERTIFICATE-----
MIICvDCCAiUCCQCbJ9fo0boKJTANBgkqhkiG9w0BAQQFADCBlTELMAkGA1UEBhMC
REUxETAPBgNVBAgTCFNhYXJsYW5kMRAwDgYDVQQKEwdNUEktU1dTMSIwIAYDVQQL
ExlEaXN0cmlidXRlZCBTeXN0ZW1zIEdyb3VwMRowGAYDVQQDExFBbmRyZWFzIEhh
ZWJlcmxlbjEhMB8GCSqGSIb3DQEJARYSZGVtb2NhQG9jdGFyaW5lLmRlMB4XDTE1
MDQyMDIwNDcyM1oXDTE2MDQxOTIwNDcyM1owga4xCzAJBgNVBAYTAkRFMREwDwYD
VQQIEwhTYWFybGFuZDEQMA4GA1UEChMHTVBJLVNXUzEiMCAGA1UECxMZRGlzdHJp
YnV0ZWQgU3lzdGVtcyBHcm91cDExMC8GA1UEAxMoMDkzYWE1M2MwZTA0ZjUyYzA2
ODkyYjQxY2QwOWExMWFhNTU1YjkxYjEjMCEGCSqGSIb3DQEJARYUbm9kZTA1ODlA
b2N0YXJpbmUuZGUwgZ8wDQYJKoZIhvcNAQEBBQADgY0AMIGJAoGBAMnN+PgGiFUv
YEJw+iIhoADqVEvgwRnDAYHXTytAd7LYYSaWKtljgO1gOOGJme95GvxskbT70bJ9
DB1P9ciD7HvfFzyry+ufy5A3Kol0D5CgPWofaZRh2+TJqlI2L+Qu1eKpWUoS5au8
jgvpoUJM2bkY1pOonVFzc+avKsLBpTp3AgMBAAEwDQYJKoZIhvcNAQEEBQADgYEA
H4z0CW4MCPKmb9s04diSzmp+uhBq+ApJgPk2M5HzioDhcpw8aXOBOB1mXtVyOHD4
k91GZlsq5jMTOSsXKafCl7uQYneFLLH4b5ZKCicxSW569Dc1yX91T/+UZevndyHV
ht3shDSQek+3XF5ZMbmLC7OEuNFQOVmaBSzrhenvYk0=
-----END CERTIFICATE-----
