Certificate:
    Data:
        Version: 1 (0x0)
        Serial Number:
            9b:27:d7:e8:d1:ba:09:d3
        Signature Algorithm: md5WithRSAEncryption
        Issuer: C=DE, ST=Saarland, O=MPI-SWS, OU=Distributed Systems Group, CN=Andreas Haeberlen/emailAddress=democa@octarine.de
        Validity
            Not Before: Apr 20 20:47:19 2015 GMT
            Not After : Apr 19 20:47:19 2016 GMT
        Subject: C=DE, ST=Saarland, O=MPI-SWS, OU=Distributed Systems Group, CN=b4c5ddfa98da657fe21b23a9e3fc94e49a968902/emailAddress=node0507@octarine.de
        Subject Public Key Info:
            Public Key Algorithm: rsaEncryption
            RSA Public Key: (1024 bit)
                Modulus (1024 bit):
                    00:a2:65:c5:61:ef:0e:2c:be:d1:5e:9e:7f:55:8f:
                    3b:bb:26:dd:a1:2e:09:35:f3:44:f2:81:78:7f:99:
                    59:2e:36:46:39:af:e1:cc:b1:f3:77:d6:a5:75:c3:
                    91:01:ca:c9:e0:4d:3f:e3:17:a1:0c:71:35:85:17:
                    f3:9e:fc:63:0c:d8:a6:d6:a5:82:9e:b6:36:6f:1b:
                    d8:90:f3:f0:02:63:c4:c1:90:7f:80:49:c1:b2:24:
                    c9:41:18:74:b1:95:ff:72:ac:1b:c7:02:6c:e0:77:
                    f4:1b:de:2d:63:15:24:d1:39:98:fa:d2:19:4d:d4:
                    65:f1:49:2e:b9:e4:ea:0d:bd
                Exponent: 65537 (0x10001)
    Signature Algorithm: md5WithRSAEncryption
        cd:6d:d0:a4:08:88:98:d3:62:c7:fa:f1:26:e9:e6:02:89:2f:
        50:44:72:9c:84:ed:69:af:7e:a6:98:7b:94:71:df:0f:31:90:
        72:69:ac:39:3b:ab:5f:f8:3f:98:06:3a:9b:52:63:6d:6a:97:
        38:0b:5e:85:60:35:cd:37:a4:2c:83:33:06:31:88:0e:66:34:
        4e:ae:74:fb:59:98:a2:e2:6f:56:9b:26:bc:be:5f:79:7d:a8:
        be:50:05:8e:30:5f:04:6e:75:8c:3a:da:c6:9a:c5:b6:50:22:
        4b:91:4f:11:83:97:50:70:ff:e7:c6:98:f7:78:48:bc:7b:27:
        85:81
-----BEGIN CERTIFICATE-----
MIICvDCCAiUCCQCbJ9fo0boJ0zANBgkqhkiG9w0BAQQFADCBlTELMAkGA1UEBhMC
REUxETAPBgNVBAgTCFNhYXJsYW5kMRAwDgYDVQQKEwdNUEktU1dTMSIwIAYDVQQL
ExlEaXN0cmlidXRlZCBTeXN0ZW1zIEdyb3VwMRowGAYDVQQDExFBbmRyZWFzIEhh
ZWJlcmxlbjEhMB8GCSqGSIb3DQEJARYSZGVtb2NhQG9jdGFyaW5lLmRlMB4XDTE1
MDQyMDIwNDcxOVoXDTE2MDQxOTIwNDcxOVowga4xCzAJBgNVBAYTAkRFMREwDwYD
VQQIEwhTYWFybGFuZDEQMA4GA1UEChMHTVBJLVNXUzEiMCAGA1UECxMZRGlzdHJp
YnV0ZWQgU3lzdGVtcyBHcm91cDExMC8GA1UEAxMoYjRjNWRkZmE5OGRhNjU3ZmUy
MWIyM2E5ZTNmYzk0ZTQ5YTk2ODkwMjEjMCEGCSqGSIb3DQEJARYUbm9kZTA1MDdA
b2N0YXJpbmUuZGUwgZ8wDQYJKoZIhvcNAQEBBQADgY0AMIGJAoGBAKJlxWHvDiy+
0V6ef1WPO7sm3aEuCTXzRPKBeH+ZWS42Rjmv4cyx83fWpXXDkQHKyeBNP+MXoQxx
NYUX8578YwzYptalgp62Nm8b2JDz8AJjxMGQf4BJwbIkyUEYdLGV/3KsG8cCbOB3
9BveLWMVJNE5mPrSGU3UZfFJLrnk6g29AgMBAAEwDQYJKoZIhvcNAQEEBQADgYEA
zW3QpAiImNNix/rxJunmAokvUERynITtaa9+pph7lHHfDzGQcmmsOTurX/g/mAY6
m1JjbWqXOAtehWA1zTekLIMzBjGIDmY0Tq50+1mYouJvVpsmvL5feX2ovlAFjjBf
BG51jDraxprFtlAiS5FPEYOXUHD/58aY93hIvHsnhYE=
-----END CERTIFICATE-----
