Certificate:
    Data:
        Version: 1 (0x0)
        Serial Number:
            9b:27:d7:e8:d1:ba:08:e7
        Signature Algorithm: md5WithRSAEncryption
        Issuer: C=DE, ST=Saarland, O=MPI-SWS, OU=Distributed Systems Group, CN=Andreas Haeberlen/emailAddress=democa@octarine.de
        Validity
            Not Before: Apr 20 20:47:08 2015 GMT
            Not After : Apr 19 20:47:08 2016 GMT
        Subject: C=DE, ST=Saarland, O=MPI-SWS, OU=Distributed Systems Group, CN=2839459d3624cb6ccc81522637a77719f433ac0d/emailAddress=node0271@octarine.de
        Subject Public Key Info:
            Public Key Algorithm: rsaEncryption
            RSA Public Key: (1024 bit)
                Modulus (1024 bit):
                    00:c0:85:5d:96:ef:95:aa:74:2a:43:6e:85:63:92:
                    c2:d8:7c:c0:9a:5c:54:50:fa:bc:2a:cf:a2:a3:63:
                    ea:75:d1:66:ca:d5:fd:88:a6:e6:6a:62:6d:19:ef:
                    c1:4f:f1:c0:9e:b2:9d:fd:2e:29:24:6f:1b:72:05:
                    28:d9:60:9c:3b:be:70:8c:2a:1f:00:2a:3a:e4:16:
                    09:a6:f3:a9:ef:80:9f:fb:2a:7d:47:2d:69:50:b1:
                    87:82:84:ae:ec:2f:42:91:ef:d6:32:ea:de:6c:2b:
                    a6:3d:cd:95:65:a8:02:a9:f8:e2:8a:46:f8:ce:08:
                    63:0d:8e:42:db:b4:00:8c:b9
                Exponent: 65537 (0x10001)
    Signature Algorithm: md5WithRSAEncryption
        4e:32:53:6e:04:fe:a7:80:d0:bd:fa:59:51:ef:c8:51:10:c7:
        fd:b7:2e:8a:4e:20:00:07:88:74:be:50:75:71:3e:6b:ec:eb:
        bd:5a:3a:0b:b4:b4:7d:99:09:54:3a:b3:52:fa:ea:bf:24:57:
        d8:5e:f6:02:f6:a8:c0:c6:7b:88:e1:b6:4b:21:4e:15:9b:7a:
        66:58:8e:dc:31:b5:64:b4:46:67:41:91:18:03:9f:c1:49:1f:
        02:9c:28:d7:65:17:6e:32:1f:e5:77:b3:f9:89:13:78:5f:d7:
        fc:9d:22:b1:3d:45:81:8f:44:3e:d9:fc:1d:01:19:4b:4c:dd:
        67:bb
-----BEGIN CERTIFICATE-----
MIICvDCCAiUCCQCbJ9fo0boI5zANBgkqhkiG9w0BAQQFADCBlTELMAkGA1UEBhMC
REUxETAPBgNVBAgTCFNhYXJsYW5kMRAwDgYDVQQKEwdNUEktU1dTMSIwIAYDVQQL
ExlEaXN0cmlidXRlZCBTeXN0ZW1zIEdyb3VwMRowGAYDVQQDExFBbmRyZWFzIEhh
ZWJlcmxlbjEhMB8GCSqGSIb3DQEJARYSZGVtb2NhQG9jdGFyaW5lLmRlMB4XDTE1
MDQyMDIwNDcwOFoXDTE2MDQxOTIwNDcwOFowga4xCzAJBgNVBAYTAkRFMREwDwYD
VQQIEwhTYWFybGFuZDEQMA4GA1UEChMHTVBJLVNXUzEiMCAGA1UECxMZRGlzdHJp
YnV0ZWQgU3lzdGVtcyBHcm91cDExMC8GA1UEAxMoMjgzOTQ1OWQzNjI0Y2I2Y2Nj
ODE1MjI2MzdhNzc3MTlmNDMzYWMwZDEjMCEGCSqGSIb3DQEJARYUbm9kZTAyNzFA
b2N0YXJpbmUuZGUwgZ8wDQYJKoZIhvcNAQEBBQADgY0AMIGJAoGBAMCFXZbvlap0
KkNuhWOSwth8wJpcVFD6vCrPoqNj6nXRZsrV/Yim5mpibRnvwU/xwJ6ynf0uKSRv
G3IFKNlgnDu+cIwqHwAqOuQWCabzqe+An/sqfUctaVCxh4KEruwvQpHv1jLq3mwr
pj3NlWWoAqn44opG+M4IYw2OQtu0AIy5AgMBAAEwDQYJKoZIhvcNAQEEBQADgYEA
TjJTbgT+p4DQvfpZUe/IURDH/bcuik4gAAeIdL5QdXE+a+zrvVo6C7S0fZkJVDqz
UvrqvyRX2F72AvaowMZ7iOG2SyFOFZt6ZliO3DG1ZLRGZ0GRGAOfwUkfApwo12UX
bjIf5Xez+YkTeF/X/J0isT1FgY9EPtn8HQEZS0zdZ7s=
-----END CERTIFICATE-----
