Certificate:
    Data:
        Version: 1 (0x0)
        Serial Number:
            9b:27:d7:e8:d1:ba:07:eb
        Signature Algorithm: md5WithRSAEncryption
        Issuer: C=DE, ST=Saarland, O=MPI-SWS, OU=Distributed Systems Group, CN=Andreas Haeberlen/emailAddress=democa@octarine.de
        Validity
            Not Before: Apr 20 20:46:58 2015 GMT
            Not After : Apr 19 20:46:58 2016 GMT
        Subject: C=DE, ST=Saarland, O=MPI-SWS, OU=Distributed Systems Group, CN=facb42745bdf421f382af79fc1dd46141e0507a5/emailAddress=node0019@octarine.de
        Subject Public Key Info:
            Public Key Algorithm: rsaEncryption
            RSA Public Key: (1024 bit)
                Modulus (1024 bit):
                    00:b2:64:14:92:98:06:a7:06:67:16:a0:55:db:85:
                    7f:45:0b:76:42:e4:3f:42:02:d9:8c:03:2a:07:17:
                    25:40:5b:99:0d:6e:92:3e:37:16:79:6f:0f:80:5c:
                    22:15:c8:17:17:b6:63:50:a4:6d:ba:53:03:e5:ec:
                    26:8a:00:51:65:20:f3:23:ad:ff:4a:d2:a7:b2:76:
                    ff:bf:07:52:e5:cb:ca:81:37:7e:49:c0:9e:b3:72:
                    32:40:66:58:b1:c2:09:9b:bf:60:9a:a7:cd:d1:6b:
                    50:2b:17:6b:03:47:02:a7:08:9d:21:f2:b6:88:32:
                    16:3a:90:ee:7c:54:25:f4:1d
                Exponent: 65537 (0x10001)
    Signature Algorithm: md5WithRSAEncryption
        0b:c5:73:f4:6e:f8:f5:2a:19:a2:cf:50:3c:eb:61:e9:c8:85:
        5c:1b:f5:4b:fe:38:bf:b9:94:07:12:ef:29:25:45:ea:ae:c6:
        3f:f5:f3:a6:4d:1a:64:ee:de:68:78:2e:92:fd:b8:b9:b3:a2:
        ba:c8:ae:f3:87:73:2d:59:bf:5f:83:5e:9e:f4:a7:2f:75:d5:
        28:88:43:7c:3a:41:f2:10:7a:84:b8:64:8a:19:9a:61:5e:fe:
        f4:7b:91:e2:0b:82:eb:e0:e6:93:e4:7c:78:54:29:f7:10:7e:
        07:c9:70:66:12:30:b9:a1:7e:4b:ac:c1:8b:4d:85:de:a5:a3:
        82:22
-----BEGIN CERTIFICATE-----
MIICvDCCAiUCCQCbJ9fo0boH6zANBgkqhkiG9w0BAQQFADCBlTELMAkGA1UEBhMC
REUxETAPBgNVBAgTCFNhYXJsYW5kMRAwDgYDVQQKEwdNUEktU1dTMSIwIAYDVQQL
ExlEaXN0cmlidXRlZCBTeXN0ZW1zIEdyb3VwMRowGAYDVQQDExFBbmRyZWFzIEhh
ZWJlcmxlbjEhMB8GCSqGSIb3DQEJARYSZGVtb2NhQG9jdGFyaW5lLmRlMB4XDTE1
MDQyMDIwNDY1OFoXDTE2MDQxOTIwNDY1OFowga4xCzAJBgNVBAYTAkRFMREwDwYD
VQQIEwhTYWFybGFuZDEQMA4GA1UEChMHTVBJLVNXUzEiMCAGA1UECxMZRGlzdHJp
YnV0ZWQgU3lzdGVtcyBHcm91cDExMC8GA1UEAxMoZmFjYjQyNzQ1YmRmNDIxZjM4
MmFmNzlmYzFkZDQ2MTQxZTA1MDdhNTEjMCEGCSqGSIb3DQEJARYUbm9kZTAwMTlA
b2N0YXJpbmUuZGUwgZ8wDQYJKoZIhvcNAQEBBQADgY0AMIGJAoGBALJkFJKYBqcG
ZxagVduFf0ULdkLkP0IC2YwDKgcXJUBbmQ1ukj43FnlvD4BcIhXIFxe2Y1CkbbpT
A+XsJooAUWUg8yOt/0rSp7J2/78HUuXLyoE3fknAnrNyMkBmWLHCCZu/YJqnzdFr
UCsXawNHAqcInSHytogyFjqQ7nxUJfQdAgMBAAEwDQYJKoZIhvcNAQEEBQADgYEA
C8Vz9G749SoZos9QPOth6ciFXBv1S/44v7mUBxLvKSVF6q7GP/Xzpk0aZO7eaHgu
kv24ubOiusiu84dzLVm/X4NenvSnL3XVKIhDfDpB8hB6hLhkihmaYV7+9HuR4guC
6+Dmk+R8eFQp9xB+B8lwZhIwuaF+S6zBi02F3qWjgiI=
-----END CERTIFICATE-----
