Certificate:
    Data:
        Version: 1 (0x0)
        Serial Number:
            9b:27:d7:e8:d1:ba:0b:90
        Signature Algorithm: md5WithRSAEncryption
        Issuer: C=DE, ST=Saarland, O=MPI-SWS, OU=Distributed Systems Group, CN=Andreas Haeberlen/emailAddress=democa@octarine.de
        Validity
            Not Before: Apr 20 20:47:39 2015 GMT
            Not After : Apr 19 20:47:39 2016 GMT
        Subject: C=DE, ST=Saarland, O=MPI-SWS, OU=Distributed Systems Group, CN=ceb4919847cbb2b1b56c193348ee013c0f190a25/emailAddress=node0952@octarine.de
        Subject Public Key Info:
            Public Key Algorithm: rsaEncryption
            RSA Public Key: (1024 bit)
                Modulus (1024 bit):
                    00:e3:aa:3e:30:5b:7d:86:1f:5c:bf:d8:4f:f0:f5:
                    44:0b:6b:da:3e:fe:4d:8a:31:7c:5b:dc:55:57:27:
                    6a:40:9f:6a:56:0b:24:dd:77:4c:be:9c:06:ba:58:
                    9c:5e:5f:6e:bc:c8:bf:6c:7f:19:b8:3d:66:fe:8e:
                    b8:6a:3d:9d:25:50:6c:91:46:ed:5f:9f:a0:34:1b:
                    4a:8b:00:54:96:6a:29:f6:4c:b9:75:ca:d4:d4:0f:
                    da:6e:49:37:13:9a:9f:11:45:7e:32:d3:c1:59:52:
                    3e:84:d7:0c:c6:c3:f8:6e:08:d6:10:28:3d:47:0e:
                    46:61:86:b7:ea:9c:79:a8:7d
                Exponent: 65537 (0x10001)
    Signature Algorithm: md5WithRSAEncryption
        70:d6:bb:0b:f0:c0:22:8e:73:03:3e:58:69:2c:66:07:15:ba:
        12:78:97:c2:e2:ed:d0:c0:4e:cb:ae:c2:1a:f8:b3:b0:e2:5b:
        99:fd:b5:a9:e0:c1:34:83:4a:34:c2:20:c4:79:2b:1a:ea:70:
        77:84:7e:70:26:14:31:78:f6:8b:5c:c6:1e:b8:80:4d:38:0e:
        f7:27:6c:2c:cb:0b:fd:b4:36:55:76:2b:31:7f:1f:93:e4:db:
        58:cf:06:8a:72:b0:de:8e:9d:fc:07:b3:42:58:26:0b:df:31:
        a0:0f:ac:2f:35:5c:bd:ad:1b:1f:58:60:c9:60:ab:43:15:12:
        ff:ff
-----BEGIN CERTIFICATE-----
MIICvDCCAiUCCQCbJ9fo0boLkDANBgkqhkiG9w0BAQQFADCBlTELMAkGA1UEBhMC
REUxETAPBgNVBAgTCFNhYXJsYW5kMRAwDgYDVQQKEwdNUEktU1dTMSIwIAYDVQQL
ExlEaXN0cmlidXRlZCBTeXN0ZW1zIEdyb3VwMRowGAYDVQQDExFBbmRyZWFzIEhh
ZWJlcmxlbjEhMB8GCSqGSIb3DQEJARYSZGVtb2NhQG9jdGFyaW5lLmRlMB4XDTE1
MDQyMDIwNDczOVoXDTE2MDQxOTIwNDczOVowga4xCzAJBgNVBAYTAkRFMREwDwYD
VQQIEwhTYWFybGFuZDEQMA4GA1UEChMHTVBJLVNXUzEiMCAGA1UECxMZRGlzdHJp
YnV0ZWQgU3lzdGVtcyBHcm91cDExMC8GA1UEAxMoY2ViNDkxOTg0N2NiYjJiMWI1
NmMxOTMzNDhlZTAxM2MwZjE5MGEyNTEjMCEGCSqGSIb3DQEJARYUbm9kZTA5NTJA
b2N0YXJpbmUuZGUwgZ8wDQYJKoZIhvcNAQEBBQADgY0AMIGJAoGBAOOqPjBbfYYf
XL/YT/D1RAtr2j7+TYoxfFvcVVcnakCfalYLJN13TL6cBrpYnF5fbrzIv2x/Gbg9
Zv6OuGo9nSVQbJFG7V+foDQbSosAVJZqKfZMuXXK1NQP2m5JNxOanxFFfjLTwVlS
PoTXDMbD+G4I1hAoPUcORmGGt+qceah9AgMBAAEwDQYJKoZIhvcNAQEEBQADgYEA
cNa7C/DAIo5zAz5YaSxmBxW6EniXwuLt0MBOy67CGvizsOJbmf21qeDBNINKNMIg
xHkrGupwd4R+cCYUMXj2i1zGHriATTgO9ydsLMsL/bQ2VXYrMX8fk+TbWM8GinKw
3o6d/AezQlgmC98xoA+sLzVcva0bH1hgyWCrQxUS//8=
-----END CERTIFICATE-----
