Certificate:
    Data:
        Version: 1 (0x0)
        Serial Number:
            9b:27:d7:e8:d1:ba:0b:83
        Signature Algorithm: md5WithRSAEncryption
        Issuer: C=DE, ST=Saarland, O=MPI-SWS, OU=Distributed Systems Group, CN=Andreas Haeberlen/emailAddress=democa@octarine.de
        Validity
            Not Before: Apr 20 20:47:38 2015 GMT
            Not After : Apr 19 20:47:38 2016 GMT
        Subject: C=DE, ST=Saarland, O=MPI-SWS, OU=Distributed Systems Group, CN=6d65a4b9134e9aa026a124d70ac8ff96cfc73715/emailAddress=node0939@octarine.de
        Subject Public Key Info:
            Public Key Algorithm: rsaEncryption
            RSA Public Key: (1024 bit)
                Modulus (1024 bit):
                    00:c9:cb:b2:1d:2e:07:5a:7c:c3:94:2d:65:d8:b3:
                    59:80:87:dc:d9:ac:91:30:d8:43:ee:da:c3:f3:ac:
                    cb:41:7b:a4:5e:39:73:22:c0:02:ca:bc:e9:4d:c9:
                    36:c3:55:68:94:88:70:33:48:32:5b:6d:f5:28:cc:
                    55:ee:8e:cb:d8:0b:9a:8f:0b:73:d5:b8:66:9b:d2:
                    37:ed:01:93:a8:8b:c1:21:a6:32:fe:f3:24:53:24:
                    0b:1f:17:cb:b7:99:0e:3b:c6:e4:68:a8:09:b8:5f:
                    85:74:62:3e:15:4b:7c:70:2c:b0:99:26:6c:39:62:
                    75:5f:2d:26:c8:e0:dc:e9:23
                Exponent: 65537 (0x10001)
    Signature Algorithm: md5WithRSAEncryption
        66:1a:49:81:5c:fc:63:01:c7:ef:6f:93:2b:13:9f:70:b6:ed:
        63:c7:d4:0b:69:66:3b:7e:95:11:d1:40:87:e2:46:e8:59:62:
        c8:3c:de:5c:34:8f:4f:33:0b:07:a0:cb:5f:dd:6e:aa:a5:90:
        2e:09:e1:a4:00:4b:ad:15:4c:62:db:9d:0d:ad:5a:1f:94:8c:
        57:9f:58:66:e8:3d:8f:26:7c:81:69:28:53:f0:84:a4:8c:b9:
        1c:5b:66:a0:cd:30:9d:ae:04:d1:c4:a8:2a:cb:b8:e6:0a:7a:
        4a:54:e1:4e:24:3f:c2:da:68:a8:ca:bb:24:5c:2d:5d:4a:59:
        b7:e3
-----BEGIN CERTIFICATE-----
MIICvDCCAiUCCQCbJ9fo0boLgzANBgkqhkiG9w0BAQQFADCBlTELMAkGA1UEBhMC
REUxETAPBgNVBAgTCFNhYXJsYW5kMRAwDgYDVQQKEwdNUEktU1dTMSIwIAYDVQQL
ExlEaXN0cmlidXRlZCBTeXN0ZW1zIEdyb3VwMRowGAYDVQQDExFBbmRyZWFzIEhh
ZWJlcmxlbjEhMB8GCSqGSIb3DQEJARYSZGVtb2NhQG9jdGFyaW5lLmRlMB4XDTE1
MDQyMDIwNDczOFoXDTE2MDQxOTIwNDczOFowga4xCzAJBgNVBAYTAkRFMREwDwYD
VQQIEwhTYWFybGFuZDEQMA4GA1UEChMHTVBJLVNXUzEiMCAGA1UECxMZRGlzdHJp
YnV0ZWQgU3lzdGVtcyBHcm91cDExMC8GA1UEAxMoNmQ2NWE0YjkxMzRlOWFhMDI2
YTEyNGQ3MGFjOGZmOTZjZmM3MzcxNTEjMCEGCSqGSIb3DQEJARYUbm9kZTA5MzlA
b2N0YXJpbmUuZGUwgZ8wDQYJKoZIhvcNAQEBBQADgY0AMIGJAoGBAMnLsh0uB1p8
w5QtZdizWYCH3NmskTDYQ+7aw/Osy0F7pF45cyLAAsq86U3JNsNVaJSIcDNIMltt
9SjMVe6Oy9gLmo8Lc9W4ZpvSN+0Bk6iLwSGmMv7zJFMkCx8Xy7eZDjvG5GioCbhf
hXRiPhVLfHAssJkmbDlidV8tJsjg3OkjAgMBAAEwDQYJKoZIhvcNAQEEBQADgYEA
ZhpJgVz8YwHH72+TKxOfcLbtY8fUC2lmO36VEdFAh+JG6FliyDzeXDSPTzMLB6DL
X91uqqWQLgnhpABLrRVMYtudDa1aH5SMV59YZug9jyZ8gWkoU/CEpIy5HFtmoM0w
na4E0cSoKsu45gp6SlThTiQ/wtpoqMq7JFwtXUpZt+M=
-----END CERTIFICATE-----
