Certificate:
    Data:
        Version: 1 (0x0)
        Serial Number:
            9b:27:d7:e8:d1:ba:08:73
        Signature Algorithm: md5WithRSAEncryption
        Issuer: C=DE, ST=Saarland, O=MPI-SWS, OU=Distributed Systems Group, CN=Andreas Haeberlen/emailAddress=democa@octarine.de
        Validity
            Not Before: Apr 20 20:47:03 2015 GMT
            Not After : Apr 19 20:47:03 2016 GMT
        Subject: C=DE, ST=Saarland, O=MPI-SWS, OU=Distributed Systems Group, CN=e69c37fc1da87117e9d2252cdd6f60a4741ab07d/emailAddress=node0155@octarine.de
        Subject Public Key Info:
            Public Key Algorithm: rsaEncryption
            RSA Public Key: (1024 bit)
                Modulus (1024 bit):
                    00:b7:77:a8:dd:58:f0:68:34:47:3f:69:5d:ac:e9:
                    02:78:db:65:e6:76:fe:e3:4d:ec:11:06:61:f3:55:
                    14:ae:79:38:f0:6d:8c:82:78:36:ff:67:1f:81:e4:
                    37:40:4d:06:e6:4d:26:ed:d6:9d:31:b8:e8:96:f2:
                    13:04:75:60:a2:66:32:cd:05:00:72:e4:d7:3f:db:
                    48:87:fc:f2:81:ec:4c:2d:ef:98:55:38:5b:46:21:
                    ba:42:8a:6d:2c:bb:3d:26:5d:c5:34:79:e1:92:5e:
                    8b:53:36:44:eb:ff:a3:d5:c9:49:20:8e:e7:97:11:
                    22:a5:e1:98:91:c5:d1:16:91
                Exponent: 65537 (0x10001)
    Signature Algorithm: md5WithRSAEncryption
        9e:90:ea:70:1e:53:a3:6d:6b:90:75:01:c9:77:0d:78:00:95:
        e4:71:56:24:e3:c5:7e:5a:79:90:d3:27:61:f8:55:6c:04:c4:
        ea:fc:8e:48:d2:09:f0:a1:2b:27:4f:cd:b8:65:b6:4d:00:dc:
        ad:8f:cb:b3:08:b8:14:ad:8e:d0:a2:f3:5b:dc:2a:bd:5b:60:
        22:f1:fe:97:28:2e:15:e4:02:cc:3d:9f:94:94:a0:62:26:b0:
        8a:bf:38:15:9f:28:91:14:6a:ab:f0:17:e1:e2:5a:e3:e7:a7:
        da:b1:55:1c:a1:52:f8:b3:c0:b1:b0:94:d1:da:6b:5e:6e:84:
        c1:d5
-----BEGIN CERTIFICATE-----
MIICvDCCAiUCCQCbJ9fo0boIczANBgkqhkiG9w0BAQQFADCBlTELMAkGA1UEBhMC
REUxETAPBgNVBAgTCFNhYXJsYW5kMRAwDgYDVQQKEwdNUEktU1dTMSIwIAYDVQQL
ExlEaXN0cmlidXRlZCBTeXN0ZW1zIEdyb3VwMRowGAYDVQQDExFBbmRyZWFzIEhh
ZWJlcmxlbjEhMB8GCSqGSIb3DQEJARYSZGVtb2NhQG9jdGFyaW5lLmRlMB4XDTE1
MDQyMDIwNDcwM1oXDTE2MDQxOTIwNDcwM1owga4xCzAJBgNVBAYTAkRFMREwDwYD
VQQIEwhTYWFybGFuZDEQMA4GA1UEChMHTVBJLVNXUzEiMCAGA1UECxMZRGlzdHJp
YnV0ZWQgU3lzdGVtcyBHcm91cDExMC8GA1UEAxMoZTY5YzM3ZmMxZGE4NzExN2U5
ZDIyNTJjZGQ2ZjYwYTQ3NDFhYjA3ZDEjMCEGCSqGSIb3DQEJARYUbm9kZTAxNTVA
b2N0YXJpbmUuZGUwgZ8wDQYJKoZIhvcNAQEBBQADgY0AMIGJAoGBALd3qN1Y8Gg0
Rz9pXazpAnjbZeZ2/uNN7BEGYfNVFK55OPBtjIJ4Nv9nH4HkN0BNBuZNJu3WnTG4
6JbyEwR1YKJmMs0FAHLk1z/bSIf88oHsTC3vmFU4W0YhukKKbSy7PSZdxTR54ZJe
i1M2ROv/o9XJSSCO55cRIqXhmJHF0RaRAgMBAAEwDQYJKoZIhvcNAQEEBQADgYEA
npDqcB5To21rkHUByXcNeACV5HFWJOPFflp5kNMnYfhVbATE6vyOSNIJ8KErJ0/N
uGW2TQDcrY/Lswi4FK2O0KLzW9wqvVtgIvH+lyguFeQCzD2flJSgYiawir84FZ8o
kRRqq/AX4eJa4+en2rFVHKFS+LPAsbCU0dprXm6EwdU=
-----END CERTIFICATE-----
