Certificate:
    Data:
        Version: 1 (0x0)
        Serial Number:
            9b:27:d7:e8:d1:ba:0a:42
        Signature Algorithm: md5WithRSAEncryption
        Issuer: C=DE, ST=Saarland, O=MPI-SWS, OU=Distributed Systems Group, CN=Andreas Haeberlen/emailAddress=democa@octarine.de
        Validity
            Not Before: Apr 20 20:47:24 2015 GMT
            Not After : Apr 19 20:47:24 2016 GMT
        Subject: C=DE, ST=Saarland, O=MPI-SWS, OU=Distributed Systems Group, CN=9d7e63bfeda9211c87c9437848eba7635d1c1db0/emailAddress=node0618@octarine.de
        Subject Public Key Info:
            Public Key Algorithm: rsaEncryption
            RSA Public Key: (1024 bit)
                Modulus (1024 bit):
                    00:cd:0e:30:bf:67:01:a8:77:f0:f5:6c:b2:3a:99:
                    4a:a9:80:e5:dd:fa:db:67:4d:c4:e5:f3:85:81:6a:
                    dd:db:8e:6f:ae:b8:c7:07:fc:ca:06:6f:ae:71:2f:
                    57:5f:33:81:1d:c0:60:d4:09:34:62:57:26:19:ad:
                    6f:d8:19:68:4d:e0:bf:31:b7:72:a0:6f:27:9b:dc:
                    35:79:c9:d3:12:74:14:c0:e6:b8:3e:dd:e2:58:c3:
                    3e:c3:5f:1b:32:6a:9f:b3:34:df:7b:21:77:2f:7e:
                    49:ba:8b:11:76:13:82:84:65:cd:4c:ea:6c:0c:09:
                    99:87:6e:b0:eb:cf:93:76:e5
                Exponent: 65537 (0x10001)
    Signature Algorithm: md5WithRSAEncryption
        b4:75:bb:ed:00:2b:48:16:ab:31:01:74:fc:3e:35:98:b4:c3:
        08:1d:18:ab:da:4c:df:31:de:9e:b7:35:a3:e2:77:5c:93:60:
        c2:9a:c6:69:dd:4c:78:c0:38:7c:fb:4a:c4:69:77:46:7a:6b:
        60:31:8e:6e:76:bc:b1:24:81:c6:1d:6f:2c:05:70:6b:fb:88:
        95:44:92:27:06:cd:d9:a3:28:24:49:f5:89:3b:30:65:3b:e1:
        94:cc:ca:83:b8:b5:c2:d1:3f:82:9f:dd:27:17:b9:42:e4:ee:
        11:e9:8a:21:93:62:e2:14:88:c5:2c:fb:44:88:4f:89:3f:82:
        53:31
-----BEGIN CERTIFICATE-----
MIICvDCCAiUCCQCbJ9fo0boKQjANBgkqhkiG9w0BAQQFADCBlTELMAkGA1UEBhMC
REUxETAPBgNVBAgTCFNhYXJsYW5kMRAwDgYDVQQKEwdNUEktU1dTMSIwIAYDVQQL
ExlEaXN0cmlidXRlZCBTeXN0ZW1zIEdyb3VwMRowGAYDVQQDExFBbmRyZWFzIEhh
ZWJlcmxlbjEhMB8GCSqGSIb3DQEJARYSZGVtb2NhQG9jdGFyaW5lLmRlMB4XDTE1
MDQyMDIwNDcyNFoXDTE2MDQxOTIwNDcyNFowga4xCzAJBgNVBAYTAkRFMREwDwYD
VQQIEwhTYWFybGFuZDEQMA4GA1UEChMHTVBJLVNXUzEiMCAGA1UECxMZRGlzdHJp
YnV0ZWQgU3lzdGVtcyBHcm91cDExMC8GA1UEAxMoOWQ3ZTYzYmZlZGE5MjExYzg3
Yzk0Mzc4NDhlYmE3NjM1ZDFjMWRiMDEjMCEGCSqGSIb3DQEJARYUbm9kZTA2MThA
b2N0YXJpbmUuZGUwgZ8wDQYJKoZIhvcNAQEBBQADgY0AMIGJAoGBAM0OML9nAah3
8PVssjqZSqmA5d3622dNxOXzhYFq3duOb664xwf8ygZvrnEvV18zgR3AYNQJNGJX
Jhmtb9gZaE3gvzG3cqBvJ5vcNXnJ0xJ0FMDmuD7d4ljDPsNfGzJqn7M033shdy9+
SbqLEXYTgoRlzUzqbAwJmYdusOvPk3blAgMBAAEwDQYJKoZIhvcNAQEEBQADgYEA
tHW77QArSBarMQF0/D41mLTDCB0Yq9pM3zHenrc1o+J3XJNgwprGad1MeMA4fPtK
xGl3RnprYDGObna8sSSBxh1vLAVwa/uIlUSSJwbN2aMoJEn1iTswZTvhlMzKg7i1
wtE/gp/dJxe5QuTuEemKIZNi4hSIxSz7RIhPiT+CUzE=
-----END CERTIFICATE-----
