Certificate:
    Data:
        Version: 1 (0x0)
        Serial Number:
            9b:27:d7:e8:d1:ba:08:33
        Signature Algorithm: md5WithRSAEncryption
        Issuer: C=DE, ST=Saarland, O=MPI-SWS, OU=Distributed Systems Group, CN=Andreas Haeberlen/emailAddress=democa@octarine.de
        Validity
            Not Before: Apr 20 20:47:00 2015 GMT
            Not After : Apr 19 20:47:00 2016 GMT
        Subject: C=DE, ST=Saarland, O=MPI-SWS, OU=Distributed Systems Group, CN=5266800f497c795e4c8fa543d786ed0307a87a8b/emailAddress=node0091@octarine.de
        Subject Public Key Info:
            Public Key Algorithm: rsaEncryption
            RSA Public Key: (1024 bit)
                Modulus (1024 bit):
                    00:b2:4d:16:5d:4c:c5:87:cd:c0:b3:f4:e5:22:e1:
                    4d:4e:59:af:4a:b4:03:39:c4:d5:7b:3c:a6:36:50:
                    2f:3f:a7:51:04:c9:48:16:2a:e9:6b:b9:36:8e:3f:
                    e6:32:e6:a1:f5:3d:d2:be:45:22:23:93:87:dc:a5:
                    46:0e:66:25:c7:ad:c9:6f:70:92:81:9c:c3:bf:5a:
                    4d:66:81:4a:7a:3d:d1:21:1f:97:8d:0f:3d:fc:03:
                    33:cb:6c:76:aa:2a:ad:58:ea:11:67:e9:48:4f:08:
                    71:ac:47:44:0c:ec:b1:68:2f:ad:fb:b6:03:ab:43:
                    73:f6:61:67:5e:8c:59:2a:1b
                Exponent: 65537 (0x10001)
    Signature Algorithm: md5WithRSAEncryption
        38:43:d1:66:fc:24:83:50:37:2e:25:89:c1:2d:a9:b6:c8:78:
        fa:fe:e4:b6:0c:86:20:5d:36:33:cf:5b:fb:08:68:b2:6c:ef:
        b4:c2:21:7d:20:44:b7:70:4c:a1:a3:f0:48:ef:b5:9b:7f:fc:
        6c:66:a4:ae:4b:02:85:03:94:17:2f:90:5b:a5:d7:17:c2:70:
        6e:28:3f:71:0c:b5:f7:f1:9c:24:51:1d:a2:aa:03:5c:20:f5:
        1e:b0:60:68:bb:34:23:9e:da:92:52:3a:26:8a:5e:db:f4:32:
        1a:2f:0a:80:fe:f8:d1:cc:3f:5e:b3:58:96:53:a4:99:5b:ee:
        3a:58
-----BEGIN CERTIFICATE-----
MIICvDCCAiUCCQCbJ9fo0boIMzANBgkqhkiG9w0BAQQFADCBlTELMAkGA1UEBhMC
REUxETAPBgNVBAgTCFNhYXJsYW5kMRAwDgYDVQQKEwdNUEktU1dTMSIwIAYDVQQL
ExlEaXN0cmlidXRlZCBTeXN0ZW1zIEdyb3VwMRowGAYDVQQDExFBbmRyZWFzIEhh
ZWJlcmxlbjEhMB8GCSqGSIb3DQEJARYSZGVtb2NhQG9jdGFyaW5lLmRlMB4XDTE1
MDQyMDIwNDcwMFoXDTE2MDQxOTIwNDcwMFowga4xCzAJBgNVBAYTAkRFMREwDwYD
VQQIEwhTYWFybGFuZDEQMA4GA1UEChMHTVBJLVNXUzEiMCAGA1UECxMZRGlzdHJp
YnV0ZWQgU3lzdGVtcyBHcm91cDExMC8GA1UEAxMoNTI2NjgwMGY0OTdjNzk1ZTRj
OGZhNTQzZDc4NmVkMDMwN2E4N2E4YjEjMCEGCSqGSIb3DQEJARYUbm9kZTAwOTFA
b2N0YXJpbmUuZGUwgZ8wDQYJKoZIhvcNAQEBBQADgY0AMIGJAoGBALJNFl1MxYfN
wLP05SLhTU5Zr0q0AznE1Xs8pjZQLz+nUQTJSBYq6Wu5No4/5jLmofU90r5FIiOT
h9ylRg5mJcetyW9wkoGcw79aTWaBSno90SEfl40PPfwDM8tsdqoqrVjqEWfpSE8I
caxHRAzssWgvrfu2A6tDc/ZhZ16MWSobAgMBAAEwDQYJKoZIhvcNAQEEBQADgYEA
OEPRZvwkg1A3LiWJwS2ptsh4+v7ktgyGIF02M89b+whosmzvtMIhfSBEt3BMoaPw
SO+1m3/8bGakrksChQOUFy+QW6XXF8Jwbig/cQy19/GcJFEdoqoDXCD1HrBgaLs0
I57aklI6Jope2/QyGi8KgP740cw/XrNYllOkmVvuOlg=
-----END CERTIFICATE-----
