Certificate:
    Data:
        Version: 1 (0x0)
        Serial Number:
            9b:27:d7:e8:d1:ba:0a:aa
        Signature Algorithm: md5WithRSAEncryption
        Issuer: C=DE, ST=Saarland, O=MPI-SWS, OU=Distributed Systems Group, CN=Andreas Haeberlen/emailAddress=democa@octarine.de
        Validity
            Not Before: Apr 20 20:47:29 2015 GMT
            Not After : Apr 19 20:47:29 2016 GMT
        Subject: C=DE, ST=Saarland, O=MPI-SWS, OU=Distributed Systems Group, CN=1ef825e5eb1584a8e42d3ff2ed165a5795fbad08/emailAddress=node0722@octarine.de
        Subject Public Key Info:
            Public Key Algorithm: rsaEncryption
            RSA Public Key: (1024 bit)
                Modulus (1024 bit):
                    00:ce:26:c9:7a:c2:6a:5a:df:2f:b2:8b:9c:ae:fa:
                    0c:5e:ef:91:1a:c6:3f:ec:df:b9:e8:e4:48:16:cc:
                    61:60:77:a3:d4:d1:0e:f4:31:6b:d9:0f:3f:48:00:
                    17:b1:1b:ee:54:b7:95:4f:f5:21:9e:bc:29:07:63:
                    49:21:28:59:6b:a6:24:78:88:be:98:8a:97:2d:70:
                    1c:49:1b:cd:21:e8:38:56:2e:ed:86:4c:5c:e2:af:
                    0f:5b:3a:31:4c:bb:0e:46:c5:ea:66:74:53:c9:3b:
                    5e:80:99:da:3b:7d:db:8c:19:b8:ee:a1:52:cf:2a:
                    9c:f1:04:54:c8:f5:ef:71:03
                Exponent: 65537 (0x10001)
    Signature Algorithm: md5WithRSAEncryption
        46:9e:75:22:d3:80:af:43:0e:12:08:9e:db:15:59:1a:e4:f6:
        67:cb:38:14:e6:61:14:8b:66:c2:bc:30:aa:69:60:ec:52:6c:
        e9:53:73:72:38:e2:d8:e1:50:72:24:25:f0:77:3e:9b:fb:e1:
        65:ad:84:ce:2d:cd:a1:85:1a:d3:64:ee:4e:3c:cc:6f:d4:8b:
        99:f3:96:f4:58:0a:e4:ae:ae:ac:ee:4b:5c:7a:53:22:8c:1d:
        92:cb:da:65:9c:58:93:7a:f3:08:a3:37:f2:96:6a:c3:1f:58:
        c0:c0:16:63:8c:87:3f:52:5e:e6:1d:61:f1:df:dd:e4:c5:d6:
        28:0b
-----BEGIN CERTIFICATE-----
MIICvDCCAiUCCQCbJ9fo0boKqjANBgkqhkiG9w0BAQQFADCBlTELMAkGA1UEBhMC
REUxETAPBgNVBAgTCFNhYXJsYW5kMRAwDgYDVQQKEwdNUEktU1dTMSIwIAYDVQQL
ExlEaXN0cmlidXRlZCBTeXN0ZW1zIEdyb3VwMRowGAYDVQQDExFBbmRyZWFzIEhh
ZWJlcmxlbjEhMB8GCSqGSIb3DQEJARYSZGVtb2NhQG9jdGFyaW5lLmRlMB4XDTE1
MDQyMDIwNDcyOVoXDTE2MDQxOTIwNDcyOVowga4xCzAJBgNVBAYTAkRFMREwDwYD
VQQIEwhTYWFybGFuZDEQMA4GA1UEChMHTVBJLVNXUzEiMCAGA1UECxMZRGlzdHJp
YnV0ZWQgU3lzdGVtcyBHcm91cDExMC8GA1UEAxMoMWVmODI1ZTVlYjE1ODRhOGU0
MmQzZmYyZWQxNjVhNTc5NWZiYWQwODEjMCEGCSqGSIb3DQEJARYUbm9kZTA3MjJA
b2N0YXJpbmUuZGUwgZ8wDQYJKoZIhvcNAQEBBQADgY0AMIGJAoGBAM4myXrCalrf
L7KLnK76DF7vkRrGP+zfuejkSBbMYWB3o9TRDvQxa9kPP0gAF7Eb7lS3lU/1IZ68
KQdjSSEoWWumJHiIvpiKly1wHEkbzSHoOFYu7YZMXOKvD1s6MUy7DkbF6mZ0U8k7
XoCZ2jt924wZuO6hUs8qnPEEVMj173EDAgMBAAEwDQYJKoZIhvcNAQEEBQADgYEA
Rp51ItOAr0MOEgie2xVZGuT2Z8s4FOZhFItmwrwwqmlg7FJs6VNzcjji2OFQciQl
8Hc+m/vhZa2Ezi3NoYUa02TuTjzMb9SLmfOW9FgK5K6urO5LXHpTIowdksvaZZxY
k3rzCKM38pZqwx9YwMAWY4yHP1Je5h1h8d/d5MXWKAs=
-----END CERTIFICATE-----
