Certificate:
    Data:
        Version: 1 (0x0)
        Serial Number:
            9b:27:d7:e8:d1:ba:09:f3
        Signature Algorithm: md5WithRSAEncryption
        Issuer: C=DE, ST=Saarland, O=MPI-SWS, OU=Distributed Systems Group, CN=Andreas Haeberlen/emailAddress=democa@octarine.de
        Validity
            Not Before: Apr 20 20:47:20 2015 GMT
            Not After : Apr 19 20:47:20 2016 GMT
        Subject: C=DE, ST=Saarland, O=MPI-SWS, OU=Distributed Systems Group, CN=a6a181635a929439b7ed34159f9057afd50666ac/emailAddress=node0539@octarine.de
        Subject Public Key Info:
            Public Key Algorithm: rsaEncryption
            RSA Public Key: (1024 bit)
                Modulus (1024 bit):
                    00:dd:86:8b:a9:c4:10:6e:7a:af:f9:30:c6:c4:f4:
                    02:61:95:06:ac:0c:f7:80:25:2e:b5:82:70:cd:91:
                    9d:c4:01:ce:f2:ad:b4:34:d5:20:e7:32:58:a3:5b:
                    99:9f:8d:4b:5a:f6:92:91:e8:e1:b8:16:0b:20:10:
                    7f:fc:0f:05:0d:35:c0:40:dc:72:d6:3b:2f:d5:f2:
                    83:1f:2b:ac:1b:5a:80:84:c1:20:b9:20:9c:ce:55:
                    0d:2d:8a:4a:27:f6:d7:8e:bf:70:4b:13:34:19:b9:
                    75:da:c6:4e:6d:59:bc:18:d5:a2:67:6c:ab:43:1b:
                    6f:6e:91:ab:1d:ce:b0:df:b1
                Exponent: 65537 (0x10001)
    Signature Algorithm: md5WithRSAEncryption
        17:7e:9e:b0:de:c7:4f:ce:03:33:91:2e:ee:ee:d9:63:ef:52:
        10:87:42:43:c5:e4:8f:d0:3f:76:3e:d6:b1:73:a5:eb:cf:5f:
        b6:cd:82:b9:40:7b:28:9c:68:90:1d:d6:14:ba:63:fc:1c:2b:
        e1:ec:40:bb:ee:16:bf:8f:ed:66:fb:a7:1a:b4:b6:e8:32:d7:
        9c:e3:cd:d5:cb:60:e8:82:40:ed:53:f9:e6:87:ad:ae:d3:c3:
        1b:08:2c:3a:02:36:8d:0e:95:2d:ce:71:da:6f:d0:af:46:04:
        ac:c0:27:21:10:e6:46:19:82:f1:21:f7:ed:b5:2d:0b:1e:ab:
        da:8f
-----BEGIN CERTIFICATE-----
MIICvDCCAiUCCQCbJ9fo0boJ8zANBgkqhkiG9w0BAQQFADCBlTELMAkGA1UEBhMC
REUxETAPBgNVBAgTCFNhYXJsYW5kMRAwDgYDVQQKEwdNUEktU1dTMSIwIAYDVQQL
ExlEaXN0cmlidXRlZCBTeXN0ZW1zIEdyb3VwMRowGAYDVQQDExFBbmRyZWFzIEhh
ZWJlcmxlbjEhMB8GCSqGSIb3DQEJARYSZGVtb2NhQG9jdGFyaW5lLmRlMB4XDTE1
MDQyMDIwNDcyMFoXDTE2MDQxOTIwNDcyMFowga4xCzAJBgNVBAYTAkRFMREwDwYD
VQQIEwhTYWFybGFuZDEQMA4GA1UEChMHTVBJLVNXUzEiMCAGA1UECxMZRGlzdHJp
YnV0ZWQgU3lzdGVtcyBHcm91cDExMC8GA1UEAxMoYTZhMTgxNjM1YTkyOTQzOWI3
ZWQzNDE1OWY5MDU3YWZkNTA2NjZhYzEjMCEGCSqGSIb3DQEJARYUbm9kZTA1MzlA
b2N0YXJpbmUuZGUwgZ8wDQYJKoZIhvcNAQEBBQADgY0AMIGJAoGBAN2Gi6nEEG56
r/kwxsT0AmGVBqwM94AlLrWCcM2RncQBzvKttDTVIOcyWKNbmZ+NS1r2kpHo4bgW
CyAQf/wPBQ01wEDcctY7L9Xygx8rrBtagITBILkgnM5VDS2KSif2146/cEsTNBm5
ddrGTm1ZvBjVomdsq0Mbb26Rqx3OsN+xAgMBAAEwDQYJKoZIhvcNAQEEBQADgYEA
F36esN7HT84DM5Eu7u7ZY+9SEIdCQ8Xkj9A/dj7WsXOl689fts2CuUB7KJxokB3W
FLpj/Bwr4exAu+4Wv4/tZvunGrS26DLXnOPN1ctg6IJA7VP55oetrtPDGwgsOgI2
jQ6VLc5x2m/Qr0YErMAnIRDmRhmC8SH37bUtCx6r2o8=
-----END CERTIFICATE-----
