Certificate:
    Data:
        Version: 1 (0x0)
        Serial Number:
            9b:27:d7:e8:d1:ba:09:6c
        Signature Algorithm: md5WithRSAEncryption
        Issuer: C=DE, ST=Saarland, O=MPI-SWS, OU=Distributed Systems Group, CN=Andreas Haeberlen/emailAddress=democa@octarine.de
        Validity
            Not Before: Apr 20 20:47:14 2015 GMT
            Not After : Apr 19 20:47:14 2016 GMT
        Subject: C=DE, ST=Saarland, O=MPI-SWS, OU=Distributed Systems Group, CN=7e869f0e188688aaf107fb2fdde35c4dbc34c43d/emailAddress=node0404@octarine.de
        Subject Public Key Info:
            Public Key Algorithm: rsaEncryption
            RSA Public Key: (1024 bit)
                Modulus (1024 bit):
                    00:a9:e3:bb:85:c8:5e:1b:7b:e3:20:6f:91:37:12:
                    97:4f:16:17:b5:62:ee:5d:e8:c1:7f:5c:e3:41:31:
                    96:54:91:d2:39:e7:21:76:9d:a3:b0:a0:72:ea:1d:
                    bf:f9:65:bd:9e:37:98:2e:9a:1a:5f:93:f4:ce:ab:
                    10:86:ef:bd:fe:8e:f9:c0:af:7c:12:79:fd:33:64:
                    9b:fb:54:dc:2a:16:15:03:45:92:ce:64:3a:76:85:
                    d2:13:2b:ab:40:d8:18:3c:30:11:d4:89:a8:c5:80:
                    92:00:48:e7:58:1b:0d:21:77:f3:68:29:b5:6a:13:
                    5a:0c:0b:0b:23:2c:9f:d2:b1
                Exponent: 65537 (0x10001)
    Signature Algorithm: md5WithRSAEncryption
        2b:33:15:f2:22:79:ff:e8:fd:59:aa:2a:02:a2:29:c1:ad:30:
        55:ac:db:90:b5:a0:43:3a:56:84:75:91:f5:61:4b:c6:ab:0b:
        86:95:d5:15:a0:c5:4a:96:2d:5a:e8:21:fd:44:c8:87:fa:8f:
        1e:a0:46:13:12:c2:36:b9:f8:fe:42:50:6c:6d:e7:7e:53:17:
        a6:05:e1:50:9d:73:6e:05:bc:20:6a:22:9f:9c:51:55:c1:b7:
        64:9b:cc:20:2d:fe:a7:04:9a:c6:a6:9d:6a:5c:c3:67:bb:99:
        7f:bf:ee:dc:9f:cc:3a:61:b9:b5:6d:8d:a8:8d:c4:1a:2b:5b:
        4f:d2
-----BEGIN CERTIFICATE-----
MIICvDCCAiUCCQCbJ9fo0boJbDANBgkqhkiG9w0BAQQFADCBlTELMAkGA1UEBhMC
REUxETAPBgNVBAgTCFNhYXJsYW5kMRAwDgYDVQQKEwdNUEktU1dTMSIwIAYDVQQL
ExlEaXN0cmlidXRlZCBTeXN0ZW1zIEdyb3VwMRowGAYDVQQDExFBbmRyZWFzIEhh
ZWJlcmxlbjEhMB8GCSqGSIb3DQEJARYSZGVtb2NhQG9jdGFyaW5lLmRlMB4XDTE1
MDQyMDIwNDcxNFoXDTE2MDQxOTIwNDcxNFowga4xCzAJBgNVBAYTAkRFMREwDwYD
VQQIEwhTYWFybGFuZDEQMA4GA1UEChMHTVBJLVNXUzEiMCAGA1UECxMZRGlzdHJp
YnV0ZWQgU3lzdGVtcyBHcm91cDExMC8GA1UEAxMoN2U4NjlmMGUxODg2ODhhYWYx
MDdmYjJmZGRlMzVjNGRiYzM0YzQzZDEjMCEGCSqGSIb3DQEJARYUbm9kZTA0MDRA
b2N0YXJpbmUuZGUwgZ8wDQYJKoZIhvcNAQEBBQADgY0AMIGJAoGBAKnju4XIXht7
4yBvkTcSl08WF7Vi7l3owX9c40ExllSR0jnnIXado7Cgcuodv/llvZ43mC6aGl+T
9M6rEIbvvf6O+cCvfBJ5/TNkm/tU3CoWFQNFks5kOnaF0hMrq0DYGDwwEdSJqMWA
kgBI51gbDSF382gptWoTWgwLCyMsn9KxAgMBAAEwDQYJKoZIhvcNAQEEBQADgYEA
KzMV8iJ5/+j9WaoqAqIpwa0wVazbkLWgQzpWhHWR9WFLxqsLhpXVFaDFSpYtWugh
/UTIh/qPHqBGExLCNrn4/kJQbG3nflMXpgXhUJ1zbgW8IGoin5xRVcG3ZJvMIC3+
pwSaxqadalzDZ7uZf7/u3J/MOmG5tW2NqI3EGitbT9I=
-----END CERTIFICATE-----
