Certificate:
    Data:
        Version: 1 (0x0)
        Serial Number:
            9b:27:d7:e8:d1:ba:0a:1d
        Signature Algorithm: md5WithRSAEncryption
        Issuer: C=DE, ST=Saarland, O=MPI-SWS, OU=Distributed Systems Group, CN=Andreas Haeberlen/emailAddress=democa@octarine.de
        Validity
            Not Before: Apr 20 20:47:22 2015 GMT
            Not After : Apr 19 20:47:22 2016 GMT
        Subject: C=DE, ST=Saarland, O=MPI-SWS, OU=Distributed Systems Group, CN=a7e7277291093fe1bb998d31dc8e5c604477ce95/emailAddress=node0581@octarine.de
        Subject Public Key Info:
            Public Key Algorithm: rsaEncryption
            RSA Public Key: (1024 bit)
                Modulus (1024 bit):
                    00:dd:30:af:ea:ee:32:4a:85:65:cb:8a:c2:c7:55:
                    aa:ab:85:c4:d4:d7:1b:b5:31:9b:86:ae:f3:70:fc:
                    2d:1d:3f:f2:be:b4:36:20:c2:f8:04:f6:35:f5:64:
                    f7:cd:2c:60:ed:61:89:7e:f2:96:01:57:cf:32:f7:
                    5b:78:f7:d5:04:b0:36:73:30:35:44:77:bf:25:63:
                    53:dc:5b:87:f0:0f:58:b2:9d:fd:b9:e4:4a:1b:a5:
                    b1:59:72:d0:16:3e:0c:e2:d2:83:7f:de:2c:8e:55:
                    55:8b:fc:23:af:98:73:19:cc:ee:b0:de:92:27:8e:
                    4a:32:24:fd:d6:00:eb:b6:57
                Exponent: 65537 (0x10001)
    Signature Algorithm: md5WithRSAEncryption
        11:7c:b5:d2:db:e6:9e:01:e1:4f:d0:2c:97:df:a5:60:98:fa:
        b6:68:cd:06:6d:17:6b:7c:d1:27:69:b8:64:14:e2:88:3f:8e:
        25:b8:6a:a2:3c:fa:b5:77:82:bc:1e:38:56:4e:6c:d7:59:7c:
        be:07:2b:c2:59:93:f3:92:49:5b:92:9e:02:3e:ae:73:74:ff:
        b7:8e:7e:33:2f:fe:41:1c:a2:9e:f7:c6:99:a6:a8:52:52:14:
        c3:70:d3:08:fe:c4:cc:3a:a6:4f:dd:b2:dd:93:0c:c3:41:1b:
        70:4e:62:90:70:a4:96:67:d6:f1:ae:3b:5a:ad:49:b7:ad:fa:
        7d:08
-----BEGIN CERTIFICATE-----
MIICvDCCAiUCCQCbJ9fo0boKHTANBgkqhkiG9w0BAQQFADCBlTELMAkGA1UEBhMC
REUxETAPBgNVBAgTCFNhYXJsYW5kMRAwDgYDVQQKEwdNUEktU1dTMSIwIAYDVQQL
ExlEaXN0cmlidXRlZCBTeXN0ZW1zIEdyb3VwMRowGAYDVQQDExFBbmRyZWFzIEhh
ZWJlcmxlbjEhMB8GCSqGSIb3DQEJARYSZGVtb2NhQG9jdGFyaW5lLmRlMB4XDTE1
MDQyMDIwNDcyMloXDTE2MDQxOTIwNDcyMlowga4xCzAJBgNVBAYTAkRFMREwDwYD
VQQIEwhTYWFybGFuZDEQMA4GA1UEChMHTVBJLVNXUzEiMCAGA1UECxMZRGlzdHJp
YnV0ZWQgU3lzdGVtcyBHcm91cDExMC8GA1UEAxMoYTdlNzI3NzI5MTA5M2ZlMWJi
OTk4ZDMxZGM4ZTVjNjA0NDc3Y2U5NTEjMCEGCSqGSIb3DQEJARYUbm9kZTA1ODFA
b2N0YXJpbmUuZGUwgZ8wDQYJKoZIhvcNAQEBBQADgY0AMIGJAoGBAN0wr+ruMkqF
ZcuKwsdVqquFxNTXG7Uxm4au83D8LR0/8r60NiDC+AT2NfVk980sYO1hiX7ylgFX
zzL3W3j31QSwNnMwNUR3vyVjU9xbh/APWLKd/bnkShulsVly0BY+DOLSg3/eLI5V
VYv8I6+YcxnM7rDekieOSjIk/dYA67ZXAgMBAAEwDQYJKoZIhvcNAQEEBQADgYEA
EXy10tvmngHhT9Asl9+lYJj6tmjNBm0Xa3zRJ2m4ZBTiiD+OJbhqojz6tXeCvB44
Vk5s11l8vgcrwlmT85JJW5KeAj6uc3T/t45+My/+QRyinvfGmaaoUlIUw3DTCP7E
zDqmT92y3ZMMw0EbcE5ikHCklmfW8a47Wq1Jt636fQg=
-----END CERTIFICATE-----
