Certificate:
    Data:
        Version: 1 (0x0)
        Serial Number:
            9b:27:d7:e8:d1:ba:0a:68
        Signature Algorithm: md5WithRSAEncryption
        Issuer: C=DE, ST=Saarland, O=MPI-SWS, OU=Distributed Systems Group, CN=Andreas Haeberlen/emailAddress=democa@octarine.de
        Validity
            Not Before: Apr 20 20:47:26 2015 GMT
            Not After : Apr 19 20:47:26 2016 GMT
        Subject: C=DE, ST=Saarland, O=MPI-SWS, OU=Distributed Systems Group, CN=120dfd918fed9d75fb9bb80a65a01cc2ed0ea9f2/emailAddress=node0656@octarine.de
        Subject Public Key Info:
            Public Key Algorithm: rsaEncryption
            RSA Public Key: (1024 bit)
                Modulus (1024 bit):
                    00:b1:33:41:ff:e4:47:3a:87:70:2f:e2:b0:d2:9a:
                    9d:12:ce:4c:f9:2f:ea:b4:40:1e:dc:ab:08:46:5b:
                    2d:ab:7b:a2:13:90:61:4e:11:94:7a:f4:e4:bd:d0:
                    a6:02:aa:30:94:28:f0:ed:d3:7c:3f:e8:ee:5c:a1:
                    67:27:9a:a9:42:0a:43:fd:7f:38:a7:18:83:3d:d5:
                    f5:21:f6:a8:e9:d6:85:25:ca:74:bb:78:c0:95:18:
                    8f:12:07:a9:70:ba:bb:cb:b9:45:30:a5:4d:bc:35:
                    9a:61:33:bd:68:c0:de:fb:73:60:fd:aa:67:25:46:
                    b5:df:ee:8d:96:15:6b:e2:53
                Exponent: 65537 (0x10001)
    Signature Algorithm: md5WithRSAEncryption
        cb:be:e3:d8:91:86:1c:58:9f:41:37:50:4f:5e:0a:5c:75:78:
        ec:52:98:81:e8:41:cb:49:c3:82:01:86:6c:fc:de:81:aa:45:
        f0:75:c6:f4:fd:d7:85:34:aa:3c:16:3e:ac:ce:4f:b4:c1:fc:
        7d:0d:87:51:3a:ae:91:79:d7:ea:87:3d:10:95:bd:21:0a:ab:
        35:2e:37:30:5d:03:bb:53:9b:47:e9:51:63:04:0c:5e:cf:05:
        f2:16:ab:01:f0:0e:71:f3:6a:6e:ee:82:61:b3:b3:d5:c0:1c:
        29:1a:1d:23:ec:54:22:23:fc:c0:7a:ac:0e:6a:5e:91:9c:f3:
        65:e2
-----BEGIN CERTIFICATE-----
MIICvDCCAiUCCQCbJ9fo0boKaDANBgkqhkiG9w0BAQQFADCBlTELMAkGA1UEBhMC
REUxETAPBgNVBAgTCFNhYXJsYW5kMRAwDgYDVQQKEwdNUEktU1dTMSIwIAYDVQQL
ExlEaXN0cmlidXRlZCBTeXN0ZW1zIEdyb3VwMRowGAYDVQQDExFBbmRyZWFzIEhh
ZWJlcmxlbjEhMB8GCSqGSIb3DQEJARYSZGVtb2NhQG9jdGFyaW5lLmRlMB4XDTE1
MDQyMDIwNDcyNloXDTE2MDQxOTIwNDcyNlowga4xCzAJBgNVBAYTAkRFMREwDwYD
VQQIEwhTYWFybGFuZDEQMA4GA1UEChMHTVBJLVNXUzEiMCAGA1UECxMZRGlzdHJp
YnV0ZWQgU3lzdGVtcyBHcm91cDExMC8GA1UEAxMoMTIwZGZkOTE4ZmVkOWQ3NWZi
OWJiODBhNjVhMDFjYzJlZDBlYTlmMjEjMCEGCSqGSIb3DQEJARYUbm9kZTA2NTZA
b2N0YXJpbmUuZGUwgZ8wDQYJKoZIhvcNAQEBBQADgY0AMIGJAoGBALEzQf/kRzqH
cC/isNKanRLOTPkv6rRAHtyrCEZbLat7ohOQYU4RlHr05L3QpgKqMJQo8O3TfD/o
7lyhZyeaqUIKQ/1/OKcYgz3V9SH2qOnWhSXKdLt4wJUYjxIHqXC6u8u5RTClTbw1
mmEzvWjA3vtzYP2qZyVGtd/ujZYVa+JTAgMBAAEwDQYJKoZIhvcNAQEEBQADgYEA
y77j2JGGHFifQTdQT14KXHV47FKYgehBy0nDggGGbPzegapF8HXG9P3XhTSqPBY+
rM5PtMH8fQ2HUTqukXnX6oc9EJW9IQqrNS43MF0Du1ObR+lRYwQMXs8F8harAfAO
cfNqbu6CYbOz1cAcKRodI+xUIiP8wHqsDmpekZzzZeI=
-----END CERTIFICATE-----
