Certificate:
    Data:
        Version: 1 (0x0)
        Serial Number:
            9b:27:d7:e8:d1:ba:09:7b
        Signature Algorithm: md5WithRSAEncryption
        Issuer: C=DE, ST=Saarland, O=MPI-SWS, OU=Distributed Systems Group, CN=Andreas Haeberlen/emailAddress=democa@octarine.de
        Validity
            Not Before: Apr 20 20:47:15 2015 GMT
            Not After : Apr 19 20:47:15 2016 GMT
        Subject: C=DE, ST=Saarland, O=MPI-SWS, OU=Distributed Systems Group, CN=7e546f398530a92e382e149de77af9c782be2f7a/emailAddress=node0419@octarine.de
        Subject Public Key Info:
            Public Key Algorithm: rsaEncryption
            RSA Public Key: (1024 bit)
                Modulus (1024 bit):
                    00:dc:c7:90:31:10:81:60:21:dc:37:b3:c3:d6:3f:
                    ae:1e:ef:a7:1a:a7:95:72:92:ed:7a:69:44:47:c5:
                    b5:76:12:ae:e3:73:ac:26:b3:0b:7c:8b:29:65:a3:
                    44:76:69:20:d9:fd:e3:e8:cb:9c:b3:0d:28:7d:cf:
                    f5:db:e5:5c:68:6f:24:58:a6:dc:4b:1a:6d:e6:ad:
                    c7:6e:dd:8b:9d:e4:e3:31:7a:15:09:a4:fe:40:d3:
                    41:3c:76:74:93:00:2c:43:fb:f6:d9:1e:bf:73:e0:
                    06:30:5c:a2:cc:eb:79:52:aa:dd:c5:47:69:16:de:
                    8e:53:99:d6:b4:2c:30:88:25
                Exponent: 65537 (0x10001)
    Signature Algorithm: md5WithRSAEncryption
        8c:09:69:1c:3c:4a:e6:f7:e9:ac:cb:f0:05:cc:53:d0:c0:b8:
        c0:c4:b6:20:ca:c0:ab:9f:60:b2:26:04:b8:c3:11:bb:b7:39:
        59:7a:9f:f6:e1:fc:1e:8e:9a:90:a2:8f:3f:e4:3f:b5:1a:d2:
        14:28:39:a5:6b:47:59:fc:01:0f:28:52:92:74:b7:d7:88:e0:
        27:34:0a:81:2b:10:82:f5:83:3f:82:b6:c9:f5:4d:f1:0e:80:
        56:c9:ef:65:9c:45:22:08:75:16:56:9f:53:ef:cd:7a:73:3c:
        b3:e7:c9:11:53:48:a8:9f:3a:b9:54:20:03:04:a7:c6:91:1b:
        08:b8
-----BEGIN CERTIFICATE-----
MIICvDCCAiUCCQCbJ9fo0boJezANBgkqhkiG9w0BAQQFADCBlTELMAkGA1UEBhMC
REUxETAPBgNVBAgTCFNhYXJsYW5kMRAwDgYDVQQKEwdNUEktU1dTMSIwIAYDVQQL
ExlEaXN0cmlidXRlZCBTeXN0ZW1zIEdyb3VwMRowGAYDVQQDExFBbmRyZWFzIEhh
ZWJlcmxlbjEhMB8GCSqGSIb3DQEJARYSZGVtb2NhQG9jdGFyaW5lLmRlMB4XDTE1
MDQyMDIwNDcxNVoXDTE2MDQxOTIwNDcxNVowga4xCzAJBgNVBAYTAkRFMREwDwYD
VQQIEwhTYWFybGFuZDEQMA4GA1UEChMHTVBJLVNXUzEiMCAGA1UECxMZRGlzdHJp
YnV0ZWQgU3lzdGVtcyBHcm91cDExMC8GA1UEAxMoN2U1NDZmMzk4NTMwYTkyZTM4
MmUxNDlkZTc3YWY5Yzc4MmJlMmY3YTEjMCEGCSqGSIb3DQEJARYUbm9kZTA0MTlA
b2N0YXJpbmUuZGUwgZ8wDQYJKoZIhvcNAQEBBQADgY0AMIGJAoGBANzHkDEQgWAh
3Dezw9Y/rh7vpxqnlXKS7XppREfFtXYSruNzrCazC3yLKWWjRHZpINn94+jLnLMN
KH3P9dvlXGhvJFim3Esabeatx27di53k4zF6FQmk/kDTQTx2dJMALEP79tkev3Pg
BjBcoszreVKq3cVHaRbejlOZ1rQsMIglAgMBAAEwDQYJKoZIhvcNAQEEBQADgYEA
jAlpHDxK5vfprMvwBcxT0MC4wMS2IMrAq59gsiYEuMMRu7c5WXqf9uH8Ho6akKKP
P+Q/tRrSFCg5pWtHWfwBDyhSknS314jgJzQKgSsQgvWDP4K2yfVN8Q6AVsnvZZxF
Igh1FlafU+/NenM8s+fJEVNIqJ86uVQgAwSnxpEbCLg=
-----END CERTIFICATE-----
