Certificate:
    Data:
        Version: 1 (0x0)
        Serial Number:
            9b:27:d7:e8:d1:ba:0b:39
        Signature Algorithm: md5WithRSAEncryption
        Issuer: C=DE, ST=Saarland, O=MPI-SWS, OU=Distributed Systems Group, CN=Andreas Haeberlen/emailAddress=democa@octarine.de
        Validity
            Not Before: Apr 20 20:47:35 2015 GMT
            Not After : Apr 19 20:47:35 2016 GMT
        Subject: C=DE, ST=Saarland, O=MPI-SWS, OU=Distributed Systems Group, CN=3506dc1f6809b32b2c9121995b4d924c85251448/emailAddress=node0865@octarine.de
        Subject Public Key Info:
            Public Key Algorithm: rsaEncryption
            RSA Public Key: (1024 bit)
                Modulus (1024 bit):
                    00:c2:cf:3d:ee:4b:e8:77:b9:41:5e:ab:14:84:06:
                    cb:51:f5:09:f7:2e:b8:c6:23:72:3b:5d:60:70:f6:
                    f7:a2:04:06:d0:73:a6:d5:ad:7d:dd:74:47:15:51:
                    ae:cf:12:bb:79:79:88:b3:73:d1:cc:8c:ac:e8:ec:
                    3a:a9:d8:8a:e8:fb:ce:a0:62:d6:4f:2a:c3:44:12:
                    3a:15:a2:0c:bc:36:52:e5:0d:c5:69:d3:ff:4b:db:
                    c5:e4:c9:1d:ed:46:da:2d:3c:a4:0a:39:29:f3:6d:
                    7b:24:0d:4e:b7:a1:40:4f:1e:20:40:bd:df:49:3d:
                    6d:21:fb:d5:ed:4b:a5:94:0b
                Exponent: 65537 (0x10001)
    Signature Algorithm: md5WithRSAEncryption
        67:5e:d3:a2:c0:54:3d:6a:3a:f7:a5:0b:22:68:7c:d6:ba:37:
        0b:82:0e:50:5a:fd:ec:06:07:30:07:07:cd:b9:95:1c:9d:3a:
        23:f2:81:df:bd:55:f1:e1:7d:09:b8:e6:76:87:f9:20:09:c0:
        e9:cc:86:e7:5a:40:b8:04:85:7e:01:4e:a7:37:57:a7:23:55:
        7b:ea:cd:ce:f9:46:5d:ee:4d:15:72:ad:b3:e5:8d:e9:a4:52:
        fd:9f:49:4e:39:ad:51:85:2c:d8:a5:99:e7:d9:44:4e:91:58:
        d4:7a:60:56:a8:b0:f2:e0:8f:54:1e:3b:d8:97:75:df:ca:b4:
        a2:85
-----BEGIN CERTIFICATE-----
MIICvDCCAiUCCQCbJ9fo0boLOTANBgkqhkiG9w0BAQQFADCBlTELMAkGA1UEBhMC
REUxETAPBgNVBAgTCFNhYXJsYW5kMRAwDgYDVQQKEwdNUEktU1dTMSIwIAYDVQQL
ExlEaXN0cmlidXRlZCBTeXN0ZW1zIEdyb3VwMRowGAYDVQQDExFBbmRyZWFzIEhh
ZWJlcmxlbjEhMB8GCSqGSIb3DQEJARYSZGVtb2NhQG9jdGFyaW5lLmRlMB4XDTE1
MDQyMDIwNDczNVoXDTE2MDQxOTIwNDczNVowga4xCzAJBgNVBAYTAkRFMREwDwYD
VQQIEwhTYWFybGFuZDEQMA4GA1UEChMHTVBJLVNXUzEiMCAGA1UECxMZRGlzdHJp
YnV0ZWQgU3lzdGVtcyBHcm91cDExMC8GA1UEAxMoMzUwNmRjMWY2ODA5YjMyYjJj
OTEyMTk5NWI0ZDkyNGM4NTI1MTQ0ODEjMCEGCSqGSIb3DQEJARYUbm9kZTA4NjVA
b2N0YXJpbmUuZGUwgZ8wDQYJKoZIhvcNAQEBBQADgY0AMIGJAoGBAMLPPe5L6He5
QV6rFIQGy1H1CfcuuMYjcjtdYHD296IEBtBzptWtfd10RxVRrs8Su3l5iLNz0cyM
rOjsOqnYiuj7zqBi1k8qw0QSOhWiDLw2UuUNxWnT/0vbxeTJHe1G2i08pAo5KfNt
eyQNTrehQE8eIEC930k9bSH71e1LpZQLAgMBAAEwDQYJKoZIhvcNAQEEBQADgYEA
Z17TosBUPWo696ULImh81ro3C4IOUFr97AYHMAcHzbmVHJ06I/KB371V8eF9Cbjm
dof5IAnA6cyG51pAuASFfgFOpzdXpyNVe+rNzvlGXe5NFXKts+WN6aRS/Z9JTjmt
UYUs2KWZ59lETpFY1HpgVqiw8uCPVB472Jd138q0ooU=
-----END CERTIFICATE-----
