Certificate:
    Data:
        Version: 1 (0x0)
        Serial Number:
            9b:27:d7:e8:d1:ba:09:05
        Signature Algorithm: md5WithRSAEncryption
        Issuer: C=DE, ST=Saarland, O=MPI-SWS, OU=Distributed Systems Group, CN=Andreas Haeberlen/emailAddress=democa@octarine.de
        Validity
            Not Before: Apr 20 20:47:10 2015 GMT
            Not After : Apr 19 20:47:10 2016 GMT
        Subject: C=DE, ST=Saarland, O=MPI-SWS, OU=Distributed Systems Group, CN=2208190ebbc809ab90893876fc868ffb2f339314/emailAddress=node0301@octarine.de
        Subject Public Key Info:
            Public Key Algorithm: rsaEncryption
            RSA Public Key: (1024 bit)
                Modulus (1024 bit):
                    00:cb:55:53:cf:af:79:b9:89:f6:2a:0d:2d:b7:c6:
                    b4:e5:06:14:1b:6f:da:2c:2b:84:73:e1:d5:bf:96:
                    9c:8f:7a:e4:74:7a:b9:6d:d2:fd:d3:0d:62:e1:57:
                    68:98:ee:1b:1d:1c:cc:7e:1b:f6:8c:46:fa:f9:ca:
                    fc:7d:e0:6d:3f:39:5c:1e:51:23:e5:9e:a8:8a:0a:
                    f7:3f:e1:4a:4b:cf:88:08:b9:58:00:ea:c7:5d:e9:
                    86:8d:2d:f3:5a:90:f2:1e:88:de:82:32:87:1a:96:
                    99:ab:8a:b6:17:72:93:01:c3:28:f4:ec:7d:68:3e:
                    c6:ae:cf:8a:0e:71:c1:d3:91
                Exponent: 65537 (0x10001)
    Signature Algorithm: md5WithRSAEncryption
        4d:e6:b0:a6:b7:0d:89:ad:8b:4a:8c:38:99:65:fc:54:d1:2b:
        4a:51:bb:b1:1b:f5:88:40:7c:9f:b4:bd:40:51:fa:b8:0b:56:
        18:cb:b0:49:5a:fd:e0:51:b8:77:f6:7b:58:3c:4b:f4:07:4e:
        c4:f9:0c:14:d3:9b:cf:2c:b7:b0:cc:83:24:e9:4b:70:56:47:
        b4:5e:8f:6f:20:8c:73:aa:67:e3:e6:6a:c4:00:74:28:d1:55:
        03:89:c3:ec:50:10:48:f8:46:14:6a:f5:4d:65:2e:2f:c5:c8:
        e5:47:70:2b:79:d6:a3:b5:61:34:45:5f:db:ed:8e:36:90:1c:
        dd:29
-----BEGIN CERTIFICATE-----
MIICvDCCAiUCCQCbJ9fo0boJBTANBgkqhkiG9w0BAQQFADCBlTELMAkGA1UEBhMC
REUxETAPBgNVBAgTCFNhYXJsYW5kMRAwDgYDVQQKEwdNUEktU1dTMSIwIAYDVQQL
ExlEaXN0cmlidXRlZCBTeXN0ZW1zIEdyb3VwMRowGAYDVQQDExFBbmRyZWFzIEhh
ZWJlcmxlbjEhMB8GCSqGSIb3DQEJARYSZGVtb2NhQG9jdGFyaW5lLmRlMB4XDTE1
MDQyMDIwNDcxMFoXDTE2MDQxOTIwNDcxMFowga4xCzAJBgNVBAYTAkRFMREwDwYD
VQQIEwhTYWFybGFuZDEQMA4GA1UEChMHTVBJLVNXUzEiMCAGA1UECxMZRGlzdHJp
YnV0ZWQgU3lzdGVtcyBHcm91cDExMC8GA1UEAxMoMjIwODE5MGViYmM4MDlhYjkw
ODkzODc2ZmM4NjhmZmIyZjMzOTMxNDEjMCEGCSqGSIb3DQEJARYUbm9kZTAzMDFA
b2N0YXJpbmUuZGUwgZ8wDQYJKoZIhvcNAQEBBQADgY0AMIGJAoGBAMtVU8+vebmJ
9ioNLbfGtOUGFBtv2iwrhHPh1b+WnI965HR6uW3S/dMNYuFXaJjuGx0czH4b9oxG
+vnK/H3gbT85XB5RI+WeqIoK9z/hSkvPiAi5WADqx13pho0t81qQ8h6I3oIyhxqW
mauKthdykwHDKPTsfWg+xq7Pig5xwdORAgMBAAEwDQYJKoZIhvcNAQEEBQADgYEA
TeawprcNia2LSow4mWX8VNErSlG7sRv1iEB8n7S9QFH6uAtWGMuwSVr94FG4d/Z7
WDxL9AdOxPkMFNObzyy3sMyDJOlLcFZHtF6PbyCMc6pn4+ZqxAB0KNFVA4nD7FAQ
SPhGFGr1TWUuL8XI5UdwK3nWo7VhNEVf2+2ONpAc3Sk=
-----END CERTIFICATE-----
