Certificate:
    Data:
        Version: 1 (0x0)
        Serial Number:
            9b:27:d7:e8:d1:ba:0b:7c
        Signature Algorithm: md5WithRSAEncryption
        Issuer: C=DE, ST=Saarland, O=MPI-SWS, OU=Distributed Systems Group, CN=Andreas Haeberlen/emailAddress=democa@octarine.de
        Validity
            Not Before: Apr 20 20:47:38 2015 GMT
            Not After : Apr 19 20:47:38 2016 GMT
        Subject: C=DE, ST=Saarland, O=MPI-SWS, OU=Distributed Systems Group, CN=ad680cdb328b3828190e5d788161d3f715012ed5/emailAddress=node0932@octarine.de
        Subject Public Key Info:
            Public Key Algorithm: rsaEncryption
            RSA Public Key: (1024 bit)
                Modulus (1024 bit):
                    00:f6:13:4c:ea:b8:2e:dc:bb:3d:50:a2:e4:26:27:
                    a8:e0:06:d2:22:de:6a:f0:7e:d7:1f:ea:80:ce:19:
                    07:c6:c7:10:2e:4e:5e:a5:2b:f4:ce:d4:88:71:5c:
                    81:97:5e:a3:b6:ba:5c:ce:df:88:60:ca:c8:a5:3a:
                    c8:89:a8:b5:3e:cd:1e:8f:a5:69:0b:de:f5:33:91:
                    c4:e6:f7:0b:a1:fc:15:1d:ae:d2:ae:60:77:96:c9:
                    d4:e4:ce:59:40:50:9e:14:0b:68:58:1a:a0:c8:13:
                    a3:83:7a:20:5d:54:ee:75:0b:e6:f9:fd:13:17:24:
                    d8:fc:3d:42:18:4d:28:10:af
                Exponent: 65537 (0x10001)
    Signature Algorithm: md5WithRSAEncryption
        c6:92:0b:64:83:f1:2b:1c:e2:62:71:22:60:27:52:a6:83:89:
        20:1d:35:a3:d2:e3:29:03:91:63:4f:a3:c5:ea:d4:a5:6f:da:
        88:ea:d1:8c:28:77:ad:56:a6:20:4d:a9:3e:40:ad:c7:66:93:
        f4:ab:f9:db:da:2d:69:5a:62:45:ea:9d:7e:00:ca:3c:4a:2f:
        b5:44:8c:4f:12:96:95:23:2a:21:17:36:24:99:61:22:86:9d:
        29:58:c6:1c:40:69:4b:1e:72:a3:2a:7c:a9:3f:b9:d4:23:57:
        eb:43:cb:bc:4f:98:fe:45:cb:62:76:d5:1a:13:49:76:2f:9a:
        3b:16
-----BEGIN CERTIFICATE-----
MIICvDCCAiUCCQCbJ9fo0boLfDANBgkqhkiG9w0BAQQFADCBlTELMAkGA1UEBhMC
REUxETAPBgNVBAgTCFNhYXJsYW5kMRAwDgYDVQQKEwdNUEktU1dTMSIwIAYDVQQL
ExlEaXN0cmlidXRlZCBTeXN0ZW1zIEdyb3VwMRowGAYDVQQDExFBbmRyZWFzIEhh
ZWJlcmxlbjEhMB8GCSqGSIb3DQEJARYSZGVtb2NhQG9jdGFyaW5lLmRlMB4XDTE1
MDQyMDIwNDczOFoXDTE2MDQxOTIwNDczOFowga4xCzAJBgNVBAYTAkRFMREwDwYD
VQQIEwhTYWFybGFuZDEQMA4GA1UEChMHTVBJLVNXUzEiMCAGA1UECxMZRGlzdHJp
YnV0ZWQgU3lzdGVtcyBHcm91cDExMC8GA1UEAxMoYWQ2ODBjZGIzMjhiMzgyODE5
MGU1ZDc4ODE2MWQzZjcxNTAxMmVkNTEjMCEGCSqGSIb3DQEJARYUbm9kZTA5MzJA
b2N0YXJpbmUuZGUwgZ8wDQYJKoZIhvcNAQEBBQADgY0AMIGJAoGBAPYTTOq4Lty7
PVCi5CYnqOAG0iLeavB+1x/qgM4ZB8bHEC5OXqUr9M7UiHFcgZdeo7a6XM7fiGDK
yKU6yImotT7NHo+laQve9TORxOb3C6H8FR2u0q5gd5bJ1OTOWUBQnhQLaFgaoMgT
o4N6IF1U7nUL5vn9Exck2Pw9QhhNKBCvAgMBAAEwDQYJKoZIhvcNAQEEBQADgYEA
xpILZIPxKxziYnEiYCdSpoOJIB01o9LjKQORY0+jxerUpW/aiOrRjCh3rVamIE2p
PkCtx2aT9Kv529otaVpiReqdfgDKPEovtUSMTxKWlSMqIRc2JJlhIoadKVjGHEBp
Sx5yoyp8qT+51CNX60PLvE+Y/kXLYnbVGhNJdi+aOxY=
-----END CERTIFICATE-----
