Certificate:
    Data:
        Version: 1 (0x0)
        Serial Number:
            9b:27:d7:e8:d1:ba:08:f9
        Signature Algorithm: md5WithRSAEncryption
        Issuer: C=DE, ST=Saarland, O=MPI-SWS, OU=Distributed Systems Group, CN=Andreas Haeberlen/emailAddress=democa@octarine.de
        Validity
            Not Before: Apr 20 20:47:09 2015 GMT
            Not After : Apr 19 20:47:09 2016 GMT
        Subject: C=DE, ST=Saarland, O=MPI-SWS, OU=Distributed Systems Group, CN=58b7ce78ec4e26d111c763b37f24ed6461c2f3ae/emailAddress=node0289@octarine.de
        Subject Public Key Info:
            Public Key Algorithm: rsaEncryption
            RSA Public Key: (1024 bit)
                Modulus (1024 bit):
                    00:a3:fd:83:07:88:d4:81:c2:32:ee:fd:a7:9d:ff:
                    a5:ff:b6:4d:16:58:18:6b:05:9e:af:f8:ee:ac:08:
                    9a:83:2b:6a:58:4e:85:31:9a:ec:46:62:b7:ae:7d:
                    4f:05:e2:31:a3:be:de:52:91:a2:bb:fe:9e:86:8c:
                    cd:18:bb:6f:61:a9:cb:77:16:36:01:44:c2:9b:97:
                    f1:fa:11:99:99:66:03:d4:1c:9a:88:65:32:d5:6d:
                    c7:7e:e4:39:e0:d4:c6:34:cf:ab:de:b4:cd:3d:83:
                    ec:77:c9:22:77:2b:83:19:c2:b3:9f:29:1e:66:2e:
                    06:86:ea:90:db:ef:1f:78:e9
                Exponent: 65537 (0x10001)
    Signature Algorithm: md5WithRSAEncryption
        4d:33:a7:8c:d8:7c:e4:05:17:d2:e6:76:93:8f:ec:57:01:79:
        7c:1a:f0:56:41:7c:89:2f:00:bb:a8:3f:4c:42:36:d9:18:d9:
        7c:31:ab:14:d6:ec:6b:f1:f6:29:08:54:db:18:2c:c4:98:66:
        cb:1b:ff:10:88:e2:ba:f9:6e:84:c4:da:60:f2:7c:99:85:e1:
        a2:1d:2b:28:5d:2e:c3:dd:a9:cd:a1:58:6e:1d:19:98:78:d0:
        2e:4c:42:32:73:a6:22:15:a4:98:07:b4:f7:66:ac:9b:7d:2d:
        12:7e:35:3d:e6:9c:47:01:f7:3e:ac:2f:55:1d:81:98:c0:f5:
        48:1a
-----BEGIN CERTIFICATE-----
MIICvDCCAiUCCQCbJ9fo0boI+TANBgkqhkiG9w0BAQQFADCBlTELMAkGA1UEBhMC
REUxETAPBgNVBAgTCFNhYXJsYW5kMRAwDgYDVQQKEwdNUEktU1dTMSIwIAYDVQQL
ExlEaXN0cmlidXRlZCBTeXN0ZW1zIEdyb3VwMRowGAYDVQQDExFBbmRyZWFzIEhh
ZWJlcmxlbjEhMB8GCSqGSIb3DQEJARYSZGVtb2NhQG9jdGFyaW5lLmRlMB4XDTE1
MDQyMDIwNDcwOVoXDTE2MDQxOTIwNDcwOVowga4xCzAJBgNVBAYTAkRFMREwDwYD
VQQIEwhTYWFybGFuZDEQMA4GA1UEChMHTVBJLVNXUzEiMCAGA1UECxMZRGlzdHJp
YnV0ZWQgU3lzdGVtcyBHcm91cDExMC8GA1UEAxMoNThiN2NlNzhlYzRlMjZkMTEx
Yzc2M2IzN2YyNGVkNjQ2MWMyZjNhZTEjMCEGCSqGSIb3DQEJARYUbm9kZTAyODlA
b2N0YXJpbmUuZGUwgZ8wDQYJKoZIhvcNAQEBBQADgY0AMIGJAoGBAKP9gweI1IHC
Mu79p53/pf+2TRZYGGsFnq/47qwImoMralhOhTGa7EZit659TwXiMaO+3lKRorv+
noaMzRi7b2Gpy3cWNgFEwpuX8foRmZlmA9QcmohlMtVtx37kOeDUxjTPq960zT2D
7HfJIncrgxnCs58pHmYuBobqkNvvH3jpAgMBAAEwDQYJKoZIhvcNAQEEBQADgYEA
TTOnjNh85AUX0uZ2k4/sVwF5fBrwVkF8iS8Au6g/TEI22RjZfDGrFNbsa/H2KQhU
2xgsxJhmyxv/EIjiuvluhMTaYPJ8mYXhoh0rKF0uw92pzaFYbh0ZmHjQLkxCMnOm
IhWkmAe092asm30tEn41PeacRwH3PqwvVR2BmMD1SBo=
-----END CERTIFICATE-----
