Certificate:
    Data:
        Version: 1 (0x0)
        Serial Number:
            9b:27:d7:e8:d1:ba:0b:21
        Signature Algorithm: md5WithRSAEncryption
        Issuer: C=DE, ST=Saarland, O=MPI-SWS, OU=Distributed Systems Group, CN=Andreas Haeberlen/emailAddress=democa@octarine.de
        Validity
            Not Before: Apr 20 20:47:34 2015 GMT
            Not After : Apr 19 20:47:34 2016 GMT
        Subject: C=DE, ST=Saarland, O=MPI-SWS, OU=Distributed Systems Group, CN=c55a8bbd11e84691bde650c4a65bee9b4f6da1ac/emailAddress=node0841@octarine.de
        Subject Public Key Info:
            Public Key Algorithm: rsaEncryption
            RSA Public Key: (1024 bit)
                Modulus (1024 bit):
                    00:ac:d3:06:ae:86:0b:34:f9:16:4f:b1:e5:11:2d:
                    17:2d:9e:9a:1b:47:21:1b:93:05:03:9c:f0:20:7e:
                    84:d1:62:1a:9c:c0:3e:ea:ad:a7:e3:3d:38:75:1e:
                    6c:46:82:20:ee:ab:33:6b:87:4f:87:04:1f:5b:86:
                    61:40:ef:18:ec:2a:a2:3a:50:d4:8f:b4:c6:16:44:
                    64:4f:48:64:db:93:62:82:3c:21:d9:93:2a:87:f5:
                    41:3e:af:bf:fe:fc:70:8b:2b:93:53:cf:b5:09:53:
                    e9:0f:ae:ba:7e:36:e2:7d:c0:73:73:5c:48:93:60:
                    3a:eb:05:b3:3f:d3:26:60:05
                Exponent: 65537 (0x10001)
    Signature Algorithm: md5WithRSAEncryption
        9f:0d:b3:30:d1:f9:e4:19:c6:e3:8b:6f:4c:f1:7a:14:67:43:
        a5:c0:f9:91:3b:64:88:00:da:4e:8f:e2:35:75:60:07:91:60:
        83:03:7d:47:99:0a:01:ef:6c:ac:8b:76:da:5e:77:d1:75:be:
        d8:9b:80:0a:d8:05:5a:f9:70:b4:9a:b1:6c:c4:3c:00:91:4a:
        8b:f1:f9:18:61:56:80:40:e6:d8:aa:62:8c:c3:28:c8:0f:61:
        a5:92:53:93:a8:fd:0e:94:45:67:6d:4f:5a:f0:a9:1d:0a:19:
        c3:df:ea:a0:c7:df:8a:7b:64:76:e0:83:2b:a4:f3:71:49:af:
        2e:eb
-----BEGIN CERTIFICATE-----
MIICvDCCAiUCCQCbJ9fo0boLITANBgkqhkiG9w0BAQQFADCBlTELMAkGA1UEBhMC
REUxETAPBgNVBAgTCFNhYXJsYW5kMRAwDgYDVQQKEwdNUEktU1dTMSIwIAYDVQQL
ExlEaXN0cmlidXRlZCBTeXN0ZW1zIEdyb3VwMRowGAYDVQQDExFBbmRyZWFzIEhh
ZWJlcmxlbjEhMB8GCSqGSIb3DQEJARYSZGVtb2NhQG9jdGFyaW5lLmRlMB4XDTE1
MDQyMDIwNDczNFoXDTE2MDQxOTIwNDczNFowga4xCzAJBgNVBAYTAkRFMREwDwYD
VQQIEwhTYWFybGFuZDEQMA4GA1UEChMHTVBJLVNXUzEiMCAGA1UECxMZRGlzdHJp
YnV0ZWQgU3lzdGVtcyBHcm91cDExMC8GA1UEAxMoYzU1YThiYmQxMWU4NDY5MWJk
ZTY1MGM0YTY1YmVlOWI0ZjZkYTFhYzEjMCEGCSqGSIb3DQEJARYUbm9kZTA4NDFA
b2N0YXJpbmUuZGUwgZ8wDQYJKoZIhvcNAQEBBQADgY0AMIGJAoGBAKzTBq6GCzT5
Fk+x5REtFy2emhtHIRuTBQOc8CB+hNFiGpzAPuqtp+M9OHUebEaCIO6rM2uHT4cE
H1uGYUDvGOwqojpQ1I+0xhZEZE9IZNuTYoI8IdmTKof1QT6vv/78cIsrk1PPtQlT
6Q+uun424n3Ac3NcSJNgOusFsz/TJmAFAgMBAAEwDQYJKoZIhvcNAQEEBQADgYEA
nw2zMNH55BnG44tvTPF6FGdDpcD5kTtkiADaTo/iNXVgB5FggwN9R5kKAe9srIt2
2l530XW+2JuACtgFWvlwtJqxbMQ8AJFKi/H5GGFWgEDm2KpijMMoyA9hpZJTk6j9
DpRFZ21PWvCpHQoZw9/qoMffintkduCDK6TzcUmvLus=
-----END CERTIFICATE-----
