Certificate:
    Data:
        Version: 1 (0x0)
        Serial Number:
            9b:27:d7:e8:d1:ba:08:0f
        Signature Algorithm: md5WithRSAEncryption
        Issuer: C=DE, ST=Saarland, O=MPI-SWS, OU=Distributed Systems Group, CN=Andreas Haeberlen/emailAddress=democa@octarine.de
        Validity
            Not Before: Apr 20 20:46:59 2015 GMT
            Not After : Apr 19 20:46:59 2016 GMT
        Subject: C=DE, ST=Saarland, O=MPI-SWS, OU=Distributed Systems Group, CN=068ef98d1901b2c8212f09e2ae241852ed0e79c9/emailAddress=node0055@octarine.de
        Subject Public Key Info:
            Public Key Algorithm: rsaEncryption
            RSA Public Key: (1024 bit)
                Modulus (1024 bit):
                    00:b0:38:97:7c:a4:14:ac:2c:75:e5:e0:6d:86:cb:
                    b7:96:8b:4e:9c:06:e1:34:9e:bb:6c:64:c6:62:06:
                    1d:2f:a4:e5:f5:e0:65:d3:24:d4:98:36:82:f3:aa:
                    e2:05:61:43:93:40:fe:6f:27:9c:71:fc:2a:af:a7:
                    cb:7a:f8:b6:c1:8f:89:b9:7d:78:5f:ed:d8:34:fd:
                    2a:ed:fd:1e:1e:c3:38:88:f5:27:f9:7d:43:71:40:
                    3f:a5:ee:d6:77:4b:44:e3:59:5e:ce:78:f0:24:47:
                    93:ac:4f:d8:e5:5f:f3:af:27:4f:39:3d:46:ff:6b:
                    b5:fc:c0:b1:95:da:c3:54:27
                Exponent: 65537 (0x10001)
    Signature Algorithm: md5WithRSAEncryption
        1e:73:f4:c7:bf:42:46:e3:e2:fb:c9:08:d7:73:9e:d8:f0:1d:
        77:46:4d:ab:e8:bb:d0:a3:35:c4:6d:5f:eb:8d:73:15:db:c9:
        b4:e4:3a:fc:cc:39:4d:5c:4f:2d:58:a8:cf:5b:58:1f:16:cc:
        a8:bf:a2:29:cb:d4:fa:07:79:c7:33:55:96:00:d8:26:ea:51:
        c0:6e:f5:18:55:dc:19:f5:99:f5:9e:5d:a7:ce:89:a6:d7:d2:
        f9:db:65:e3:61:d3:7a:50:70:b9:d8:9e:8d:9b:b9:89:17:e8:
        12:00:9c:e6:9b:ef:39:fe:52:a2:f8:1b:11:8d:b7:9f:7a:3a:
        98:c1
-----BEGIN CERTIFICATE-----
MIICvDCCAiUCCQCbJ9fo0boIDzANBgkqhkiG9w0BAQQFADCBlTELMAkGA1UEBhMC
REUxETAPBgNVBAgTCFNhYXJsYW5kMRAwDgYDVQQKEwdNUEktU1dTMSIwIAYDVQQL
ExlEaXN0cmlidXRlZCBTeXN0ZW1zIEdyb3VwMRowGAYDVQQDExFBbmRyZWFzIEhh
ZWJlcmxlbjEhMB8GCSqGSIb3DQEJARYSZGVtb2NhQG9jdGFyaW5lLmRlMB4XDTE1
MDQyMDIwNDY1OVoXDTE2MDQxOTIwNDY1OVowga4xCzAJBgNVBAYTAkRFMREwDwYD
VQQIEwhTYWFybGFuZDEQMA4GA1UEChMHTVBJLVNXUzEiMCAGA1UECxMZRGlzdHJp
YnV0ZWQgU3lzdGVtcyBHcm91cDExMC8GA1UEAxMoMDY4ZWY5OGQxOTAxYjJjODIx
MmYwOWUyYWUyNDE4NTJlZDBlNzljOTEjMCEGCSqGSIb3DQEJARYUbm9kZTAwNTVA
b2N0YXJpbmUuZGUwgZ8wDQYJKoZIhvcNAQEBBQADgY0AMIGJAoGBALA4l3ykFKws
deXgbYbLt5aLTpwG4TSeu2xkxmIGHS+k5fXgZdMk1Jg2gvOq4gVhQ5NA/m8nnHH8
Kq+ny3r4tsGPibl9eF/t2DT9Ku39Hh7DOIj1J/l9Q3FAP6Xu1ndLRONZXs548CRH
k6xP2OVf868nTzk9Rv9rtfzAsZXaw1QnAgMBAAEwDQYJKoZIhvcNAQEEBQADgYEA
HnP0x79CRuPi+8kI13Oe2PAdd0ZNq+i70KM1xG1f641zFdvJtOQ6/Mw5TVxPLVio
z1tYHxbMqL+iKcvU+gd5xzNVlgDYJupRwG71GFXcGfWZ9Z5dp86JptfS+dtl42HT
elBwudiejZu5iRfoEgCc5pvvOf5SovgbEY23n3o6mME=
-----END CERTIFICATE-----
