Certificate:
    Data:
        Version: 1 (0x0)
        Serial Number:
            9b:27:d7:e8:d1:ba:0b:25
        Signature Algorithm: md5WithRSAEncryption
        Issuer: C=DE, ST=Saarland, O=MPI-SWS, OU=Distributed Systems Group, CN=Andreas Haeberlen/emailAddress=democa@octarine.de
        Validity
            Not Before: Apr 20 20:47:34 2015 GMT
            Not After : Apr 19 20:47:34 2016 GMT
        Subject: C=DE, ST=Saarland, O=MPI-SWS, OU=Distributed Systems Group, CN=7b4bd8212f1aeead2afc547b39a4d3b5ef0c82ea/emailAddress=node0845@octarine.de
        Subject Public Key Info:
            Public Key Algorithm: rsaEncryption
            RSA Public Key: (1024 bit)
                Modulus (1024 bit):
                    00:9e:a6:70:84:0b:d2:1f:96:cc:72:31:4d:39:33:
                    ba:91:0f:54:14:37:15:d9:48:7b:31:88:06:47:6e:
                    20:e8:89:d4:a5:da:f0:59:14:9a:a4:f9:c0:6c:ba:
                    96:8f:07:1a:4a:02:f3:2d:ea:b6:1b:af:32:16:25:
                    22:37:37:3b:c4:42:f4:fe:fc:c7:95:db:03:30:a4:
                    60:a4:f6:35:de:58:df:88:13:b2:ff:45:dc:a7:d7:
                    34:ac:41:34:6a:8e:ad:0f:61:d1:33:66:56:cd:3b:
                    df:9b:af:ee:52:94:e3:d1:6b:f6:9c:d0:b9:51:08:
                    0f:12:6d:eb:1b:58:02:f1:ad
                Exponent: 65537 (0x10001)
    Signature Algorithm: md5WithRSAEncryption
        35:ef:16:43:c5:db:be:0e:5a:31:e5:04:d7:8d:ff:5a:59:b6:
        72:d7:57:86:de:49:97:c9:c0:e3:2e:d3:e7:5e:f5:29:7f:9a:
        43:71:f9:65:bd:52:44:4a:89:11:be:a5:27:b5:49:e6:98:a5:
        3e:97:08:7b:34:0d:e2:5a:79:d5:d9:b2:cc:c9:ec:a3:ea:2e:
        1d:10:9e:af:83:b5:8a:1a:48:1c:80:5d:6d:8e:c7:48:e4:5b:
        2d:ae:16:8d:96:67:e1:51:03:e2:af:77:3d:3d:44:7f:4c:8b:
        aa:07:ce:c8:d7:5f:53:82:95:cf:2e:bb:5b:d1:11:07:5c:42:
        05:b6
-----BEGIN CERTIFICATE-----
MIICvDCCAiUCCQCbJ9fo0boLJTANBgkqhkiG9w0BAQQFADCBlTELMAkGA1UEBhMC
REUxETAPBgNVBAgTCFNhYXJsYW5kMRAwDgYDVQQKEwdNUEktU1dTMSIwIAYDVQQL
ExlEaXN0cmlidXRlZCBTeXN0ZW1zIEdyb3VwMRowGAYDVQQDExFBbmRyZWFzIEhh
ZWJlcmxlbjEhMB8GCSqGSIb3DQEJARYSZGVtb2NhQG9jdGFyaW5lLmRlMB4XDTE1
MDQyMDIwNDczNFoXDTE2MDQxOTIwNDczNFowga4xCzAJBgNVBAYTAkRFMREwDwYD
VQQIEwhTYWFybGFuZDEQMA4GA1UEChMHTVBJLVNXUzEiMCAGA1UECxMZRGlzdHJp
YnV0ZWQgU3lzdGVtcyBHcm91cDExMC8GA1UEAxMoN2I0YmQ4MjEyZjFhZWVhZDJh
ZmM1NDdiMzlhNGQzYjVlZjBjODJlYTEjMCEGCSqGSIb3DQEJARYUbm9kZTA4NDVA
b2N0YXJpbmUuZGUwgZ8wDQYJKoZIhvcNAQEBBQADgY0AMIGJAoGBAJ6mcIQL0h+W
zHIxTTkzupEPVBQ3FdlIezGIBkduIOiJ1KXa8FkUmqT5wGy6lo8HGkoC8y3qthuv
MhYlIjc3O8RC9P78x5XbAzCkYKT2Nd5Y34gTsv9F3KfXNKxBNGqOrQ9h0TNmVs07
35uv7lKU49Fr9pzQuVEIDxJt6xtYAvGtAgMBAAEwDQYJKoZIhvcNAQEEBQADgYEA
Ne8WQ8Xbvg5aMeUE143/Wlm2ctdXht5Jl8nA4y7T5171KX+aQ3H5Zb1SREqJEb6l
J7VJ5pilPpcIezQN4lp51dmyzMnso+ouHRCer4O1ihpIHIBdbY7HSORbLa4WjZZn
4VED4q93PT1Ef0yLqgfOyNdfU4KVzy67W9ERB1xCBbY=
-----END CERTIFICATE-----
