Certificate:
    Data:
        Version: 1 (0x0)
        Serial Number:
            9b:27:d7:e8:d1:ba:08:02
        Signature Algorithm: md5WithRSAEncryption
        Issuer: C=DE, ST=Saarland, O=MPI-SWS, OU=Distributed Systems Group, CN=Andreas Haeberlen/emailAddress=democa@octarine.de
        Validity
            Not Before: Apr 20 20:46:58 2015 GMT
            Not After : Apr 19 20:46:58 2016 GMT
        Subject: C=DE, ST=Saarland, O=MPI-SWS, OU=Distributed Systems Group, CN=e77663fffd87bc13acc06e19455001ee955f94f8/emailAddress=node0042@octarine.de
        Subject Public Key Info:
            Public Key Algorithm: rsaEncryption
            RSA Public Key: (1024 bit)
                Modulus (1024 bit):
                    00:a3:43:dd:2b:e5:48:c3:30:37:2e:39:95:4c:fb:
                    fe:ac:b1:63:31:76:a7:f6:ee:6d:94:d8:f7:e1:dd:
                    cd:3e:0b:42:2a:af:0e:c2:38:aa:4f:37:8e:54:9c:
                    a3:9b:ff:e8:05:bf:de:51:42:a7:5c:3b:4d:05:5a:
                    b4:fb:12:eb:a9:6e:6b:1b:0e:28:e4:bc:d8:a3:a6:
                    f0:cd:07:b2:4a:c1:b8:bd:27:ec:29:8d:0a:dc:98:
                    12:ff:ef:c4:b2:6f:49:77:2c:2f:7d:1b:ab:3d:43:
                    dd:7f:e4:44:c5:0b:e0:21:e4:94:91:bf:40:dc:0d:
                    79:6a:06:c9:e3:5a:47:1a:c7
                Exponent: 65537 (0x10001)
    Signature Algorithm: md5WithRSAEncryption
        39:e3:95:5b:0c:d6:da:bb:a2:84:ee:4a:89:6c:86:52:fa:b8:
        c2:1b:30:d7:33:ce:d6:47:3b:83:41:6d:a0:1a:32:93:6b:fe:
        69:66:50:af:4f:56:92:fa:da:15:06:57:99:d8:f5:ee:5b:6d:
        5b:26:bc:8b:53:de:04:8c:a4:ad:19:f6:a0:b1:6d:fb:6a:ca:
        fa:19:98:11:f6:02:85:d5:db:57:56:d9:92:0d:cc:66:b6:e8:
        b8:23:69:e5:3a:de:23:8c:e5:11:48:2c:76:c9:22:37:c3:2c:
        b8:49:29:1c:8a:6a:7d:7c:24:59:61:41:c5:c2:cc:79:08:27:
        a9:6b
-----BEGIN CERTIFICATE-----
MIICvDCCAiUCCQCbJ9fo0boIAjANBgkqhkiG9w0BAQQFADCBlTELMAkGA1UEBhMC
REUxETAPBgNVBAgTCFNhYXJsYW5kMRAwDgYDVQQKEwdNUEktU1dTMSIwIAYDVQQL
ExlEaXN0cmlidXRlZCBTeXN0ZW1zIEdyb3VwMRowGAYDVQQDExFBbmRyZWFzIEhh
ZWJlcmxlbjEhMB8GCSqGSIb3DQEJARYSZGVtb2NhQG9jdGFyaW5lLmRlMB4XDTE1
MDQyMDIwNDY1OFoXDTE2MDQxOTIwNDY1OFowga4xCzAJBgNVBAYTAkRFMREwDwYD
VQQIEwhTYWFybGFuZDEQMA4GA1UEChMHTVBJLVNXUzEiMCAGA1UECxMZRGlzdHJp
YnV0ZWQgU3lzdGVtcyBHcm91cDExMC8GA1UEAxMoZTc3NjYzZmZmZDg3YmMxM2Fj
YzA2ZTE5NDU1MDAxZWU5NTVmOTRmODEjMCEGCSqGSIb3DQEJARYUbm9kZTAwNDJA
b2N0YXJpbmUuZGUwgZ8wDQYJKoZIhvcNAQEBBQADgY0AMIGJAoGBAKND3SvlSMMw
Ny45lUz7/qyxYzF2p/bubZTY9+HdzT4LQiqvDsI4qk83jlSco5v/6AW/3lFCp1w7
TQVatPsS66luaxsOKOS82KOm8M0HskrBuL0n7CmNCtyYEv/vxLJvSXcsL30bqz1D
3X/kRMUL4CHklJG/QNwNeWoGyeNaRxrHAgMBAAEwDQYJKoZIhvcNAQEEBQADgYEA
OeOVWwzW2ruihO5KiWyGUvq4whsw1zPO1kc7g0FtoBoyk2v+aWZQr09WkvraFQZX
mdj17lttWya8i1PeBIykrRn2oLFt+2rK+hmYEfYChdXbV1bZkg3MZrbouCNp5Tre
I4zlEUgsdskiN8MsuEkpHIpqfXwkWWFBxcLMeQgnqWs=
-----END CERTIFICATE-----
